	.arch armv5te
	.eabi_attribute 27, 3
	.fpu vfp
	.eabi_attribute 20, 1
	.eabi_attribute 21, 1
	.eabi_attribute 23, 3
	.eabi_attribute 24, 1
	.eabi_attribute 25, 1
	.eabi_attribute 26, 2
	.eabi_attribute 30, 6
	.eabi_attribute 18, 2
	.file	"b2BlockAllocator.cpp"
	.text
.Ltext0:
	.cfi_sections	.debug_frame
	.hidden	_ZN16b2BlockAllocator12s_blockSizesE
	.global	_ZN16b2BlockAllocator12s_blockSizesE
	.data
	.align	2
	.type	_ZN16b2BlockAllocator12s_blockSizesE, %object
	.size	_ZN16b2BlockAllocator12s_blockSizesE, 56
_ZN16b2BlockAllocator12s_blockSizesE:
	.word	16
	.word	32
	.word	64
	.word	96
	.word	128
	.word	160
	.word	192
	.word	224
	.word	256
	.word	320
	.word	384
	.word	448
	.word	512
	.word	640
	.hidden	_ZN16b2BlockAllocator17s_blockSizeLookupE
	.global	_ZN16b2BlockAllocator17s_blockSizeLookupE
	.bss
	.align	2
	.type	_ZN16b2BlockAllocator17s_blockSizeLookupE, %object
	.size	_ZN16b2BlockAllocator17s_blockSizeLookupE, 641
_ZN16b2BlockAllocator17s_blockSizeLookupE:
	.space	641
	.hidden	_ZN16b2BlockAllocator28s_blockSizeLookupInitializedE
	.global	_ZN16b2BlockAllocator28s_blockSizeLookupInitializedE
	.type	_ZN16b2BlockAllocator28s_blockSizeLookupInitializedE, %object
	.size	_ZN16b2BlockAllocator28s_blockSizeLookupInitializedE, 1
_ZN16b2BlockAllocator28s_blockSizeLookupInitializedE:
	.space	1
	.section	.rodata
	.align	2
.LC0:
	.ascii	"v:/gigglingbits/box2d/Box2D/Common/b2BlockAllocator"
	.ascii	".cpp\000"
	.align	2
.LC1:
	.ascii	"j < b2_blockSizes\000"
	.section	.text._ZN16b2BlockAllocatorC2Ev,"ax",%progbits
	.align	2
	.global	_ZN16b2BlockAllocatorC2Ev
	.hidden	_ZN16b2BlockAllocatorC2Ev
	.type	_ZN16b2BlockAllocatorC2Ev, %function
_ZN16b2BlockAllocatorC2Ev:
.LFB1:
	.file 1 "v:/gigglingbits/box2d/Box2D/Common/b2BlockAllocator.cpp"
	.loc 1 55 0
	.cfi_startproc
	@ args = 0, pretend = 0, frame = 16
	@ frame_needed = 0, uses_anonymous_args = 0
	str	lr, [sp, #-4]!
.LCFI0:
	.cfi_def_cfa_offset 4
	sub	sp, sp, #20
.LCFI1:
	.cfi_def_cfa_offset 24
	str	r0, [sp, #4]
	.loc 1 59 0
	ldr	r3, [sp, #4]
	mov	r2, #128
	str	r2, [r3, #8]
	.loc 1 60 0
	ldr	r3, [sp, #4]
	mov	r2, #0
	str	r2, [r3, #4]
	.loc 1 61 0
	ldr	r3, [sp, #4]
	ldr	r3, [r3, #8]
	mov	r3, r3, asl #3
	mov	r0, r3
	.cfi_offset 14, -4
	bl	_Z7b2Alloci
	mov	r3, r0
	mov	r2, r3
	ldr	r3, [sp, #4]
	str	r2, [r3, #0]
	.loc 1 63 0
	ldr	r3, [sp, #4]
	ldr	r2, [r3, #0]
	ldr	r3, [sp, #4]
	ldr	r3, [r3, #8]
	mov	r3, r3, asl #3
	mov	r0, r2
	mov	r1, #0
	mov	r2, r3
	bl	memset
	.loc 1 64 0
	ldr	r3, [sp, #4]
	add	r3, r3, #12
	mov	r0, r3
	mov	r1, #0
	mov	r2, #56
	bl	memset
	.loc 1 66 0
	ldr	r3, .L9
	ldrb	r3, [r3, #0]	@ zero_extendqisi2
	eor	r3, r3, #1
	and	r3, r3, #255
	cmp	r3, #0
	beq	.L2
.LBB2:
	.loc 1 68 0
	mov	r3, #0
	str	r3, [sp, #8]
.LBB3:
	.loc 1 69 0
	mov	r3, #1
	str	r3, [sp, #12]
	b	.L3
.L7:
	.loc 1 71 0
	ldr	r3, [sp, #8]
	cmp	r3, #13
	ble	.L4
	ldr	r0, .L9+4
	mov	r1, #71
	ldr	r2, .L9+8
	bl	__assert
.L4:
	.loc 1 72 0
	ldr	r2, [sp, #8]
	ldr	r3, .L9+12
	ldr	r2, [r3, r2, asl #2]
	ldr	r3, [sp, #12]
	cmp	r2, r3
	blt	.L5
	.loc 1 74 0
	ldr	r3, [sp, #12]
	ldr	r2, [sp, #8]
	and	r1, r2, #255
	ldr	r2, .L9+16
	strb	r1, [r2, r3]
	b	.L6
.L5:
	.loc 1 78 0
	ldr	r3, [sp, #8]
	add	r3, r3, #1
	str	r3, [sp, #8]
	.loc 1 79 0
	ldr	r3, [sp, #12]
	ldr	r2, [sp, #8]
	and	r1, r2, #255
	ldr	r2, .L9+16
	strb	r1, [r2, r3]
.L6:
	.loc 1 69 0
	ldr	r3, [sp, #12]
	add	r3, r3, #1
	str	r3, [sp, #12]
.L3:
	ldr	r3, [sp, #12]
	cmp	r3, #640
	movgt	r3, #0
	movle	r3, #1
	and	r3, r3, #255
	cmp	r3, #0
	bne	.L7
.LBE3:
	.loc 1 83 0
	ldr	r3, .L9
	mov	r2, #1
	strb	r2, [r3, #0]
.L2:
.LBE2:
	.loc 1 85 0
	ldr	r3, [sp, #4]
	mov	r0, r3
	add	sp, sp, #20
	ldmfd	sp!, {pc}
.L10:
	.align	2
.L9:
	.word	_ZN16b2BlockAllocator28s_blockSizeLookupInitializedE
	.word	.LC0
	.word	.LC1
	.word	_ZN16b2BlockAllocator12s_blockSizesE
	.word	_ZN16b2BlockAllocator17s_blockSizeLookupE
	.cfi_endproc
.LFE1:
	.size	_ZN16b2BlockAllocatorC2Ev, .-_ZN16b2BlockAllocatorC2Ev
	.section	.text._ZN16b2BlockAllocatorC1Ev,"ax",%progbits
	.align	2
	.global	_ZN16b2BlockAllocatorC1Ev
	.hidden	_ZN16b2BlockAllocatorC1Ev
	.type	_ZN16b2BlockAllocatorC1Ev, %function
_ZN16b2BlockAllocatorC1Ev:
.LFB2:
	.loc 1 55 0
	.cfi_startproc
	@ args = 0, pretend = 0, frame = 16
	@ frame_needed = 0, uses_anonymous_args = 0
	str	lr, [sp, #-4]!
.LCFI2:
	.cfi_def_cfa_offset 4
	sub	sp, sp, #20
.LCFI3:
	.cfi_def_cfa_offset 24
	str	r0, [sp, #4]
	.loc 1 59 0
	ldr	r3, [sp, #4]
	mov	r2, #128
	str	r2, [r3, #8]
	.loc 1 60 0
	ldr	r3, [sp, #4]
	mov	r2, #0
	str	r2, [r3, #4]
	.loc 1 61 0
	ldr	r3, [sp, #4]
	ldr	r3, [r3, #8]
	mov	r3, r3, asl #3
	mov	r0, r3
	.cfi_offset 14, -4
	bl	_Z7b2Alloci
	mov	r3, r0
	mov	r2, r3
	ldr	r3, [sp, #4]
	str	r2, [r3, #0]
	.loc 1 63 0
	ldr	r3, [sp, #4]
	ldr	r2, [r3, #0]
	ldr	r3, [sp, #4]
	ldr	r3, [r3, #8]
	mov	r3, r3, asl #3
	mov	r0, r2
	mov	r1, #0
	mov	r2, r3
	bl	memset
	.loc 1 64 0
	ldr	r3, [sp, #4]
	add	r3, r3, #12
	mov	r0, r3
	mov	r1, #0
	mov	r2, #56
	bl	memset
	.loc 1 66 0
	ldr	r3, .L19
	ldrb	r3, [r3, #0]	@ zero_extendqisi2
	eor	r3, r3, #1
	and	r3, r3, #255
	cmp	r3, #0
	beq	.L12
.LBB4:
	.loc 1 68 0
	mov	r3, #0
	str	r3, [sp, #8]
.LBB5:
	.loc 1 69 0
	mov	r3, #1
	str	r3, [sp, #12]
	b	.L13
.L17:
	.loc 1 71 0
	ldr	r3, [sp, #8]
	cmp	r3, #13
	ble	.L14
	ldr	r0, .L19+4
	mov	r1, #71
	ldr	r2, .L19+8
	bl	__assert
.L14:
	.loc 1 72 0
	ldr	r2, [sp, #8]
	ldr	r3, .L19+12
	ldr	r2, [r3, r2, asl #2]
	ldr	r3, [sp, #12]
	cmp	r2, r3
	blt	.L15
	.loc 1 74 0
	ldr	r3, [sp, #12]
	ldr	r2, [sp, #8]
	and	r1, r2, #255
	ldr	r2, .L19+16
	strb	r1, [r2, r3]
	b	.L16
.L15:
	.loc 1 78 0
	ldr	r3, [sp, #8]
	add	r3, r3, #1
	str	r3, [sp, #8]
	.loc 1 79 0
	ldr	r3, [sp, #12]
	ldr	r2, [sp, #8]
	and	r1, r2, #255
	ldr	r2, .L19+16
	strb	r1, [r2, r3]
.L16:
	.loc 1 69 0
	ldr	r3, [sp, #12]
	add	r3, r3, #1
	str	r3, [sp, #12]
.L13:
	ldr	r3, [sp, #12]
	cmp	r3, #640
	movgt	r3, #0
	movle	r3, #1
	and	r3, r3, #255
	cmp	r3, #0
	bne	.L17
.LBE5:
	.loc 1 83 0
	ldr	r3, .L19
	mov	r2, #1
	strb	r2, [r3, #0]
.L12:
.LBE4:
	.loc 1 85 0
	ldr	r3, [sp, #4]
	mov	r0, r3
	add	sp, sp, #20
	ldmfd	sp!, {pc}
.L20:
	.align	2
.L19:
	.word	_ZN16b2BlockAllocator28s_blockSizeLookupInitializedE
	.word	.LC0
	.word	.LC1
	.word	_ZN16b2BlockAllocator12s_blockSizesE
	.word	_ZN16b2BlockAllocator17s_blockSizeLookupE
	.cfi_endproc
.LFE2:
	.size	_ZN16b2BlockAllocatorC1Ev, .-_ZN16b2BlockAllocatorC1Ev
	.section	.text._ZN16b2BlockAllocatorD2Ev,"ax",%progbits
	.align	2
	.global	_ZN16b2BlockAllocatorD2Ev
	.hidden	_ZN16b2BlockAllocatorD2Ev
	.type	_ZN16b2BlockAllocatorD2Ev, %function
_ZN16b2BlockAllocatorD2Ev:
.LFB4:
	.loc 1 87 0
	.cfi_startproc
	@ args = 0, pretend = 0, frame = 16
	@ frame_needed = 0, uses_anonymous_args = 0
	str	lr, [sp, #-4]!
.LCFI4:
	.cfi_def_cfa_offset 4
	sub	sp, sp, #20
.LCFI5:
	.cfi_def_cfa_offset 24
	str	r0, [sp, #4]
.LBB6:
	.loc 1 89 0
	mov	r3, #0
	str	r3, [sp, #12]
	b	.L22
	.cfi_offset 14, -4
.L23:
	.loc 1 91 0
	ldr	r3, [sp, #4]
	ldr	r2, [r3, #0]
	ldr	r3, [sp, #12]
	mov	r3, r3, asl #3
	add	r3, r2, r3
	ldr	r3, [r3, #4]
	mov	r0, r3
	bl	_Z6b2FreePv
	.loc 1 89 0
	ldr	r3, [sp, #12]
	add	r3, r3, #1
	str	r3, [sp, #12]
.L22:
	ldr	r3, [sp, #4]
	ldr	r2, [r3, #4]
	ldr	r3, [sp, #12]
	cmp	r2, r3
	movle	r3, #0
	movgt	r3, #1
	and	r3, r3, #255
	cmp	r3, #0
	bne	.L23
.LBE6:
	.loc 1 94 0
	ldr	r3, [sp, #4]
	ldr	r3, [r3, #0]
	mov	r0, r3
	bl	_Z6b2FreePv
	.loc 1 95 0
	ldr	r3, [sp, #4]
	mov	r0, r3
	add	sp, sp, #20
	ldmfd	sp!, {pc}
	.cfi_endproc
.LFE4:
	.size	_ZN16b2BlockAllocatorD2Ev, .-_ZN16b2BlockAllocatorD2Ev
	.section	.text._ZN16b2BlockAllocatorD1Ev,"ax",%progbits
	.align	2
	.global	_ZN16b2BlockAllocatorD1Ev
	.hidden	_ZN16b2BlockAllocatorD1Ev
	.type	_ZN16b2BlockAllocatorD1Ev, %function
_ZN16b2BlockAllocatorD1Ev:
.LFB5:
	.loc 1 87 0
	.cfi_startproc
	@ args = 0, pretend = 0, frame = 16
	@ frame_needed = 0, uses_anonymous_args = 0
	str	lr, [sp, #-4]!
.LCFI6:
	.cfi_def_cfa_offset 4
	sub	sp, sp, #20
.LCFI7:
	.cfi_def_cfa_offset 24
	str	r0, [sp, #4]
.LBB7:
	.loc 1 89 0
	mov	r3, #0
	str	r3, [sp, #12]
	b	.L27
	.cfi_offset 14, -4
.L28:
	.loc 1 91 0
	ldr	r3, [sp, #4]
	ldr	r2, [r3, #0]
	ldr	r3, [sp, #12]
	mov	r3, r3, asl #3
	add	r3, r2, r3
	ldr	r3, [r3, #4]
	mov	r0, r3
	bl	_Z6b2FreePv
	.loc 1 89 0
	ldr	r3, [sp, #12]
	add	r3, r3, #1
	str	r3, [sp, #12]
.L27:
	ldr	r3, [sp, #4]
	ldr	r2, [r3, #4]
	ldr	r3, [sp, #12]
	cmp	r2, r3
	movle	r3, #0
	movgt	r3, #1
	and	r3, r3, #255
	cmp	r3, #0
	bne	.L28
.LBE7:
	.loc 1 94 0
	ldr	r3, [sp, #4]
	ldr	r3, [r3, #0]
	mov	r0, r3
	bl	_Z6b2FreePv
	.loc 1 95 0
	ldr	r3, [sp, #4]
	mov	r0, r3
	add	sp, sp, #20
	ldmfd	sp!, {pc}
	.cfi_endproc
.LFE5:
	.size	_ZN16b2BlockAllocatorD1Ev, .-_ZN16b2BlockAllocatorD1Ev
	.section	.rodata
	.align	2
.LC2:
	.ascii	"0 < size\000"
	.align	2
.LC3:
	.ascii	"0 <= index && index < b2_blockSizes\000"
	.global	__aeabi_idiv
	.align	2
.LC4:
	.ascii	"blockCount * blockSize <= b2_chunkSize\000"
	.section	.text._ZN16b2BlockAllocator8AllocateEi,"ax",%progbits
	.align	2
	.global	_ZN16b2BlockAllocator8AllocateEi
	.hidden	_ZN16b2BlockAllocator8AllocateEi
	.type	_ZN16b2BlockAllocator8AllocateEi, %function
_ZN16b2BlockAllocator8AllocateEi:
.LFB6:
	.loc 1 98 0
	.cfi_startproc
	@ args = 0, pretend = 0, frame = 48
	@ frame_needed = 0, uses_anonymous_args = 0
	str	lr, [sp, #-4]!
.LCFI8:
	.cfi_def_cfa_offset 4
	sub	sp, sp, #52
.LCFI9:
	.cfi_def_cfa_offset 56
	str	r0, [sp, #4]
	str	r1, [sp, #0]
.LBB8:
	.loc 1 99 0
	ldr	r3, [sp, #0]
	cmp	r3, #0
	bne	.L32
	.cfi_offset 14, -4
	.loc 1 100 0
	mov	r3, #0
	b	.L33
.L32:
	.loc 1 102 0
	ldr	r3, [sp, #0]
	cmp	r3, #0
	bgt	.L34
	ldr	r0, .L44
	mov	r1, #102
	ldr	r2, .L44+4
	bl	__assert
.L34:
	.loc 1 104 0
	ldr	r3, [sp, #0]
	cmp	r3, #640
	ble	.L35
	.loc 1 106 0
	ldr	r0, [sp, #0]
	bl	_Z7b2Alloci
	mov	r3, r0
	b	.L33
.L35:
	.loc 1 109 0
	ldr	r3, [sp, #0]
	ldr	r2, .L44+8
	ldrb	r3, [r2, r3]	@ zero_extendqisi2
	str	r3, [sp, #8]
	.loc 1 110 0
	ldr	r3, [sp, #8]
	cmp	r3, #0
	blt	.L36
	ldr	r3, [sp, #8]
	cmp	r3, #13
	ble	.L37
.L36:
	ldr	r0, .L44
	mov	r1, #110
	ldr	r2, .L44+12
	bl	__assert
.L37:
	.loc 1 112 0
	ldr	r3, [sp, #8]
	ldr	r2, [sp, #4]
	add	r1, r3, #2
	mov	r3, #4
	mov	r1, r1, asl #2
	add	r2, r1, r2
	add	r3, r2, r3
	ldr	r3, [r3, #0]
	cmp	r3, #0
	beq	.L38
.LBB9:
	.loc 1 114 0
	ldr	r3, [sp, #8]
	ldr	r2, [sp, #4]
	add	r1, r3, #2
	mov	r3, #4
	mov	r1, r1, asl #2
	add	r2, r1, r2
	add	r3, r2, r3
	ldr	r3, [r3, #0]
	str	r3, [sp, #12]
	.loc 1 115 0
	ldr	r3, [sp, #8]
	ldr	r2, [sp, #12]
	ldr	r2, [r2, #0]
	ldr	r1, [sp, #4]
	add	r0, r3, #2
	mov	r3, #4
	mov	r0, r0, asl #2
	add	r1, r0, r1
	add	r3, r1, r3
	str	r2, [r3, #0]
	.loc 1 116 0
	ldr	r3, [sp, #12]
	b	.L33
.L38:
.LBE9:
.LBB10:
	.loc 1 120 0
	ldr	r3, [sp, #4]
	ldr	r2, [r3, #4]
	ldr	r3, [sp, #4]
	ldr	r3, [r3, #8]
	cmp	r2, r3
	bne	.L39
.LBB11:
	.loc 1 122 0
	ldr	r3, [sp, #4]
	ldr	r3, [r3, #0]
	str	r3, [sp, #32]
	.loc 1 123 0
	ldr	r3, [sp, #4]
	ldr	r3, [r3, #8]
	add	r2, r3, #128
	ldr	r3, [sp, #4]
	str	r2, [r3, #8]
	.loc 1 124 0
	ldr	r3, [sp, #4]
	ldr	r3, [r3, #8]
	mov	r3, r3, asl #3
	mov	r0, r3
	bl	_Z7b2Alloci
	mov	r3, r0
	mov	r2, r3
	ldr	r3, [sp, #4]
	str	r2, [r3, #0]
	.loc 1 125 0
	ldr	r3, [sp, #4]
	ldr	r2, [r3, #0]
	ldr	r3, [sp, #4]
	ldr	r3, [r3, #4]
	mov	r3, r3, asl #3
	mov	r0, r2
	ldr	r1, [sp, #32]
	mov	r2, r3
	bl	memcpy
	.loc 1 126 0
	ldr	r3, [sp, #4]
	ldr	r2, [r3, #0]
	ldr	r3, [sp, #4]
	ldr	r3, [r3, #4]
	mov	r3, r3, asl #3
	add	r3, r2, r3
	mov	r0, r3
	mov	r1, #0
	mov	r2, #1024
	bl	memset
	.loc 1 127 0
	ldr	r0, [sp, #32]
	bl	_Z6b2FreePv
.L39:
.LBE11:
	.loc 1 130 0
	ldr	r3, [sp, #4]
	ldr	r2, [r3, #0]
	ldr	r3, [sp, #4]
	ldr	r3, [r3, #4]
	mov	r3, r3, asl #3
	add	r3, r2, r3
	str	r3, [sp, #16]
	.loc 1 131 0
	mov	r0, #16384
	bl	_Z7b2Alloci
	mov	r3, r0
	mov	r2, r3
	ldr	r3, [sp, #16]
	str	r2, [r3, #4]
	.loc 1 135 0
	ldr	r2, [sp, #8]
	ldr	r3, .L44+16
	ldr	r3, [r3, r2, asl #2]
	str	r3, [sp, #20]
	.loc 1 136 0
	ldr	r3, [sp, #16]
	ldr	r2, [sp, #20]
	str	r2, [r3, #0]
	.loc 1 137 0
	mov	r0, #16384
	ldr	r1, [sp, #20]
	bl	__aeabi_idiv
	mov	r3, r0
	str	r3, [sp, #24]
	.loc 1 138 0
	ldr	r3, [sp, #24]
	ldr	r2, [sp, #20]
	mul	r3, r2, r3
	cmp	r3, #16384
	ble	.L40
	ldr	r0, .L44
	mov	r1, #138
	ldr	r2, .L44+20
	bl	__assert
.L40:
.LBB12:
	.loc 1 139 0
	mov	r3, #0
	str	r3, [sp, #36]
	b	.L41
.L42:
.LBB13:
	.loc 1 141 0
	ldr	r3, [sp, #16]
	ldr	r2, [r3, #4]
	ldr	r3, [sp, #20]
	ldr	r1, [sp, #36]
	mul	r3, r1, r3
	add	r3, r2, r3
	str	r3, [sp, #40]
	.loc 1 142 0
	ldr	r3, [sp, #16]
	ldr	r2, [r3, #4]
	ldr	r3, [sp, #36]
	add	r3, r3, #1
	ldr	r1, [sp, #20]
	mul	r3, r1, r3
	add	r3, r2, r3
	str	r3, [sp, #44]
	.loc 1 143 0
	ldr	r3, [sp, #40]
	ldr	r2, [sp, #44]
	str	r2, [r3, #0]
.LBE13:
	.loc 1 139 0
	ldr	r3, [sp, #36]
	add	r3, r3, #1
	str	r3, [sp, #36]
.L41:
	ldr	r3, [sp, #24]
	sub	r2, r3, #1
	ldr	r3, [sp, #36]
	cmp	r2, r3
	movle	r3, #0
	movgt	r3, #1
	and	r3, r3, #255
	cmp	r3, #0
	bne	.L42
.LBE12:
	.loc 1 145 0
	ldr	r3, [sp, #16]
	ldr	r2, [r3, #4]
	ldr	r3, [sp, #24]
	sub	r3, r3, #1
	ldr	r1, [sp, #20]
	mul	r3, r1, r3
	add	r3, r2, r3
	str	r3, [sp, #28]
	.loc 1 146 0
	ldr	r3, [sp, #28]
	mov	r2, #0
	str	r2, [r3, #0]
	.loc 1 148 0
	ldr	r3, [sp, #8]
	ldr	r2, [sp, #16]
	ldr	r2, [r2, #4]
	ldr	r2, [r2, #0]
	ldr	r1, [sp, #4]
	add	r0, r3, #2
	mov	r3, #4
	mov	r0, r0, asl #2
	add	r1, r0, r1
	add	r3, r1, r3
	str	r2, [r3, #0]
	.loc 1 149 0
	ldr	r3, [sp, #4]
	ldr	r3, [r3, #4]
	add	r2, r3, #1
	ldr	r3, [sp, #4]
	str	r2, [r3, #4]
	.loc 1 151 0
	ldr	r3, [sp, #16]
	ldr	r3, [r3, #4]
.L33:
.LBE10:
.LBE8:
	.loc 1 153 0
	mov	r0, r3
	add	sp, sp, #52
	ldmfd	sp!, {pc}
.L45:
	.align	2
.L44:
	.word	.LC0
	.word	.LC2
	.word	_ZN16b2BlockAllocator17s_blockSizeLookupE
	.word	.LC3
	.word	_ZN16b2BlockAllocator12s_blockSizesE
	.word	.LC4
	.cfi_endproc
.LFE6:
	.size	_ZN16b2BlockAllocator8AllocateEi, .-_ZN16b2BlockAllocator8AllocateEi
	.section	.text._ZN16b2BlockAllocator4FreeEPvi,"ax",%progbits
	.align	2
	.global	_ZN16b2BlockAllocator4FreeEPvi
	.hidden	_ZN16b2BlockAllocator4FreeEPvi
	.type	_ZN16b2BlockAllocator4FreeEPvi, %function
_ZN16b2BlockAllocator4FreeEPvi:
.LFB7:
	.loc 1 156 0
	.cfi_startproc
	@ args = 0, pretend = 0, frame = 24
	@ frame_needed = 0, uses_anonymous_args = 0
	str	lr, [sp, #-4]!
.LCFI10:
	.cfi_def_cfa_offset 4
	sub	sp, sp, #28
.LCFI11:
	.cfi_def_cfa_offset 32
	str	r0, [sp, #12]
	str	r1, [sp, #8]
	str	r2, [sp, #4]
.LBB14:
	.loc 1 157 0
	ldr	r3, [sp, #4]
	cmp	r3, #0
	beq	.L54
	.cfi_offset 14, -4
.L47:
	.loc 1 162 0
	ldr	r3, [sp, #4]
	cmp	r3, #0
	bgt	.L49
	ldr	r0, .L55
	mov	r1, #162
	ldr	r2, .L55+4
	bl	__assert
.L49:
	.loc 1 164 0
	ldr	r3, [sp, #4]
	cmp	r3, #640
	ble	.L50
	.loc 1 166 0
	ldr	r0, [sp, #8]
	bl	_Z6b2FreePv
	.loc 1 167 0
	b	.L53
.L50:
	.loc 1 170 0
	ldr	r3, [sp, #4]
	ldr	r2, .L55+8
	ldrb	r3, [r2, r3]	@ zero_extendqisi2
	str	r3, [sp, #16]
	.loc 1 171 0
	ldr	r3, [sp, #16]
	cmp	r3, #0
	blt	.L51
	ldr	r3, [sp, #16]
	cmp	r3, #13
	ble	.L52
.L51:
	ldr	r0, .L55
	mov	r1, #171
	ldr	r2, .L55+12
	bl	__assert
.L52:
	.loc 1 199 0
	ldr	r3, [sp, #8]
	str	r3, [sp, #20]
	.loc 1 200 0
	ldr	r3, [sp, #16]
	ldr	r2, [sp, #12]
	add	r1, r3, #2
	mov	r3, #4
	mov	r1, r1, asl #2
	add	r2, r1, r2
	add	r3, r2, r3
	ldr	r2, [r3, #0]
	ldr	r3, [sp, #20]
	str	r2, [r3, #0]
	.loc 1 201 0
	ldr	r3, [sp, #16]
	ldr	r2, [sp, #12]
	add	r1, r3, #2
	mov	r3, #4
	mov	r1, r1, asl #2
	add	r2, r1, r2
	add	r3, r2, r3
	ldr	r2, [sp, #20]
	str	r2, [r3, #0]
	b	.L53
.L54:
	.loc 1 159 0
	mov	r0, r0	@ nop
.L53:
.LBE14:
	.loc 1 202 0
	add	sp, sp, #28
	ldmfd	sp!, {pc}
.L56:
	.align	2
.L55:
	.word	.LC0
	.word	.LC2
	.word	_ZN16b2BlockAllocator17s_blockSizeLookupE
	.word	.LC3
	.cfi_endproc
.LFE7:
	.size	_ZN16b2BlockAllocator4FreeEPvi, .-_ZN16b2BlockAllocator4FreeEPvi
	.section	.text._ZN16b2BlockAllocator5ClearEv,"ax",%progbits
	.align	2
	.global	_ZN16b2BlockAllocator5ClearEv
	.hidden	_ZN16b2BlockAllocator5ClearEv
	.type	_ZN16b2BlockAllocator5ClearEv, %function
_ZN16b2BlockAllocator5ClearEv:
.LFB8:
	.loc 1 205 0
	.cfi_startproc
	@ args = 0, pretend = 0, frame = 16
	@ frame_needed = 0, uses_anonymous_args = 0
	str	lr, [sp, #-4]!
.LCFI12:
	.cfi_def_cfa_offset 4
	sub	sp, sp, #20
.LCFI13:
	.cfi_def_cfa_offset 24
	str	r0, [sp, #4]
.LBB15:
.LBB16:
	.loc 1 206 0
	mov	r3, #0
	str	r3, [sp, #12]
	b	.L58
	.cfi_offset 14, -4
.L59:
	.loc 1 208 0
	ldr	r3, [sp, #4]
	ldr	r2, [r3, #0]
	ldr	r3, [sp, #12]
	mov	r3, r3, asl #3
	add	r3, r2, r3
	ldr	r3, [r3, #4]
	mov	r0, r3
	bl	_Z6b2FreePv
	.loc 1 206 0
	ldr	r3, [sp, #12]
	add	r3, r3, #1
	str	r3, [sp, #12]
.L58:
	ldr	r3, [sp, #4]
	ldr	r2, [r3, #4]
	ldr	r3, [sp, #12]
	cmp	r2, r3
	movle	r3, #0
	movgt	r3, #1
	and	r3, r3, #255
	cmp	r3, #0
	bne	.L59
.LBE16:
	.loc 1 211 0
	ldr	r3, [sp, #4]
	mov	r2, #0
	str	r2, [r3, #4]
	.loc 1 212 0
	ldr	r3, [sp, #4]
	ldr	r2, [r3, #0]
	ldr	r3, [sp, #4]
	ldr	r3, [r3, #8]
	mov	r3, r3, asl #3
	mov	r0, r2
	mov	r1, #0
	mov	r2, r3
	bl	memset
	.loc 1 214 0
	ldr	r3, [sp, #4]
	add	r3, r3, #12
	mov	r0, r3
	mov	r1, #0
	mov	r2, #56
	bl	memset
.LBE15:
	.loc 1 215 0
	add	sp, sp, #20
	ldmfd	sp!, {pc}
	.cfi_endproc
.LFE8:
	.size	_ZN16b2BlockAllocator5ClearEv, .-_ZN16b2BlockAllocator5ClearEv
	.section	.rodata
	.align	2
	.type	_ZL12b2_chunkSize, %object
	.size	_ZL12b2_chunkSize, 4
_ZL12b2_chunkSize:
	.word	16384
	.align	2
	.type	_ZL15b2_maxBlockSize, %object
	.size	_ZL15b2_maxBlockSize, 4
_ZL15b2_maxBlockSize:
	.word	640
	.align	2
	.type	_ZL13b2_blockSizes, %object
	.size	_ZL13b2_blockSizes, 4
_ZL13b2_blockSizes:
	.word	14
	.align	2
	.type	_ZL22b2_chunkArrayIncrement, %object
	.size	_ZL22b2_chunkArrayIncrement, 4
_ZL22b2_chunkArrayIncrement:
	.word	128
	.text
.Letext0: