	.arch armv5te
	.eabi_attribute 27, 3
	.fpu vfp
	.eabi_attribute 20, 1
	.eabi_attribute 21, 1
	.eabi_attribute 23, 3
	.eabi_attribute 24, 1
	.eabi_attribute 25, 1
	.eabi_attribute 26, 2
	.eabi_attribute 30, 6
	.eabi_attribute 18, 2
	.file	"b2ChainAndPolygonContact.cpp"
	.text
.Ltext0:
	.cfi_sections	.debug_frame
	.section	.text._ZN6b2Vec2C1Ev,"axG",%progbits,_ZN6b2Vec2C1Ev,comdat
	.align	2
	.weak	_ZN6b2Vec2C1Ev
	.hidden	_ZN6b2Vec2C1Ev
	.type	_ZN6b2Vec2C1Ev, %function
_ZN6b2Vec2C1Ev:
.LFB4:
	.file 1 "v:/gigglingbits/box2d/Box2D/Common/b2Math.h"
	.loc 1 56 0
	.cfi_startproc
	@ args = 0, pretend = 0, frame = 8
	@ frame_needed = 0, uses_anonymous_args = 0
	@ link register save eliminated.
	sub	sp, sp, #8
.LCFI0:
	.cfi_def_cfa_offset 8
	str	r0, [sp, #4]
	.loc 1 56 0
	ldr	r3, [sp, #4]
	mov	r0, r3
	add	sp, sp, #8
	bx	lr
	.cfi_endproc
.LFE4:
	.size	_ZN6b2Vec2C1Ev, .-_ZN6b2Vec2C1Ev
	.section	.text._ZN7b2ShapeD2Ev,"axG",%progbits,_ZN7b2ShapeD2Ev,comdat
	.align	2
	.weak	_ZN7b2ShapeD2Ev
	.hidden	_ZN7b2ShapeD2Ev
	.type	_ZN7b2ShapeD2Ev, %function
_ZN7b2ShapeD2Ev:
.LFB127:
	.file 2 "v:/gigglingbits/box2d/Box2D/Collision/Shapes/b2Shape.h"
	.loc 2 55 0
	.cfi_startproc
	@ args = 0, pretend = 0, frame = 8
	@ frame_needed = 0, uses_anonymous_args = 0
	str	lr, [sp, #-4]!
.LCFI1:
	.cfi_def_cfa_offset 4
	sub	sp, sp, #12
.LCFI2:
	.cfi_def_cfa_offset 16
	str	r0, [sp, #4]
	.loc 2 55 0
	ldr	r3, [sp, #4]
	ldr	r2, .L8
	str	r2, [r3, #0]
	mov	r3, #0
	and	r3, r3, #255
	cmp	r3, #0
	beq	.L6
	.cfi_offset 14, -4
	ldr	r0, [sp, #4]
	bl	_ZdlPv
.L6:
	ldr	r3, [sp, #4]
	mov	r0, r3
	add	sp, sp, #12
	ldmfd	sp!, {pc}
.L9:
	.align	2
.L8:
	.word	_ZTV7b2Shape+8
	.cfi_endproc
.LFE127:
	.size	_ZN7b2ShapeD2Ev, .-_ZN7b2ShapeD2Ev
	.section	.text._ZN7b2ShapeD1Ev,"axG",%progbits,_ZN7b2ShapeD1Ev,comdat
	.align	2
	.weak	_ZN7b2ShapeD1Ev
	.hidden	_ZN7b2ShapeD1Ev
	.type	_ZN7b2ShapeD1Ev, %function
_ZN7b2ShapeD1Ev:
.LFB128:
	.loc 2 55 0
	.cfi_startproc
	@ args = 0, pretend = 0, frame = 8
	@ frame_needed = 0, uses_anonymous_args = 0
	str	lr, [sp, #-4]!
.LCFI3:
	.cfi_def_cfa_offset 4
	sub	sp, sp, #12
.LCFI4:
	.cfi_def_cfa_offset 16
	str	r0, [sp, #4]
	.loc 2 55 0
	ldr	r3, [sp, #4]
	ldr	r2, .L14
	str	r2, [r3, #0]
	mov	r3, #0
	and	r3, r3, #255
	cmp	r3, #0
	beq	.L12
	.cfi_offset 14, -4
	ldr	r0, [sp, #4]
	bl	_ZdlPv
.L12:
	ldr	r3, [sp, #4]
	mov	r0, r3
	add	sp, sp, #12
	ldmfd	sp!, {pc}
.L15:
	.align	2
.L14:
	.word	_ZTV7b2Shape+8
	.cfi_endproc
.LFE128:
	.size	_ZN7b2ShapeD1Ev, .-_ZN7b2ShapeD1Ev
	.section	.text._ZN7b2ShapeD0Ev,"axG",%progbits,_ZN7b2ShapeD0Ev,comdat
	.align	2
	.weak	_ZN7b2ShapeD0Ev
	.hidden	_ZN7b2ShapeD0Ev
	.type	_ZN7b2ShapeD0Ev, %function
_ZN7b2ShapeD0Ev:
.LFB129:
	.loc 2 55 0
	.cfi_startproc
	@ args = 0, pretend = 0, frame = 8
	@ frame_needed = 0, uses_anonymous_args = 0
	str	lr, [sp, #-4]!
.LCFI5:
	.cfi_def_cfa_offset 4
	sub	sp, sp, #12
.LCFI6:
	.cfi_def_cfa_offset 16
	str	r0, [sp, #4]
	.loc 2 55 0
	ldr	r3, [sp, #4]
	ldr	r2, .L20
	str	r2, [r3, #0]
	mov	r3, #1
	and	r3, r3, #255
	cmp	r3, #0
	beq	.L18
	.cfi_offset 14, -4
	ldr	r0, [sp, #4]
	bl	_ZdlPv
.L18:
	ldr	r3, [sp, #4]
	mov	r0, r3
	add	sp, sp, #12
	ldmfd	sp!, {pc}
.L21:
	.align	2
.L20:
	.word	_ZTV7b2Shape+8
	.cfi_endproc
.LFE129:
	.size	_ZN7b2ShapeD0Ev, .-_ZN7b2ShapeD0Ev
	.section	.text._ZNK7b2Shape7GetTypeEv,"axG",%progbits,_ZNK7b2Shape7GetTypeEv,comdat
	.align	2
	.weak	_ZNK7b2Shape7GetTypeEv
	.hidden	_ZNK7b2Shape7GetTypeEv
	.type	_ZNK7b2Shape7GetTypeEv, %function
_ZNK7b2Shape7GetTypeEv:
.LFB130:
	.loc 2 97 0
	.cfi_startproc
	@ args = 0, pretend = 0, frame = 8
	@ frame_needed = 0, uses_anonymous_args = 0
	@ link register save eliminated.
	sub	sp, sp, #8
.LCFI7:
	.cfi_def_cfa_offset 8
	str	r0, [sp, #4]
	.loc 2 98 0
	ldr	r3, [sp, #4]
	ldr	r3, [r3, #4]
	.loc 2 99 0
	mov	r0, r3
	add	sp, sp, #8
	bx	lr
	.cfi_endproc
.LFE130:
	.size	_ZNK7b2Shape7GetTypeEv, .-_ZNK7b2Shape7GetTypeEv
	.section	.text._ZnwjPv,"axG",%progbits,_ZnwjPv,comdat
	.align	2
	.weak	_ZnwjPv
	.hidden	_ZnwjPv
	.type	_ZnwjPv, %function
_ZnwjPv:
.LFB151:
	.file 3 "c:/marmalade/6.3/s3e/h/std/c++/new.h"
	.loc 3 52 0
	.cfi_startproc
	@ args = 0, pretend = 0, frame = 8
	@ frame_needed = 0, uses_anonymous_args = 0
	@ link register save eliminated.
	sub	sp, sp, #8
.LCFI8:
	.cfi_def_cfa_offset 8
	str	r0, [sp, #4]
	str	r1, [sp, #0]
	.loc 3 52 0
	ldr	r3, [sp, #0]
	mov	r0, r3
	add	sp, sp, #8
	bx	lr
	.cfi_endproc
.LFE151:
	.size	_ZnwjPv, .-_ZnwjPv
	.section	.text._ZNK9b2Fixture7GetTypeEv,"axG",%progbits,_ZNK9b2Fixture7GetTypeEv,comdat
	.align	2
	.weak	_ZNK9b2Fixture7GetTypeEv
	.hidden	_ZNK9b2Fixture7GetTypeEv
	.type	_ZNK9b2Fixture7GetTypeEv, %function
_ZNK9b2Fixture7GetTypeEv:
.LFB490:
	.file 4 "v:/gigglingbits/box2d/Box2D/Dynamics/b2Fixture.h"
	.loc 4 239 0
	.cfi_startproc
	@ args = 0, pretend = 0, frame = 8
	@ frame_needed = 0, uses_anonymous_args = 0
	str	lr, [sp, #-4]!
.LCFI9:
	.cfi_def_cfa_offset 4
	sub	sp, sp, #12
.LCFI10:
	.cfi_def_cfa_offset 16
	str	r0, [sp, #4]
	.loc 4 240 0
	ldr	r3, [sp, #4]
	ldr	r3, [r3, #12]
	mov	r0, r3
	.cfi_offset 14, -4
	bl	_ZNK7b2Shape7GetTypeEv
	mov	r3, r0
	.loc 4 241 0
	mov	r0, r3
	add	sp, sp, #12
	ldmfd	sp!, {pc}
	.cfi_endproc
.LFE490:
	.size	_ZNK9b2Fixture7GetTypeEv, .-_ZNK9b2Fixture7GetTypeEv
	.section	.text._ZN9b2Fixture8GetShapeEv,"axG",%progbits,_ZN9b2Fixture8GetShapeEv,comdat
	.align	2
	.weak	_ZN9b2Fixture8GetShapeEv
	.hidden	_ZN9b2Fixture8GetShapeEv
	.type	_ZN9b2Fixture8GetShapeEv, %function
_ZN9b2Fixture8GetShapeEv:
.LFB491:
	.loc 4 244 0
	.cfi_startproc
	@ args = 0, pretend = 0, frame = 8
	@ frame_needed = 0, uses_anonymous_args = 0
	@ link register save eliminated.
	sub	sp, sp, #8
.LCFI11:
	.cfi_def_cfa_offset 8
	str	r0, [sp, #4]
	.loc 4 245 0
	ldr	r3, [sp, #4]
	ldr	r3, [r3, #12]
	.loc 4 246 0
	mov	r0, r3
	add	sp, sp, #8
	bx	lr
	.cfi_endproc
.LFE491:
	.size	_ZN9b2Fixture8GetShapeEv, .-_ZN9b2Fixture8GetShapeEv
	.section	.text._ZN9b2ContactD2Ev,"axG",%progbits,_ZN9b2ContactD2Ev,comdat
	.align	2
	.weak	_ZN9b2ContactD2Ev
	.hidden	_ZN9b2ContactD2Ev
	.type	_ZN9b2ContactD2Ev, %function
_ZN9b2ContactD2Ev:
.LFB523:
	.file 5 "v:/gigglingbits/box2d/Box2D/Dynamics/Contacts/b2Contact.h"
	.loc 5 188 0
	.cfi_startproc
	@ args = 0, pretend = 0, frame = 8
	@ frame_needed = 0, uses_anonymous_args = 0
	str	lr, [sp, #-4]!
.LCFI12:
	.cfi_def_cfa_offset 4
	sub	sp, sp, #12
.LCFI13:
	.cfi_def_cfa_offset 16
	str	r0, [sp, #4]
	.loc 5 188 0
	ldr	r3, [sp, #4]
	ldr	r2, .L34
	str	r2, [r3, #0]
	mov	r3, #0
	and	r3, r3, #255
	cmp	r3, #0
	beq	.L32
	.cfi_offset 14, -4
	ldr	r0, [sp, #4]
	bl	_ZdlPv
.L32:
	ldr	r3, [sp, #4]
	mov	r0, r3
	add	sp, sp, #12
	ldmfd	sp!, {pc}
.L35:
	.align	2
.L34:
	.word	_ZTV9b2Contact+8
	.cfi_endproc
.LFE523:
	.size	_ZN9b2ContactD2Ev, .-_ZN9b2ContactD2Ev
	.section	.text._ZN9b2ContactD1Ev,"axG",%progbits,_ZN9b2ContactD1Ev,comdat
	.align	2
	.weak	_ZN9b2ContactD1Ev
	.hidden	_ZN9b2ContactD1Ev
	.type	_ZN9b2ContactD1Ev, %function
_ZN9b2ContactD1Ev:
.LFB524:
	.loc 5 188 0
	.cfi_startproc
	@ args = 0, pretend = 0, frame = 8
	@ frame_needed = 0, uses_anonymous_args = 0
	str	lr, [sp, #-4]!
.LCFI14:
	.cfi_def_cfa_offset 4
	sub	sp, sp, #12
.LCFI15:
	.cfi_def_cfa_offset 16
	str	r0, [sp, #4]
	.loc 5 188 0
	ldr	r3, [sp, #4]
	ldr	r2, .L40
	str	r2, [r3, #0]
	mov	r3, #0
	and	r3, r3, #255
	cmp	r3, #0
	beq	.L38
	.cfi_offset 14, -4
	ldr	r0, [sp, #4]
	bl	_ZdlPv
.L38:
	ldr	r3, [sp, #4]
	mov	r0, r3
	add	sp, sp, #12
	ldmfd	sp!, {pc}
.L41:
	.align	2
.L40:
	.word	_ZTV9b2Contact+8
	.cfi_endproc
.LFE524:
	.size	_ZN9b2ContactD1Ev, .-_ZN9b2ContactD1Ev
	.section	.text._ZN9b2ContactD0Ev,"axG",%progbits,_ZN9b2ContactD0Ev,comdat
	.align	2
	.weak	_ZN9b2ContactD0Ev
	.hidden	_ZN9b2ContactD0Ev
	.type	_ZN9b2ContactD0Ev, %function
_ZN9b2ContactD0Ev:
.LFB525:
	.loc 5 188 0
	.cfi_startproc
	@ args = 0, pretend = 0, frame = 8
	@ frame_needed = 0, uses_anonymous_args = 0
	str	lr, [sp, #-4]!
.LCFI16:
	.cfi_def_cfa_offset 4
	sub	sp, sp, #12
.LCFI17:
	.cfi_def_cfa_offset 16
	str	r0, [sp, #4]
	.loc 5 188 0
	ldr	r3, [sp, #4]
	ldr	r2, .L46
	str	r2, [r3, #0]
	mov	r3, #1
	and	r3, r3, #255
	cmp	r3, #0
	beq	.L44
	.cfi_offset 14, -4
	ldr	r0, [sp, #4]
	bl	_ZdlPv
.L44:
	ldr	r3, [sp, #4]
	mov	r0, r3
	add	sp, sp, #12
	ldmfd	sp!, {pc}
.L47:
	.align	2
.L46:
	.word	_ZTV9b2Contact+8
	.cfi_endproc
.LFE525:
	.size	_ZN9b2ContactD0Ev, .-_ZN9b2ContactD0Ev
	.section	.text._ZN24b2ChainAndPolygonContactD1Ev,"axG",%progbits,_ZN24b2ChainAndPolygonContactD1Ev,comdat
	.align	2
	.weak	_ZN24b2ChainAndPolygonContactD1Ev
	.hidden	_ZN24b2ChainAndPolygonContactD1Ev
	.type	_ZN24b2ChainAndPolygonContactD1Ev, %function
_ZN24b2ChainAndPolygonContactD1Ev:
.LFB551:
	.file 6 "v:/gigglingbits/box2d/Box2D/Dynamics/Contacts/b2ChainAndPolygonContact.h"
	.loc 6 34 0
	.cfi_startproc
	@ args = 0, pretend = 0, frame = 8
	@ frame_needed = 0, uses_anonymous_args = 0
	str	lr, [sp, #-4]!
.LCFI18:
	.cfi_def_cfa_offset 4
	sub	sp, sp, #12
.LCFI19:
	.cfi_def_cfa_offset 16
	str	r0, [sp, #4]
	.loc 6 34 0
	ldr	r3, [sp, #4]
	ldr	r2, .L52
	str	r2, [r3, #0]
	ldr	r3, [sp, #4]
	mov	r0, r3
	.cfi_offset 14, -4
	bl	_ZN9b2ContactD2Ev
	mov	r3, #0
	and	r3, r3, #255
	cmp	r3, #0
	beq	.L50
	ldr	r0, [sp, #4]
	bl	_ZdlPv
.L50:
	ldr	r3, [sp, #4]
	mov	r0, r3
	add	sp, sp, #12
	ldmfd	sp!, {pc}
.L53:
	.align	2
.L52:
	.word	_ZTV24b2ChainAndPolygonContact+8
	.cfi_endproc
.LFE551:
	.size	_ZN24b2ChainAndPolygonContactD1Ev, .-_ZN24b2ChainAndPolygonContactD1Ev
	.section	.text._ZN24b2ChainAndPolygonContactD0Ev,"axG",%progbits,_ZN24b2ChainAndPolygonContactD0Ev,comdat
	.align	2
	.weak	_ZN24b2ChainAndPolygonContactD0Ev
	.hidden	_ZN24b2ChainAndPolygonContactD0Ev
	.type	_ZN24b2ChainAndPolygonContactD0Ev, %function
_ZN24b2ChainAndPolygonContactD0Ev:
.LFB552:
	.loc 6 34 0
	.cfi_startproc
	@ args = 0, pretend = 0, frame = 8
	@ frame_needed = 0, uses_anonymous_args = 0
	str	lr, [sp, #-4]!
.LCFI20:
	.cfi_def_cfa_offset 4
	sub	sp, sp, #12
.LCFI21:
	.cfi_def_cfa_offset 16
	str	r0, [sp, #4]
	.loc 6 34 0
	ldr	r3, [sp, #4]
	ldr	r2, .L58
	str	r2, [r3, #0]
	ldr	r3, [sp, #4]
	mov	r0, r3
	.cfi_offset 14, -4
	bl	_ZN9b2ContactD2Ev
	mov	r3, #1
	and	r3, r3, #255
	cmp	r3, #0
	beq	.L56
	ldr	r0, [sp, #4]
	bl	_ZdlPv
.L56:
	ldr	r3, [sp, #4]
	mov	r0, r3
	add	sp, sp, #12
	ldmfd	sp!, {pc}
.L59:
	.align	2
.L58:
	.word	_ZTV24b2ChainAndPolygonContact+8
	.cfi_endproc
.LFE552:
	.size	_ZN24b2ChainAndPolygonContactD0Ev, .-_ZN24b2ChainAndPolygonContactD0Ev
	.section	.text._ZN7b2ShapeC2Ev,"axG",%progbits,_ZN7b2ShapeC2Ev,comdat
	.align	2
	.weak	_ZN7b2ShapeC2Ev
	.hidden	_ZN7b2ShapeC2Ev
	.type	_ZN7b2ShapeC2Ev, %function
_ZN7b2ShapeC2Ev:
.LFB555:
	.loc 2 43 0
	.cfi_startproc
	@ args = 0, pretend = 0, frame = 8
	@ frame_needed = 0, uses_anonymous_args = 0
	@ link register save eliminated.
	sub	sp, sp, #8
.LCFI22:
	.cfi_def_cfa_offset 8
	str	r0, [sp, #4]
	.loc 2 43 0
	ldr	r3, [sp, #4]
	ldr	r2, .L63
	str	r2, [r3, #0]
	ldr	r3, [sp, #4]
	mov	r0, r3
	add	sp, sp, #8
	bx	lr
.L64:
	.align	2
.L63:
	.word	_ZTV7b2Shape+8
	.cfi_endproc
.LFE555:
	.size	_ZN7b2ShapeC2Ev, .-_ZN7b2ShapeC2Ev
	.section	.text._ZN11b2EdgeShapeC1Ev,"axG",%progbits,_ZN11b2EdgeShapeC1Ev,comdat
	.align	2
	.weak	_ZN11b2EdgeShapeC1Ev
	.hidden	_ZN11b2EdgeShapeC1Ev
	.type	_ZN11b2EdgeShapeC1Ev, %function
_ZN11b2EdgeShapeC1Ev:
.LFB561:
	.file 7 "v:/gigglingbits/box2d/Box2D/Collision/Shapes/b2EdgeShape.h"
	.loc 7 62 0
	.cfi_startproc
	@ args = 0, pretend = 0, frame = 8
	@ frame_needed = 0, uses_anonymous_args = 0
	str	lr, [sp, #-4]!
.LCFI23:
	.cfi_def_cfa_offset 4
	sub	sp, sp, #12
.LCFI24:
	.cfi_def_cfa_offset 16
	str	r0, [sp, #4]
	.loc 7 62 0
	ldr	r3, [sp, #4]
	mov	r0, r3
	.cfi_offset 14, -4
	bl	_ZN7b2ShapeC2Ev
	ldr	r3, [sp, #4]
	ldr	r2, .L68+8
	str	r2, [r3, #0]
	ldr	r3, [sp, #4]
	add	r3, r3, #12
	mov	r0, r3
	bl	_ZN6b2Vec2C1Ev
	ldr	r3, [sp, #4]
	add	r3, r3, #20
	mov	r0, r3
	bl	_ZN6b2Vec2C1Ev
	ldr	r3, [sp, #4]
	add	r3, r3, #28
	mov	r0, r3
	bl	_ZN6b2Vec2C1Ev
	ldr	r3, [sp, #4]
	add	r3, r3, #36
	mov	r0, r3
	bl	_ZN6b2Vec2C1Ev
	.loc 7 64 0
	ldr	r3, [sp, #4]
	mov	r2, #1
	str	r2, [r3, #4]
	.loc 7 65 0
	ldr	r3, [sp, #4]
	flds	s15, .L68
	fsts	s15, [r3, #8]
	.loc 7 66 0
	ldr	r3, [sp, #4]
	flds	s15, .L68+4
	fsts	s15, [r3, #28]
	.loc 7 67 0
	ldr	r3, [sp, #4]
	flds	s15, .L68+4
	fsts	s15, [r3, #32]
	.loc 7 68 0
	ldr	r3, [sp, #4]
	flds	s15, .L68+4
	fsts	s15, [r3, #36]
	.loc 7 69 0
	ldr	r3, [sp, #4]
	flds	s15, .L68+4
	fsts	s15, [r3, #40]
	.loc 7 70 0
	ldr	r3, [sp, #4]
	mov	r2, #0
	strb	r2, [r3, #44]
	.loc 7 71 0
	ldr	r3, [sp, #4]
	mov	r2, #0
	strb	r2, [r3, #45]
	.loc 7 72 0
	ldr	r3, [sp, #4]
	mov	r0, r3
	add	sp, sp, #12
	ldmfd	sp!, {pc}
.L69:
	.align	2
.L68:
	.word	1008981770
	.word	0
	.word	_ZTV11b2EdgeShape+8
	.cfi_endproc
.LFE561:
	.size	_ZN11b2EdgeShapeC1Ev, .-_ZN11b2EdgeShapeC1Ev
	.section	.text._ZN24b2ChainAndPolygonContact6CreateEP9b2FixtureiS1_iP16b2BlockAllocator,"ax",%progbits
	.align	2
	.global	_ZN24b2ChainAndPolygonContact6CreateEP9b2FixtureiS1_iP16b2BlockAllocator
	.hidden	_ZN24b2ChainAndPolygonContact6CreateEP9b2FixtureiS1_iP16b2BlockAllocator
	.type	_ZN24b2ChainAndPolygonContact6CreateEP9b2FixtureiS1_iP16b2BlockAllocator, %function
_ZN24b2ChainAndPolygonContact6CreateEP9b2FixtureiS1_iP16b2BlockAllocator:
.LFB562:
	.file 8 "v:/gigglingbits/box2d/Box2D/Dynamics/Contacts/b2ChainAndPolygonContact.cpp"
	.loc 8 28 0
	.cfi_startproc
	@ args = 4, pretend = 0, frame = 24
	@ frame_needed = 0, uses_anonymous_args = 0
	stmfd	sp!, {r4, lr}
.LCFI25:
	.cfi_def_cfa_offset 8
	sub	sp, sp, #32
.LCFI26:
	.cfi_def_cfa_offset 40
	str	r0, [sp, #20]
	str	r1, [sp, #16]
	str	r2, [sp, #12]
	str	r3, [sp, #8]
.LBB2:
	.loc 8 29 0
	ldr	r0, [sp, #40]
	mov	r1, #148
	.cfi_offset 14, -4
	.cfi_offset 4, -8
	bl	_ZN16b2BlockAllocator8AllocateEi
	mov	r3, r0
	str	r3, [sp, #28]
	.loc 8 30 0
	ldr	r3, [sp, #28]
	mov	r0, #148
	mov	r1, r3
	bl	_ZnwjPv
	mov	r3, r0
	mov	r4, r3
	mov	r3, r4
	ldr	r2, [sp, #8]
	str	r2, [sp, #0]
	mov	r0, r3
	ldr	r1, [sp, #20]
	ldr	r2, [sp, #16]
	ldr	r3, [sp, #12]
	bl	_ZN24b2ChainAndPolygonContactC1EP9b2FixtureiS1_i
	mov	r3, r4
.LBE2:
	.loc 8 31 0
	mov	r0, r3
	add	sp, sp, #32
	ldmfd	sp!, {r4, pc}
	.cfi_endproc
.LFE562:
	.size	_ZN24b2ChainAndPolygonContact6CreateEP9b2FixtureiS1_iP16b2BlockAllocator, .-_ZN24b2ChainAndPolygonContact6CreateEP9b2FixtureiS1_iP16b2BlockAllocator
	.section	.text._ZN24b2ChainAndPolygonContact7DestroyEP9b2ContactP16b2BlockAllocator,"ax",%progbits
	.align	2
	.global	_ZN24b2ChainAndPolygonContact7DestroyEP9b2ContactP16b2BlockAllocator
	.hidden	_ZN24b2ChainAndPolygonContact7DestroyEP9b2ContactP16b2BlockAllocator
	.type	_ZN24b2ChainAndPolygonContact7DestroyEP9b2ContactP16b2BlockAllocator, %function
_ZN24b2ChainAndPolygonContact7DestroyEP9b2ContactP16b2BlockAllocator:
.LFB563:
	.loc 8 34 0
	.cfi_startproc
	@ args = 0, pretend = 0, frame = 8
	@ frame_needed = 0, uses_anonymous_args = 0
	str	lr, [sp, #-4]!
.LCFI27:
	.cfi_def_cfa_offset 4
	sub	sp, sp, #12
.LCFI28:
	.cfi_def_cfa_offset 16
	str	r0, [sp, #4]
	str	r1, [sp, #0]
	.loc 8 35 0
	ldr	r3, [sp, #4]
	ldr	r3, [r3, #0]
	add	r3, r3, #4
	ldr	r3, [r3, #0]
	ldr	r2, [sp, #4]
	mov	r0, r2
	.cfi_offset 14, -4
	blx	r3
	.loc 8 36 0
	ldr	r0, [sp, #0]
	ldr	r1, [sp, #4]
	mov	r2, #148
	bl	_ZN16b2BlockAllocator4FreeEPvi
	.loc 8 37 0
	add	sp, sp, #12
	ldmfd	sp!, {pc}
	.cfi_endproc
.LFE563:
	.size	_ZN24b2ChainAndPolygonContact7DestroyEP9b2ContactP16b2BlockAllocator, .-_ZN24b2ChainAndPolygonContact7DestroyEP9b2ContactP16b2BlockAllocator
	.section	.rodata
	.align	2
.LC0:
	.ascii	"v:/gigglingbits/box2d/Box2D/Dynamics/Contacts/b2Cha"
	.ascii	"inAndPolygonContact.cpp\000"
	.align	2
.LC1:
	.ascii	"m_fixtureA->GetType() == b2Shape::e_chain\000"
	.align	2
.LC2:
	.ascii	"m_fixtureB->GetType() == b2Shape::e_polygon\000"
	.section	.text._ZN24b2ChainAndPolygonContactC2EP9b2FixtureiS1_i,"ax",%progbits
	.align	2
	.global	_ZN24b2ChainAndPolygonContactC2EP9b2FixtureiS1_i
	.hidden	_ZN24b2ChainAndPolygonContactC2EP9b2FixtureiS1_i
	.type	_ZN24b2ChainAndPolygonContactC2EP9b2FixtureiS1_i, %function
_ZN24b2ChainAndPolygonContactC2EP9b2FixtureiS1_i:
.LFB565:
	.loc 8 39 0
	.cfi_startproc
	@ args = 4, pretend = 0, frame = 16
	@ frame_needed = 0, uses_anonymous_args = 0
	str	lr, [sp, #-4]!
.LCFI29:
	.cfi_def_cfa_offset 4
	sub	sp, sp, #28
.LCFI30:
	.cfi_def_cfa_offset 32
	str	r0, [sp, #20]
	str	r1, [sp, #16]
	str	r2, [sp, #12]
	str	r3, [sp, #8]
	.loc 8 40 0
	ldr	r3, [sp, #20]
	ldr	r2, [sp, #32]
	str	r2, [sp, #0]
	mov	r0, r3
	ldr	r1, [sp, #16]
	ldr	r2, [sp, #12]
	ldr	r3, [sp, #8]
	.cfi_offset 14, -4
	bl	_ZN9b2ContactC2EP9b2FixtureiS1_i
	ldr	r3, [sp, #20]
	ldr	r2, .L78
	str	r2, [r3, #0]
	.loc 8 42 0
	ldr	r3, [sp, #20]
	ldr	r3, [r3, #48]
	mov	r0, r3
	bl	_ZNK9b2Fixture7GetTypeEv
	mov	r3, r0
	cmp	r3, #3
	beq	.L75
	ldr	r0, .L78+4
	mov	r1, #42
	ldr	r2, .L78+8
	bl	__assert
.L75:
	.loc 8 43 0
	ldr	r3, [sp, #20]
	ldr	r3, [r3, #52]
	mov	r0, r3
	bl	_ZNK9b2Fixture7GetTypeEv
	mov	r3, r0
	cmp	r3, #2
	beq	.L76
	ldr	r0, .L78+4
	mov	r1, #43
	ldr	r2, .L78+12
	bl	__assert
.L76:
	.loc 8 44 0
	ldr	r3, [sp, #20]
	mov	r0, r3
	add	sp, sp, #28
	ldmfd	sp!, {pc}
.L79:
	.align	2
.L78:
	.word	_ZTV24b2ChainAndPolygonContact+8
	.word	.LC0
	.word	.LC1
	.word	.LC2
	.cfi_endproc
.LFE565:
	.size	_ZN24b2ChainAndPolygonContactC2EP9b2FixtureiS1_i, .-_ZN24b2ChainAndPolygonContactC2EP9b2FixtureiS1_i
	.section	.text._ZN24b2ChainAndPolygonContactC1EP9b2FixtureiS1_i,"ax",%progbits
	.align	2
	.global	_ZN24b2ChainAndPolygonContactC1EP9b2FixtureiS1_i
	.hidden	_ZN24b2ChainAndPolygonContactC1EP9b2FixtureiS1_i
	.type	_ZN24b2ChainAndPolygonContactC1EP9b2FixtureiS1_i, %function
_ZN24b2ChainAndPolygonContactC1EP9b2FixtureiS1_i:
.LFB566:
	.loc 8 39 0
	.cfi_startproc
	@ args = 4, pretend = 0, frame = 16
	@ frame_needed = 0, uses_anonymous_args = 0
	str	lr, [sp, #-4]!
.LCFI31:
	.cfi_def_cfa_offset 4
	sub	sp, sp, #28
.LCFI32:
	.cfi_def_cfa_offset 32
	str	r0, [sp, #20]
	str	r1, [sp, #16]
	str	r2, [sp, #12]
	str	r3, [sp, #8]
	.loc 8 40 0
	ldr	r3, [sp, #20]
	ldr	r2, [sp, #32]
	str	r2, [sp, #0]
	mov	r0, r3
	ldr	r1, [sp, #16]
	ldr	r2, [sp, #12]
	ldr	r3, [sp, #8]
	.cfi_offset 14, -4
	bl	_ZN9b2ContactC2EP9b2FixtureiS1_i
	ldr	r3, [sp, #20]
	ldr	r2, .L84
	str	r2, [r3, #0]
	.loc 8 42 0
	ldr	r3, [sp, #20]
	ldr	r3, [r3, #48]
	mov	r0, r3
	bl	_ZNK9b2Fixture7GetTypeEv
	mov	r3, r0
	cmp	r3, #3
	beq	.L81
	ldr	r0, .L84+4
	mov	r1, #42
	ldr	r2, .L84+8
	bl	__assert
.L81:
	.loc 8 43 0
	ldr	r3, [sp, #20]
	ldr	r3, [r3, #52]
	mov	r0, r3
	bl	_ZNK9b2Fixture7GetTypeEv
	mov	r3, r0
	cmp	r3, #2
	beq	.L82
	ldr	r0, .L84+4
	mov	r1, #43
	ldr	r2, .L84+12
	bl	__assert
.L82:
	.loc 8 44 0
	ldr	r3, [sp, #20]
	mov	r0, r3
	add	sp, sp, #28
	ldmfd	sp!, {pc}
.L85:
	.align	2
.L84:
	.word	_ZTV24b2ChainAndPolygonContact+8
	.word	.LC0
	.word	.LC1
	.word	.LC2
	.cfi_endproc
.LFE566:
	.size	_ZN24b2ChainAndPolygonContactC1EP9b2FixtureiS1_i, .-_ZN24b2ChainAndPolygonContactC1EP9b2FixtureiS1_i
	.section	.text._ZN11b2EdgeShapeD1Ev,"axG",%progbits,_ZN11b2EdgeShapeD1Ev,comdat
	.align	2
	.weak	_ZN11b2EdgeShapeD1Ev
	.hidden	_ZN11b2EdgeShapeD1Ev
	.type	_ZN11b2EdgeShapeD1Ev, %function
_ZN11b2EdgeShapeD1Ev:
.LFB570:
	.loc 7 28 0
	.cfi_startproc
	@ args = 0, pretend = 0, frame = 8
	@ frame_needed = 0, uses_anonymous_args = 0
	str	lr, [sp, #-4]!
.LCFI33:
	.cfi_def_cfa_offset 4
	sub	sp, sp, #12
.LCFI34:
	.cfi_def_cfa_offset 16
	str	r0, [sp, #4]
	.loc 7 28 0
	ldr	r3, [sp, #4]
	ldr	r2, .L90
	str	r2, [r3, #0]
	ldr	r3, [sp, #4]
	mov	r0, r3
	.cfi_offset 14, -4
	bl	_ZN7b2ShapeD2Ev
	mov	r3, #0
	and	r3, r3, #255
	cmp	r3, #0
	beq	.L88
	ldr	r0, [sp, #4]
	bl	_ZdlPv
.L88:
	ldr	r3, [sp, #4]
	mov	r0, r3
	add	sp, sp, #12
	ldmfd	sp!, {pc}
.L91:
	.align	2
.L90:
	.word	_ZTV11b2EdgeShape+8
	.cfi_endproc
.LFE570:
	.size	_ZN11b2EdgeShapeD1Ev, .-_ZN11b2EdgeShapeD1Ev
	.section	.text._ZN24b2ChainAndPolygonContact8EvaluateEP10b2ManifoldRK11b2TransformS4_,"ax",%progbits
	.align	2
	.global	_ZN24b2ChainAndPolygonContact8EvaluateEP10b2ManifoldRK11b2TransformS4_
	.hidden	_ZN24b2ChainAndPolygonContact8EvaluateEP10b2ManifoldRK11b2TransformS4_
	.type	_ZN24b2ChainAndPolygonContact8EvaluateEP10b2ManifoldRK11b2TransformS4_, %function
_ZN24b2ChainAndPolygonContact8EvaluateEP10b2ManifoldRK11b2TransformS4_:
.LFB567:
	.loc 8 47 0
	.cfi_startproc
	@ args = 0, pretend = 0, frame = 72
	@ frame_needed = 0, uses_anonymous_args = 0
	str	lr, [sp, #-4]!
.LCFI35:
	.cfi_def_cfa_offset 4
	sub	sp, sp, #84
.LCFI36:
	.cfi_def_cfa_offset 88
	str	r0, [sp, #20]
	str	r1, [sp, #16]
	str	r2, [sp, #12]
	str	r3, [sp, #8]
.LBB3:
	.loc 8 48 0
	ldr	r3, [sp, #20]
	ldr	r3, [r3, #48]
	mov	r0, r3
	.cfi_offset 14, -4
	bl	_ZN9b2Fixture8GetShapeEv
	mov	r3, r0
	str	r3, [sp, #76]
	.loc 8 49 0
	add	r3, sp, #28
	mov	r0, r3
	bl	_ZN11b2EdgeShapeC1Ev
	.loc 8 50 0
	ldr	r3, [sp, #20]
	ldr	r3, [r3, #56]
	add	r2, sp, #28
	ldr	r0, [sp, #76]
	mov	r1, r2
	mov	r2, r3
	bl	_ZNK12b2ChainShape12GetChildEdgeEP11b2EdgeShapei
	.loc 8 52 0
	ldr	r3, [sp, #20]
	ldr	r3, [r3, #52]
	mov	r0, r3
	bl	_ZN9b2Fixture8GetShapeEv
	mov	r3, r0
	add	r2, sp, #28
	ldr	r1, [sp, #8]
	str	r1, [sp, #0]
	ldr	r0, [sp, #16]
	mov	r1, r2
	ldr	r2, [sp, #12]
	bl	_Z23b2CollideEdgeAndPolygonP10b2ManifoldPK11b2EdgeShapeRK11b2TransformPK14b2PolygonShapeS6_
	add	r3, sp, #28
	mov	r0, r3
	bl	_ZN11b2EdgeShapeD1Ev
.LBE3:
	.loc 8 53 0
	add	sp, sp, #84
	ldmfd	sp!, {pc}
	.cfi_endproc
.LFE567:
	.size	_ZN24b2ChainAndPolygonContact8EvaluateEP10b2ManifoldRK11b2TransformS4_, .-_ZN24b2ChainAndPolygonContact8EvaluateEP10b2ManifoldRK11b2TransformS4_
	.hidden	_ZTV24b2ChainAndPolygonContact
	.global	_ZTV24b2ChainAndPolygonContact
	.section	.rodata
	.align	3
	.type	_ZTV24b2ChainAndPolygonContact, %object
	.size	_ZTV24b2ChainAndPolygonContact, 20
_ZTV24b2ChainAndPolygonContact:
	.word	0
	.word	_ZTI24b2ChainAndPolygonContact
	.word	_ZN24b2ChainAndPolygonContact8EvaluateEP10b2ManifoldRK11b2TransformS4_
	.word	_ZN24b2ChainAndPolygonContactD1Ev
	.word	_ZN24b2ChainAndPolygonContactD0Ev
	.hidden	_ZTV9b2Contact
	.weak	_ZTV9b2Contact
	.section	.rodata._ZTV9b2Contact,"aG",%progbits,_ZTV9b2Contact,comdat
	.align	3
	.type	_ZTV9b2Contact, %object
	.size	_ZTV9b2Contact, 20
_ZTV9b2Contact:
	.word	0
	.word	_ZTI9b2Contact
	.word	__cxa_pure_virtual
	.word	_ZN9b2ContactD1Ev
	.word	_ZN9b2ContactD0Ev
	.hidden	_ZTV7b2Shape
	.weak	_ZTV7b2Shape
	.section	.rodata._ZTV7b2Shape,"aG",%progbits,_ZTV7b2Shape,comdat
	.align	3
	.type	_ZTV7b2Shape, %object
	.size	_ZTV7b2Shape, 40
_ZTV7b2Shape:
	.word	0
	.word	_ZTI7b2Shape
	.word	_ZN7b2ShapeD1Ev
	.word	_ZN7b2ShapeD0Ev
	.word	__cxa_pure_virtual
	.word	__cxa_pure_virtual
	.word	__cxa_pure_virtual
	.word	__cxa_pure_virtual
	.word	__cxa_pure_virtual
	.word	__cxa_pure_virtual
	.hidden	_ZTI24b2ChainAndPolygonContact
	.global	_ZTI24b2ChainAndPolygonContact
	.section	.rodata
	.align	2
	.type	_ZTI24b2ChainAndPolygonContact, %object
	.size	_ZTI24b2ChainAndPolygonContact, 12
_ZTI24b2ChainAndPolygonContact:
	.word	_ZTVN10__cxxabiv120__si_class_type_infoE+8
	.word	_ZTS24b2ChainAndPolygonContact
	.word	_ZTI9b2Contact
	.hidden	_ZTS24b2ChainAndPolygonContact
	.global	_ZTS24b2ChainAndPolygonContact
	.align	2
	.type	_ZTS24b2ChainAndPolygonContact, %object
	.size	_ZTS24b2ChainAndPolygonContact, 27
_ZTS24b2ChainAndPolygonContact:
	.ascii	"24b2ChainAndPolygonContact\000"
	.hidden	_ZTS9b2Contact
	.weak	_ZTS9b2Contact
	.section	.rodata._ZTS9b2Contact,"aG",%progbits,_ZTS9b2Contact,comdat
	.align	2
	.type	_ZTS9b2Contact, %object
	.size	_ZTS9b2Contact, 11
_ZTS9b2Contact:
	.ascii	"9b2Contact\000"
	.hidden	_ZTI9b2Contact
	.weak	_ZTI9b2Contact
	.section	.rodata._ZTI9b2Contact,"aG",%progbits,_ZTI9b2Contact,comdat
	.align	2
	.type	_ZTI9b2Contact, %object
	.size	_ZTI9b2Contact, 8
_ZTI9b2Contact:
	.word	_ZTVN10__cxxabiv117__class_type_infoE+8
	.word	_ZTS9b2Contact
	.hidden	_ZTS7b2Shape
	.weak	_ZTS7b2Shape
	.section	.rodata._ZTS7b2Shape,"aG",%progbits,_ZTS7b2Shape,comdat
	.align	2
	.type	_ZTS7b2Shape, %object
	.size	_ZTS7b2Shape, 9
_ZTS7b2Shape:
	.ascii	"7b2Shape\000"
	.hidden	_ZTI7b2Shape
	.weak	_ZTI7b2Shape
	.section	.rodata._ZTI7b2Shape,"aG",%progbits,_ZTI7b2Shape,comdat
	.align	2
	.type	_ZTI7b2Shape, %object
	.size	_ZTI7b2Shape, 8
_ZTI7b2Shape:
	.word	_ZTVN10__cxxabiv117__class_type_infoE+8
	.word	_ZTS7b2Shape
	.section	.rodata
	.type	_ZL14b2_nullFeature, %object
	.size	_ZL14b2_nullFeature, 1
_ZL14b2_nullFeature:
	.byte	-1
	.align	2
	.type	_ZL12b2_chunkSize, %object
	.size	_ZL12b2_chunkSize, 4
_ZL12b2_chunkSize:
	.word	16384
	.align	2
	.type	_ZL15b2_maxBlockSize, %object
	.size	_ZL15b2_maxBlockSize, 4
_ZL15b2_maxBlockSize:
	.word	640
	.align	2
	.type	_ZL13b2_blockSizes, %object
	.size	_ZL13b2_blockSizes, 4
_ZL13b2_blockSizes:
	.word	14
	.align	2
	.type	_ZL22b2_chunkArrayIncrement, %object
	.size	_ZL22b2_chunkArrayIncrement, 4
_ZL22b2_chunkArrayIncrement:
	.word	128
	.text
.Letext0: