	.arch armv5te
	.eabi_attribute 27, 3
	.fpu vfp
	.eabi_attribute 20, 1
	.eabi_attribute 21, 1
	.eabi_attribute 23, 3
	.eabi_attribute 24, 1
	.eabi_attribute 25, 1
	.eabi_attribute 26, 2
	.eabi_attribute 30, 6
	.eabi_attribute 18, 2
	.file	"b2ChainShape.cpp"
	.text
.Ltext0:
	.cfi_sections	.debug_frame
	.section	.text._ZN6b2Vec2C1Ev,"axG",%progbits,_ZN6b2Vec2C1Ev,comdat
	.align	2
	.weak	_ZN6b2Vec2C1Ev
	.hidden	_ZN6b2Vec2C1Ev
	.type	_ZN6b2Vec2C1Ev, %function
_ZN6b2Vec2C1Ev:
.LFB4:
	.file 1 "v:/gigglingbits/box2d/Box2D/Common/b2Math.h"
	.loc 1 56 0
	.cfi_startproc
	@ args = 0, pretend = 0, frame = 8
	@ frame_needed = 0, uses_anonymous_args = 0
	@ link register save eliminated.
	sub	sp, sp, #8
.LCFI0:
	.cfi_def_cfa_offset 8
	str	r0, [sp, #4]
	.loc 1 56 0
	ldr	r3, [sp, #4]
	mov	r0, r3
	add	sp, sp, #8
	bx	lr
	.cfi_endproc
.LFE4:
	.size	_ZN6b2Vec2C1Ev, .-_ZN6b2Vec2C1Ev
	.section	.text._ZN6b2Vec2C1Eff,"axG",%progbits,_ZN6b2Vec2C1Eff,comdat
	.align	2
	.weak	_ZN6b2Vec2C1Eff
	.hidden	_ZN6b2Vec2C1Eff
	.type	_ZN6b2Vec2C1Eff, %function
_ZN6b2Vec2C1Eff:
.LFB7:
	.loc 1 59 0
	.cfi_startproc
	@ args = 0, pretend = 0, frame = 16
	@ frame_needed = 0, uses_anonymous_args = 0
	@ link register save eliminated.
	sub	sp, sp, #16
.LCFI1:
	.cfi_def_cfa_offset 16
	str	r0, [sp, #12]
	str	r1, [sp, #8]	@ float
	str	r2, [sp, #4]	@ float
	.loc 1 59 0
	ldr	r3, [sp, #12]
	flds	s15, [sp, #8]
	fsts	s15, [r3, #0]
	ldr	r3, [sp, #12]
	flds	s15, [sp, #4]
	fsts	s15, [r3, #4]
	ldr	r3, [sp, #12]
	mov	r0, r3
	add	sp, sp, #16
	bx	lr
	.cfi_endproc
.LFE7:
	.size	_ZN6b2Vec2C1Eff, .-_ZN6b2Vec2C1Eff
	.section	.text._ZN6b2Vec27SetZeroEv,"axG",%progbits,_ZN6b2Vec27SetZeroEv,comdat
	.align	2
	.weak	_ZN6b2Vec27SetZeroEv
	.hidden	_ZN6b2Vec27SetZeroEv
	.type	_ZN6b2Vec27SetZeroEv, %function
_ZN6b2Vec27SetZeroEv:
.LFB8:
	.loc 1 62 0
	.cfi_startproc
	@ args = 0, pretend = 0, frame = 8
	@ frame_needed = 0, uses_anonymous_args = 0
	@ link register save eliminated.
	sub	sp, sp, #8
.LCFI2:
	.cfi_def_cfa_offset 8
	str	r0, [sp, #4]
	.loc 1 62 0
	ldr	r3, [sp, #4]
	flds	s15, .L9
	fsts	s15, [r3, #0]
	ldr	r3, [sp, #4]
	flds	s15, .L9
	fsts	s15, [r3, #4]
	add	sp, sp, #8
	bx	lr
.L10:
	.align	2
.L9:
	.word	0
	.cfi_endproc
.LFE8:
	.size	_ZN6b2Vec27SetZeroEv, .-_ZN6b2Vec27SetZeroEv
	.section	.text._Z5b2DotRK6b2Vec2S1_,"axG",%progbits,_Z5b2DotRK6b2Vec2S1_,comdat
	.align	2
	.weak	_Z5b2DotRK6b2Vec2S1_
	.hidden	_Z5b2DotRK6b2Vec2S1_
	.type	_Z5b2DotRK6b2Vec2S1_, %function
_Z5b2DotRK6b2Vec2S1_:
.LFB73:
	.loc 1 407 0
	.cfi_startproc
	@ args = 0, pretend = 0, frame = 8
	@ frame_needed = 0, uses_anonymous_args = 0
	@ link register save eliminated.
	sub	sp, sp, #8
.LCFI3:
	.cfi_def_cfa_offset 8
	str	r0, [sp, #4]
	str	r1, [sp, #0]
	.loc 1 408 0
	ldr	r3, [sp, #4]
	flds	s14, [r3, #0]
	ldr	r3, [sp, #0]
	flds	s15, [r3, #0]
	fmuls	s14, s14, s15
	ldr	r3, [sp, #4]
	flds	s13, [r3, #4]
	ldr	r3, [sp, #0]
	flds	s15, [r3, #4]
	fmuls	s15, s13, s15
	fadds	s15, s14, s15
	fmrs	r3, s15
	.loc 1 409 0
	mov	r0, r3	@ float
	add	sp, sp, #8
	bx	lr
	.cfi_endproc
.LFE73:
	.size	_Z5b2DotRK6b2Vec2S1_, .-_Z5b2DotRK6b2Vec2S1_
	.section	.text._ZmiRK6b2Vec2S1_,"axG",%progbits,_ZmiRK6b2Vec2S1_,comdat
	.align	2
	.weak	_ZmiRK6b2Vec2S1_
	.hidden	_ZmiRK6b2Vec2S1_
	.type	_ZmiRK6b2Vec2S1_, %function
_ZmiRK6b2Vec2S1_:
.LFB80:
	.loc 1 453 0
	.cfi_startproc
	@ args = 0, pretend = 0, frame = 8
	@ frame_needed = 0, uses_anonymous_args = 0
	stmfd	sp!, {r4, lr}
.LCFI4:
	.cfi_def_cfa_offset 8
	sub	sp, sp, #8
.LCFI5:
	.cfi_def_cfa_offset 16
	mov	r4, r0
	.cfi_offset 14, -4
	.cfi_offset 4, -8
	str	r1, [sp, #4]
	str	r2, [sp, #0]
	.loc 1 454 0
	ldr	r3, [sp, #4]
	flds	s14, [r3, #0]
	ldr	r3, [sp, #0]
	flds	s15, [r3, #0]
	fsubs	s13, s14, s15
	ldr	r3, [sp, #4]
	flds	s14, [r3, #4]
	ldr	r3, [sp, #0]
	flds	s15, [r3, #4]
	fsubs	s15, s14, s15
	mov	r0, r4
	fmrs	r1, s13
	fmrs	r2, s15
	bl	_ZN6b2Vec2C1Eff
	.loc 1 455 0
	mov	r0, r4
	add	sp, sp, #8
	ldmfd	sp!, {r4, pc}
	.cfi_endproc
.LFE80:
	.size	_ZmiRK6b2Vec2S1_, .-_ZmiRK6b2Vec2S1_
	.section	.text._Z17b2DistanceSquaredRK6b2Vec2S1_,"axG",%progbits,_Z17b2DistanceSquaredRK6b2Vec2S1_,comdat
	.align	2
	.weak	_Z17b2DistanceSquaredRK6b2Vec2S1_
	.hidden	_Z17b2DistanceSquaredRK6b2Vec2S1_
	.type	_Z17b2DistanceSquaredRK6b2Vec2S1_, %function
_Z17b2DistanceSquaredRK6b2Vec2S1_:
.LFB84:
	.loc 1 474 0
	.cfi_startproc
	@ args = 0, pretend = 0, frame = 16
	@ frame_needed = 0, uses_anonymous_args = 0
	str	lr, [sp, #-4]!
.LCFI6:
	.cfi_def_cfa_offset 4
	sub	sp, sp, #20
.LCFI7:
	.cfi_def_cfa_offset 24
	str	r0, [sp, #4]
	str	r1, [sp, #0]
.LBB2:
	.loc 1 475 0
	add	r3, sp, #8
	mov	r0, r3
	ldr	r1, [sp, #4]
	ldr	r2, [sp, #0]
	.cfi_offset 14, -4
	bl	_ZmiRK6b2Vec2S1_
	.loc 1 476 0
	add	r2, sp, #8
	add	r3, sp, #8
	mov	r0, r2
	mov	r1, r3
	bl	_Z5b2DotRK6b2Vec2S1_
	mov	r3, r0	@ float
	fmsr	s15, r3
	fmrs	r3, s15
.LBE2:
	.loc 1 477 0
	mov	r0, r3	@ float
	add	sp, sp, #20
	ldmfd	sp!, {pc}
	.cfi_endproc
.LFE84:
	.size	_Z17b2DistanceSquaredRK6b2Vec2S1_, .-_Z17b2DistanceSquaredRK6b2Vec2S1_
	.section	.text._Z5b2MulRK11b2TransformRK6b2Vec2,"axG",%progbits,_Z5b2MulRK11b2TransformRK6b2Vec2,comdat
	.align	2
	.weak	_Z5b2MulRK11b2TransformRK6b2Vec2
	.hidden	_Z5b2MulRK11b2TransformRK6b2Vec2
	.type	_Z5b2MulRK11b2TransformRK6b2Vec2, %function
_Z5b2MulRK11b2TransformRK6b2Vec2:
.LFB99:
	.loc 1 578 0
	.cfi_startproc
	@ args = 0, pretend = 0, frame = 16
	@ frame_needed = 0, uses_anonymous_args = 0
	stmfd	sp!, {r4, lr}
.LCFI8:
	.cfi_def_cfa_offset 8
	sub	sp, sp, #16
.LCFI9:
	.cfi_def_cfa_offset 24
	mov	r4, r0
	.cfi_offset 14, -4
	.cfi_offset 4, -8
	str	r1, [sp, #4]
	str	r2, [sp, #0]
.LBB3:
	.loc 1 579 0
	ldr	r3, [sp, #4]
	flds	s14, [r3, #12]
	ldr	r3, [sp, #0]
	flds	s15, [r3, #0]
	fmuls	s14, s14, s15
	ldr	r3, [sp, #4]
	flds	s13, [r3, #8]
	ldr	r3, [sp, #0]
	flds	s15, [r3, #4]
	fmuls	s15, s13, s15
	fsubs	s14, s14, s15
	ldr	r3, [sp, #4]
	flds	s15, [r3, #0]
	fadds	s15, s14, s15
	fsts	s15, [sp, #8]
	.loc 1 580 0
	ldr	r3, [sp, #4]
	flds	s14, [r3, #8]
	ldr	r3, [sp, #0]
	flds	s15, [r3, #0]
	fmuls	s14, s14, s15
	ldr	r3, [sp, #4]
	flds	s13, [r3, #12]
	ldr	r3, [sp, #0]
	flds	s15, [r3, #4]
	fmuls	s15, s13, s15
	fadds	s14, s14, s15
	ldr	r3, [sp, #4]
	flds	s15, [r3, #4]
	fadds	s15, s14, s15
	fsts	s15, [sp, #12]
	.loc 1 582 0
	mov	r0, r4
	ldr	r1, [sp, #8]	@ float
	ldr	r2, [sp, #12]	@ float
	bl	_ZN6b2Vec2C1Eff
.LBE3:
	.loc 1 583 0
	mov	r0, r4
	add	sp, sp, #16
	ldmfd	sp!, {r4, pc}
	.cfi_endproc
.LFE99:
	.size	_Z5b2MulRK11b2TransformRK6b2Vec2, .-_Z5b2MulRK11b2TransformRK6b2Vec2
	.section	.text._Z5b2MinRK6b2Vec2S1_,"axG",%progbits,_Z5b2MinRK6b2Vec2S1_,comdat
	.align	2
	.weak	_Z5b2MinRK6b2Vec2S1_
	.hidden	_Z5b2MinRK6b2Vec2S1_
	.type	_Z5b2MinRK6b2Vec2S1_, %function
_Z5b2MinRK6b2Vec2S1_:
.LFB107:
	.loc 1 638 0
	.cfi_startproc
	@ args = 0, pretend = 0, frame = 8
	@ frame_needed = 0, uses_anonymous_args = 0
	stmfd	sp!, {r4, r5, lr}
.LCFI10:
	.cfi_def_cfa_offset 12
	sub	sp, sp, #12
.LCFI11:
	.cfi_def_cfa_offset 24
	mov	r4, r0
	.cfi_offset 14, -4
	.cfi_offset 5, -8
	.cfi_offset 4, -12
	str	r1, [sp, #4]
	str	r2, [sp, #0]
	.loc 1 639 0
	ldr	r3, [sp, #4]
	ldr	r2, [r3, #0]	@ float
	ldr	r3, [sp, #0]
	ldr	r3, [r3, #0]	@ float
	mov	r0, r2	@ float
	mov	r1, r3	@ float
	bl	_Z5b2MinIfET_S0_S0_
	mov	r5, r0	@ float
	ldr	r3, [sp, #4]
	ldr	r2, [r3, #4]	@ float
	ldr	r3, [sp, #0]
	ldr	r3, [r3, #4]	@ float
	mov	r0, r2	@ float
	mov	r1, r3	@ float
	bl	_Z5b2MinIfET_S0_S0_
	mov	r3, r0	@ float
	mov	r0, r4
	mov	r1, r5	@ float
	mov	r2, r3	@ float
	bl	_ZN6b2Vec2C1Eff
	.loc 1 640 0
	mov	r0, r4
	add	sp, sp, #12
	ldmfd	sp!, {r4, r5, pc}
	.cfi_endproc
.LFE107:
	.size	_Z5b2MinRK6b2Vec2S1_, .-_Z5b2MinRK6b2Vec2S1_
	.section	.text._Z5b2MaxRK6b2Vec2S1_,"axG",%progbits,_Z5b2MaxRK6b2Vec2S1_,comdat
	.align	2
	.weak	_Z5b2MaxRK6b2Vec2S1_
	.hidden	_Z5b2MaxRK6b2Vec2S1_
	.type	_Z5b2MaxRK6b2Vec2S1_, %function
_Z5b2MaxRK6b2Vec2S1_:
.LFB109:
	.loc 1 649 0
	.cfi_startproc
	@ args = 0, pretend = 0, frame = 8
	@ frame_needed = 0, uses_anonymous_args = 0
	stmfd	sp!, {r4, r5, lr}
.LCFI12:
	.cfi_def_cfa_offset 12
	sub	sp, sp, #12
.LCFI13:
	.cfi_def_cfa_offset 24
	mov	r4, r0
	.cfi_offset 14, -4
	.cfi_offset 5, -8
	.cfi_offset 4, -12
	str	r1, [sp, #4]
	str	r2, [sp, #0]
	.loc 1 650 0
	ldr	r3, [sp, #4]
	ldr	r2, [r3, #0]	@ float
	ldr	r3, [sp, #0]
	ldr	r3, [r3, #0]	@ float
	mov	r0, r2	@ float
	mov	r1, r3	@ float
	bl	_Z5b2MaxIfET_S0_S0_
	mov	r5, r0	@ float
	ldr	r3, [sp, #4]
	ldr	r2, [r3, #4]	@ float
	ldr	r3, [sp, #0]
	ldr	r3, [r3, #4]	@ float
	mov	r0, r2	@ float
	mov	r1, r3	@ float
	bl	_Z5b2MaxIfET_S0_S0_
	mov	r3, r0	@ float
	mov	r0, r4
	mov	r1, r5	@ float
	mov	r2, r3	@ float
	bl	_ZN6b2Vec2C1Eff
	.loc 1 651 0
	mov	r0, r4
	add	sp, sp, #12
	ldmfd	sp!, {r4, r5, pc}
	.cfi_endproc
.LFE109:
	.size	_Z5b2MaxRK6b2Vec2S1_, .-_Z5b2MaxRK6b2Vec2S1_
	.section	.text._ZN7b2ShapeD2Ev,"axG",%progbits,_ZN7b2ShapeD2Ev,comdat
	.align	2
	.weak	_ZN7b2ShapeD2Ev
	.hidden	_ZN7b2ShapeD2Ev
	.type	_ZN7b2ShapeD2Ev, %function
_ZN7b2ShapeD2Ev:
.LFB127:
	.file 2 "v:/gigglingbits/box2d/Box2D/Collision/Shapes/b2Shape.h"
	.loc 2 55 0
	.cfi_startproc
	@ args = 0, pretend = 0, frame = 8
	@ frame_needed = 0, uses_anonymous_args = 0
	str	lr, [sp, #-4]!
.LCFI14:
	.cfi_def_cfa_offset 4
	sub	sp, sp, #12
.LCFI15:
	.cfi_def_cfa_offset 16
	str	r0, [sp, #4]
	.loc 2 55 0
	ldr	r3, [sp, #4]
	ldr	r2, .L27
	str	r2, [r3, #0]
	mov	r3, #0
	and	r3, r3, #255
	cmp	r3, #0
	beq	.L25
	.cfi_offset 14, -4
	ldr	r0, [sp, #4]
	bl	_ZdlPv
.L25:
	ldr	r3, [sp, #4]
	mov	r0, r3
	add	sp, sp, #12
	ldmfd	sp!, {pc}
.L28:
	.align	2
.L27:
	.word	_ZTV7b2Shape+8
	.cfi_endproc
.LFE127:
	.size	_ZN7b2ShapeD2Ev, .-_ZN7b2ShapeD2Ev
	.section	.text._ZN7b2ShapeD1Ev,"axG",%progbits,_ZN7b2ShapeD1Ev,comdat
	.align	2
	.weak	_ZN7b2ShapeD1Ev
	.hidden	_ZN7b2ShapeD1Ev
	.type	_ZN7b2ShapeD1Ev, %function
_ZN7b2ShapeD1Ev:
.LFB128:
	.loc 2 55 0
	.cfi_startproc
	@ args = 0, pretend = 0, frame = 8
	@ frame_needed = 0, uses_anonymous_args = 0
	str	lr, [sp, #-4]!
.LCFI16:
	.cfi_def_cfa_offset 4
	sub	sp, sp, #12
.LCFI17:
	.cfi_def_cfa_offset 16
	str	r0, [sp, #4]
	.loc 2 55 0
	ldr	r3, [sp, #4]
	ldr	r2, .L33
	str	r2, [r3, #0]
	mov	r3, #0
	and	r3, r3, #255
	cmp	r3, #0
	beq	.L31
	.cfi_offset 14, -4
	ldr	r0, [sp, #4]
	bl	_ZdlPv
.L31:
	ldr	r3, [sp, #4]
	mov	r0, r3
	add	sp, sp, #12
	ldmfd	sp!, {pc}
.L34:
	.align	2
.L33:
	.word	_ZTV7b2Shape+8
	.cfi_endproc
.LFE128:
	.size	_ZN7b2ShapeD1Ev, .-_ZN7b2ShapeD1Ev
	.section	.text._ZN7b2ShapeD0Ev,"axG",%progbits,_ZN7b2ShapeD0Ev,comdat
	.align	2
	.weak	_ZN7b2ShapeD0Ev
	.hidden	_ZN7b2ShapeD0Ev
	.type	_ZN7b2ShapeD0Ev, %function
_ZN7b2ShapeD0Ev:
.LFB129:
	.loc 2 55 0
	.cfi_startproc
	@ args = 0, pretend = 0, frame = 8
	@ frame_needed = 0, uses_anonymous_args = 0
	str	lr, [sp, #-4]!
.LCFI18:
	.cfi_def_cfa_offset 4
	sub	sp, sp, #12
.LCFI19:
	.cfi_def_cfa_offset 16
	str	r0, [sp, #4]
	.loc 2 55 0
	ldr	r3, [sp, #4]
	ldr	r2, .L39
	str	r2, [r3, #0]
	mov	r3, #1
	and	r3, r3, #255
	cmp	r3, #0
	beq	.L37
	.cfi_offset 14, -4
	ldr	r0, [sp, #4]
	bl	_ZdlPv
.L37:
	ldr	r3, [sp, #4]
	mov	r0, r3
	add	sp, sp, #12
	ldmfd	sp!, {pc}
.L40:
	.align	2
.L39:
	.word	_ZTV7b2Shape+8
	.cfi_endproc
.LFE129:
	.size	_ZN7b2ShapeD0Ev, .-_ZN7b2ShapeD0Ev
	.section	.text._ZN7b2ShapeC2Ev,"axG",%progbits,_ZN7b2ShapeC2Ev,comdat
	.align	2
	.weak	_ZN7b2ShapeC2Ev
	.hidden	_ZN7b2ShapeC2Ev
	.type	_ZN7b2ShapeC2Ev, %function
_ZN7b2ShapeC2Ev:
.LFB133:
	.loc 2 43 0
	.cfi_startproc
	@ args = 0, pretend = 0, frame = 8
	@ frame_needed = 0, uses_anonymous_args = 0
	@ link register save eliminated.
	sub	sp, sp, #8
.LCFI20:
	.cfi_def_cfa_offset 8
	str	r0, [sp, #4]
	.loc 2 43 0
	ldr	r3, [sp, #4]
	ldr	r2, .L44
	str	r2, [r3, #0]
	ldr	r3, [sp, #4]
	mov	r0, r3
	add	sp, sp, #8
	bx	lr
.L45:
	.align	2
.L44:
	.word	_ZTV7b2Shape+8
	.cfi_endproc
.LFE133:
	.size	_ZN7b2ShapeC2Ev, .-_ZN7b2ShapeC2Ev
	.section	.text._ZN12b2ChainShapeC1Ev,"axG",%progbits,_ZN12b2ChainShapeC1Ev,comdat
	.align	2
	.weak	_ZN12b2ChainShapeC1Ev
	.hidden	_ZN12b2ChainShapeC1Ev
	.type	_ZN12b2ChainShapeC1Ev, %function
_ZN12b2ChainShapeC1Ev:
.LFB136:
	.file 3 "v:/gigglingbits/box2d/Box2D/Collision/Shapes/b2ChainShape.h"
	.loc 3 92 0
	.cfi_startproc
	@ args = 0, pretend = 0, frame = 8
	@ frame_needed = 0, uses_anonymous_args = 0
	str	lr, [sp, #-4]!
.LCFI21:
	.cfi_def_cfa_offset 4
	sub	sp, sp, #12
.LCFI22:
	.cfi_def_cfa_offset 16
	str	r0, [sp, #4]
	.loc 3 92 0
	ldr	r3, [sp, #4]
	mov	r0, r3
	.cfi_offset 14, -4
	bl	_ZN7b2ShapeC2Ev
	ldr	r3, [sp, #4]
	ldr	r2, .L49+4
	str	r2, [r3, #0]
	ldr	r3, [sp, #4]
	add	r3, r3, #20
	mov	r0, r3
	bl	_ZN6b2Vec2C1Ev
	ldr	r3, [sp, #4]
	add	r3, r3, #28
	mov	r0, r3
	bl	_ZN6b2Vec2C1Ev
	.loc 3 94 0
	ldr	r3, [sp, #4]
	mov	r2, #3
	str	r2, [r3, #4]
	.loc 3 95 0
	ldr	r3, [sp, #4]
	flds	s15, .L49
	fsts	s15, [r3, #8]
	.loc 3 96 0
	ldr	r3, [sp, #4]
	mov	r2, #0
	str	r2, [r3, #12]
	.loc 3 97 0
	ldr	r3, [sp, #4]
	mov	r2, #0
	str	r2, [r3, #16]
	.loc 3 98 0
	ldr	r3, [sp, #4]
	mov	r2, #0
	strb	r2, [r3, #36]
	.loc 3 99 0
	ldr	r3, [sp, #4]
	mov	r2, #0
	strb	r2, [r3, #37]
	.loc 3 100 0
	ldr	r3, [sp, #4]
	mov	r0, r3
	add	sp, sp, #12
	ldmfd	sp!, {pc}
.L50:
	.align	2
.L49:
	.word	1008981770
	.word	_ZTV12b2ChainShape+8
	.cfi_endproc
.LFE136:
	.size	_ZN12b2ChainShapeC1Ev, .-_ZN12b2ChainShapeC1Ev
	.section	.text._ZN11b2EdgeShapeC1Ev,"axG",%progbits,_ZN11b2EdgeShapeC1Ev,comdat
	.align	2
	.weak	_ZN11b2EdgeShapeC1Ev
	.hidden	_ZN11b2EdgeShapeC1Ev
	.type	_ZN11b2EdgeShapeC1Ev, %function
_ZN11b2EdgeShapeC1Ev:
.LFB139:
	.file 4 "v:/gigglingbits/box2d/Box2D/Collision/Shapes/b2EdgeShape.h"
	.loc 4 62 0
	.cfi_startproc
	@ args = 0, pretend = 0, frame = 8
	@ frame_needed = 0, uses_anonymous_args = 0
	str	lr, [sp, #-4]!
.LCFI23:
	.cfi_def_cfa_offset 4
	sub	sp, sp, #12
.LCFI24:
	.cfi_def_cfa_offset 16
	str	r0, [sp, #4]
	.loc 4 62 0
	ldr	r3, [sp, #4]
	mov	r0, r3
	.cfi_offset 14, -4
	bl	_ZN7b2ShapeC2Ev
	ldr	r3, [sp, #4]
	ldr	r2, .L54+8
	str	r2, [r3, #0]
	ldr	r3, [sp, #4]
	add	r3, r3, #12
	mov	r0, r3
	bl	_ZN6b2Vec2C1Ev
	ldr	r3, [sp, #4]
	add	r3, r3, #20
	mov	r0, r3
	bl	_ZN6b2Vec2C1Ev
	ldr	r3, [sp, #4]
	add	r3, r3, #28
	mov	r0, r3
	bl	_ZN6b2Vec2C1Ev
	ldr	r3, [sp, #4]
	add	r3, r3, #36
	mov	r0, r3
	bl	_ZN6b2Vec2C1Ev
	.loc 4 64 0
	ldr	r3, [sp, #4]
	mov	r2, #1
	str	r2, [r3, #4]
	.loc 4 65 0
	ldr	r3, [sp, #4]
	flds	s15, .L54
	fsts	s15, [r3, #8]
	.loc 4 66 0
	ldr	r3, [sp, #4]
	flds	s15, .L54+4
	fsts	s15, [r3, #28]
	.loc 4 67 0
	ldr	r3, [sp, #4]
	flds	s15, .L54+4
	fsts	s15, [r3, #32]
	.loc 4 68 0
	ldr	r3, [sp, #4]
	flds	s15, .L54+4
	fsts	s15, [r3, #36]
	.loc 4 69 0
	ldr	r3, [sp, #4]
	flds	s15, .L54+4
	fsts	s15, [r3, #40]
	.loc 4 70 0
	ldr	r3, [sp, #4]
	mov	r2, #0
	strb	r2, [r3, #44]
	.loc 4 71 0
	ldr	r3, [sp, #4]
	mov	r2, #0
	strb	r2, [r3, #45]
	.loc 4 72 0
	ldr	r3, [sp, #4]
	mov	r0, r3
	add	sp, sp, #12
	ldmfd	sp!, {pc}
.L55:
	.align	2
.L54:
	.word	1008981770
	.word	0
	.word	_ZTV11b2EdgeShape+8
	.cfi_endproc
.LFE139:
	.size	_ZN11b2EdgeShapeC1Ev, .-_ZN11b2EdgeShapeC1Ev
	.section	.text._ZnwjPv,"axG",%progbits,_ZnwjPv,comdat
	.align	2
	.weak	_ZnwjPv
	.hidden	_ZnwjPv
	.type	_ZnwjPv, %function
_ZnwjPv:
.LFB140:
	.file 5 "c:/marmalade/6.3/s3e/h/std/c++/new.h"
	.loc 5 52 0
	.cfi_startproc
	@ args = 0, pretend = 0, frame = 8
	@ frame_needed = 0, uses_anonymous_args = 0
	@ link register save eliminated.
	sub	sp, sp, #8
.LCFI25:
	.cfi_def_cfa_offset 8
	str	r0, [sp, #4]
	str	r1, [sp, #0]
	.loc 5 52 0
	ldr	r3, [sp, #0]
	mov	r0, r3
	add	sp, sp, #8
	bx	lr
	.cfi_endproc
.LFE140:
	.size	_ZnwjPv, .-_ZnwjPv
	.section	.text._ZN12b2ChainShapeD2Ev,"ax",%progbits
	.align	2
	.global	_ZN12b2ChainShapeD2Ev
	.hidden	_ZN12b2ChainShapeD2Ev
	.type	_ZN12b2ChainShapeD2Ev, %function
_ZN12b2ChainShapeD2Ev:
.LFB165:
	.file 6 "v:/gigglingbits/box2d/Box2D/Collision/Shapes/b2ChainShape.cpp"
	.loc 6 24 0
	.cfi_startproc
	@ args = 0, pretend = 0, frame = 8
	@ frame_needed = 0, uses_anonymous_args = 0
	str	lr, [sp, #-4]!
.LCFI26:
	.cfi_def_cfa_offset 4
	sub	sp, sp, #12
.LCFI27:
	.cfi_def_cfa_offset 16
	str	r0, [sp, #4]
	.loc 6 24 0
	ldr	r3, [sp, #4]
	ldr	r2, .L62
	str	r2, [r3, #0]
	.loc 6 26 0
	ldr	r3, [sp, #4]
	ldr	r3, [r3, #12]
	mov	r0, r3
	.cfi_offset 14, -4
	bl	_Z6b2FreePv
	.loc 6 27 0
	ldr	r3, [sp, #4]
	mov	r2, #0
	str	r2, [r3, #12]
	.loc 6 28 0
	ldr	r3, [sp, #4]
	mov	r2, #0
	str	r2, [r3, #16]
	.loc 6 29 0
	ldr	r3, [sp, #4]
	mov	r0, r3
	bl	_ZN7b2ShapeD2Ev
	mov	r3, #0
	and	r3, r3, #255
	cmp	r3, #0
	beq	.L60
	ldr	r0, [sp, #4]
	bl	_ZdlPv
.L60:
	ldr	r3, [sp, #4]
	mov	r0, r3
	add	sp, sp, #12
	ldmfd	sp!, {pc}
.L63:
	.align	2
.L62:
	.word	_ZTV12b2ChainShape+8
	.cfi_endproc
.LFE165:
	.size	_ZN12b2ChainShapeD2Ev, .-_ZN12b2ChainShapeD2Ev
	.section	.text._ZN12b2ChainShapeD1Ev,"ax",%progbits
	.align	2
	.global	_ZN12b2ChainShapeD1Ev
	.hidden	_ZN12b2ChainShapeD1Ev
	.type	_ZN12b2ChainShapeD1Ev, %function
_ZN12b2ChainShapeD1Ev:
.LFB166:
	.loc 6 24 0
	.cfi_startproc
	@ args = 0, pretend = 0, frame = 8
	@ frame_needed = 0, uses_anonymous_args = 0
	str	lr, [sp, #-4]!
.LCFI28:
	.cfi_def_cfa_offset 4
	sub	sp, sp, #12
.LCFI29:
	.cfi_def_cfa_offset 16
	str	r0, [sp, #4]
	.loc 6 24 0
	ldr	r3, [sp, #4]
	ldr	r2, .L68
	str	r2, [r3, #0]
	.loc 6 26 0
	ldr	r3, [sp, #4]
	ldr	r3, [r3, #12]
	mov	r0, r3
	.cfi_offset 14, -4
	bl	_Z6b2FreePv
	.loc 6 27 0
	ldr	r3, [sp, #4]
	mov	r2, #0
	str	r2, [r3, #12]
	.loc 6 28 0
	ldr	r3, [sp, #4]
	mov	r2, #0
	str	r2, [r3, #16]
	.loc 6 29 0
	ldr	r3, [sp, #4]
	mov	r0, r3
	bl	_ZN7b2ShapeD2Ev
	mov	r3, #0
	and	r3, r3, #255
	cmp	r3, #0
	beq	.L66
	ldr	r0, [sp, #4]
	bl	_ZdlPv
.L66:
	ldr	r3, [sp, #4]
	mov	r0, r3
	add	sp, sp, #12
	ldmfd	sp!, {pc}
.L69:
	.align	2
.L68:
	.word	_ZTV12b2ChainShape+8
	.cfi_endproc
.LFE166:
	.size	_ZN12b2ChainShapeD1Ev, .-_ZN12b2ChainShapeD1Ev
	.section	.text._ZN12b2ChainShapeD0Ev,"ax",%progbits
	.align	2
	.global	_ZN12b2ChainShapeD0Ev
	.hidden	_ZN12b2ChainShapeD0Ev
	.type	_ZN12b2ChainShapeD0Ev, %function
_ZN12b2ChainShapeD0Ev:
.LFB167:
	.loc 6 24 0
	.cfi_startproc
	@ args = 0, pretend = 0, frame = 8
	@ frame_needed = 0, uses_anonymous_args = 0
	str	lr, [sp, #-4]!
.LCFI30:
	.cfi_def_cfa_offset 4
	sub	sp, sp, #12
.LCFI31:
	.cfi_def_cfa_offset 16
	str	r0, [sp, #4]
	.loc 6 24 0
	ldr	r3, [sp, #4]
	ldr	r2, .L74
	str	r2, [r3, #0]
	.loc 6 26 0
	ldr	r3, [sp, #4]
	ldr	r3, [r3, #12]
	mov	r0, r3
	.cfi_offset 14, -4
	bl	_Z6b2FreePv
	.loc 6 27 0
	ldr	r3, [sp, #4]
	mov	r2, #0
	str	r2, [r3, #12]
	.loc 6 28 0
	ldr	r3, [sp, #4]
	mov	r2, #0
	str	r2, [r3, #16]
	.loc 6 29 0
	ldr	r3, [sp, #4]
	mov	r0, r3
	bl	_ZN7b2ShapeD2Ev
	mov	r3, #1
	and	r3, r3, #255
	cmp	r3, #0
	beq	.L72
	ldr	r0, [sp, #4]
	bl	_ZdlPv
.L72:
	ldr	r3, [sp, #4]
	mov	r0, r3
	add	sp, sp, #12
	ldmfd	sp!, {pc}
.L75:
	.align	2
.L74:
	.word	_ZTV12b2ChainShape+8
	.cfi_endproc
.LFE167:
	.size	_ZN12b2ChainShapeD0Ev, .-_ZN12b2ChainShapeD0Ev
	.section	.rodata
	.align	2
.LC0:
	.ascii	"v:/gigglingbits/box2d/Box2D/Collision/Shapes/b2Chai"
	.ascii	"nShape.cpp\000"
	.align	2
.LC1:
	.ascii	"m_vertices == __null && m_count == 0\000"
	.align	2
.LC2:
	.ascii	"count >= 3\000"
	.align	2
.LC3:
	.ascii	"b2DistanceSquared(v1, v2) > 0.005f * 0.005f\000"
	.section	.text._ZN12b2ChainShape10CreateLoopEPK6b2Vec2i,"ax",%progbits
	.align	2
	.global	_ZN12b2ChainShape10CreateLoopEPK6b2Vec2i
	.hidden	_ZN12b2ChainShape10CreateLoopEPK6b2Vec2i
	.type	_ZN12b2ChainShape10CreateLoopEPK6b2Vec2i, %function
_ZN12b2ChainShape10CreateLoopEPK6b2Vec2i:
.LFB168:
	.loc 6 32 0
	.cfi_startproc
	@ args = 0, pretend = 0, frame = 40
	@ frame_needed = 0, uses_anonymous_args = 0
	str	lr, [sp, #-4]!
.LCFI32:
	.cfi_def_cfa_offset 4
	sub	sp, sp, #44
.LCFI33:
	.cfi_def_cfa_offset 48
	str	r0, [sp, #12]
	str	r1, [sp, #8]
	str	r2, [sp, #4]
.LBB4:
	.loc 6 33 0
	ldr	r3, [sp, #12]
	ldr	r3, [r3, #12]
	cmp	r3, #0
	bne	.L77
	.cfi_offset 14, -4
	ldr	r3, [sp, #12]
	ldr	r3, [r3, #16]
	cmp	r3, #0
	beq	.L78
.L77:
	ldr	r0, .L85+4
	mov	r1, #33
	ldr	r2, .L85+8
	bl	__assert
.L78:
	.loc 6 34 0
	ldr	r3, [sp, #4]
	cmp	r3, #2
	bgt	.L79
	ldr	r0, .L85+4
	mov	r1, #34
	ldr	r2, .L85+12
	bl	__assert
.L79:
.LBB5:
	.loc 6 35 0
	mov	r3, #1
	str	r3, [sp, #36]
	b	.L80
.L83:
.LBB6:
	.loc 6 37 0
	ldr	r3, [sp, #36]
	sub	r3, r3, #1
	mov	r2, r3, asl #3
	ldr	r3, [sp, #8]
	add	r2, r2, r3
	add	r3, sp, #28
	ldmia	r2, {r0, r1}
	stmia	r3, {r0, r1}
	.loc 6 38 0
	ldr	r3, [sp, #36]
	mov	r2, r3, asl #3
	ldr	r3, [sp, #8]
	add	r2, r2, r3
	add	r3, sp, #20
	ldmia	r2, {r0, r1}
	stmia	r3, {r0, r1}
	.loc 6 40 0
	add	r2, sp, #28
	add	r3, sp, #20
	mov	r0, r2
	mov	r1, r3
	bl	_Z17b2DistanceSquaredRK6b2Vec2S1_
	fmsr	s14, r0
	flds	s15, .L85
	fcmpes	s14, s15
	fmstat
	movle	r3, #0
	movgt	r3, #1
	and	r3, r3, #255
	cmp	r3, #0
	bne	.L82
.L81:
	ldr	r0, .L85+4
	mov	r1, #40
	ldr	r2, .L85+16
	bl	__assert
.L82:
.LBE6:
	.loc 6 35 0
	ldr	r3, [sp, #36]
	add	r3, r3, #1
	str	r3, [sp, #36]
.L80:
	ldr	r2, [sp, #36]
	ldr	r3, [sp, #4]
	cmp	r2, r3
	movge	r3, #0
	movlt	r3, #1
	and	r3, r3, #255
	cmp	r3, #0
	bne	.L83
.LBE5:
	.loc 6 43 0
	ldr	r3, [sp, #4]
	add	r2, r3, #1
	ldr	r3, [sp, #12]
	str	r2, [r3, #16]
	.loc 6 44 0
	ldr	r3, [sp, #12]
	ldr	r3, [r3, #16]
	mov	r3, r3, asl #3
	mov	r0, r3
	bl	_Z7b2Alloci
	mov	r3, r0
	mov	r2, r3
	ldr	r3, [sp, #12]
	str	r2, [r3, #12]
	.loc 6 45 0
	ldr	r3, [sp, #12]
	ldr	r2, [r3, #12]
	ldr	r3, [sp, #4]
	mov	r3, r3, asl #3
	mov	r0, r2
	ldr	r1, [sp, #8]
	mov	r2, r3
	bl	memcpy
	.loc 6 46 0
	ldr	r3, [sp, #12]
	ldr	r2, [r3, #12]
	ldr	r3, [sp, #4]
	mov	r3, r3, asl #3
	add	r3, r2, r3
	ldr	r2, [sp, #12]
	ldr	r2, [r2, #12]
	ldmia	r2, {r0, r1}
	stmia	r3, {r0, r1}
	.loc 6 47 0
	ldr	r3, [sp, #12]
	ldr	r2, [r3, #12]
	ldr	r3, [sp, #12]
	ldr	r3, [r3, #16]
	sub	r3, r3, #2
	mov	r3, r3, asl #3
	add	r2, r2, r3
	ldr	r3, [sp, #12]
	add	r3, r3, #20
	ldmia	r2, {r0, r1}
	stmia	r3, {r0, r1}
	.loc 6 48 0
	ldr	r3, [sp, #12]
	ldr	r3, [r3, #12]
	add	r2, r3, #8
	ldr	r3, [sp, #12]
	add	r3, r3, #28
	ldmia	r2, {r0, r1}
	stmia	r3, {r0, r1}
	.loc 6 49 0
	ldr	r3, [sp, #12]
	mov	r2, #1
	strb	r2, [r3, #36]
	.loc 6 50 0
	ldr	r3, [sp, #12]
	mov	r2, #1
	strb	r2, [r3, #37]
.LBE4:
	.loc 6 51 0
	add	sp, sp, #44
	ldmfd	sp!, {pc}
.L86:
	.align	2
.L85:
	.word	936490775
	.word	.LC0
	.word	.LC1
	.word	.LC2
	.word	.LC3
	.cfi_endproc
.LFE168:
	.size	_ZN12b2ChainShape10CreateLoopEPK6b2Vec2i, .-_ZN12b2ChainShape10CreateLoopEPK6b2Vec2i
	.section	.rodata
	.align	2
.LC4:
	.ascii	"count >= 2\000"
	.section	.text._ZN12b2ChainShape11CreateChainEPK6b2Vec2i,"ax",%progbits
	.align	2
	.global	_ZN12b2ChainShape11CreateChainEPK6b2Vec2i
	.hidden	_ZN12b2ChainShape11CreateChainEPK6b2Vec2i
	.type	_ZN12b2ChainShape11CreateChainEPK6b2Vec2i, %function
_ZN12b2ChainShape11CreateChainEPK6b2Vec2i:
.LFB169:
	.loc 6 54 0
	.cfi_startproc
	@ args = 0, pretend = 0, frame = 40
	@ frame_needed = 0, uses_anonymous_args = 0
	str	lr, [sp, #-4]!
.LCFI34:
	.cfi_def_cfa_offset 4
	sub	sp, sp, #44
.LCFI35:
	.cfi_def_cfa_offset 48
	str	r0, [sp, #12]
	str	r1, [sp, #8]
	str	r2, [sp, #4]
.LBB7:
	.loc 6 55 0
	ldr	r3, [sp, #12]
	ldr	r3, [r3, #12]
	cmp	r3, #0
	bne	.L88
	.cfi_offset 14, -4
	ldr	r3, [sp, #12]
	ldr	r3, [r3, #16]
	cmp	r3, #0
	beq	.L89
.L88:
	ldr	r0, .L96+4
	mov	r1, #55
	ldr	r2, .L96+8
	bl	__assert
.L89:
	.loc 6 56 0
	ldr	r3, [sp, #4]
	cmp	r3, #1
	bgt	.L90
	ldr	r0, .L96+4
	mov	r1, #56
	ldr	r2, .L96+12
	bl	__assert
.L90:
.LBB8:
	.loc 6 57 0
	mov	r3, #1
	str	r3, [sp, #36]
	b	.L91
.L94:
.LBB9:
	.loc 6 59 0
	ldr	r3, [sp, #36]
	sub	r3, r3, #1
	mov	r2, r3, asl #3
	ldr	r3, [sp, #8]
	add	r2, r2, r3
	add	r3, sp, #28
	ldmia	r2, {r0, r1}
	stmia	r3, {r0, r1}
	.loc 6 60 0
	ldr	r3, [sp, #36]
	mov	r2, r3, asl #3
	ldr	r3, [sp, #8]
	add	r2, r2, r3
	add	r3, sp, #20
	ldmia	r2, {r0, r1}
	stmia	r3, {r0, r1}
	.loc 6 62 0
	add	r2, sp, #28
	add	r3, sp, #20
	mov	r0, r2
	mov	r1, r3
	bl	_Z17b2DistanceSquaredRK6b2Vec2S1_
	fmsr	s14, r0
	flds	s15, .L96
	fcmpes	s14, s15
	fmstat
	movle	r3, #0
	movgt	r3, #1
	and	r3, r3, #255
	cmp	r3, #0
	bne	.L93
.L92:
	ldr	r0, .L96+4
	mov	r1, #62
	ldr	r2, .L96+16
	bl	__assert
.L93:
.LBE9:
	.loc 6 57 0
	ldr	r3, [sp, #36]
	add	r3, r3, #1
	str	r3, [sp, #36]
.L91:
	ldr	r2, [sp, #36]
	ldr	r3, [sp, #4]
	cmp	r2, r3
	movge	r3, #0
	movlt	r3, #1
	and	r3, r3, #255
	cmp	r3, #0
	bne	.L94
.LBE8:
	.loc 6 65 0
	ldr	r3, [sp, #12]
	ldr	r2, [sp, #4]
	str	r2, [r3, #16]
	.loc 6 66 0
	ldr	r3, [sp, #4]
	mov	r3, r3, asl #3
	mov	r0, r3
	bl	_Z7b2Alloci
	mov	r3, r0
	mov	r2, r3
	ldr	r3, [sp, #12]
	str	r2, [r3, #12]
	.loc 6 67 0
	ldr	r3, [sp, #12]
	ldr	r2, [r3, #12]
	ldr	r3, [sp, #12]
	ldr	r3, [r3, #16]
	mov	r3, r3, asl #3
	mov	r0, r2
	ldr	r1, [sp, #8]
	mov	r2, r3
	bl	memcpy
	.loc 6 69 0
	ldr	r3, [sp, #12]
	mov	r2, #0
	strb	r2, [r3, #36]
	.loc 6 70 0
	ldr	r3, [sp, #12]
	mov	r2, #0
	strb	r2, [r3, #37]
	.loc 6 72 0
	ldr	r3, [sp, #12]
	add	r3, r3, #20
	mov	r0, r3
	bl	_ZN6b2Vec27SetZeroEv
	.loc 6 73 0
	ldr	r3, [sp, #12]
	add	r3, r3, #28
	mov	r0, r3
	bl	_ZN6b2Vec27SetZeroEv
.LBE7:
	.loc 6 74 0
	add	sp, sp, #44
	ldmfd	sp!, {pc}
.L97:
	.align	2
.L96:
	.word	936490775
	.word	.LC0
	.word	.LC1
	.word	.LC4
	.word	.LC3
	.cfi_endproc
.LFE169:
	.size	_ZN12b2ChainShape11CreateChainEPK6b2Vec2i, .-_ZN12b2ChainShape11CreateChainEPK6b2Vec2i
	.section	.text._ZN12b2ChainShape13SetPrevVertexERK6b2Vec2,"ax",%progbits
	.align	2
	.global	_ZN12b2ChainShape13SetPrevVertexERK6b2Vec2
	.hidden	_ZN12b2ChainShape13SetPrevVertexERK6b2Vec2
	.type	_ZN12b2ChainShape13SetPrevVertexERK6b2Vec2, %function
_ZN12b2ChainShape13SetPrevVertexERK6b2Vec2:
.LFB170:
	.loc 6 77 0
	.cfi_startproc
	@ args = 0, pretend = 0, frame = 8
	@ frame_needed = 0, uses_anonymous_args = 0
	@ link register save eliminated.
	sub	sp, sp, #8
.LCFI36:
	.cfi_def_cfa_offset 8
	str	r0, [sp, #4]
	str	r1, [sp, #0]
	.loc 6 78 0
	ldr	r3, [sp, #4]
	ldr	r2, [sp, #0]
	add	r3, r3, #20
	ldmia	r2, {r0, r1}
	stmia	r3, {r0, r1}
	.loc 6 79 0
	ldr	r3, [sp, #4]
	mov	r2, #1
	strb	r2, [r3, #36]
	.loc 6 80 0
	add	sp, sp, #8
	bx	lr
	.cfi_endproc
.LFE170:
	.size	_ZN12b2ChainShape13SetPrevVertexERK6b2Vec2, .-_ZN12b2ChainShape13SetPrevVertexERK6b2Vec2
	.section	.text._ZN12b2ChainShape13SetNextVertexERK6b2Vec2,"ax",%progbits
	.align	2
	.global	_ZN12b2ChainShape13SetNextVertexERK6b2Vec2
	.hidden	_ZN12b2ChainShape13SetNextVertexERK6b2Vec2
	.type	_ZN12b2ChainShape13SetNextVertexERK6b2Vec2, %function
_ZN12b2ChainShape13SetNextVertexERK6b2Vec2:
.LFB171:
	.loc 6 83 0
	.cfi_startproc
	@ args = 0, pretend = 0, frame = 8
	@ frame_needed = 0, uses_anonymous_args = 0
	@ link register save eliminated.
	sub	sp, sp, #8
.LCFI37:
	.cfi_def_cfa_offset 8
	str	r0, [sp, #4]
	str	r1, [sp, #0]
	.loc 6 84 0
	ldr	r3, [sp, #4]
	ldr	r2, [sp, #0]
	add	r3, r3, #28
	ldmia	r2, {r0, r1}
	stmia	r3, {r0, r1}
	.loc 6 85 0
	ldr	r3, [sp, #4]
	mov	r2, #1
	strb	r2, [r3, #37]
	.loc 6 86 0
	add	sp, sp, #8
	bx	lr
	.cfi_endproc
.LFE171:
	.size	_ZN12b2ChainShape13SetNextVertexERK6b2Vec2, .-_ZN12b2ChainShape13SetNextVertexERK6b2Vec2
	.section	.text._ZNK12b2ChainShape5CloneEP16b2BlockAllocator,"ax",%progbits
	.align	2
	.global	_ZNK12b2ChainShape5CloneEP16b2BlockAllocator
	.hidden	_ZNK12b2ChainShape5CloneEP16b2BlockAllocator
	.type	_ZNK12b2ChainShape5CloneEP16b2BlockAllocator, %function
_ZNK12b2ChainShape5CloneEP16b2BlockAllocator:
.LFB172:
	.loc 6 89 0
	.cfi_startproc
	@ args = 0, pretend = 0, frame = 16
	@ frame_needed = 0, uses_anonymous_args = 0
	stmfd	sp!, {r4, lr}
.LCFI38:
	.cfi_def_cfa_offset 8
	sub	sp, sp, #16
.LCFI39:
	.cfi_def_cfa_offset 24
	str	r0, [sp, #4]
	str	r1, [sp, #0]
.LBB10:
	.loc 6 90 0
	ldr	r0, [sp, #0]
	mov	r1, #40
	.cfi_offset 14, -4
	.cfi_offset 4, -8
	bl	_ZN16b2BlockAllocator8AllocateEi
	mov	r3, r0
	str	r3, [sp, #8]
	.loc 6 91 0
	ldr	r3, [sp, #8]
	mov	r0, #40
	mov	r1, r3
	bl	_ZnwjPv
	mov	r3, r0
	mov	r4, r3
	mov	r3, r4
	mov	r0, r3
	bl	_ZN12b2ChainShapeC1Ev
	str	r4, [sp, #12]
	.loc 6 92 0
	ldr	r3, [sp, #4]
	ldr	r2, [r3, #12]
	ldr	r3, [sp, #4]
	ldr	r3, [r3, #16]
	ldr	r0, [sp, #12]
	mov	r1, r2
	mov	r2, r3
	bl	_ZN12b2ChainShape11CreateChainEPK6b2Vec2i
	.loc 6 93 0
	ldr	r3, [sp, #12]
	ldr	r2, [sp, #4]
	add	r3, r3, #20
	add	r2, r2, #20
	ldmia	r2, {r0, r1}
	stmia	r3, {r0, r1}
	.loc 6 94 0
	ldr	r3, [sp, #12]
	ldr	r2, [sp, #4]
	add	r3, r3, #28
	add	r2, r2, #28
	ldmia	r2, {r0, r1}
	stmia	r3, {r0, r1}
	.loc 6 95 0
	ldr	r3, [sp, #4]
	ldrb	r2, [r3, #36]	@ zero_extendqisi2
	ldr	r3, [sp, #12]
	strb	r2, [r3, #36]
	.loc 6 96 0
	ldr	r3, [sp, #4]
	ldrb	r2, [r3, #37]	@ zero_extendqisi2
	ldr	r3, [sp, #12]
	strb	r2, [r3, #37]
	.loc 6 97 0
	ldr	r3, [sp, #12]
.LBE10:
	.loc 6 98 0
	mov	r0, r3
	add	sp, sp, #16
	ldmfd	sp!, {r4, pc}
	.cfi_endproc
.LFE172:
	.size	_ZNK12b2ChainShape5CloneEP16b2BlockAllocator, .-_ZNK12b2ChainShape5CloneEP16b2BlockAllocator
	.section	.text._ZNK12b2ChainShape13GetChildCountEv,"ax",%progbits
	.align	2
	.global	_ZNK12b2ChainShape13GetChildCountEv
	.hidden	_ZNK12b2ChainShape13GetChildCountEv
	.type	_ZNK12b2ChainShape13GetChildCountEv, %function
_ZNK12b2ChainShape13GetChildCountEv:
.LFB173:
	.loc 6 101 0
	.cfi_startproc
	@ args = 0, pretend = 0, frame = 8
	@ frame_needed = 0, uses_anonymous_args = 0
	@ link register save eliminated.
	sub	sp, sp, #8
.LCFI40:
	.cfi_def_cfa_offset 8
	str	r0, [sp, #4]
	.loc 6 103 0
	ldr	r3, [sp, #4]
	ldr	r3, [r3, #16]
	sub	r3, r3, #1
	.loc 6 104 0
	mov	r0, r3
	add	sp, sp, #8
	bx	lr
	.cfi_endproc
.LFE173:
	.size	_ZNK12b2ChainShape13GetChildCountEv, .-_ZNK12b2ChainShape13GetChildCountEv
	.section	.rodata
	.align	2
.LC5:
	.ascii	"0 <= index && index < m_count - 1\000"
	.section	.text._ZNK12b2ChainShape12GetChildEdgeEP11b2EdgeShapei,"ax",%progbits
	.align	2
	.global	_ZNK12b2ChainShape12GetChildEdgeEP11b2EdgeShapei
	.hidden	_ZNK12b2ChainShape12GetChildEdgeEP11b2EdgeShapei
	.type	_ZNK12b2ChainShape12GetChildEdgeEP11b2EdgeShapei, %function
_ZNK12b2ChainShape12GetChildEdgeEP11b2EdgeShapei:
.LFB174:
	.loc 6 107 0
	.cfi_startproc
	@ args = 0, pretend = 0, frame = 16
	@ frame_needed = 0, uses_anonymous_args = 0
	str	lr, [sp, #-4]!
.LCFI41:
	.cfi_def_cfa_offset 4
	sub	sp, sp, #20
.LCFI42:
	.cfi_def_cfa_offset 24
	str	r0, [sp, #12]
	str	r1, [sp, #8]
	str	r2, [sp, #4]
	.loc 6 108 0
	ldr	r3, [sp, #4]
	cmp	r3, #0
	blt	.L107
	.cfi_offset 14, -4
	ldr	r3, [sp, #12]
	ldr	r3, [r3, #16]
	sub	r2, r3, #1
	ldr	r3, [sp, #4]
	cmp	r2, r3
	bgt	.L108
.L107:
	ldr	r0, .L114
	mov	r1, #108
	ldr	r2, .L114+4
	bl	__assert
.L108:
	.loc 6 109 0
	ldr	r3, [sp, #8]
	mov	r2, #1
	str	r2, [r3, #4]
	.loc 6 110 0
	ldr	r3, [sp, #12]
	flds	s15, [r3, #8]
	ldr	r3, [sp, #8]
	fsts	s15, [r3, #8]
	.loc 6 112 0
	ldr	r3, [sp, #12]
	ldr	r2, [r3, #12]
	ldr	r3, [sp, #4]
	mov	r3, r3, asl #3
	add	r2, r2, r3
	ldr	r3, [sp, #8]
	add	r3, r3, #12
	ldmia	r2, {r0, r1}
	stmia	r3, {r0, r1}
	.loc 6 113 0
	ldr	r3, [sp, #12]
	ldr	r2, [r3, #12]
	ldr	r3, [sp, #4]
	add	r3, r3, #1
	mov	r3, r3, asl #3
	add	r2, r2, r3
	ldr	r3, [sp, #8]
	add	r3, r3, #20
	ldmia	r2, {r0, r1}
	stmia	r3, {r0, r1}
	.loc 6 115 0
	ldr	r3, [sp, #4]
	cmp	r3, #0
	ble	.L109
	.loc 6 117 0
	ldr	r3, [sp, #12]
	ldr	r2, [r3, #12]
	ldr	r3, [sp, #4]
	sub	r3, r3, #1
	mov	r3, r3, asl #3
	add	r2, r2, r3
	ldr	r3, [sp, #8]
	add	r3, r3, #28
	ldmia	r2, {r0, r1}
	stmia	r3, {r0, r1}
	.loc 6 118 0
	ldr	r3, [sp, #8]
	mov	r2, #1
	strb	r2, [r3, #44]
	b	.L110
.L109:
	.loc 6 122 0
	ldr	r3, [sp, #8]
	ldr	r2, [sp, #12]
	add	r3, r3, #28
	add	r2, r2, #20
	ldmia	r2, {r0, r1}
	stmia	r3, {r0, r1}
	.loc 6 123 0
	ldr	r3, [sp, #12]
	ldrb	r2, [r3, #36]	@ zero_extendqisi2
	ldr	r3, [sp, #8]
	strb	r2, [r3, #44]
.L110:
	.loc 6 126 0
	ldr	r3, [sp, #12]
	ldr	r3, [r3, #16]
	sub	r2, r3, #2
	ldr	r3, [sp, #4]
	cmp	r2, r3
	ble	.L111
	.loc 6 128 0
	ldr	r3, [sp, #12]
	ldr	r2, [r3, #12]
	ldr	r3, [sp, #4]
	add	r3, r3, #2
	mov	r3, r3, asl #3
	add	r2, r2, r3
	ldr	r3, [sp, #8]
	add	r3, r3, #36
	ldmia	r2, {r0, r1}
	stmia	r3, {r0, r1}
	.loc 6 129 0
	ldr	r3, [sp, #8]
	mov	r2, #1
	strb	r2, [r3, #45]
	b	.L113
.L111:
	.loc 6 133 0
	ldr	r3, [sp, #8]
	ldr	r2, [sp, #12]
	add	r3, r3, #36
	add	r2, r2, #28
	ldmia	r2, {r0, r1}
	stmia	r3, {r0, r1}
	.loc 6 134 0
	ldr	r3, [sp, #12]
	ldrb	r2, [r3, #37]	@ zero_extendqisi2
	ldr	r3, [sp, #8]
	strb	r2, [r3, #45]
.L113:
	.loc 6 136 0
	add	sp, sp, #20
	ldmfd	sp!, {pc}
.L115:
	.align	2
.L114:
	.word	.LC0
	.word	.LC5
	.cfi_endproc
.LFE174:
	.size	_ZNK12b2ChainShape12GetChildEdgeEP11b2EdgeShapei, .-_ZNK12b2ChainShape12GetChildEdgeEP11b2EdgeShapei
	.section	.text._ZNK12b2ChainShape9TestPointERK11b2TransformRK6b2Vec2,"ax",%progbits
	.align	2
	.global	_ZNK12b2ChainShape9TestPointERK11b2TransformRK6b2Vec2
	.hidden	_ZNK12b2ChainShape9TestPointERK11b2TransformRK6b2Vec2
	.type	_ZNK12b2ChainShape9TestPointERK11b2TransformRK6b2Vec2, %function
_ZNK12b2ChainShape9TestPointERK11b2TransformRK6b2Vec2:
.LFB175:
	.loc 6 139 0
	.cfi_startproc
	@ args = 0, pretend = 0, frame = 16
	@ frame_needed = 0, uses_anonymous_args = 0
	@ link register save eliminated.
	sub	sp, sp, #16
.LCFI43:
	.cfi_def_cfa_offset 16
	str	r0, [sp, #12]
	str	r1, [sp, #8]
	str	r2, [sp, #4]
	.loc 6 142 0
	mov	r3, #0
	.loc 6 143 0
	mov	r0, r3
	add	sp, sp, #16
	bx	lr
	.cfi_endproc
.LFE175:
	.size	_ZNK12b2ChainShape9TestPointERK11b2TransformRK6b2Vec2, .-_ZNK12b2ChainShape9TestPointERK11b2TransformRK6b2Vec2
	.section	.text._ZN11b2EdgeShapeD1Ev,"axG",%progbits,_ZN11b2EdgeShapeD1Ev,comdat
	.align	2
	.weak	_ZN11b2EdgeShapeD1Ev
	.hidden	_ZN11b2EdgeShapeD1Ev
	.type	_ZN11b2EdgeShapeD1Ev, %function
_ZN11b2EdgeShapeD1Ev:
.LFB179:
	.loc 4 28 0
	.cfi_startproc
	@ args = 0, pretend = 0, frame = 8
	@ frame_needed = 0, uses_anonymous_args = 0
	str	lr, [sp, #-4]!
.LCFI44:
	.cfi_def_cfa_offset 4
	sub	sp, sp, #12
.LCFI45:
	.cfi_def_cfa_offset 16
	str	r0, [sp, #4]
	.loc 4 28 0
	ldr	r3, [sp, #4]
	ldr	r2, .L122
	str	r2, [r3, #0]
	ldr	r3, [sp, #4]
	mov	r0, r3
	.cfi_offset 14, -4
	bl	_ZN7b2ShapeD2Ev
	mov	r3, #0
	and	r3, r3, #255
	cmp	r3, #0
	beq	.L120
	ldr	r0, [sp, #4]
	bl	_ZdlPv
.L120:
	ldr	r3, [sp, #4]
	mov	r0, r3
	add	sp, sp, #12
	ldmfd	sp!, {pc}
.L123:
	.align	2
.L122:
	.word	_ZTV11b2EdgeShape+8
	.cfi_endproc
.LFE179:
	.size	_ZN11b2EdgeShapeD1Ev, .-_ZN11b2EdgeShapeD1Ev
	.section	.rodata
	.align	2
.LC6:
	.ascii	"childIndex < m_count\000"
	.section	.text._ZNK12b2ChainShape7RayCastEP15b2RayCastOutputRK14b2RayCastInputRK11b2Transformi,"ax",%progbits
	.align	2
	.global	_ZNK12b2ChainShape7RayCastEP15b2RayCastOutputRK14b2RayCastInputRK11b2Transformi
	.hidden	_ZNK12b2ChainShape7RayCastEP15b2RayCastOutputRK14b2RayCastInputRK11b2Transformi
	.type	_ZNK12b2ChainShape7RayCastEP15b2RayCastOutputRK14b2RayCastInputRK11b2Transformi, %function
_ZNK12b2ChainShape7RayCastEP15b2RayCastOutputRK14b2RayCastInputRK11b2Transformi:
.LFB176:
	.loc 6 147 0
	.cfi_startproc
	@ args = 4, pretend = 0, frame = 72
	@ frame_needed = 0, uses_anonymous_args = 0
	stmfd	sp!, {r4, lr}
.LCFI46:
	.cfi_def_cfa_offset 8
	sub	sp, sp, #80
.LCFI47:
	.cfi_def_cfa_offset 88
	str	r0, [sp, #20]
	str	r1, [sp, #16]
	str	r2, [sp, #12]
	str	r3, [sp, #8]
.LBB11:
	.loc 6 148 0
	ldr	r3, [sp, #20]
	ldr	r2, [r3, #16]
	ldr	r3, [sp, #88]
	cmp	r2, r3
	bgt	.L125
	.cfi_offset 14, -4
	.cfi_offset 4, -8
	ldr	r0, .L128
	mov	r1, #148
	ldr	r2, .L128+4
	bl	__assert
.L125:
	.loc 6 150 0
	add	r3, sp, #24
	mov	r0, r3
	bl	_ZN11b2EdgeShapeC1Ev
	.loc 6 152 0
	ldr	r3, [sp, #88]
	str	r3, [sp, #72]
	.loc 6 153 0
	ldr	r3, [sp, #88]
	add	r3, r3, #1
	str	r3, [sp, #76]
	.loc 6 154 0
	ldr	r3, [sp, #20]
	ldr	r2, [r3, #16]
	ldr	r3, [sp, #76]
	cmp	r2, r3
	bne	.L126
	.loc 6 156 0
	mov	r3, #0
	str	r3, [sp, #76]
.L126:
	.loc 6 159 0
	ldr	r3, [sp, #20]
	ldr	r2, [r3, #12]
	ldr	r3, [sp, #72]
	mov	r3, r3, asl #3
	add	r2, r2, r3
	add	r3, sp, #36
	ldmia	r2, {r0, r1}
	stmia	r3, {r0, r1}
	.loc 6 160 0
	ldr	r3, [sp, #20]
	ldr	r2, [r3, #12]
	ldr	r3, [sp, #76]
	mov	r3, r3, asl #3
	add	r2, r2, r3
	add	r3, sp, #44
	ldmia	r2, {r0, r1}
	stmia	r3, {r0, r1}
	.loc 6 162 0
	add	r3, sp, #24
	mov	r2, #0
	str	r2, [sp, #0]
	mov	r0, r3
	ldr	r1, [sp, #16]
	ldr	r2, [sp, #12]
	ldr	r3, [sp, #8]
	bl	_ZNK11b2EdgeShape7RayCastEP15b2RayCastOutputRK14b2RayCastInputRK11b2Transformi
	mov	r3, r0
	mov	r4, r3
	add	r3, sp, #24
	mov	r0, r3
	bl	_ZN11b2EdgeShapeD1Ev
	mov	r3, r4
.LBE11:
	.loc 6 163 0
	mov	r0, r3
	add	sp, sp, #80
	ldmfd	sp!, {r4, pc}
.L129:
	.align	2
.L128:
	.word	.LC0
	.word	.LC6
	.cfi_endproc
.LFE176:
	.size	_ZNK12b2ChainShape7RayCastEP15b2RayCastOutputRK14b2RayCastInputRK11b2Transformi, .-_ZNK12b2ChainShape7RayCastEP15b2RayCastOutputRK14b2RayCastInputRK11b2Transformi
	.section	.text._ZNK12b2ChainShape11ComputeAABBEP6b2AABBRK11b2Transformi,"ax",%progbits
	.align	2
	.global	_ZNK12b2ChainShape11ComputeAABBEP6b2AABBRK11b2Transformi
	.hidden	_ZNK12b2ChainShape11ComputeAABBEP6b2AABBRK11b2Transformi
	.type	_ZNK12b2ChainShape11ComputeAABBEP6b2AABBRK11b2Transformi, %function
_ZNK12b2ChainShape11ComputeAABBEP6b2AABBRK11b2Transformi:
.LFB181:
	.loc 6 166 0
	.cfi_startproc
	@ args = 0, pretend = 0, frame = 48
	@ frame_needed = 0, uses_anonymous_args = 0
	stmfd	sp!, {r4, lr}
.LCFI48:
	.cfi_def_cfa_offset 8
	sub	sp, sp, #48
.LCFI49:
	.cfi_def_cfa_offset 56
	str	r0, [sp, #20]
	str	r1, [sp, #16]
	str	r2, [sp, #12]
	str	r3, [sp, #8]
.LBB12:
	.loc 6 167 0
	ldr	r3, [sp, #20]
	ldr	r2, [r3, #16]
	ldr	r3, [sp, #8]
	cmp	r2, r3
	bgt	.L131
	.cfi_offset 14, -4
	.cfi_offset 4, -8
	ldr	r0, .L134
	mov	r1, #167
	ldr	r2, .L134+4
	bl	__assert
.L131:
	.loc 6 169 0
	ldr	r3, [sp, #8]
	str	r3, [sp, #40]
	.loc 6 170 0
	ldr	r3, [sp, #8]
	add	r3, r3, #1
	str	r3, [sp, #44]
	.loc 6 171 0
	ldr	r3, [sp, #20]
	ldr	r2, [r3, #16]
	ldr	r3, [sp, #44]
	cmp	r2, r3
	bne	.L132
	.loc 6 173 0
	mov	r3, #0
	str	r3, [sp, #44]
.L132:
	.loc 6 176 0
	ldr	r3, [sp, #20]
	ldr	r2, [r3, #12]
	ldr	r3, [sp, #40]
	mov	r3, r3, asl #3
	add	r3, r2, r3
	add	r2, sp, #32
	mov	r0, r2
	ldr	r1, [sp, #12]
	mov	r2, r3
	bl	_Z5b2MulRK11b2TransformRK6b2Vec2
	.loc 6 177 0
	ldr	r3, [sp, #20]
	ldr	r2, [r3, #12]
	ldr	r3, [sp, #44]
	mov	r3, r3, asl #3
	add	r3, r2, r3
	add	r2, sp, #24
	mov	r0, r2
	ldr	r1, [sp, #12]
	mov	r2, r3
	bl	_Z5b2MulRK11b2TransformRK6b2Vec2
	.loc 6 179 0
	ldr	r4, [sp, #16]
	mov	r1, sp
	add	r2, sp, #32
	add	r3, sp, #24
	mov	r0, r1
	mov	r1, r2
	mov	r2, r3
	bl	_Z5b2MinRK6b2Vec2S1_
	mov	r3, r4
	mov	r2, sp
	ldmia	r2, {r0, r1}
	stmia	r3, {r0, r1}
	.loc 6 180 0
	ldr	r4, [sp, #16]
	mov	r1, sp
	add	r2, sp, #32
	add	r3, sp, #24
	mov	r0, r1
	mov	r1, r2
	mov	r2, r3
	bl	_Z5b2MaxRK6b2Vec2S1_
	add	r3, r4, #8
	mov	r2, sp
	ldmia	r2, {r0, r1}
	stmia	r3, {r0, r1}
.LBE12:
	.loc 6 181 0
	add	sp, sp, #48
	ldmfd	sp!, {r4, pc}
.L135:
	.align	2
.L134:
	.word	.LC0
	.word	.LC6
	.cfi_endproc
.LFE181:
	.size	_ZNK12b2ChainShape11ComputeAABBEP6b2AABBRK11b2Transformi, .-_ZNK12b2ChainShape11ComputeAABBEP6b2AABBRK11b2Transformi
	.section	.text._ZNK12b2ChainShape11ComputeMassEP10b2MassDataf,"ax",%progbits
	.align	2
	.global	_ZNK12b2ChainShape11ComputeMassEP10b2MassDataf
	.hidden	_ZNK12b2ChainShape11ComputeMassEP10b2MassDataf
	.type	_ZNK12b2ChainShape11ComputeMassEP10b2MassDataf, %function
_ZNK12b2ChainShape11ComputeMassEP10b2MassDataf:
.LFB182:
	.loc 6 184 0
	.cfi_startproc
	@ args = 0, pretend = 0, frame = 16
	@ frame_needed = 0, uses_anonymous_args = 0
	str	lr, [sp, #-4]!
.LCFI50:
	.cfi_def_cfa_offset 4
	sub	sp, sp, #20
.LCFI51:
	.cfi_def_cfa_offset 24
	str	r0, [sp, #12]
	str	r1, [sp, #8]
	str	r2, [sp, #4]	@ float
	.loc 6 187 0
	ldr	r3, [sp, #8]
	flds	s15, .L138
	fsts	s15, [r3, #0]
	.loc 6 188 0
	ldr	r3, [sp, #8]
	add	r3, r3, #4
	mov	r0, r3
	.cfi_offset 14, -4
	bl	_ZN6b2Vec27SetZeroEv
	.loc 6 189 0
	ldr	r3, [sp, #8]
	flds	s15, .L138
	fsts	s15, [r3, #12]
	.loc 6 190 0
	add	sp, sp, #20
	ldmfd	sp!, {pc}
.L139:
	.align	2
.L138:
	.word	0
	.cfi_endproc
.LFE182:
	.size	_ZNK12b2ChainShape11ComputeMassEP10b2MassDataf, .-_ZNK12b2ChainShape11ComputeMassEP10b2MassDataf
	.section	.text._Z5b2MinIfET_S0_S0_,"axG",%progbits,_Z5b2MinIfET_S0_S0_,comdat
	.align	2
	.weak	_Z5b2MinIfET_S0_S0_
	.hidden	_Z5b2MinIfET_S0_S0_
	.type	_Z5b2MinIfET_S0_S0_, %function
_Z5b2MinIfET_S0_S0_:
.LFB184:
	.loc 1 632 0
	.cfi_startproc
	@ args = 0, pretend = 0, frame = 8
	@ frame_needed = 0, uses_anonymous_args = 0
	@ link register save eliminated.
	sub	sp, sp, #8
.LCFI52:
	.cfi_def_cfa_offset 8
	str	r0, [sp, #4]	@ float
	str	r1, [sp, #0]	@ float
	.loc 1 634 0
	flds	s14, [sp, #4]
	flds	s15, [sp, #0]
	fcmpes	s14, s15
	fmstat
	movpl	r3, #0
	movmi	r3, #1
	and	r3, r3, #255
	cmp	r3, #0
	beq	.L141
	flds	s15, [sp, #4]
	b	.L142
.L141:
	flds	s15, [sp, #0]
.L142:
	fmrs	r3, s15
	.loc 1 635 0
	mov	r0, r3	@ float
	add	sp, sp, #8
	bx	lr
	.cfi_endproc
.LFE184:
	.size	_Z5b2MinIfET_S0_S0_, .-_Z5b2MinIfET_S0_S0_
	.section	.text._Z5b2MaxIfET_S0_S0_,"axG",%progbits,_Z5b2MaxIfET_S0_S0_,comdat
	.align	2
	.weak	_Z5b2MaxIfET_S0_S0_
	.hidden	_Z5b2MaxIfET_S0_S0_
	.type	_Z5b2MaxIfET_S0_S0_, %function
_Z5b2MaxIfET_S0_S0_:
.LFB185:
	.loc 1 643 0
	.cfi_startproc
	@ args = 0, pretend = 0, frame = 8
	@ frame_needed = 0, uses_anonymous_args = 0
	@ link register save eliminated.
	sub	sp, sp, #8
.LCFI53:
	.cfi_def_cfa_offset 8
	str	r0, [sp, #4]	@ float
	str	r1, [sp, #0]	@ float
	.loc 1 645 0
	flds	s14, [sp, #4]
	flds	s15, [sp, #0]
	fcmpes	s14, s15
	fmstat
	movle	r3, #0
	movgt	r3, #1
	and	r3, r3, #255
	cmp	r3, #0
	beq	.L145
	flds	s15, [sp, #4]
	b	.L146
.L145:
	flds	s15, [sp, #0]
.L146:
	fmrs	r3, s15
	.loc 1 646 0
	mov	r0, r3	@ float
	add	sp, sp, #8
	bx	lr
	.cfi_endproc
.LFE185:
	.size	_Z5b2MaxIfET_S0_S0_, .-_Z5b2MaxIfET_S0_S0_
	.hidden	_ZTV12b2ChainShape
	.global	_ZTV12b2ChainShape
	.section	.rodata
	.align	3
	.type	_ZTV12b2ChainShape, %object
	.size	_ZTV12b2ChainShape, 40
_ZTV12b2ChainShape:
	.word	0
	.word	_ZTI12b2ChainShape
	.word	_ZN12b2ChainShapeD1Ev
	.word	_ZN12b2ChainShapeD0Ev
	.word	_ZNK12b2ChainShape5CloneEP16b2BlockAllocator
	.word	_ZNK12b2ChainShape13GetChildCountEv
	.word	_ZNK12b2ChainShape9TestPointERK11b2TransformRK6b2Vec2
	.word	_ZNK12b2ChainShape7RayCastEP15b2RayCastOutputRK14b2RayCastInputRK11b2Transformi
	.word	_ZNK12b2ChainShape11ComputeAABBEP6b2AABBRK11b2Transformi
	.word	_ZNK12b2ChainShape11ComputeMassEP10b2MassDataf
	.hidden	_ZTV7b2Shape
	.weak	_ZTV7b2Shape
	.section	.rodata._ZTV7b2Shape,"aG",%progbits,_ZTV7b2Shape,comdat
	.align	3
	.type	_ZTV7b2Shape, %object
	.size	_ZTV7b2Shape, 40
_ZTV7b2Shape:
	.word	0
	.word	_ZTI7b2Shape
	.word	_ZN7b2ShapeD1Ev
	.word	_ZN7b2ShapeD0Ev
	.word	__cxa_pure_virtual
	.word	__cxa_pure_virtual
	.word	__cxa_pure_virtual
	.word	__cxa_pure_virtual
	.word	__cxa_pure_virtual
	.word	__cxa_pure_virtual
	.hidden	_ZTI12b2ChainShape
	.global	_ZTI12b2ChainShape
	.section	.rodata
	.align	2
	.type	_ZTI12b2ChainShape, %object
	.size	_ZTI12b2ChainShape, 12
_ZTI12b2ChainShape:
	.word	_ZTVN10__cxxabiv120__si_class_type_infoE+8
	.word	_ZTS12b2ChainShape
	.word	_ZTI7b2Shape
	.hidden	_ZTS12b2ChainShape
	.global	_ZTS12b2ChainShape
	.align	2
	.type	_ZTS12b2ChainShape, %object
	.size	_ZTS12b2ChainShape, 15
_ZTS12b2ChainShape:
	.ascii	"12b2ChainShape\000"
	.hidden	_ZTS7b2Shape
	.weak	_ZTS7b2Shape
	.section	.rodata._ZTS7b2Shape,"aG",%progbits,_ZTS7b2Shape,comdat
	.align	2
	.type	_ZTS7b2Shape, %object
	.size	_ZTS7b2Shape, 9
_ZTS7b2Shape:
	.ascii	"7b2Shape\000"
	.hidden	_ZTI7b2Shape
	.weak	_ZTI7b2Shape
	.section	.rodata._ZTI7b2Shape,"aG",%progbits,_ZTI7b2Shape,comdat
	.align	2
	.type	_ZTI7b2Shape, %object
	.size	_ZTI7b2Shape, 8
_ZTI7b2Shape:
	.word	_ZTVN10__cxxabiv117__class_type_infoE+8
	.word	_ZTS7b2Shape
	.section	.rodata
	.align	2
	.type	_ZL12b2_chunkSize, %object
	.size	_ZL12b2_chunkSize, 4
_ZL12b2_chunkSize:
	.word	16384
	.align	2
	.type	_ZL15b2_maxBlockSize, %object
	.size	_ZL15b2_maxBlockSize, 4
_ZL15b2_maxBlockSize:
	.word	640
	.align	2
	.type	_ZL13b2_blockSizes, %object
	.size	_ZL13b2_blockSizes, 4
_ZL13b2_blockSizes:
	.word	14
	.align	2
	.type	_ZL22b2_chunkArrayIncrement, %object
	.size	_ZL22b2_chunkArrayIncrement, 4
_ZL22b2_chunkArrayIncrement:
	.word	128
	.type	_ZL14b2_nullFeature, %object
	.size	_ZL14b2_nullFeature, 1
_ZL14b2_nullFeature:
	.byte	-1
	.text
.Letext0: