	.arch armv5te
	.eabi_attribute 27, 3
	.fpu vfp
	.eabi_attribute 20, 1
	.eabi_attribute 21, 1
	.eabi_attribute 23, 3
	.eabi_attribute 24, 1
	.eabi_attribute 25, 1
	.eabi_attribute 26, 2
	.eabi_attribute 30, 6
	.eabi_attribute 18, 2
	.file	"b2CollideCircle.cpp"
	.text
.Ltext0:
	.cfi_sections	.debug_frame
	.section	.text._ZN6b2Vec2C1Eff,"axG",%progbits,_ZN6b2Vec2C1Eff,comdat
	.align	2
	.weak	_ZN6b2Vec2C1Eff
	.hidden	_ZN6b2Vec2C1Eff
	.type	_ZN6b2Vec2C1Eff, %function
_ZN6b2Vec2C1Eff:
.LFB7:
	.file 1 "v:/gigglingbits/box2d/Box2D/Common/b2Math.h"
	.loc 1 59 0
	.cfi_startproc
	@ args = 0, pretend = 0, frame = 16
	@ frame_needed = 0, uses_anonymous_args = 0
	@ link register save eliminated.
	sub	sp, sp, #16
.LCFI0:
	.cfi_def_cfa_offset 16
	str	r0, [sp, #12]
	str	r1, [sp, #8]	@ float
	str	r2, [sp, #4]	@ float
	.loc 1 59 0
	ldr	r3, [sp, #12]
	flds	s15, [sp, #8]
	fsts	s15, [r3, #0]
	ldr	r3, [sp, #12]
	flds	s15, [sp, #4]
	fsts	s15, [r3, #4]
	ldr	r3, [sp, #12]
	mov	r0, r3
	add	sp, sp, #16
	bx	lr
	.cfi_endproc
.LFE7:
	.size	_ZN6b2Vec2C1Eff, .-_ZN6b2Vec2C1Eff
	.section	.text._ZN6b2Vec27SetZeroEv,"axG",%progbits,_ZN6b2Vec27SetZeroEv,comdat
	.align	2
	.weak	_ZN6b2Vec27SetZeroEv
	.hidden	_ZN6b2Vec27SetZeroEv
	.type	_ZN6b2Vec27SetZeroEv, %function
_ZN6b2Vec27SetZeroEv:
.LFB8:
	.loc 1 62 0
	.cfi_startproc
	@ args = 0, pretend = 0, frame = 8
	@ frame_needed = 0, uses_anonymous_args = 0
	@ link register save eliminated.
	sub	sp, sp, #8
.LCFI1:
	.cfi_def_cfa_offset 8
	str	r0, [sp, #4]
	.loc 1 62 0
	ldr	r3, [sp, #4]
	flds	s15, .L6
	fsts	s15, [r3, #0]
	ldr	r3, [sp, #4]
	flds	s15, .L6
	fsts	s15, [r3, #4]
	add	sp, sp, #8
	bx	lr
.L7:
	.align	2
.L6:
	.word	0
	.cfi_endproc
.LFE8:
	.size	_ZN6b2Vec27SetZeroEv, .-_ZN6b2Vec27SetZeroEv
	.section	.text._ZNK6b2Vec26LengthEv,"axG",%progbits,_ZNK6b2Vec26LengthEv,comdat
	.align	2
	.weak	_ZNK6b2Vec26LengthEv
	.hidden	_ZNK6b2Vec26LengthEv
	.type	_ZNK6b2Vec26LengthEv, %function
_ZNK6b2Vec26LengthEv:
.LFB16:
	.loc 1 101 0
	.cfi_startproc
	@ args = 0, pretend = 0, frame = 8
	@ frame_needed = 0, uses_anonymous_args = 0
	str	lr, [sp, #-4]!
.LCFI2:
	.cfi_def_cfa_offset 4
	sub	sp, sp, #12
.LCFI3:
	.cfi_def_cfa_offset 16
	str	r0, [sp, #4]
	.loc 1 103 0
	ldr	r3, [sp, #4]
	flds	s14, [r3, #0]
	ldr	r3, [sp, #4]
	flds	s15, [r3, #0]
	fmuls	s14, s14, s15
	ldr	r3, [sp, #4]
	flds	s13, [r3, #4]
	ldr	r3, [sp, #4]
	flds	s15, [r3, #4]
	fmuls	s15, s13, s15
	fadds	s14, s14, s15
	fsqrts	s15, s14
	fcmps	s15, s15
	fmstat
	beq	.L9
	.cfi_offset 14, -4
	fmrs	r0, s14
	bl	sqrtf
	fmsr	s15, r0
.L9:
	fmrs	r3, s15
	.loc 1 104 0
	mov	r0, r3	@ float
	add	sp, sp, #12
	ldmfd	sp!, {pc}
	.cfi_endproc
.LFE16:
	.size	_ZNK6b2Vec26LengthEv, .-_ZNK6b2Vec26LengthEv
	.section	.text._ZN6b2Vec29NormalizeEv,"axG",%progbits,_ZN6b2Vec29NormalizeEv,comdat
	.align	2
	.weak	_ZN6b2Vec29NormalizeEv
	.hidden	_ZN6b2Vec29NormalizeEv
	.type	_ZN6b2Vec29NormalizeEv, %function
_ZN6b2Vec29NormalizeEv:
.LFB18:
	.loc 1 114 0
	.cfi_startproc
	@ args = 0, pretend = 0, frame = 16
	@ frame_needed = 0, uses_anonymous_args = 0
	str	lr, [sp, #-4]!
.LCFI4:
	.cfi_def_cfa_offset 4
	sub	sp, sp, #20
.LCFI5:
	.cfi_def_cfa_offset 24
	str	r0, [sp, #4]
.LBB2:
	.loc 1 116 0
	ldr	r0, [sp, #4]
	.cfi_offset 14, -4
	bl	_ZNK6b2Vec26LengthEv
	mov	r3, r0	@ float
	str	r3, [sp, #8]	@ float
	.loc 1 117 0
	flds	s14, [sp, #8]
	flds	s15, .L15
	fcmpes	s14, s15
	fmstat
	movpl	r3, #0
	movmi	r3, #1
	and	r3, r3, #255
	cmp	r3, #0
	beq	.L12
	.loc 1 119 0
	flds	s15, .L15+4
	b	.L13
.L12:
	.loc 1 121 0
	flds	s14, .L15+8
	flds	s15, [sp, #8]
	fdivs	s15, s14, s15
	fsts	s15, [sp, #12]
	.loc 1 122 0
	ldr	r3, [sp, #4]
	flds	s14, [r3, #0]
	flds	s15, [sp, #12]
	fmuls	s15, s14, s15
	ldr	r3, [sp, #4]
	fsts	s15, [r3, #0]
	.loc 1 123 0
	ldr	r3, [sp, #4]
	flds	s14, [r3, #4]
	flds	s15, [sp, #12]
	fmuls	s15, s14, s15
	ldr	r3, [sp, #4]
	fsts	s15, [r3, #4]
	.loc 1 125 0
	flds	s15, [sp, #8]
.L13:
	fmrs	r3, s15
.LBE2:
	.loc 1 126 0
	mov	r0, r3	@ float
	add	sp, sp, #20
	ldmfd	sp!, {pc}
.L16:
	.align	2
.L15:
	.word	872415232
	.word	0
	.word	1065353216
	.cfi_endproc
.LFE18:
	.size	_ZN6b2Vec29NormalizeEv, .-_ZN6b2Vec29NormalizeEv
	.section	.text._Z5b2DotRK6b2Vec2S1_,"axG",%progbits,_Z5b2DotRK6b2Vec2S1_,comdat
	.align	2
	.weak	_Z5b2DotRK6b2Vec2S1_
	.hidden	_Z5b2DotRK6b2Vec2S1_
	.type	_Z5b2DotRK6b2Vec2S1_, %function
_Z5b2DotRK6b2Vec2S1_:
.LFB73:
	.loc 1 407 0
	.cfi_startproc
	@ args = 0, pretend = 0, frame = 8
	@ frame_needed = 0, uses_anonymous_args = 0
	@ link register save eliminated.
	sub	sp, sp, #8
.LCFI6:
	.cfi_def_cfa_offset 8
	str	r0, [sp, #4]
	str	r1, [sp, #0]
	.loc 1 408 0
	ldr	r3, [sp, #4]
	flds	s14, [r3, #0]
	ldr	r3, [sp, #0]
	flds	s15, [r3, #0]
	fmuls	s14, s14, s15
	ldr	r3, [sp, #4]
	flds	s13, [r3, #4]
	ldr	r3, [sp, #0]
	flds	s15, [r3, #4]
	fmuls	s15, s13, s15
	fadds	s15, s14, s15
	fmrs	r3, s15
	.loc 1 409 0
	mov	r0, r3	@ float
	add	sp, sp, #8
	bx	lr
	.cfi_endproc
.LFE73:
	.size	_Z5b2DotRK6b2Vec2S1_, .-_Z5b2DotRK6b2Vec2S1_
	.section	.text._ZplRK6b2Vec2S1_,"axG",%progbits,_ZplRK6b2Vec2S1_,comdat
	.align	2
	.weak	_ZplRK6b2Vec2S1_
	.hidden	_ZplRK6b2Vec2S1_
	.type	_ZplRK6b2Vec2S1_, %function
_ZplRK6b2Vec2S1_:
.LFB79:
	.loc 1 447 0
	.cfi_startproc
	@ args = 0, pretend = 0, frame = 8
	@ frame_needed = 0, uses_anonymous_args = 0
	stmfd	sp!, {r4, lr}
.LCFI7:
	.cfi_def_cfa_offset 8
	sub	sp, sp, #8
.LCFI8:
	.cfi_def_cfa_offset 16
	mov	r4, r0
	.cfi_offset 14, -4
	.cfi_offset 4, -8
	str	r1, [sp, #4]
	str	r2, [sp, #0]
	.loc 1 448 0
	ldr	r3, [sp, #4]
	flds	s14, [r3, #0]
	ldr	r3, [sp, #0]
	flds	s15, [r3, #0]
	fadds	s13, s14, s15
	ldr	r3, [sp, #4]
	flds	s14, [r3, #4]
	ldr	r3, [sp, #0]
	flds	s15, [r3, #4]
	fadds	s15, s14, s15
	mov	r0, r4
	fmrs	r1, s13
	fmrs	r2, s15
	bl	_ZN6b2Vec2C1Eff
	.loc 1 449 0
	mov	r0, r4
	add	sp, sp, #8
	ldmfd	sp!, {r4, pc}
	.cfi_endproc
.LFE79:
	.size	_ZplRK6b2Vec2S1_, .-_ZplRK6b2Vec2S1_
	.section	.text._ZmiRK6b2Vec2S1_,"axG",%progbits,_ZmiRK6b2Vec2S1_,comdat
	.align	2
	.weak	_ZmiRK6b2Vec2S1_
	.hidden	_ZmiRK6b2Vec2S1_
	.type	_ZmiRK6b2Vec2S1_, %function
_ZmiRK6b2Vec2S1_:
.LFB80:
	.loc 1 453 0
	.cfi_startproc
	@ args = 0, pretend = 0, frame = 8
	@ frame_needed = 0, uses_anonymous_args = 0
	stmfd	sp!, {r4, lr}
.LCFI9:
	.cfi_def_cfa_offset 8
	sub	sp, sp, #8
.LCFI10:
	.cfi_def_cfa_offset 16
	mov	r4, r0
	.cfi_offset 14, -4
	.cfi_offset 4, -8
	str	r1, [sp, #4]
	str	r2, [sp, #0]
	.loc 1 454 0
	ldr	r3, [sp, #4]
	flds	s14, [r3, #0]
	ldr	r3, [sp, #0]
	flds	s15, [r3, #0]
	fsubs	s13, s14, s15
	ldr	r3, [sp, #4]
	flds	s14, [r3, #4]
	ldr	r3, [sp, #0]
	flds	s15, [r3, #4]
	fsubs	s15, s14, s15
	mov	r0, r4
	fmrs	r1, s13
	fmrs	r2, s15
	bl	_ZN6b2Vec2C1Eff
	.loc 1 455 0
	mov	r0, r4
	add	sp, sp, #8
	ldmfd	sp!, {r4, pc}
	.cfi_endproc
.LFE80:
	.size	_ZmiRK6b2Vec2S1_, .-_ZmiRK6b2Vec2S1_
	.section	.text._ZmlfRK6b2Vec2,"axG",%progbits,_ZmlfRK6b2Vec2,comdat
	.align	2
	.weak	_ZmlfRK6b2Vec2
	.hidden	_ZmlfRK6b2Vec2
	.type	_ZmlfRK6b2Vec2, %function
_ZmlfRK6b2Vec2:
.LFB81:
	.loc 1 458 0
	.cfi_startproc
	@ args = 0, pretend = 0, frame = 8
	@ frame_needed = 0, uses_anonymous_args = 0
	stmfd	sp!, {r4, lr}
.LCFI11:
	.cfi_def_cfa_offset 8
	sub	sp, sp, #8
.LCFI12:
	.cfi_def_cfa_offset 16
	mov	r4, r0
	.cfi_offset 14, -4
	.cfi_offset 4, -8
	str	r1, [sp, #4]	@ float
	str	r2, [sp, #0]
	.loc 1 459 0
	ldr	r3, [sp, #0]
	flds	s14, [r3, #0]
	flds	s15, [sp, #4]
	fmuls	s14, s14, s15
	ldr	r3, [sp, #0]
	flds	s13, [r3, #4]
	flds	s15, [sp, #4]
	fmuls	s15, s13, s15
	mov	r0, r4
	fmrs	r1, s14
	fmrs	r2, s15
	bl	_ZN6b2Vec2C1Eff
	.loc 1 460 0
	mov	r0, r4
	add	sp, sp, #8
	ldmfd	sp!, {r4, pc}
	.cfi_endproc
.LFE81:
	.size	_ZmlfRK6b2Vec2, .-_ZmlfRK6b2Vec2
	.section	.text._Z17b2DistanceSquaredRK6b2Vec2S1_,"axG",%progbits,_Z17b2DistanceSquaredRK6b2Vec2S1_,comdat
	.align	2
	.weak	_Z17b2DistanceSquaredRK6b2Vec2S1_
	.hidden	_Z17b2DistanceSquaredRK6b2Vec2S1_
	.type	_Z17b2DistanceSquaredRK6b2Vec2S1_, %function
_Z17b2DistanceSquaredRK6b2Vec2S1_:
.LFB84:
	.loc 1 474 0
	.cfi_startproc
	@ args = 0, pretend = 0, frame = 16
	@ frame_needed = 0, uses_anonymous_args = 0
	str	lr, [sp, #-4]!
.LCFI13:
	.cfi_def_cfa_offset 4
	sub	sp, sp, #20
.LCFI14:
	.cfi_def_cfa_offset 24
	str	r0, [sp, #4]
	str	r1, [sp, #0]
.LBB3:
	.loc 1 475 0
	add	r3, sp, #8
	mov	r0, r3
	ldr	r1, [sp, #4]
	ldr	r2, [sp, #0]
	.cfi_offset 14, -4
	bl	_ZmiRK6b2Vec2S1_
	.loc 1 476 0
	add	r2, sp, #8
	add	r3, sp, #8
	mov	r0, r2
	mov	r1, r3
	bl	_Z5b2DotRK6b2Vec2S1_
	mov	r3, r0	@ float
	fmsr	s15, r3
	fmrs	r3, s15
.LBE3:
	.loc 1 477 0
	mov	r0, r3	@ float
	add	sp, sp, #20
	ldmfd	sp!, {pc}
	.cfi_endproc
.LFE84:
	.size	_Z17b2DistanceSquaredRK6b2Vec2S1_, .-_Z17b2DistanceSquaredRK6b2Vec2S1_
	.section	.text._Z5b2MulRK11b2TransformRK6b2Vec2,"axG",%progbits,_Z5b2MulRK11b2TransformRK6b2Vec2,comdat
	.align	2
	.weak	_Z5b2MulRK11b2TransformRK6b2Vec2
	.hidden	_Z5b2MulRK11b2TransformRK6b2Vec2
	.type	_Z5b2MulRK11b2TransformRK6b2Vec2, %function
_Z5b2MulRK11b2TransformRK6b2Vec2:
.LFB99:
	.loc 1 578 0
	.cfi_startproc
	@ args = 0, pretend = 0, frame = 16
	@ frame_needed = 0, uses_anonymous_args = 0
	stmfd	sp!, {r4, lr}
.LCFI15:
	.cfi_def_cfa_offset 8
	sub	sp, sp, #16
.LCFI16:
	.cfi_def_cfa_offset 24
	mov	r4, r0
	.cfi_offset 14, -4
	.cfi_offset 4, -8
	str	r1, [sp, #4]
	str	r2, [sp, #0]
.LBB4:
	.loc 1 579 0
	ldr	r3, [sp, #4]
	flds	s14, [r3, #12]
	ldr	r3, [sp, #0]
	flds	s15, [r3, #0]
	fmuls	s14, s14, s15
	ldr	r3, [sp, #4]
	flds	s13, [r3, #8]
	ldr	r3, [sp, #0]
	flds	s15, [r3, #4]
	fmuls	s15, s13, s15
	fsubs	s14, s14, s15
	ldr	r3, [sp, #4]
	flds	s15, [r3, #0]
	fadds	s15, s14, s15
	fsts	s15, [sp, #8]
	.loc 1 580 0
	ldr	r3, [sp, #4]
	flds	s14, [r3, #8]
	ldr	r3, [sp, #0]
	flds	s15, [r3, #0]
	fmuls	s14, s14, s15
	ldr	r3, [sp, #4]
	flds	s13, [r3, #12]
	ldr	r3, [sp, #0]
	flds	s15, [r3, #4]
	fmuls	s15, s13, s15
	fadds	s14, s14, s15
	ldr	r3, [sp, #4]
	flds	s15, [r3, #4]
	fadds	s15, s14, s15
	fsts	s15, [sp, #12]
	.loc 1 582 0
	mov	r0, r4
	ldr	r1, [sp, #8]	@ float
	ldr	r2, [sp, #12]	@ float
	bl	_ZN6b2Vec2C1Eff
.LBE4:
	.loc 1 583 0
	mov	r0, r4
	add	sp, sp, #16
	ldmfd	sp!, {r4, pc}
	.cfi_endproc
.LFE99:
	.size	_Z5b2MulRK11b2TransformRK6b2Vec2, .-_Z5b2MulRK11b2TransformRK6b2Vec2
	.section	.text._Z6b2MulTRK11b2TransformRK6b2Vec2,"axG",%progbits,_Z6b2MulTRK11b2TransformRK6b2Vec2,comdat
	.align	2
	.weak	_Z6b2MulTRK11b2TransformRK6b2Vec2
	.hidden	_Z6b2MulTRK11b2TransformRK6b2Vec2
	.type	_Z6b2MulTRK11b2TransformRK6b2Vec2, %function
_Z6b2MulTRK11b2TransformRK6b2Vec2:
.LFB100:
	.loc 1 586 0
	.cfi_startproc
	@ args = 0, pretend = 0, frame = 24
	@ frame_needed = 0, uses_anonymous_args = 0
	stmfd	sp!, {r4, lr}
.LCFI17:
	.cfi_def_cfa_offset 8
	sub	sp, sp, #24
.LCFI18:
	.cfi_def_cfa_offset 32
	mov	r4, r0
	.cfi_offset 14, -4
	.cfi_offset 4, -8
	str	r1, [sp, #4]
	str	r2, [sp, #0]
.LBB5:
	.loc 1 587 0
	ldr	r3, [sp, #0]
	flds	s14, [r3, #0]
	ldr	r3, [sp, #4]
	flds	s15, [r3, #0]
	fsubs	s15, s14, s15
	fsts	s15, [sp, #8]
	.loc 1 588 0
	ldr	r3, [sp, #0]
	flds	s14, [r3, #4]
	ldr	r3, [sp, #4]
	flds	s15, [r3, #4]
	fsubs	s15, s14, s15
	fsts	s15, [sp, #12]
	.loc 1 589 0
	ldr	r3, [sp, #4]
	flds	s14, [r3, #12]
	flds	s15, [sp, #8]
	fmuls	s14, s14, s15
	ldr	r3, [sp, #4]
	flds	s13, [r3, #8]
	flds	s15, [sp, #12]
	fmuls	s15, s13, s15
	fadds	s15, s14, s15
	fsts	s15, [sp, #16]
	.loc 1 590 0
	ldr	r3, [sp, #4]
	flds	s15, [r3, #8]
	fnegs	s14, s15
	flds	s15, [sp, #8]
	fmuls	s14, s14, s15
	ldr	r3, [sp, #4]
	flds	s13, [r3, #12]
	flds	s15, [sp, #12]
	fmuls	s15, s13, s15
	fadds	s15, s14, s15
	fsts	s15, [sp, #20]
	.loc 1 592 0
	mov	r0, r4
	ldr	r1, [sp, #16]	@ float
	ldr	r2, [sp, #20]	@ float
	bl	_ZN6b2Vec2C1Eff
.LBE5:
	.loc 1 593 0
	mov	r0, r4
	add	sp, sp, #24
	ldmfd	sp!, {r4, pc}
	.cfi_endproc
.LFE100:
	.size	_Z6b2MulTRK11b2TransformRK6b2Vec2, .-_Z6b2MulTRK11b2TransformRK6b2Vec2
	.section	.text._Z16b2CollideCirclesP10b2ManifoldPK13b2CircleShapeRK11b2TransformS3_S6_,"ax",%progbits
	.align	2
	.global	_Z16b2CollideCirclesP10b2ManifoldPK13b2CircleShapeRK11b2TransformS3_S6_
	.hidden	_Z16b2CollideCirclesP10b2ManifoldPK13b2CircleShapeRK11b2TransformS3_S6_
	.type	_Z16b2CollideCirclesP10b2ManifoldPK13b2CircleShapeRK11b2TransformS3_S6_, %function
_Z16b2CollideCirclesP10b2ManifoldPK13b2CircleShapeRK11b2TransformS3_S6_:
.LFB146:
	.file 2 "v:/gigglingbits/box2d/Box2D/Collision/b2CollideCircle.cpp"
	.loc 2 27 0
	.cfi_startproc
	@ args = 4, pretend = 0, frame = 56
	@ frame_needed = 0, uses_anonymous_args = 0
	str	lr, [sp, #-4]!
.LCFI19:
	.cfi_def_cfa_offset 4
	sub	sp, sp, #60
.LCFI20:
	.cfi_def_cfa_offset 64
	str	r0, [sp, #12]
	str	r1, [sp, #8]
	str	r2, [sp, #4]
	str	r3, [sp, #0]
.LBB6:
	.loc 2 28 0
	ldr	r3, [sp, #12]
	mov	r2, #0
	str	r2, [r3, #60]
	.loc 2 30 0
	ldr	r3, [sp, #8]
	add	r3, r3, #12
	add	r2, sp, #32
	mov	r0, r2
	ldr	r1, [sp, #4]
	mov	r2, r3
	.cfi_offset 14, -4
	bl	_Z5b2MulRK11b2TransformRK6b2Vec2
	.loc 2 31 0
	ldr	r3, [sp, #0]
	add	r3, r3, #12
	add	r2, sp, #24
	mov	r0, r2
	ldr	r1, [sp, #64]
	mov	r2, r3
	bl	_Z5b2MulRK11b2TransformRK6b2Vec2
	.loc 2 33 0
	add	r1, sp, #16
	add	r2, sp, #24
	add	r3, sp, #32
	mov	r0, r1
	mov	r1, r2
	mov	r2, r3
	bl	_ZmiRK6b2Vec2S1_
	.loc 2 34 0
	add	r2, sp, #16
	add	r3, sp, #16
	mov	r0, r2
	mov	r1, r3
	bl	_Z5b2DotRK6b2Vec2S1_
	mov	r3, r0	@ float
	str	r3, [sp, #40]	@ float
	.loc 2 35 0
	ldr	r3, [sp, #8]
	flds	s15, [r3, #8]
	fsts	s15, [sp, #44]
	ldr	r3, [sp, #0]
	flds	s15, [r3, #8]
	fsts	s15, [sp, #48]
	.loc 2 36 0
	flds	s14, [sp, #44]
	flds	s15, [sp, #48]
	fadds	s15, s14, s15
	fsts	s15, [sp, #52]
	.loc 2 37 0
	flds	s14, [sp, #52]
	flds	s15, [sp, #52]
	fmuls	s15, s14, s15
	flds	s14, [sp, #40]
	fcmpes	s15, s14
	fmstat
	movpl	r3, #0
	movmi	r3, #1
	and	r3, r3, #255
	cmp	r3, #0
	bne	.L35
.L32:
	.loc 2 42 0
	ldr	r3, [sp, #12]
	mov	r2, #0
	str	r2, [r3, #56]
	.loc 2 43 0
	ldr	r3, [sp, #12]
	ldr	r2, [sp, #8]
	add	r3, r3, #48
	add	r2, r2, #12
	ldmia	r2, {r0, r1}
	stmia	r3, {r0, r1}
	.loc 2 44 0
	ldr	r3, [sp, #12]
	add	r3, r3, #40
	mov	r0, r3
	bl	_ZN6b2Vec27SetZeroEv
	.loc 2 45 0
	ldr	r3, [sp, #12]
	mov	r2, #1
	str	r2, [r3, #60]
	.loc 2 47 0
	ldr	r3, [sp, #12]
	ldr	r2, [sp, #0]
	add	r2, r2, #12
	ldmia	r2, {r0, r1}
	stmia	r3, {r0, r1}
	.loc 2 48 0
	ldr	r3, [sp, #12]
	mov	r2, #0
	str	r2, [r3, #16]
	b	.L34
.L35:
	.loc 2 39 0
	mov	r0, r0	@ nop
.L34:
.LBE6:
	.loc 2 49 0
	add	sp, sp, #60
	ldmfd	sp!, {pc}
	.cfi_endproc
.LFE146:
	.size	_Z16b2CollideCirclesP10b2ManifoldPK13b2CircleShapeRK11b2TransformS3_S6_, .-_Z16b2CollideCirclesP10b2ManifoldPK13b2CircleShapeRK11b2TransformS3_S6_
	.section	.text._Z25b2CollidePolygonAndCircleP10b2ManifoldPK14b2PolygonShapeRK11b2TransformPK13b2CircleShapeS6_,"ax",%progbits
	.align	2
	.global	_Z25b2CollidePolygonAndCircleP10b2ManifoldPK14b2PolygonShapeRK11b2TransformPK13b2CircleShapeS6_
	.hidden	_Z25b2CollidePolygonAndCircleP10b2ManifoldPK14b2PolygonShapeRK11b2TransformPK13b2CircleShapeS6_
	.type	_Z25b2CollidePolygonAndCircleP10b2ManifoldPK14b2PolygonShapeRK11b2TransformPK13b2CircleShapeS6_, %function
_Z25b2CollidePolygonAndCircleP10b2ManifoldPK14b2PolygonShapeRK11b2TransformPK13b2CircleShapeS6_:
.LFB147:
	.loc 2 55 0
	.cfi_startproc
	@ args = 4, pretend = 0, frame = 184
	@ frame_needed = 0, uses_anonymous_args = 0
	stmfd	sp!, {r4, lr}
.LCFI21:
	.cfi_def_cfa_offset 8
	sub	sp, sp, #184
.LCFI22:
	.cfi_def_cfa_offset 192
	str	r0, [sp, #20]
	str	r1, [sp, #16]
	str	r2, [sp, #12]
	str	r3, [sp, #8]
.LBB7:
	.loc 2 56 0
	ldr	r3, [sp, #20]
	mov	r2, #0
	str	r2, [r3, #60]
	.loc 2 59 0
	ldr	r3, [sp, #8]
	add	r3, r3, #12
	add	r2, sp, #60
	mov	r0, r2
	ldr	r1, [sp, #192]
	mov	r2, r3
	.cfi_offset 14, -4
	.cfi_offset 4, -8
	bl	_Z5b2MulRK11b2TransformRK6b2Vec2
	.loc 2 60 0
	add	r2, sp, #52
	add	r3, sp, #60
	mov	r0, r2
	ldr	r1, [sp, #12]
	mov	r2, r3
	bl	_Z6b2MulTRK11b2TransformRK6b2Vec2
	.loc 2 63 0
	mov	r3, #0
	str	r3, [sp, #132]
	.loc 2 64 0
	flds	s15, .L55
	fsts	s15, [sp, #136]
	.loc 2 65 0
	ldr	r3, [sp, #16]
	flds	s14, [r3, #8]
	ldr	r3, [sp, #8]
	flds	s15, [r3, #8]
	fadds	s15, s14, s15
	fsts	s15, [sp, #140]
	.loc 2 66 0
	ldr	r3, [sp, #16]
	ldr	r3, [r3, #148]
	str	r3, [sp, #144]
	.loc 2 67 0
	ldr	r3, [sp, #16]
	add	r3, r3, #20
	str	r3, [sp, #148]
	.loc 2 68 0
	ldr	r3, [sp, #16]
	add	r3, r3, #84
	str	r3, [sp, #152]
.LBB8:
	.loc 2 70 0
	mov	r3, #0
	str	r3, [sp, #172]
	b	.L37
.L41:
.LBB9:
	.loc 2 72 0
	ldr	r3, [sp, #172]
	mov	r2, r3, asl #3
	ldr	r3, [sp, #152]
	add	r4, r2, r3
	ldr	r3, [sp, #172]
	mov	r2, r3, asl #3
	ldr	r3, [sp, #148]
	add	r3, r2, r3
	add	r1, sp, #68
	add	r2, sp, #52
	mov	r0, r1
	mov	r1, r2
	mov	r2, r3
	bl	_ZmiRK6b2Vec2S1_
	add	r3, sp, #68
	mov	r0, r4
	mov	r1, r3
	bl	_Z5b2DotRK6b2Vec2S1_
	mov	r3, r0	@ float
	str	r3, [sp, #176]	@ float
	.loc 2 74 0
	flds	s14, [sp, #176]
	flds	s15, [sp, #140]
	fcmpes	s14, s15
	fmstat
	movle	r3, #0
	movgt	r3, #1
	and	r3, r3, #255
	cmp	r3, #0
	bne	.L51
.L38:
	.loc 2 80 0
	flds	s14, [sp, #176]
	flds	s15, [sp, #136]
	fcmpes	s14, s15
	fmstat
	movle	r3, #0
	movgt	r3, #1
	and	r3, r3, #255
	cmp	r3, #0
	beq	.L40
	.loc 2 82 0
	flds	s15, [sp, #176]
	fsts	s15, [sp, #136]
	.loc 2 83 0
	ldr	r3, [sp, #172]
	str	r3, [sp, #132]
.L40:
.LBE9:
	.loc 2 70 0
	ldr	r3, [sp, #172]
	add	r3, r3, #1
	str	r3, [sp, #172]
.L37:
	ldr	r2, [sp, #172]
	ldr	r3, [sp, #144]
	cmp	r2, r3
	movge	r3, #0
	movlt	r3, #1
	and	r3, r3, #255
	cmp	r3, #0
	bne	.L41
.LBE8:
	.loc 2 88 0
	ldr	r3, [sp, #132]
	str	r3, [sp, #156]
	.loc 2 89 0
	ldr	r3, [sp, #156]
	add	r2, r3, #1
	ldr	r3, [sp, #144]
	cmp	r2, r3
	bge	.L42
	ldr	r3, [sp, #156]
	add	r3, r3, #1
	b	.L43
.L42:
	mov	r3, #0
.L43:
	str	r3, [sp, #160]
	.loc 2 90 0
	ldr	r3, [sp, #156]
	mov	r2, r3, asl #3
	ldr	r3, [sp, #148]
	add	r2, r2, r3
	add	r3, sp, #44
	ldmia	r2, {r0, r1}
	stmia	r3, {r0, r1}
	.loc 2 91 0
	ldr	r3, [sp, #160]
	mov	r2, r3, asl #3
	ldr	r3, [sp, #148]
	add	r2, r2, r3
	add	r3, sp, #36
	ldmia	r2, {r0, r1}
	stmia	r3, {r0, r1}
	.loc 2 94 0
	flds	s14, [sp, #136]
	flds	s15, .L55+4
	fcmpes	s14, s15
	fmstat
	movpl	r3, #0
	movmi	r3, #1
	and	r3, r3, #255
	cmp	r3, #0
	beq	.L44
	.loc 2 96 0
	ldr	r3, [sp, #20]
	mov	r2, #1
	str	r2, [r3, #60]
	.loc 2 97 0
	ldr	r3, [sp, #20]
	mov	r2, #1
	str	r2, [r3, #56]
	.loc 2 98 0
	ldr	r3, [sp, #132]
	mov	r2, r3, asl #3
	ldr	r3, [sp, #152]
	add	r2, r2, r3
	ldr	r3, [sp, #20]
	add	r3, r3, #40
	ldmia	r2, {r0, r1}
	stmia	r3, {r0, r1}
	.loc 2 99 0
	add	r1, sp, #76
	add	r2, sp, #44
	add	r3, sp, #36
	mov	r0, r1
	mov	r1, r2
	mov	r2, r3
	bl	_ZplRK6b2Vec2S1_
	ldr	r4, [sp, #20]
	mov	r2, sp
	add	r3, sp, #76
	mov	r0, r2
	ldr	r1, .L55+8	@ float
	mov	r2, r3
	bl	_ZmlfRK6b2Vec2
	add	r3, r4, #48
	mov	r2, sp
	ldmia	r2, {r0, r1}
	stmia	r3, {r0, r1}
	.loc 2 100 0
	ldr	r3, [sp, #20]
	ldr	r2, [sp, #8]
	add	r2, r2, #12
	ldmia	r2, {r0, r1}
	stmia	r3, {r0, r1}
	.loc 2 101 0
	ldr	r3, [sp, #20]
	mov	r2, #0
	str	r2, [r3, #16]
	.loc 2 102 0
	b	.L50
.L56:
	.align	2
.L55:
	.word	-8388609
	.word	872415232
	.word	1056964608
.L44:
	.loc 2 106 0
	add	r1, sp, #84
	add	r2, sp, #52
	add	r3, sp, #44
	mov	r0, r1
	mov	r1, r2
	mov	r2, r3
	bl	_ZmiRK6b2Vec2S1_
	add	r1, sp, #92
	add	r2, sp, #36
	add	r3, sp, #44
	mov	r0, r1
	mov	r1, r2
	mov	r2, r3
	bl	_ZmiRK6b2Vec2S1_
	add	r2, sp, #84
	add	r3, sp, #92
	mov	r0, r2
	mov	r1, r3
	bl	_Z5b2DotRK6b2Vec2S1_
	mov	r3, r0	@ float
	str	r3, [sp, #164]	@ float
	.loc 2 107 0
	add	r1, sp, #100
	add	r2, sp, #52
	add	r3, sp, #36
	mov	r0, r1
	mov	r1, r2
	mov	r2, r3
	bl	_ZmiRK6b2Vec2S1_
	add	r1, sp, #108
	add	r2, sp, #44
	add	r3, sp, #36
	mov	r0, r1
	mov	r1, r2
	mov	r2, r3
	bl	_ZmiRK6b2Vec2S1_
	add	r2, sp, #100
	add	r3, sp, #108
	mov	r0, r2
	mov	r1, r3
	bl	_Z5b2DotRK6b2Vec2S1_
	mov	r3, r0	@ float
	str	r3, [sp, #168]	@ float
	.loc 2 108 0
	flds	s15, [sp, #164]
	fcmpezs	s15
	fmstat
	movhi	r3, #0
	movls	r3, #1
	and	r3, r3, #255
	cmp	r3, #0
	beq	.L45
	.loc 2 110 0
	add	r2, sp, #52
	add	r3, sp, #44
	mov	r0, r2
	mov	r1, r3
	bl	_Z17b2DistanceSquaredRK6b2Vec2S1_
	fmsr	s13, r0
	flds	s14, [sp, #140]
	flds	s15, [sp, #140]
	fmuls	s15, s14, s15
	fcmpes	s13, s15
	fmstat
	movle	r3, #0
	movgt	r3, #1
	and	r3, r3, #255
	cmp	r3, #0
	bne	.L52
.L46:
	.loc 2 115 0
	ldr	r3, [sp, #20]
	mov	r2, #1
	str	r2, [r3, #60]
	.loc 2 116 0
	ldr	r3, [sp, #20]
	mov	r2, #1
	str	r2, [r3, #56]
	.loc 2 117 0
	ldr	r4, [sp, #20]
	mov	r1, sp
	add	r2, sp, #52
	add	r3, sp, #44
	mov	r0, r1
	mov	r1, r2
	mov	r2, r3
	bl	_ZmiRK6b2Vec2S1_
	add	r3, r4, #40
	mov	r2, sp
	ldmia	r2, {r0, r1}
	stmia	r3, {r0, r1}
	.loc 2 118 0
	ldr	r3, [sp, #20]
	add	r3, r3, #40
	mov	r0, r3
	bl	_ZN6b2Vec29NormalizeEv
	.loc 2 119 0
	ldr	r3, [sp, #20]
	add	r3, r3, #48
	add	r2, sp, #44
	ldmia	r2, {r0, r1}
	stmia	r3, {r0, r1}
	.loc 2 120 0
	ldr	r3, [sp, #20]
	ldr	r2, [sp, #8]
	add	r2, r2, #12
	ldmia	r2, {r0, r1}
	stmia	r3, {r0, r1}
	.loc 2 121 0
	ldr	r3, [sp, #20]
	mov	r2, #0
	str	r2, [r3, #16]
	b	.L50
.L45:
	.loc 2 123 0
	flds	s15, [sp, #168]
	fcmpezs	s15
	fmstat
	movhi	r3, #0
	movls	r3, #1
	and	r3, r3, #255
	cmp	r3, #0
	beq	.L47
	.loc 2 125 0
	add	r2, sp, #52
	add	r3, sp, #36
	mov	r0, r2
	mov	r1, r3
	bl	_Z17b2DistanceSquaredRK6b2Vec2S1_
	fmsr	s13, r0
	flds	s14, [sp, #140]
	flds	s15, [sp, #140]
	fmuls	s15, s14, s15
	fcmpes	s13, s15
	fmstat
	movle	r3, #0
	movgt	r3, #1
	and	r3, r3, #255
	cmp	r3, #0
	bne	.L53
.L48:
	.loc 2 130 0
	ldr	r3, [sp, #20]
	mov	r2, #1
	str	r2, [r3, #60]
	.loc 2 131 0
	ldr	r3, [sp, #20]
	mov	r2, #1
	str	r2, [r3, #56]
	.loc 2 132 0
	ldr	r4, [sp, #20]
	mov	r1, sp
	add	r2, sp, #52
	add	r3, sp, #36
	mov	r0, r1
	mov	r1, r2
	mov	r2, r3
	bl	_ZmiRK6b2Vec2S1_
	add	r3, r4, #40
	mov	r2, sp
	ldmia	r2, {r0, r1}
	stmia	r3, {r0, r1}
	.loc 2 133 0
	ldr	r3, [sp, #20]
	add	r3, r3, #40
	mov	r0, r3
	bl	_ZN6b2Vec29NormalizeEv
	.loc 2 134 0
	ldr	r3, [sp, #20]
	add	r3, r3, #48
	add	r2, sp, #36
	ldmia	r2, {r0, r1}
	stmia	r3, {r0, r1}
	.loc 2 135 0
	ldr	r3, [sp, #20]
	ldr	r2, [sp, #8]
	add	r2, r2, #12
	ldmia	r2, {r0, r1}
	stmia	r3, {r0, r1}
	.loc 2 136 0
	ldr	r3, [sp, #20]
	mov	r2, #0
	str	r2, [r3, #16]
	b	.L50
.L47:
.LBB11:
	.loc 2 140 0
	add	r1, sp, #116
	add	r2, sp, #44
	add	r3, sp, #36
	mov	r0, r1
	mov	r1, r2
	mov	r2, r3
	bl	_ZplRK6b2Vec2S1_
	add	r2, sp, #28
	add	r3, sp, #116
	mov	r0, r2
	ldr	r1, .L55+8	@ float
	mov	r2, r3
	bl	_ZmlfRK6b2Vec2
	.loc 2 141 0
	add	r1, sp, #124
	add	r2, sp, #52
	add	r3, sp, #28
	mov	r0, r1
	mov	r1, r2
	mov	r2, r3
	bl	_ZmiRK6b2Vec2S1_
	ldr	r3, [sp, #156]
	mov	r2, r3, asl #3
	ldr	r3, [sp, #152]
	add	r3, r2, r3
	add	r2, sp, #124
	mov	r0, r2
	mov	r1, r3
	bl	_Z5b2DotRK6b2Vec2S1_
	mov	r3, r0	@ float
	str	r3, [sp, #180]	@ float
	.loc 2 142 0
	flds	s14, [sp, #180]
	flds	s15, [sp, #140]
	fcmpes	s14, s15
	fmstat
	movle	r3, #0
	movgt	r3, #1
	and	r3, r3, #255
	cmp	r3, #0
	bne	.L54
.L49:
	.loc 2 147 0
	ldr	r3, [sp, #20]
	mov	r2, #1
	str	r2, [r3, #60]
	.loc 2 148 0
	ldr	r3, [sp, #20]
	mov	r2, #1
	str	r2, [r3, #56]
	.loc 2 149 0
	ldr	r3, [sp, #156]
	mov	r2, r3, asl #3
	ldr	r3, [sp, #152]
	add	r2, r2, r3
	ldr	r3, [sp, #20]
	add	r3, r3, #40
	ldmia	r2, {r0, r1}
	stmia	r3, {r0, r1}
	.loc 2 150 0
	ldr	r3, [sp, #20]
	add	r3, r3, #48
	add	r2, sp, #28
	ldmia	r2, {r0, r1}
	stmia	r3, {r0, r1}
	.loc 2 151 0
	ldr	r3, [sp, #20]
	ldr	r2, [sp, #8]
	add	r2, r2, #12
	ldmia	r2, {r0, r1}
	stmia	r3, {r0, r1}
	.loc 2 152 0
	ldr	r3, [sp, #20]
	mov	r2, #0
	str	r2, [r3, #16]
	b	.L50
.L51:
.LBE11:
.LBB12:
.LBB10:
	.loc 2 77 0
	mov	r0, r0	@ nop
	b	.L50
.L52:
.LBE10:
.LBE12:
	.loc 2 112 0
	mov	r0, r0	@ nop
	b	.L50
.L53:
	.loc 2 127 0
	mov	r0, r0	@ nop
	b	.L50
.L54:
.LBB13:
	.loc 2 144 0
	mov	r0, r0	@ nop
.L50:
.LBE13:
.LBE7:
	.loc 2 154 0
	add	sp, sp, #184
	ldmfd	sp!, {r4, pc}
	.cfi_endproc
.LFE147:
	.size	_Z25b2CollidePolygonAndCircleP10b2ManifoldPK14b2PolygonShapeRK11b2TransformPK13b2CircleShapeS6_, .-_Z25b2CollidePolygonAndCircleP10b2ManifoldPK14b2PolygonShapeRK11b2TransformPK13b2CircleShapeS6_
	.section	.rodata
	.type	_ZL14b2_nullFeature, %object
	.size	_ZL14b2_nullFeature, 1
_ZL14b2_nullFeature:
	.byte	-1
	.align	2
	.type	_ZL12b2_chunkSize, %object
	.size	_ZL12b2_chunkSize, 4
_ZL12b2_chunkSize:
	.word	16384
	.align	2
	.type	_ZL15b2_maxBlockSize, %object
	.size	_ZL15b2_maxBlockSize, 4
_ZL15b2_maxBlockSize:
	.word	640
	.align	2
	.type	_ZL13b2_blockSizes, %object
	.size	_ZL13b2_blockSizes, 4
_ZL13b2_blockSizes:
	.word	14
	.align	2
	.type	_ZL22b2_chunkArrayIncrement, %object
	.size	_ZL22b2_chunkArrayIncrement, 4
_ZL22b2_chunkArrayIncrement:
	.word	128
	.text
.Letext0: