	.arch armv5te
	.eabi_attribute 27, 3
	.fpu vfp
	.eabi_attribute 20, 1
	.eabi_attribute 21, 1
	.eabi_attribute 23, 3
	.eabi_attribute 24, 1
	.eabi_attribute 25, 1
	.eabi_attribute 26, 2
	.eabi_attribute 30, 6
	.eabi_attribute 18, 2
	.file	"b2CollidePolygon.cpp"
	.text
.Ltext0:
	.cfi_sections	.debug_frame
	.section	.text._ZN6b2Vec2C1Ev,"axG",%progbits,_ZN6b2Vec2C1Ev,comdat
	.align	2
	.weak	_ZN6b2Vec2C1Ev
	.hidden	_ZN6b2Vec2C1Ev
	.type	_ZN6b2Vec2C1Ev, %function
_ZN6b2Vec2C1Ev:
.LFB4:
	.file 1 "v:/gigglingbits/box2d/Box2D/Common/b2Math.h"
	.loc 1 56 0
	.cfi_startproc
	@ args = 0, pretend = 0, frame = 8
	@ frame_needed = 0, uses_anonymous_args = 0
	@ link register save eliminated.
	sub	sp, sp, #8
.LCFI0:
	.cfi_def_cfa_offset 8
	str	r0, [sp, #4]
	.loc 1 56 0
	ldr	r3, [sp, #4]
	mov	r0, r3
	add	sp, sp, #8
	bx	lr
	.cfi_endproc
.LFE4:
	.size	_ZN6b2Vec2C1Ev, .-_ZN6b2Vec2C1Ev
	.section	.text._ZN6b2Vec2C1Eff,"axG",%progbits,_ZN6b2Vec2C1Eff,comdat
	.align	2
	.weak	_ZN6b2Vec2C1Eff
	.hidden	_ZN6b2Vec2C1Eff
	.type	_ZN6b2Vec2C1Eff, %function
_ZN6b2Vec2C1Eff:
.LFB7:
	.loc 1 59 0
	.cfi_startproc
	@ args = 0, pretend = 0, frame = 16
	@ frame_needed = 0, uses_anonymous_args = 0
	@ link register save eliminated.
	sub	sp, sp, #16
.LCFI1:
	.cfi_def_cfa_offset 16
	str	r0, [sp, #12]
	str	r1, [sp, #8]	@ float
	str	r2, [sp, #4]	@ float
	.loc 1 59 0
	ldr	r3, [sp, #12]
	flds	s15, [sp, #8]
	fsts	s15, [r3, #0]
	ldr	r3, [sp, #12]
	flds	s15, [sp, #4]
	fsts	s15, [r3, #4]
	ldr	r3, [sp, #12]
	mov	r0, r3
	add	sp, sp, #16
	bx	lr
	.cfi_endproc
.LFE7:
	.size	_ZN6b2Vec2C1Eff, .-_ZN6b2Vec2C1Eff
	.section	.text._ZN6b2Vec23SetEff,"axG",%progbits,_ZN6b2Vec23SetEff,comdat
	.align	2
	.weak	_ZN6b2Vec23SetEff
	.hidden	_ZN6b2Vec23SetEff
	.type	_ZN6b2Vec23SetEff, %function
_ZN6b2Vec23SetEff:
.LFB9:
	.loc 1 65 0
	.cfi_startproc
	@ args = 0, pretend = 0, frame = 16
	@ frame_needed = 0, uses_anonymous_args = 0
	@ link register save eliminated.
	sub	sp, sp, #16
.LCFI2:
	.cfi_def_cfa_offset 16
	str	r0, [sp, #12]
	str	r1, [sp, #8]	@ float
	str	r2, [sp, #4]	@ float
	.loc 1 65 0
	ldr	r3, [sp, #12]
	flds	s15, [sp, #8]
	fsts	s15, [r3, #0]
	ldr	r3, [sp, #12]
	flds	s15, [sp, #4]
	fsts	s15, [r3, #4]
	add	sp, sp, #16
	bx	lr
	.cfi_endproc
.LFE9:
	.size	_ZN6b2Vec23SetEff, .-_ZN6b2Vec23SetEff
	.section	.text._ZNK6b2Vec2ngEv,"axG",%progbits,_ZNK6b2Vec2ngEv,comdat
	.align	2
	.weak	_ZNK6b2Vec2ngEv
	.hidden	_ZNK6b2Vec2ngEv
	.type	_ZNK6b2Vec2ngEv, %function
_ZNK6b2Vec2ngEv:
.LFB10:
	.loc 1 68 0
	.cfi_startproc
	@ args = 0, pretend = 0, frame = 16
	@ frame_needed = 0, uses_anonymous_args = 0
	stmfd	sp!, {r4, lr}
.LCFI3:
	.cfi_def_cfa_offset 8
	sub	sp, sp, #16
.LCFI4:
	.cfi_def_cfa_offset 24
	mov	r4, r0
	.cfi_offset 14, -4
	.cfi_offset 4, -8
	str	r1, [sp, #4]
.LBB2:
	.loc 1 68 0
	mov	r0, r4
	bl	_ZN6b2Vec2C1Ev
	ldr	r3, [sp, #4]
	flds	s15, [r3, #0]
	fnegs	s14, s15
	ldr	r3, [sp, #4]
	flds	s15, [r3, #4]
	fnegs	s15, s15
	mov	r0, r4
	fmrs	r1, s14
	fmrs	r2, s15
	bl	_ZN6b2Vec23SetEff
.LBE2:
	mov	r0, r4
	add	sp, sp, #16
	ldmfd	sp!, {r4, pc}
	.cfi_endproc
.LFE10:
	.size	_ZNK6b2Vec2ngEv, .-_ZNK6b2Vec2ngEv
	.section	.text._ZNK6b2Vec26LengthEv,"axG",%progbits,_ZNK6b2Vec26LengthEv,comdat
	.align	2
	.weak	_ZNK6b2Vec26LengthEv
	.hidden	_ZNK6b2Vec26LengthEv
	.type	_ZNK6b2Vec26LengthEv, %function
_ZNK6b2Vec26LengthEv:
.LFB16:
	.loc 1 101 0
	.cfi_startproc
	@ args = 0, pretend = 0, frame = 8
	@ frame_needed = 0, uses_anonymous_args = 0
	str	lr, [sp, #-4]!
.LCFI5:
	.cfi_def_cfa_offset 4
	sub	sp, sp, #12
.LCFI6:
	.cfi_def_cfa_offset 16
	str	r0, [sp, #4]
	.loc 1 103 0
	ldr	r3, [sp, #4]
	flds	s14, [r3, #0]
	ldr	r3, [sp, #4]
	flds	s15, [r3, #0]
	fmuls	s14, s14, s15
	ldr	r3, [sp, #4]
	flds	s13, [r3, #4]
	ldr	r3, [sp, #4]
	flds	s15, [r3, #4]
	fmuls	s15, s13, s15
	fadds	s14, s14, s15
	fsqrts	s15, s14
	fcmps	s15, s15
	fmstat
	beq	.L12
	.cfi_offset 14, -4
	fmrs	r0, s14
	bl	sqrtf
	fmsr	s15, r0
.L12:
	fmrs	r3, s15
	.loc 1 104 0
	mov	r0, r3	@ float
	add	sp, sp, #12
	ldmfd	sp!, {pc}
	.cfi_endproc
.LFE16:
	.size	_ZNK6b2Vec26LengthEv, .-_ZNK6b2Vec26LengthEv
	.section	.text._ZN6b2Vec29NormalizeEv,"axG",%progbits,_ZN6b2Vec29NormalizeEv,comdat
	.align	2
	.weak	_ZN6b2Vec29NormalizeEv
	.hidden	_ZN6b2Vec29NormalizeEv
	.type	_ZN6b2Vec29NormalizeEv, %function
_ZN6b2Vec29NormalizeEv:
.LFB18:
	.loc 1 114 0
	.cfi_startproc
	@ args = 0, pretend = 0, frame = 16
	@ frame_needed = 0, uses_anonymous_args = 0
	str	lr, [sp, #-4]!
.LCFI7:
	.cfi_def_cfa_offset 4
	sub	sp, sp, #20
.LCFI8:
	.cfi_def_cfa_offset 24
	str	r0, [sp, #4]
.LBB3:
	.loc 1 116 0
	ldr	r0, [sp, #4]
	.cfi_offset 14, -4
	bl	_ZNK6b2Vec26LengthEv
	mov	r3, r0	@ float
	str	r3, [sp, #8]	@ float
	.loc 1 117 0
	flds	s14, [sp, #8]
	flds	s15, .L18
	fcmpes	s14, s15
	fmstat
	movpl	r3, #0
	movmi	r3, #1
	and	r3, r3, #255
	cmp	r3, #0
	beq	.L15
	.loc 1 119 0
	flds	s15, .L18+4
	b	.L16
.L15:
	.loc 1 121 0
	flds	s14, .L18+8
	flds	s15, [sp, #8]
	fdivs	s15, s14, s15
	fsts	s15, [sp, #12]
	.loc 1 122 0
	ldr	r3, [sp, #4]
	flds	s14, [r3, #0]
	flds	s15, [sp, #12]
	fmuls	s15, s14, s15
	ldr	r3, [sp, #4]
	fsts	s15, [r3, #0]
	.loc 1 123 0
	ldr	r3, [sp, #4]
	flds	s14, [r3, #4]
	flds	s15, [sp, #12]
	fmuls	s15, s14, s15
	ldr	r3, [sp, #4]
	fsts	s15, [r3, #4]
	.loc 1 125 0
	flds	s15, [sp, #8]
.L16:
	fmrs	r3, s15
.LBE3:
	.loc 1 126 0
	mov	r0, r3	@ float
	add	sp, sp, #20
	ldmfd	sp!, {pc}
.L19:
	.align	2
.L18:
	.word	872415232
	.word	0
	.word	1065353216
	.cfi_endproc
.LFE18:
	.size	_ZN6b2Vec29NormalizeEv, .-_ZN6b2Vec29NormalizeEv
	.section	.text._ZN5b2RotC1Ev,"axG",%progbits,_ZN5b2RotC1Ev,comdat
	.align	2
	.weak	_ZN5b2RotC1Ev
	.hidden	_ZN5b2RotC1Ev
	.type	_ZN5b2RotC1Ev, %function
_ZN5b2RotC1Ev:
.LFB56:
	.loc 1 301 0
	.cfi_startproc
	@ args = 0, pretend = 0, frame = 8
	@ frame_needed = 0, uses_anonymous_args = 0
	@ link register save eliminated.
	sub	sp, sp, #8
.LCFI9:
	.cfi_def_cfa_offset 8
	str	r0, [sp, #4]
	.loc 1 301 0
	ldr	r3, [sp, #4]
	mov	r0, r3
	add	sp, sp, #8
	bx	lr
	.cfi_endproc
.LFE56:
	.size	_ZN5b2RotC1Ev, .-_ZN5b2RotC1Ev
	.section	.text._ZN11b2TransformC1Ev,"axG",%progbits,_ZN11b2TransformC1Ev,comdat
	.align	2
	.weak	_ZN11b2TransformC1Ev
	.hidden	_ZN11b2TransformC1Ev
	.type	_ZN11b2TransformC1Ev, %function
_ZN11b2TransformC1Ev:
.LFB67:
	.loc 1 353 0
	.cfi_startproc
	@ args = 0, pretend = 0, frame = 8
	@ frame_needed = 0, uses_anonymous_args = 0
	str	lr, [sp, #-4]!
.LCFI10:
	.cfi_def_cfa_offset 4
	sub	sp, sp, #12
.LCFI11:
	.cfi_def_cfa_offset 16
	str	r0, [sp, #4]
	.loc 1 353 0
	ldr	r3, [sp, #4]
	mov	r0, r3
	.cfi_offset 14, -4
	bl	_ZN6b2Vec2C1Ev
	ldr	r3, [sp, #4]
	add	r3, r3, #8
	mov	r0, r3
	bl	_ZN5b2RotC1Ev
	ldr	r3, [sp, #4]
	mov	r0, r3
	add	sp, sp, #12
	ldmfd	sp!, {pc}
	.cfi_endproc
.LFE67:
	.size	_ZN11b2TransformC1Ev, .-_ZN11b2TransformC1Ev
	.section	.text._Z5b2DotRK6b2Vec2S1_,"axG",%progbits,_Z5b2DotRK6b2Vec2S1_,comdat
	.align	2
	.weak	_Z5b2DotRK6b2Vec2S1_
	.hidden	_Z5b2DotRK6b2Vec2S1_
	.type	_Z5b2DotRK6b2Vec2S1_, %function
_Z5b2DotRK6b2Vec2S1_:
.LFB73:
	.loc 1 407 0
	.cfi_startproc
	@ args = 0, pretend = 0, frame = 8
	@ frame_needed = 0, uses_anonymous_args = 0
	@ link register save eliminated.
	sub	sp, sp, #8
.LCFI12:
	.cfi_def_cfa_offset 8
	str	r0, [sp, #4]
	str	r1, [sp, #0]
	.loc 1 408 0
	ldr	r3, [sp, #4]
	flds	s14, [r3, #0]
	ldr	r3, [sp, #0]
	flds	s15, [r3, #0]
	fmuls	s14, s14, s15
	ldr	r3, [sp, #4]
	flds	s13, [r3, #4]
	ldr	r3, [sp, #0]
	flds	s15, [r3, #4]
	fmuls	s15, s13, s15
	fadds	s15, s14, s15
	fmrs	r3, s15
	.loc 1 409 0
	mov	r0, r3	@ float
	add	sp, sp, #8
	bx	lr
	.cfi_endproc
.LFE73:
	.size	_Z5b2DotRK6b2Vec2S1_, .-_Z5b2DotRK6b2Vec2S1_
	.section	.text._Z7b2CrossRK6b2Vec2f,"axG",%progbits,_Z7b2CrossRK6b2Vec2f,comdat
	.align	2
	.weak	_Z7b2CrossRK6b2Vec2f
	.hidden	_Z7b2CrossRK6b2Vec2f
	.type	_Z7b2CrossRK6b2Vec2f, %function
_Z7b2CrossRK6b2Vec2f:
.LFB75:
	.loc 1 420 0
	.cfi_startproc
	@ args = 0, pretend = 0, frame = 8
	@ frame_needed = 0, uses_anonymous_args = 0
	stmfd	sp!, {r4, lr}
.LCFI13:
	.cfi_def_cfa_offset 8
	sub	sp, sp, #8
.LCFI14:
	.cfi_def_cfa_offset 16
	mov	r4, r0
	.cfi_offset 14, -4
	.cfi_offset 4, -8
	str	r1, [sp, #4]
	str	r2, [sp, #0]	@ float
	.loc 1 421 0
	ldr	r3, [sp, #4]
	flds	s14, [r3, #4]
	flds	s15, [sp, #0]
	fmuls	s14, s14, s15
	flds	s15, [sp, #0]
	fnegs	s13, s15
	ldr	r3, [sp, #4]
	flds	s15, [r3, #0]
	fmuls	s15, s13, s15
	mov	r0, r4
	fmrs	r1, s14
	fmrs	r2, s15
	bl	_ZN6b2Vec2C1Eff
	.loc 1 422 0
	mov	r0, r4
	add	sp, sp, #8
	ldmfd	sp!, {r4, pc}
	.cfi_endproc
.LFE75:
	.size	_Z7b2CrossRK6b2Vec2f, .-_Z7b2CrossRK6b2Vec2f
	.section	.text._ZplRK6b2Vec2S1_,"axG",%progbits,_ZplRK6b2Vec2S1_,comdat
	.align	2
	.weak	_ZplRK6b2Vec2S1_
	.hidden	_ZplRK6b2Vec2S1_
	.type	_ZplRK6b2Vec2S1_, %function
_ZplRK6b2Vec2S1_:
.LFB79:
	.loc 1 447 0
	.cfi_startproc
	@ args = 0, pretend = 0, frame = 8
	@ frame_needed = 0, uses_anonymous_args = 0
	stmfd	sp!, {r4, lr}
.LCFI15:
	.cfi_def_cfa_offset 8
	sub	sp, sp, #8
.LCFI16:
	.cfi_def_cfa_offset 16
	mov	r4, r0
	.cfi_offset 14, -4
	.cfi_offset 4, -8
	str	r1, [sp, #4]
	str	r2, [sp, #0]
	.loc 1 448 0
	ldr	r3, [sp, #4]
	flds	s14, [r3, #0]
	ldr	r3, [sp, #0]
	flds	s15, [r3, #0]
	fadds	s13, s14, s15
	ldr	r3, [sp, #4]
	flds	s14, [r3, #4]
	ldr	r3, [sp, #0]
	flds	s15, [r3, #4]
	fadds	s15, s14, s15
	mov	r0, r4
	fmrs	r1, s13
	fmrs	r2, s15
	bl	_ZN6b2Vec2C1Eff
	.loc 1 449 0
	mov	r0, r4
	add	sp, sp, #8
	ldmfd	sp!, {r4, pc}
	.cfi_endproc
.LFE79:
	.size	_ZplRK6b2Vec2S1_, .-_ZplRK6b2Vec2S1_
	.section	.text._ZmiRK6b2Vec2S1_,"axG",%progbits,_ZmiRK6b2Vec2S1_,comdat
	.align	2
	.weak	_ZmiRK6b2Vec2S1_
	.hidden	_ZmiRK6b2Vec2S1_
	.type	_ZmiRK6b2Vec2S1_, %function
_ZmiRK6b2Vec2S1_:
.LFB80:
	.loc 1 453 0
	.cfi_startproc
	@ args = 0, pretend = 0, frame = 8
	@ frame_needed = 0, uses_anonymous_args = 0
	stmfd	sp!, {r4, lr}
.LCFI17:
	.cfi_def_cfa_offset 8
	sub	sp, sp, #8
.LCFI18:
	.cfi_def_cfa_offset 16
	mov	r4, r0
	.cfi_offset 14, -4
	.cfi_offset 4, -8
	str	r1, [sp, #4]
	str	r2, [sp, #0]
	.loc 1 454 0
	ldr	r3, [sp, #4]
	flds	s14, [r3, #0]
	ldr	r3, [sp, #0]
	flds	s15, [r3, #0]
	fsubs	s13, s14, s15
	ldr	r3, [sp, #4]
	flds	s14, [r3, #4]
	ldr	r3, [sp, #0]
	flds	s15, [r3, #4]
	fsubs	s15, s14, s15
	mov	r0, r4
	fmrs	r1, s13
	fmrs	r2, s15
	bl	_ZN6b2Vec2C1Eff
	.loc 1 455 0
	mov	r0, r4
	add	sp, sp, #8
	ldmfd	sp!, {r4, pc}
	.cfi_endproc
.LFE80:
	.size	_ZmiRK6b2Vec2S1_, .-_ZmiRK6b2Vec2S1_
	.section	.text._ZmlfRK6b2Vec2,"axG",%progbits,_ZmlfRK6b2Vec2,comdat
	.align	2
	.weak	_ZmlfRK6b2Vec2
	.hidden	_ZmlfRK6b2Vec2
	.type	_ZmlfRK6b2Vec2, %function
_ZmlfRK6b2Vec2:
.LFB81:
	.loc 1 458 0
	.cfi_startproc
	@ args = 0, pretend = 0, frame = 8
	@ frame_needed = 0, uses_anonymous_args = 0
	stmfd	sp!, {r4, lr}
.LCFI19:
	.cfi_def_cfa_offset 8
	sub	sp, sp, #8
.LCFI20:
	.cfi_def_cfa_offset 16
	mov	r4, r0
	.cfi_offset 14, -4
	.cfi_offset 4, -8
	str	r1, [sp, #4]	@ float
	str	r2, [sp, #0]
	.loc 1 459 0
	ldr	r3, [sp, #0]
	flds	s14, [r3, #0]
	flds	s15, [sp, #4]
	fmuls	s14, s14, s15
	ldr	r3, [sp, #0]
	flds	s13, [r3, #4]
	flds	s15, [sp, #4]
	fmuls	s15, s13, s15
	mov	r0, r4
	fmrs	r1, s14
	fmrs	r2, s15
	bl	_ZN6b2Vec2C1Eff
	.loc 1 460 0
	mov	r0, r4
	add	sp, sp, #8
	ldmfd	sp!, {r4, pc}
	.cfi_endproc
.LFE81:
	.size	_ZmlfRK6b2Vec2, .-_ZmlfRK6b2Vec2
	.section	.text._Z6b2MulTRK5b2RotS1_,"axG",%progbits,_Z6b2MulTRK5b2RotS1_,comdat
	.align	2
	.weak	_Z6b2MulTRK5b2RotS1_
	.hidden	_Z6b2MulTRK5b2RotS1_
	.type	_Z6b2MulTRK5b2RotS1_, %function
_Z6b2MulTRK5b2RotS1_:
.LFB96:
	.loc 1 554 0
	.cfi_startproc
	@ args = 0, pretend = 0, frame = 16
	@ frame_needed = 0, uses_anonymous_args = 0
	stmfd	sp!, {r4, lr}
.LCFI21:
	.cfi_def_cfa_offset 8
	sub	sp, sp, #16
.LCFI22:
	.cfi_def_cfa_offset 24
	mov	r4, r0
	.cfi_offset 14, -4
	.cfi_offset 4, -8
	str	r1, [sp, #4]
	str	r2, [sp, #0]
.LBB4:
	.loc 1 559 0
	mov	r0, r4
	bl	_ZN5b2RotC1Ev
	.loc 1 560 0
	ldr	r3, [sp, #4]
	flds	s14, [r3, #4]
	ldr	r3, [sp, #0]
	flds	s15, [r3, #0]
	fmuls	s14, s14, s15
	ldr	r3, [sp, #4]
	flds	s13, [r3, #0]
	ldr	r3, [sp, #0]
	flds	s15, [r3, #4]
	fmuls	s15, s13, s15
	fsubs	s15, s14, s15
	fsts	s15, [r4, #0]
	.loc 1 561 0
	ldr	r3, [sp, #4]
	flds	s14, [r3, #4]
	ldr	r3, [sp, #0]
	flds	s15, [r3, #4]
	fmuls	s14, s14, s15
	ldr	r3, [sp, #4]
	flds	s13, [r3, #0]
	ldr	r3, [sp, #0]
	flds	s15, [r3, #0]
	fmuls	s15, s13, s15
	fadds	s15, s14, s15
	fsts	s15, [r4, #4]
.LBE4:
	.loc 1 563 0
	mov	r0, r4
	add	sp, sp, #16
	ldmfd	sp!, {r4, pc}
	.cfi_endproc
.LFE96:
	.size	_Z6b2MulTRK5b2RotS1_, .-_Z6b2MulTRK5b2RotS1_
	.section	.text._Z5b2MulRK5b2RotRK6b2Vec2,"axG",%progbits,_Z5b2MulRK5b2RotRK6b2Vec2,comdat
	.align	2
	.weak	_Z5b2MulRK5b2RotRK6b2Vec2
	.hidden	_Z5b2MulRK5b2RotRK6b2Vec2
	.type	_Z5b2MulRK5b2RotRK6b2Vec2, %function
_Z5b2MulRK5b2RotRK6b2Vec2:
.LFB97:
	.loc 1 567 0
	.cfi_startproc
	@ args = 0, pretend = 0, frame = 8
	@ frame_needed = 0, uses_anonymous_args = 0
	stmfd	sp!, {r4, lr}
.LCFI23:
	.cfi_def_cfa_offset 8
	sub	sp, sp, #8
.LCFI24:
	.cfi_def_cfa_offset 16
	mov	r4, r0
	.cfi_offset 14, -4
	.cfi_offset 4, -8
	str	r1, [sp, #4]
	str	r2, [sp, #0]
	.loc 1 568 0
	ldr	r3, [sp, #4]
	flds	s14, [r3, #4]
	ldr	r3, [sp, #0]
	flds	s15, [r3, #0]
	fmuls	s14, s14, s15
	ldr	r3, [sp, #4]
	flds	s13, [r3, #0]
	ldr	r3, [sp, #0]
	flds	s15, [r3, #4]
	fmuls	s15, s13, s15
	fsubs	s12, s14, s15
	ldr	r3, [sp, #4]
	flds	s14, [r3, #0]
	ldr	r3, [sp, #0]
	flds	s15, [r3, #0]
	fmuls	s14, s14, s15
	ldr	r3, [sp, #4]
	flds	s13, [r3, #4]
	ldr	r3, [sp, #0]
	flds	s15, [r3, #4]
	fmuls	s15, s13, s15
	fadds	s15, s14, s15
	mov	r0, r4
	fmrs	r1, s12
	fmrs	r2, s15
	bl	_ZN6b2Vec2C1Eff
	.loc 1 569 0
	mov	r0, r4
	add	sp, sp, #8
	ldmfd	sp!, {r4, pc}
	.cfi_endproc
.LFE97:
	.size	_Z5b2MulRK5b2RotRK6b2Vec2, .-_Z5b2MulRK5b2RotRK6b2Vec2
	.section	.text._Z6b2MulTRK5b2RotRK6b2Vec2,"axG",%progbits,_Z6b2MulTRK5b2RotRK6b2Vec2,comdat
	.align	2
	.weak	_Z6b2MulTRK5b2RotRK6b2Vec2
	.hidden	_Z6b2MulTRK5b2RotRK6b2Vec2
	.type	_Z6b2MulTRK5b2RotRK6b2Vec2, %function
_Z6b2MulTRK5b2RotRK6b2Vec2:
.LFB98:
	.loc 1 573 0
	.cfi_startproc
	@ args = 0, pretend = 0, frame = 8
	@ frame_needed = 0, uses_anonymous_args = 0
	stmfd	sp!, {r4, lr}
.LCFI25:
	.cfi_def_cfa_offset 8
	sub	sp, sp, #8
.LCFI26:
	.cfi_def_cfa_offset 16
	mov	r4, r0
	.cfi_offset 14, -4
	.cfi_offset 4, -8
	str	r1, [sp, #4]
	str	r2, [sp, #0]
	.loc 1 574 0
	ldr	r3, [sp, #4]
	flds	s14, [r3, #4]
	ldr	r3, [sp, #0]
	flds	s15, [r3, #0]
	fmuls	s14, s14, s15
	ldr	r3, [sp, #4]
	flds	s13, [r3, #0]
	ldr	r3, [sp, #0]
	flds	s15, [r3, #4]
	fmuls	s15, s13, s15
	fadds	s12, s14, s15
	ldr	r3, [sp, #4]
	flds	s15, [r3, #0]
	fnegs	s14, s15
	ldr	r3, [sp, #0]
	flds	s15, [r3, #0]
	fmuls	s14, s14, s15
	ldr	r3, [sp, #4]
	flds	s13, [r3, #4]
	ldr	r3, [sp, #0]
	flds	s15, [r3, #4]
	fmuls	s15, s13, s15
	fadds	s15, s14, s15
	mov	r0, r4
	fmrs	r1, s12
	fmrs	r2, s15
	bl	_ZN6b2Vec2C1Eff
	.loc 1 575 0
	mov	r0, r4
	add	sp, sp, #8
	ldmfd	sp!, {r4, pc}
	.cfi_endproc
.LFE98:
	.size	_Z6b2MulTRK5b2RotRK6b2Vec2, .-_Z6b2MulTRK5b2RotRK6b2Vec2
	.section	.text._Z5b2MulRK11b2TransformRK6b2Vec2,"axG",%progbits,_Z5b2MulRK11b2TransformRK6b2Vec2,comdat
	.align	2
	.weak	_Z5b2MulRK11b2TransformRK6b2Vec2
	.hidden	_Z5b2MulRK11b2TransformRK6b2Vec2
	.type	_Z5b2MulRK11b2TransformRK6b2Vec2, %function
_Z5b2MulRK11b2TransformRK6b2Vec2:
.LFB99:
	.loc 1 578 0
	.cfi_startproc
	@ args = 0, pretend = 0, frame = 16
	@ frame_needed = 0, uses_anonymous_args = 0
	stmfd	sp!, {r4, lr}
.LCFI27:
	.cfi_def_cfa_offset 8
	sub	sp, sp, #16
.LCFI28:
	.cfi_def_cfa_offset 24
	mov	r4, r0
	.cfi_offset 14, -4
	.cfi_offset 4, -8
	str	r1, [sp, #4]
	str	r2, [sp, #0]
.LBB5:
	.loc 1 579 0
	ldr	r3, [sp, #4]
	flds	s14, [r3, #12]
	ldr	r3, [sp, #0]
	flds	s15, [r3, #0]
	fmuls	s14, s14, s15
	ldr	r3, [sp, #4]
	flds	s13, [r3, #8]
	ldr	r3, [sp, #0]
	flds	s15, [r3, #4]
	fmuls	s15, s13, s15
	fsubs	s14, s14, s15
	ldr	r3, [sp, #4]
	flds	s15, [r3, #0]
	fadds	s15, s14, s15
	fsts	s15, [sp, #8]
	.loc 1 580 0
	ldr	r3, [sp, #4]
	flds	s14, [r3, #8]
	ldr	r3, [sp, #0]
	flds	s15, [r3, #0]
	fmuls	s14, s14, s15
	ldr	r3, [sp, #4]
	flds	s13, [r3, #12]
	ldr	r3, [sp, #0]
	flds	s15, [r3, #4]
	fmuls	s15, s13, s15
	fadds	s14, s14, s15
	ldr	r3, [sp, #4]
	flds	s15, [r3, #4]
	fadds	s15, s14, s15
	fsts	s15, [sp, #12]
	.loc 1 582 0
	mov	r0, r4
	ldr	r1, [sp, #8]	@ float
	ldr	r2, [sp, #12]	@ float
	bl	_ZN6b2Vec2C1Eff
.LBE5:
	.loc 1 583 0
	mov	r0, r4
	add	sp, sp, #16
	ldmfd	sp!, {r4, pc}
	.cfi_endproc
.LFE99:
	.size	_Z5b2MulRK11b2TransformRK6b2Vec2, .-_Z5b2MulRK11b2TransformRK6b2Vec2
	.section	.text._Z6b2MulTRK11b2TransformRK6b2Vec2,"axG",%progbits,_Z6b2MulTRK11b2TransformRK6b2Vec2,comdat
	.align	2
	.weak	_Z6b2MulTRK11b2TransformRK6b2Vec2
	.hidden	_Z6b2MulTRK11b2TransformRK6b2Vec2
	.type	_Z6b2MulTRK11b2TransformRK6b2Vec2, %function
_Z6b2MulTRK11b2TransformRK6b2Vec2:
.LFB100:
	.loc 1 586 0
	.cfi_startproc
	@ args = 0, pretend = 0, frame = 24
	@ frame_needed = 0, uses_anonymous_args = 0
	stmfd	sp!, {r4, lr}
.LCFI29:
	.cfi_def_cfa_offset 8
	sub	sp, sp, #24
.LCFI30:
	.cfi_def_cfa_offset 32
	mov	r4, r0
	.cfi_offset 14, -4
	.cfi_offset 4, -8
	str	r1, [sp, #4]
	str	r2, [sp, #0]
.LBB6:
	.loc 1 587 0
	ldr	r3, [sp, #0]
	flds	s14, [r3, #0]
	ldr	r3, [sp, #4]
	flds	s15, [r3, #0]
	fsubs	s15, s14, s15
	fsts	s15, [sp, #8]
	.loc 1 588 0
	ldr	r3, [sp, #0]
	flds	s14, [r3, #4]
	ldr	r3, [sp, #4]
	flds	s15, [r3, #4]
	fsubs	s15, s14, s15
	fsts	s15, [sp, #12]
	.loc 1 589 0
	ldr	r3, [sp, #4]
	flds	s14, [r3, #12]
	flds	s15, [sp, #8]
	fmuls	s14, s14, s15
	ldr	r3, [sp, #4]
	flds	s13, [r3, #8]
	flds	s15, [sp, #12]
	fmuls	s15, s13, s15
	fadds	s15, s14, s15
	fsts	s15, [sp, #16]
	.loc 1 590 0
	ldr	r3, [sp, #4]
	flds	s15, [r3, #8]
	fnegs	s14, s15
	flds	s15, [sp, #8]
	fmuls	s14, s14, s15
	ldr	r3, [sp, #4]
	flds	s13, [r3, #12]
	flds	s15, [sp, #12]
	fmuls	s15, s13, s15
	fadds	s15, s14, s15
	fsts	s15, [sp, #20]
	.loc 1 592 0
	mov	r0, r4
	ldr	r1, [sp, #16]	@ float
	ldr	r2, [sp, #20]	@ float
	bl	_ZN6b2Vec2C1Eff
.LBE6:
	.loc 1 593 0
	mov	r0, r4
	add	sp, sp, #24
	ldmfd	sp!, {r4, pc}
	.cfi_endproc
.LFE100:
	.size	_Z6b2MulTRK11b2TransformRK6b2Vec2, .-_Z6b2MulTRK11b2TransformRK6b2Vec2
	.section	.text._Z6b2MulTRK11b2TransformS1_,"axG",%progbits,_Z6b2MulTRK11b2TransformS1_,comdat
	.align	2
	.weak	_Z6b2MulTRK11b2TransformS1_
	.hidden	_Z6b2MulTRK11b2TransformS1_
	.type	_Z6b2MulTRK11b2TransformS1_, %function
_Z6b2MulTRK11b2TransformS1_:
.LFB102:
	.loc 1 608 0
	.cfi_startproc
	@ args = 0, pretend = 0, frame = 40
	@ frame_needed = 0, uses_anonymous_args = 0
	stmfd	sp!, {r4, r5, lr}
.LCFI31:
	.cfi_def_cfa_offset 12
	sub	sp, sp, #44
.LCFI32:
	.cfi_def_cfa_offset 56
	mov	r4, r0
	.cfi_offset 14, -4
	.cfi_offset 5, -8
	.cfi_offset 4, -12
	str	r1, [sp, #12]
	str	r2, [sp, #8]
.LBB7:
	.loc 1 609 0
	mov	r0, r4
	bl	_ZN11b2TransformC1Ev
	.loc 1 610 0
	ldr	r3, [sp, #12]
	add	r2, r3, #8
	ldr	r3, [sp, #8]
	add	r3, r3, #8
	mov	r1, sp
	mov	r0, r1
	mov	r1, r2
	mov	r2, r3
	bl	_Z6b2MulTRK5b2RotS1_
	add	r3, r4, #8
	mov	r2, sp
	ldmia	r2, {r0, r1}
	stmia	r3, {r0, r1}
	.loc 1 611 0
	ldr	r3, [sp, #12]
	add	r5, r3, #8
	ldr	r2, [sp, #8]
	ldr	r3, [sp, #12]
	add	r1, sp, #32
	mov	r0, r1
	mov	r1, r2
	mov	r2, r3
	bl	_ZmiRK6b2Vec2S1_
	mov	r2, sp
	add	r3, sp, #32
	mov	r0, r2
	mov	r1, r5
	mov	r2, r3
	bl	_Z6b2MulTRK5b2RotRK6b2Vec2
	mov	r3, r4
	mov	r2, sp
	ldmia	r2, {r0, r1}
	stmia	r3, {r0, r1}
.LBE7:
	.loc 1 613 0
	mov	r0, r4
	add	sp, sp, #44
	ldmfd	sp!, {r4, r5, pc}
	.cfi_endproc
.LFE102:
	.size	_Z6b2MulTRK11b2TransformS1_, .-_Z6b2MulTRK11b2TransformS1_
	.section	.text._ZL19b2FindMaxSeparationPiPK14b2PolygonShapeRK11b2TransformS2_S5_,"ax",%progbits
	.align	2
	.type	_ZL19b2FindMaxSeparationPiPK14b2PolygonShapeRK11b2TransformS2_S5_, %function
_ZL19b2FindMaxSeparationPiPK14b2PolygonShapeRK11b2TransformS2_S5_:
.LFB139:
	.file 2 "v:/gigglingbits/box2d/Box2D/Collision/b2CollidePolygon.cpp"
	.loc 2 26 0
	.cfi_startproc
	@ args = 4, pretend = 0, frame = 104
	@ frame_needed = 0, uses_anonymous_args = 0
	str	lr, [sp, #-4]!
.LCFI33:
	.cfi_def_cfa_offset 4
	sub	sp, sp, #108
.LCFI34:
	.cfi_def_cfa_offset 112
	str	r0, [sp, #12]
	str	r1, [sp, #8]
	str	r2, [sp, #4]
	str	r3, [sp, #0]
.LBB8:
	.loc 2 27 0
	ldr	r3, [sp, #8]
	ldr	r3, [r3, #148]
	str	r3, [sp, #60]
	.loc 2 28 0
	ldr	r3, [sp, #0]
	ldr	r3, [r3, #148]
	str	r3, [sp, #64]
	.loc 2 29 0
	ldr	r3, [sp, #8]
	add	r3, r3, #84
	str	r3, [sp, #68]
	.loc 2 30 0
	ldr	r3, [sp, #8]
	add	r3, r3, #20
	str	r3, [sp, #72]
	.loc 2 31 0
	ldr	r3, [sp, #0]
	add	r3, r3, #20
	str	r3, [sp, #76]
	.loc 2 32 0
	add	r3, sp, #36
	mov	r0, r3
	ldr	r1, [sp, #112]
	ldr	r2, [sp, #4]
	.cfi_offset 14, -4
	bl	_Z6b2MulTRK11b2TransformS1_
	.loc 2 34 0
	mov	r3, #0
	str	r3, [sp, #80]
	.loc 2 35 0
	flds	s15, .L56
	fsts	s15, [sp, #84]
.LBB9:
	.loc 2 36 0
	mov	r3, #0
	str	r3, [sp, #88]
	b	.L49
.L54:
.LBB10:
	.loc 2 39 0
	ldr	r3, [sp, #88]
	mov	r2, r3, asl #3
	ldr	r3, [sp, #68]
	add	r3, r2, r3
	add	r1, sp, #28
	add	r2, sp, #36
	add	r2, r2, #8
	mov	r0, r1
	mov	r1, r2
	mov	r2, r3
	bl	_Z5b2MulRK5b2RotRK6b2Vec2
	.loc 2 40 0
	ldr	r3, [sp, #88]
	mov	r2, r3, asl #3
	ldr	r3, [sp, #72]
	add	r3, r2, r3
	add	r1, sp, #20
	add	r2, sp, #36
	mov	r0, r1
	mov	r1, r2
	mov	r2, r3
	bl	_Z5b2MulRK11b2TransformRK6b2Vec2
	.loc 2 43 0
	flds	s15, .L56+4
	fsts	s15, [sp, #92]
.LBB11:
	.loc 2 44 0
	mov	r3, #0
	str	r3, [sp, #96]
	b	.L50
.L52:
.LBB12:
	.loc 2 46 0
	ldr	r3, [sp, #96]
	mov	r2, r3, asl #3
	ldr	r3, [sp, #76]
	add	r2, r2, r3
	add	r1, sp, #52
	add	r3, sp, #20
	mov	r0, r1
	mov	r1, r2
	mov	r2, r3
	bl	_ZmiRK6b2Vec2S1_
	add	r2, sp, #28
	add	r3, sp, #52
	mov	r0, r2
	mov	r1, r3
	bl	_Z5b2DotRK6b2Vec2S1_
	mov	r3, r0	@ float
	str	r3, [sp, #100]	@ float
	.loc 2 47 0
	flds	s14, [sp, #100]
	flds	s15, [sp, #92]
	fcmpes	s14, s15
	fmstat
	movpl	r3, #0
	movmi	r3, #1
	and	r3, r3, #255
	cmp	r3, #0
	beq	.L51
	.loc 2 49 0
	flds	s15, [sp, #100]
	fsts	s15, [sp, #92]
.L51:
.LBE12:
	.loc 2 44 0
	ldr	r3, [sp, #96]
	add	r3, r3, #1
	str	r3, [sp, #96]
.L50:
	ldr	r2, [sp, #96]
	ldr	r3, [sp, #64]
	cmp	r2, r3
	movge	r3, #0
	movlt	r3, #1
	and	r3, r3, #255
	cmp	r3, #0
	bne	.L52
.LBE11:
	.loc 2 53 0
	flds	s14, [sp, #92]
	flds	s15, [sp, #84]
	fcmpes	s14, s15
	fmstat
	movle	r3, #0
	movgt	r3, #1
	and	r3, r3, #255
	cmp	r3, #0
	beq	.L53
	.loc 2 55 0
	flds	s15, [sp, #92]
	fsts	s15, [sp, #84]
	.loc 2 56 0
	ldr	r3, [sp, #88]
	str	r3, [sp, #80]
.L53:
.LBE10:
	.loc 2 36 0
	ldr	r3, [sp, #88]
	add	r3, r3, #1
	str	r3, [sp, #88]
.L49:
	ldr	r2, [sp, #88]
	ldr	r3, [sp, #60]
	cmp	r2, r3
	movge	r3, #0
	movlt	r3, #1
	and	r3, r3, #255
	cmp	r3, #0
	bne	.L54
.LBE9:
	.loc 2 60 0
	ldr	r3, [sp, #12]
	ldr	r2, [sp, #80]
	str	r2, [r3, #0]
	.loc 2 61 0
	flds	s15, [sp, #84]
	fmrs	r3, s15
.LBE8:
	.loc 2 62 0
	mov	r0, r3	@ float
	add	sp, sp, #108
	ldmfd	sp!, {pc}
.L57:
	.align	2
.L56:
	.word	-8388609
	.word	2139095039
	.cfi_endproc
.LFE139:
	.size	_ZL19b2FindMaxSeparationPiPK14b2PolygonShapeRK11b2TransformS2_S5_, .-_ZL19b2FindMaxSeparationPiPK14b2PolygonShapeRK11b2TransformS2_S5_
	.section	.rodata
	.align	2
.LC0:
	.ascii	"v:/gigglingbits/box2d/Box2D/Collision/b2CollidePoly"
	.ascii	"gon.cpp\000"
	.align	2
.LC1:
	.ascii	"0 <= edge1 && edge1 < poly1->m_count\000"
	.section	.text._ZL18b2FindIncidentEdgeP12b2ClipVertexPK14b2PolygonShapeRK11b2TransformiS3_S6_,"ax",%progbits
	.align	2
	.type	_ZL18b2FindIncidentEdgeP12b2ClipVertexPK14b2PolygonShapeRK11b2TransformiS3_S6_, %function
_ZL18b2FindIncidentEdgeP12b2ClipVertexPK14b2PolygonShapeRK11b2TransformiS3_S6_:
.LFB140:
	.loc 2 67 0
	.cfi_startproc
	@ args = 8, pretend = 0, frame = 80
	@ frame_needed = 0, uses_anonymous_args = 0
	stmfd	sp!, {r4, lr}
.LCFI35:
	.cfi_def_cfa_offset 8
	sub	sp, sp, #80
.LCFI36:
	.cfi_def_cfa_offset 88
	str	r0, [sp, #20]
	str	r1, [sp, #16]
	str	r2, [sp, #12]
	str	r3, [sp, #8]
.LBB13:
	.loc 2 68 0
	ldr	r3, [sp, #16]
	add	r3, r3, #84
	str	r3, [sp, #40]
	.loc 2 70 0
	ldr	r3, [sp, #88]
	ldr	r3, [r3, #148]
	str	r3, [sp, #44]
	.loc 2 71 0
	ldr	r3, [sp, #88]
	add	r3, r3, #20
	str	r3, [sp, #48]
	.loc 2 72 0
	ldr	r3, [sp, #88]
	add	r3, r3, #84
	str	r3, [sp, #52]
	.loc 2 74 0
	ldr	r3, [sp, #8]
	cmp	r3, #0
	blt	.L59
	.cfi_offset 14, -4
	.cfi_offset 4, -8
	ldr	r3, [sp, #16]
	ldr	r2, [r3, #148]
	ldr	r3, [sp, #8]
	cmp	r2, r3
	bgt	.L60
.L59:
	ldr	r0, .L67+4
	mov	r1, #74
	ldr	r2, .L67+8
	bl	__assert
.L60:
	.loc 2 77 0
	ldr	r3, [sp, #92]
	add	r4, r3, #8
	ldr	r3, [sp, #12]
	add	r2, r3, #8
	ldr	r3, [sp, #8]
	mov	r1, r3, asl #3
	ldr	r3, [sp, #40]
	add	r3, r1, r3
	add	r1, sp, #32
	mov	r0, r1
	mov	r1, r2
	mov	r2, r3
	bl	_Z5b2MulRK5b2RotRK6b2Vec2
	add	r2, sp, #24
	add	r3, sp, #32
	mov	r0, r2
	mov	r1, r4
	mov	r2, r3
	bl	_Z6b2MulTRK5b2RotRK6b2Vec2
	.loc 2 80 0
	mov	r3, #0
	str	r3, [sp, #56]
	.loc 2 81 0
	flds	s15, .L67
	fsts	s15, [sp, #60]
.LBB14:
	.loc 2 82 0
	mov	r3, #0
	str	r3, [sp, #72]
	b	.L61
.L63:
.LBB15:
	.loc 2 84 0
	ldr	r3, [sp, #72]
	mov	r2, r3, asl #3
	ldr	r3, [sp, #52]
	add	r3, r2, r3
	add	r2, sp, #24
	mov	r0, r2
	mov	r1, r3
	bl	_Z5b2DotRK6b2Vec2S1_
	mov	r3, r0	@ float
	str	r3, [sp, #76]	@ float
	.loc 2 85 0
	flds	s14, [sp, #76]
	flds	s15, [sp, #60]
	fcmpes	s14, s15
	fmstat
	movpl	r3, #0
	movmi	r3, #1
	and	r3, r3, #255
	cmp	r3, #0
	beq	.L62
	.loc 2 87 0
	flds	s15, [sp, #76]
	fsts	s15, [sp, #60]
	.loc 2 88 0
	ldr	r3, [sp, #72]
	str	r3, [sp, #56]
.L62:
.LBE15:
	.loc 2 82 0
	ldr	r3, [sp, #72]
	add	r3, r3, #1
	str	r3, [sp, #72]
.L61:
	ldr	r2, [sp, #72]
	ldr	r3, [sp, #44]
	cmp	r2, r3
	movge	r3, #0
	movlt	r3, #1
	and	r3, r3, #255
	cmp	r3, #0
	bne	.L63
.LBE14:
	.loc 2 93 0
	ldr	r3, [sp, #56]
	str	r3, [sp, #64]
	.loc 2 94 0
	ldr	r3, [sp, #64]
	add	r2, r3, #1
	ldr	r3, [sp, #44]
	cmp	r2, r3
	bge	.L64
	ldr	r3, [sp, #64]
	add	r3, r3, #1
	b	.L65
.L64:
	mov	r3, #0
.L65:
	str	r3, [sp, #68]
	.loc 2 96 0
	ldr	r3, [sp, #64]
	mov	r2, r3, asl #3
	ldr	r3, [sp, #48]
	add	r3, r2, r3
	ldr	r4, [sp, #20]
	mov	r2, sp
	mov	r0, r2
	ldr	r1, [sp, #92]
	mov	r2, r3
	bl	_Z5b2MulRK11b2TransformRK6b2Vec2
	mov	r3, r4
	mov	r2, sp
	ldmia	r2, {r0, r1}
	stmia	r3, {r0, r1}
	.loc 2 97 0
	ldr	r3, [sp, #8]
	and	r2, r3, #255
	ldr	r3, [sp, #20]
	strb	r2, [r3, #8]
	.loc 2 98 0
	ldr	r3, [sp, #64]
	and	r2, r3, #255
	ldr	r3, [sp, #20]
	strb	r2, [r3, #9]
	.loc 2 99 0
	ldr	r3, [sp, #20]
	mov	r2, #1
	strb	r2, [r3, #10]
	.loc 2 100 0
	ldr	r3, [sp, #20]
	mov	r2, #0
	strb	r2, [r3, #11]
	.loc 2 102 0
	ldr	r3, [sp, #20]
	add	r4, r3, #12
	ldr	r3, [sp, #68]
	mov	r2, r3, asl #3
	ldr	r3, [sp, #48]
	add	r3, r2, r3
	mov	r2, sp
	mov	r0, r2
	ldr	r1, [sp, #92]
	mov	r2, r3
	bl	_Z5b2MulRK11b2TransformRK6b2Vec2
	mov	r3, r4
	mov	r2, sp
	ldmia	r2, {r0, r1}
	stmia	r3, {r0, r1}
	.loc 2 103 0
	ldr	r3, [sp, #20]
	add	r3, r3, #12
	ldr	r2, [sp, #8]
	and	r2, r2, #255
	strb	r2, [r3, #8]
	.loc 2 104 0
	ldr	r3, [sp, #20]
	add	r3, r3, #12
	ldr	r2, [sp, #68]
	and	r2, r2, #255
	strb	r2, [r3, #9]
	.loc 2 105 0
	ldr	r3, [sp, #20]
	add	r3, r3, #12
	mov	r2, #1
	strb	r2, [r3, #10]
	.loc 2 106 0
	ldr	r3, [sp, #20]
	add	r3, r3, #12
	mov	r2, #0
	strb	r2, [r3, #11]
.LBE13:
	.loc 2 107 0
	add	sp, sp, #80
	ldmfd	sp!, {r4, pc}
.L68:
	.align	2
.L67:
	.word	2139095039
	.word	.LC0
	.word	.LC1
	.cfi_endproc
.LFE140:
	.size	_ZL18b2FindIncidentEdgeP12b2ClipVertexPK14b2PolygonShapeRK11b2TransformiS3_S6_, .-_ZL18b2FindIncidentEdgeP12b2ClipVertexPK14b2PolygonShapeRK11b2TransformiS3_S6_
	.section	.text._ZN12b2ClipVertexC1Ev,"axG",%progbits,_ZN12b2ClipVertexC1Ev,comdat
	.align	2
	.weak	_ZN12b2ClipVertexC1Ev
	.hidden	_ZN12b2ClipVertexC1Ev
	.type	_ZN12b2ClipVertexC1Ev, %function
_ZN12b2ClipVertexC1Ev:
.LFB144:
	.file 3 "v:/gigglingbits/box2d/Box2D/Collision/b2Collision.h"
	.loc 3 141 0
	.cfi_startproc
	@ args = 0, pretend = 0, frame = 8
	@ frame_needed = 0, uses_anonymous_args = 0
	str	lr, [sp, #-4]!
.LCFI37:
	.cfi_def_cfa_offset 4
	sub	sp, sp, #12
.LCFI38:
	.cfi_def_cfa_offset 16
	str	r0, [sp, #4]
	.loc 3 141 0
	ldr	r3, [sp, #4]
	mov	r0, r3
	.cfi_offset 14, -4
	bl	_ZN6b2Vec2C1Ev
	ldr	r3, [sp, #4]
	mov	r0, r3
	add	sp, sp, #12
	ldmfd	sp!, {pc}
	.cfi_endproc
.LFE144:
	.size	_ZN12b2ClipVertexC1Ev, .-_ZN12b2ClipVertexC1Ev
	.section	.text._Z17b2CollidePolygonsP10b2ManifoldPK14b2PolygonShapeRK11b2TransformS3_S6_,"ax",%progbits
	.align	2
	.global	_Z17b2CollidePolygonsP10b2ManifoldPK14b2PolygonShapeRK11b2TransformS3_S6_
	.hidden	_Z17b2CollidePolygonsP10b2ManifoldPK14b2PolygonShapeRK11b2TransformS3_S6_
	.type	_Z17b2CollidePolygonsP10b2ManifoldPK14b2PolygonShapeRK11b2TransformS3_S6_, %function
_Z17b2CollidePolygonsP10b2ManifoldPK14b2PolygonShapeRK11b2TransformS3_S6_:
.LFB141:
	.loc 2 119 0
	.cfi_startproc
	@ args = 4, pretend = 0, frame = 296
	@ frame_needed = 0, uses_anonymous_args = 0
	stmfd	sp!, {r4, r5, lr}
.LCFI39:
	.cfi_def_cfa_offset 12
	sub	sp, sp, #308
.LCFI40:
	.cfi_def_cfa_offset 320
	str	r0, [sp, #28]
	str	r1, [sp, #24]
	str	r2, [sp, #20]
	str	r3, [sp, #16]
.LBB16:
	.loc 2 120 0
	ldr	r3, [sp, #28]
	mov	r2, #0
	str	r2, [r3, #60]
	.loc 2 121 0
	ldr	r3, [sp, #24]
	flds	s14, [r3, #8]
	ldr	r3, [sp, #16]
	flds	s15, [r3, #8]
	fadds	s15, s14, s15
	fsts	s15, [sp, #224]
	.loc 2 123 0
	mov	r3, #0
	str	r3, [sp, #204]
	.loc 2 124 0
	add	r3, sp, #204
	ldr	r2, [sp, #320]
	str	r2, [sp, #0]
	mov	r0, r3
	ldr	r1, [sp, #24]
	ldr	r2, [sp, #20]
	ldr	r3, [sp, #16]
	.cfi_offset 14, -4
	.cfi_offset 5, -8
	.cfi_offset 4, -12
	bl	_ZL19b2FindMaxSeparationPiPK14b2PolygonShapeRK11b2TransformS2_S5_
	mov	r3, r0	@ float
	str	r3, [sp, #228]	@ float
	.loc 2 125 0
	flds	s14, [sp, #228]
	flds	s15, [sp, #224]
	fcmpes	s14, s15
	fmstat
	movle	r3, #0
	movgt	r3, #1
	and	r3, r3, #255
	cmp	r3, #0
	bne	.L93
.L73:
	.loc 2 128 0
	mov	r3, #0
	str	r3, [sp, #200]
	.loc 2 129 0
	add	r3, sp, #200
	ldr	r2, [sp, #20]
	str	r2, [sp, #0]
	mov	r0, r3
	ldr	r1, [sp, #16]
	ldr	r2, [sp, #320]
	ldr	r3, [sp, #24]
	bl	_ZL19b2FindMaxSeparationPiPK14b2PolygonShapeRK11b2TransformS2_S5_
	mov	r3, r0	@ float
	str	r3, [sp, #232]	@ float
	.loc 2 130 0
	flds	s14, [sp, #232]
	flds	s15, [sp, #224]
	fcmpes	s14, s15
	fmstat
	movle	r3, #0
	movgt	r3, #1
	and	r3, r3, #255
	cmp	r3, #0
	bne	.L94
.L75:
	.loc 2 135 0
	add	r3, sp, #184
	mov	r0, r3
	bl	_ZN11b2TransformC1Ev
	add	r3, sp, #168
	mov	r0, r3
	bl	_ZN11b2TransformC1Ev
	.loc 2 138 0
	flds	s15, .L97
	fsts	s15, [sp, #252]
	.loc 2 140 0
	flds	s14, [sp, #228]
	flds	s15, .L97
	fadds	s14, s14, s15
	flds	s15, [sp, #232]
	fcmpes	s14, s15
	fmstat
	movpl	r3, #0
	movmi	r3, #1
	and	r3, r3, #255
	cmp	r3, #0
	beq	.L76
	.loc 2 142 0
	ldr	r3, [sp, #16]
	str	r3, [sp, #236]
	.loc 2 143 0
	ldr	r3, [sp, #24]
	str	r3, [sp, #240]
	.loc 2 144 0
	ldr	r3, [sp, #320]
	add	ip, sp, #184
	ldmia	r3, {r0, r1, r2, r3}
	stmia	ip, {r0, r1, r2, r3}
	.loc 2 145 0
	ldr	r3, [sp, #20]
	add	ip, sp, #168
	ldmia	r3, {r0, r1, r2, r3}
	stmia	ip, {r0, r1, r2, r3}
	.loc 2 146 0
	ldr	r3, [sp, #200]
	str	r3, [sp, #244]
	.loc 2 147 0
	ldr	r3, [sp, #28]
	mov	r2, #2
	str	r2, [r3, #56]
	.loc 2 148 0
	mov	r3, #1
	strb	r3, [sp, #251]
	b	.L77
.L76:
	.loc 2 152 0
	ldr	r3, [sp, #24]
	str	r3, [sp, #236]
	.loc 2 153 0
	ldr	r3, [sp, #16]
	str	r3, [sp, #240]
	.loc 2 154 0
	ldr	r3, [sp, #20]
	add	ip, sp, #184
	ldmia	r3, {r0, r1, r2, r3}
	stmia	ip, {r0, r1, r2, r3}
	.loc 2 155 0
	ldr	r3, [sp, #320]
	add	ip, sp, #168
	ldmia	r3, {r0, r1, r2, r3}
	stmia	ip, {r0, r1, r2, r3}
	.loc 2 156 0
	ldr	r3, [sp, #204]
	str	r3, [sp, #244]
	.loc 2 157 0
	ldr	r3, [sp, #28]
	mov	r2, #1
	str	r2, [r3, #56]
	.loc 2 158 0
	mov	r3, #0
	strb	r3, [sp, #251]
.L77:
	.loc 2 161 0
	add	r3, sp, #144
	mov	r5, r3
	mov	r4, #1
	b	.L78
.L79:
	mov	r0, r5
	bl	_ZN12b2ClipVertexC1Ev
	add	r5, r5, #12
	sub	r4, r4, #1
.L78:
	cmn	r4, #1
	moveq	r3, #0
	movne	r3, #1
	and	r3, r3, #255
	cmp	r3, #0
	bne	.L79
	.loc 2 162 0
	add	r2, sp, #144
	add	r3, sp, #184
	ldr	r1, [sp, #240]
	str	r1, [sp, #0]
	add	r1, sp, #168
	str	r1, [sp, #4]
	mov	r0, r2
	ldr	r1, [sp, #236]
	mov	r2, r3
	ldr	r3, [sp, #244]
	bl	_ZL18b2FindIncidentEdgeP12b2ClipVertexPK14b2PolygonShapeRK11b2TransformiS3_S6_
	.loc 2 164 0
	ldr	r3, [sp, #236]
	ldr	r3, [r3, #148]
	str	r3, [sp, #256]
	.loc 2 165 0
	ldr	r3, [sp, #236]
	add	r3, r3, #20
	str	r3, [sp, #260]
	.loc 2 167 0
	ldr	r3, [sp, #244]
	str	r3, [sp, #264]
	.loc 2 168 0
	ldr	r3, [sp, #244]
	add	r2, r3, #1
	ldr	r3, [sp, #256]
	cmp	r2, r3
	bge	.L80
	ldr	r3, [sp, #244]
	add	r3, r3, #1
	b	.L81
.L80:
	mov	r3, #0
.L81:
	str	r3, [sp, #268]
	.loc 2 170 0
	ldr	r3, [sp, #264]
	mov	r2, r3, asl #3
	ldr	r3, [sp, #260]
	add	r2, r2, r3
	add	r3, sp, #136
	ldmia	r2, {r0, r1}
	stmia	r3, {r0, r1}
	.loc 2 171 0
	ldr	r3, [sp, #268]
	mov	r2, r3, asl #3
	ldr	r3, [sp, #260]
	add	r2, r2, r3
	add	r3, sp, #128
	ldmia	r2, {r0, r1}
	stmia	r3, {r0, r1}
	.loc 2 173 0
	add	r1, sp, #120
	add	r2, sp, #128
	add	r3, sp, #136
	mov	r0, r1
	mov	r1, r2
	mov	r2, r3
	bl	_ZmiRK6b2Vec2S1_
	.loc 2 174 0
	add	r3, sp, #120
	mov	r0, r3
	bl	_ZN6b2Vec29NormalizeEv
	.loc 2 176 0
	add	r2, sp, #112
	add	r3, sp, #120
	mov	r0, r2
	mov	r1, r3
	ldr	r2, .L97+4	@ float
	bl	_Z7b2CrossRK6b2Vec2f
	.loc 2 177 0
	add	r1, sp, #208
	add	r2, sp, #136
	add	r3, sp, #128
	mov	r0, r1
	mov	r1, r2
	mov	r2, r3
	bl	_ZplRK6b2Vec2S1_
	add	r2, sp, #104
	add	r3, sp, #208
	mov	r0, r2
	ldr	r1, .L97+8	@ float
	mov	r2, r3
	bl	_ZmlfRK6b2Vec2
	.loc 2 179 0
	add	r1, sp, #96
	add	r3, sp, #184
	add	r2, r3, #8
	add	r3, sp, #120
	mov	r0, r1
	mov	r1, r2
	mov	r2, r3
	bl	_Z5b2MulRK5b2RotRK6b2Vec2
	.loc 2 180 0
	add	r2, sp, #88
	add	r3, sp, #96
	mov	r0, r2
	mov	r1, r3
	ldr	r2, .L97+4	@ float
	bl	_Z7b2CrossRK6b2Vec2f
	.loc 2 182 0
	add	r1, sp, #8
	add	r2, sp, #184
	add	r3, sp, #136
	mov	r0, r1
	mov	r1, r2
	mov	r2, r3
	bl	_Z5b2MulRK11b2TransformRK6b2Vec2
	add	r3, sp, #136
	add	r2, sp, #8
	ldmia	r2, {r0, r1}
	stmia	r3, {r0, r1}
	.loc 2 183 0
	add	r1, sp, #8
	add	r2, sp, #184
	add	r3, sp, #128
	mov	r0, r1
	mov	r1, r2
	mov	r2, r3
	bl	_Z5b2MulRK11b2TransformRK6b2Vec2
	add	r3, sp, #128
	add	r2, sp, #8
	ldmia	r2, {r0, r1}
	stmia	r3, {r0, r1}
	.loc 2 186 0
	add	r2, sp, #88
	add	r3, sp, #136
	mov	r0, r2
	mov	r1, r3
	bl	_Z5b2DotRK6b2Vec2S1_
	mov	r3, r0	@ float
	str	r3, [sp, #272]	@ float
	.loc 2 189 0
	add	r2, sp, #96
	add	r3, sp, #136
	mov	r0, r2
	mov	r1, r3
	bl	_Z5b2DotRK6b2Vec2S1_
	fmsr	s14, r0
	flds	s15, [sp, #224]
	fsubs	s15, s15, s14
	fsts	s15, [sp, #276]
	.loc 2 190 0
	add	r2, sp, #96
	add	r3, sp, #128
	mov	r0, r2
	mov	r1, r3
	bl	_Z5b2DotRK6b2Vec2S1_
	fmsr	s14, r0
	flds	s15, [sp, #224]
	fadds	s15, s14, s15
	fsts	s15, [sp, #280]
	.loc 2 193 0
	add	r3, sp, #64
	mov	r5, r3
	mov	r4, #1
	b	.L82
.L83:
	mov	r0, r5
	bl	_ZN12b2ClipVertexC1Ev
	add	r5, r5, #12
	sub	r4, r4, #1
.L82:
	cmn	r4, #1
	moveq	r3, #0
	movne	r3, #1
	and	r3, r3, #255
	cmp	r3, #0
	bne	.L83
	.loc 2 194 0
	add	r3, sp, #40
	mov	r5, r3
	mov	r4, #1
	b	.L84
.L98:
	.align	2
.L97:
	.word	973279855
	.word	1065353216
	.word	1056964608
.L85:
	mov	r0, r5
	bl	_ZN12b2ClipVertexC1Ev
	add	r5, r5, #12
	sub	r4, r4, #1
.L84:
	cmn	r4, #1
	moveq	r3, #0
	movne	r3, #1
	and	r3, r3, #255
	cmp	r3, #0
	bne	.L85
	.loc 2 198 0
	add	r2, sp, #216
	add	r3, sp, #96
	mov	r0, r2
	mov	r1, r3
	bl	_ZNK6b2Vec2ngEv
	add	r1, sp, #64
	add	r2, sp, #144
	add	r3, sp, #216
	ldr	r0, [sp, #264]
	str	r0, [sp, #0]
	mov	r0, r1
	mov	r1, r2
	mov	r2, r3
	ldr	r3, [sp, #276]	@ float
	bl	_Z19b2ClipSegmentToLineP12b2ClipVertexPKS_RK6b2Vec2fi
	mov	r3, r0
	str	r3, [sp, #284]
	.loc 2 200 0
	ldr	r3, [sp, #284]
	cmp	r3, #1
	ble	.L95
.L86:
	.loc 2 204 0
	add	r1, sp, #40
	add	r2, sp, #64
	add	r3, sp, #96
	ldr	r0, [sp, #268]
	str	r0, [sp, #0]
	mov	r0, r1
	mov	r1, r2
	mov	r2, r3
	ldr	r3, [sp, #280]	@ float
	bl	_Z19b2ClipSegmentToLineP12b2ClipVertexPKS_RK6b2Vec2fi
	mov	r3, r0
	str	r3, [sp, #284]
	.loc 2 206 0
	ldr	r3, [sp, #284]
	cmp	r3, #1
	ble	.L96
.L87:
	.loc 2 212 0
	ldr	r3, [sp, #28]
	add	r3, r3, #40
	add	r2, sp, #112
	ldmia	r2, {r0, r1}
	stmia	r3, {r0, r1}
	.loc 2 213 0
	ldr	r3, [sp, #28]
	add	r3, r3, #48
	add	r2, sp, #104
	ldmia	r2, {r0, r1}
	stmia	r3, {r0, r1}
	.loc 2 215 0
	mov	r3, #0
	str	r3, [sp, #288]
.LBB17:
	.loc 2 216 0
	mov	r3, #0
	str	r3, [sp, #292]
	b	.L88
.L91:
.LBB18:
	.loc 2 218 0
	ldr	r2, [sp, #292]
	add	r1, sp, #40
	mov	r3, r2
	mov	r3, r3, asl #1
	add	r3, r3, r2
	mov	r3, r3, asl #2
	add	r3, r1, r3
	add	r2, sp, #88
	mov	r0, r2
	mov	r1, r3
	bl	_Z5b2DotRK6b2Vec2S1_
	fmsr	s14, r0
	flds	s15, [sp, #272]
	fsubs	s15, s14, s15
	fsts	s15, [sp, #296]
	.loc 2 220 0
	flds	s14, [sp, #296]
	flds	s15, [sp, #224]
	fcmpes	s14, s15
	fmstat
	movhi	r3, #0
	movls	r3, #1
	and	r3, r3, #255
	cmp	r3, #0
	beq	.L89
.LBB19:
	.loc 2 222 0
	ldr	r1, [sp, #28]
	ldr	r2, [sp, #288]
	mov	r3, r2
	mov	r3, r3, asl #2
	add	r3, r3, r2
	mov	r3, r3, asl #2
	add	r3, r1, r3
	str	r3, [sp, #300]
	.loc 2 223 0
	ldr	r2, [sp, #292]
	add	r1, sp, #40
	mov	r3, r2
	mov	r3, r3, asl #1
	add	r3, r3, r2
	mov	r3, r3, asl #2
	add	r3, r1, r3
	ldr	r4, [sp, #300]
	add	r1, sp, #8
	add	r2, sp, #168
	mov	r0, r1
	mov	r1, r2
	mov	r2, r3
	bl	_Z6b2MulTRK11b2TransformRK6b2Vec2
	mov	r3, r4
	add	r2, sp, #8
	ldmia	r2, {r0, r1}
	stmia	r3, {r0, r1}
	.loc 2 224 0
	ldr	r2, [sp, #292]
	ldr	r1, [sp, #300]
	mvn	r0, #255
	mov	r3, r2
	mov	r3, r3, asl #1
	add	r3, r3, r2
	mov	r3, r3, asl #2
	add	r2, sp, #304
	add	r3, r3, r2
	add	r3, r3, r0
	ldr	r3, [r3, #0]
	str	r3, [r1, #16]
	.loc 2 225 0
	ldrb	r3, [sp, #251]	@ zero_extendqisi2
	cmp	r3, #0
	beq	.L90
.LBB20:
	.loc 2 228 0
	ldr	r3, [sp, #300]
	ldr	r3, [r3, #16]
	str	r3, [sp, #36]
	.loc 2 229 0
	ldrb	r2, [sp, #37]	@ zero_extendqisi2
	ldr	r3, [sp, #300]
	strb	r2, [r3, #16]
	.loc 2 230 0
	ldrb	r2, [sp, #36]	@ zero_extendqisi2
	ldr	r3, [sp, #300]
	strb	r2, [r3, #17]
	.loc 2 231 0
	ldrb	r2, [sp, #39]	@ zero_extendqisi2
	ldr	r3, [sp, #300]
	strb	r2, [r3, #18]
	.loc 2 232 0
	ldrb	r2, [sp, #38]	@ zero_extendqisi2
	ldr	r3, [sp, #300]
	strb	r2, [r3, #19]
.L90:
.LBE20:
	.loc 2 234 0
	ldr	r3, [sp, #288]
	add	r3, r3, #1
	str	r3, [sp, #288]
.L89:
.LBE19:
.LBE18:
	.loc 2 216 0
	ldr	r3, [sp, #292]
	add	r3, r3, #1
	str	r3, [sp, #292]
.L88:
	ldr	r3, [sp, #292]
	cmp	r3, #1
	movgt	r3, #0
	movle	r3, #1
	and	r3, r3, #255
	cmp	r3, #0
	bne	.L91
.LBE17:
	.loc 2 238 0
	ldr	r3, [sp, #28]
	ldr	r2, [sp, #288]
	str	r2, [r3, #60]
	b	.L92
.L93:
	.loc 2 126 0
	mov	r0, r0	@ nop
	b	.L92
.L94:
	.loc 2 131 0
	mov	r0, r0	@ nop
	b	.L92
.L95:
	.loc 2 201 0
	mov	r0, r0	@ nop
	b	.L92
.L96:
	.loc 2 208 0
	mov	r0, r0	@ nop
.L92:
.LBE16:
	.loc 2 239 0
	add	sp, sp, #308
	ldmfd	sp!, {r4, r5, pc}
	.cfi_endproc
.LFE141:
	.size	_Z17b2CollidePolygonsP10b2ManifoldPK14b2PolygonShapeRK11b2TransformS3_S6_, .-_Z17b2CollidePolygonsP10b2ManifoldPK14b2PolygonShapeRK11b2TransformS3_S6_
	.section	.rodata
	.type	_ZL14b2_nullFeature, %object
	.size	_ZL14b2_nullFeature, 1
_ZL14b2_nullFeature:
	.byte	-1
	.align	2
	.type	_ZL12b2_chunkSize, %object
	.size	_ZL12b2_chunkSize, 4
_ZL12b2_chunkSize:
	.word	16384
	.align	2
	.type	_ZL15b2_maxBlockSize, %object
	.size	_ZL15b2_maxBlockSize, 4
_ZL15b2_maxBlockSize:
	.word	640
	.align	2
	.type	_ZL13b2_blockSizes, %object
	.size	_ZL13b2_blockSizes, 4
_ZL13b2_blockSizes:
	.word	14
	.align	2
	.type	_ZL22b2_chunkArrayIncrement, %object
	.size	_ZL22b2_chunkArrayIncrement, 4
_ZL22b2_chunkArrayIncrement:
	.word	128
	.text
.Letext0: