	.arch armv5te
	.eabi_attribute 27, 3
	.fpu vfp
	.eabi_attribute 20, 1
	.eabi_attribute 21, 1
	.eabi_attribute 23, 3
	.eabi_attribute 24, 1
	.eabi_attribute 25, 1
	.eabi_attribute 26, 2
	.eabi_attribute 30, 6
	.eabi_attribute 18, 2
	.file	"b2ContactManager.cpp"
	.text
.Ltext0:
	.cfi_sections	.debug_frame
	.section	.text._ZN6b2Vec2C1Ev,"axG",%progbits,_ZN6b2Vec2C1Ev,comdat
	.align	2
	.weak	_ZN6b2Vec2C1Ev
	.hidden	_ZN6b2Vec2C1Ev
	.type	_ZN6b2Vec2C1Ev, %function
_ZN6b2Vec2C1Ev:
.LFB4:
	.file 1 "v:/gigglingbits/box2d/Box2D/Common/b2Math.h"
	.loc 1 56 0
	.cfi_startproc
	@ args = 0, pretend = 0, frame = 8
	@ frame_needed = 0, uses_anonymous_args = 0
	@ link register save eliminated.
	sub	sp, sp, #8
.LCFI0:
	.cfi_def_cfa_offset 8
	str	r0, [sp, #4]
	.loc 1 56 0
	ldr	r3, [sp, #4]
	mov	r0, r3
	add	sp, sp, #8
	bx	lr
	.cfi_endproc
.LFE4:
	.size	_ZN6b2Vec2C1Ev, .-_ZN6b2Vec2C1Ev
	.section	.text._ZN6b2Vec2C1Eff,"axG",%progbits,_ZN6b2Vec2C1Eff,comdat
	.align	2
	.weak	_ZN6b2Vec2C1Eff
	.hidden	_ZN6b2Vec2C1Eff
	.type	_ZN6b2Vec2C1Eff, %function
_ZN6b2Vec2C1Eff:
.LFB7:
	.loc 1 59 0
	.cfi_startproc
	@ args = 0, pretend = 0, frame = 16
	@ frame_needed = 0, uses_anonymous_args = 0
	@ link register save eliminated.
	sub	sp, sp, #16
.LCFI1:
	.cfi_def_cfa_offset 16
	str	r0, [sp, #12]
	str	r1, [sp, #8]	@ float
	str	r2, [sp, #4]	@ float
	.loc 1 59 0
	ldr	r3, [sp, #12]
	flds	s15, [sp, #8]
	fsts	s15, [r3, #0]
	ldr	r3, [sp, #12]
	flds	s15, [sp, #4]
	fsts	s15, [r3, #4]
	ldr	r3, [sp, #12]
	mov	r0, r3
	add	sp, sp, #16
	bx	lr
	.cfi_endproc
.LFE7:
	.size	_ZN6b2Vec2C1Eff, .-_ZN6b2Vec2C1Eff
	.section	.text._ZN6b2Vec27SetZeroEv,"axG",%progbits,_ZN6b2Vec27SetZeroEv,comdat
	.align	2
	.weak	_ZN6b2Vec27SetZeroEv
	.hidden	_ZN6b2Vec27SetZeroEv
	.type	_ZN6b2Vec27SetZeroEv, %function
_ZN6b2Vec27SetZeroEv:
.LFB8:
	.loc 1 62 0
	.cfi_startproc
	@ args = 0, pretend = 0, frame = 8
	@ frame_needed = 0, uses_anonymous_args = 0
	@ link register save eliminated.
	sub	sp, sp, #8
.LCFI2:
	.cfi_def_cfa_offset 8
	str	r0, [sp, #4]
	.loc 1 62 0
	ldr	r3, [sp, #4]
	flds	s15, .L9
	fsts	s15, [r3, #0]
	ldr	r3, [sp, #4]
	flds	s15, .L9
	fsts	s15, [r3, #4]
	add	sp, sp, #8
	bx	lr
.L10:
	.align	2
.L9:
	.word	0
	.cfi_endproc
.LFE8:
	.size	_ZN6b2Vec27SetZeroEv, .-_ZN6b2Vec27SetZeroEv
	.section	.text._ZmiRK6b2Vec2S1_,"axG",%progbits,_ZmiRK6b2Vec2S1_,comdat
	.align	2
	.weak	_ZmiRK6b2Vec2S1_
	.hidden	_ZmiRK6b2Vec2S1_
	.type	_ZmiRK6b2Vec2S1_, %function
_ZmiRK6b2Vec2S1_:
.LFB80:
	.loc 1 453 0
	.cfi_startproc
	@ args = 0, pretend = 0, frame = 8
	@ frame_needed = 0, uses_anonymous_args = 0
	stmfd	sp!, {r4, lr}
.LCFI3:
	.cfi_def_cfa_offset 8
	sub	sp, sp, #8
.LCFI4:
	.cfi_def_cfa_offset 16
	mov	r4, r0
	.cfi_offset 14, -4
	.cfi_offset 4, -8
	str	r1, [sp, #4]
	str	r2, [sp, #0]
	.loc 1 454 0
	ldr	r3, [sp, #4]
	flds	s14, [r3, #0]
	ldr	r3, [sp, #0]
	flds	s15, [r3, #0]
	fsubs	s13, s14, s15
	ldr	r3, [sp, #4]
	flds	s14, [r3, #4]
	ldr	r3, [sp, #0]
	flds	s15, [r3, #4]
	fsubs	s15, s14, s15
	mov	r0, r4
	fmrs	r1, s13
	fmrs	r2, s15
	bl	_ZN6b2Vec2C1Eff
	.loc 1 455 0
	mov	r0, r4
	add	sp, sp, #8
	ldmfd	sp!, {r4, pc}
	.cfi_endproc
.LFE80:
	.size	_ZmiRK6b2Vec2S1_, .-_ZmiRK6b2Vec2S1_
	.section	.text._Z13b2TestOverlapRK6b2AABBS1_,"axG",%progbits,_Z13b2TestOverlapRK6b2AABBS1_,comdat
	.align	2
	.weak	_Z13b2TestOverlapRK6b2AABBS1_
	.hidden	_Z13b2TestOverlapRK6b2AABBS1_
	.type	_Z13b2TestOverlapRK6b2AABBS1_, %function
_Z13b2TestOverlapRK6b2AABBS1_:
.LFB125:
	.file 2 "v:/gigglingbits/box2d/Box2D/Collision/b2Collision.h"
	.loc 2 263 0
	.cfi_startproc
	@ args = 0, pretend = 0, frame = 32
	@ frame_needed = 0, uses_anonymous_args = 0
	str	lr, [sp, #-4]!
.LCFI5:
	.cfi_def_cfa_offset 4
	sub	sp, sp, #36
.LCFI6:
	.cfi_def_cfa_offset 40
	str	r0, [sp, #12]
	str	r1, [sp, #8]
.LBB2:
	.loc 2 264 0
	add	r3, sp, #24
	mov	r0, r3
	.cfi_offset 14, -4
	bl	_ZN6b2Vec2C1Ev
	add	r3, sp, #16
	mov	r0, r3
	bl	_ZN6b2Vec2C1Ev
	.loc 2 265 0
	ldr	r2, [sp, #8]
	ldr	r3, [sp, #12]
	add	r3, r3, #8
	mov	r1, sp
	mov	r0, r1
	mov	r1, r2
	mov	r2, r3
	bl	_ZmiRK6b2Vec2S1_
	add	r3, sp, #24
	mov	r2, sp
	ldmia	r2, {r0, r1}
	stmia	r3, {r0, r1}
	.loc 2 266 0
	ldr	r2, [sp, #12]
	ldr	r3, [sp, #8]
	add	r3, r3, #8
	mov	r1, sp
	mov	r0, r1
	mov	r1, r2
	mov	r2, r3
	bl	_ZmiRK6b2Vec2S1_
	add	r3, sp, #16
	mov	r2, sp
	ldmia	r2, {r0, r1}
	stmia	r3, {r0, r1}
	.loc 2 268 0
	flds	s15, [sp, #24]
	fcmpezs	s15
	fmstat
	movle	r3, #0
	movgt	r3, #1
	and	r3, r3, #255
	cmp	r3, #0
	bne	.L14
	flds	s15, [sp, #28]
	fcmpezs	s15
	fmstat
	movle	r3, #0
	movgt	r3, #1
	and	r3, r3, #255
	cmp	r3, #0
	beq	.L15
.L14:
	.loc 2 269 0
	mov	r3, #0
	b	.L16
.L15:
	.loc 2 271 0
	flds	s15, [sp, #16]
	fcmpezs	s15
	fmstat
	movle	r3, #0
	movgt	r3, #1
	and	r3, r3, #255
	cmp	r3, #0
	bne	.L17
	flds	s15, [sp, #20]
	fcmpezs	s15
	fmstat
	movle	r3, #0
	movgt	r3, #1
	and	r3, r3, #255
	cmp	r3, #0
	beq	.L18
.L17:
	.loc 2 272 0
	mov	r3, #0
	b	.L16
.L18:
	.loc 2 274 0
	mov	r3, #1
.L16:
.LBE2:
	.loc 2 275 0
	mov	r0, r3
	add	sp, sp, #36
	ldmfd	sp!, {pc}
	.cfi_endproc
.LFE125:
	.size	_Z13b2TestOverlapRK6b2AABBS1_, .-_Z13b2TestOverlapRK6b2AABBS1_
	.section	.text._ZNK10b2TreeNode6IsLeafEv,"axG",%progbits,_ZNK10b2TreeNode6IsLeafEv,comdat
	.align	2
	.weak	_ZNK10b2TreeNode6IsLeafEv
	.hidden	_ZNK10b2TreeNode6IsLeafEv
	.type	_ZNK10b2TreeNode6IsLeafEv, %function
_ZNK10b2TreeNode6IsLeafEv:
.LFB131:
	.file 3 "v:/gigglingbits/box2d/Box2D/Collision/b2DynamicTree.h"
	.loc 3 30 0
	.cfi_startproc
	@ args = 0, pretend = 0, frame = 8
	@ frame_needed = 0, uses_anonymous_args = 0
	@ link register save eliminated.
	sub	sp, sp, #8
.LCFI7:
	.cfi_def_cfa_offset 8
	str	r0, [sp, #4]
	.loc 3 32 0
	ldr	r3, [sp, #4]
	ldr	r3, [r3, #24]
	cmn	r3, #1
	movne	r3, #0
	moveq	r3, #1
	and	r3, r3, #255
	.loc 3 33 0
	mov	r0, r3
	add	sp, sp, #8
	bx	lr
	.cfi_endproc
.LFE131:
	.size	_ZNK10b2TreeNode6IsLeafEv, .-_ZNK10b2TreeNode6IsLeafEv
	.section	.rodata
	.align	2
.LC0:
	.ascii	"v:/gigglingbits/box2d/Box2D/Collision/b2DynamicTree"
	.ascii	".h\000"
	.align	2
.LC1:
	.ascii	"0 <= proxyId && proxyId < m_nodeCapacity\000"
	.section	.text._ZNK13b2DynamicTree11GetUserDataEi,"axG",%progbits,_ZNK13b2DynamicTree11GetUserDataEi,comdat
	.align	2
	.weak	_ZNK13b2DynamicTree11GetUserDataEi
	.hidden	_ZNK13b2DynamicTree11GetUserDataEi
	.type	_ZNK13b2DynamicTree11GetUserDataEi, %function
_ZNK13b2DynamicTree11GetUserDataEi:
.LFB132:
	.loc 3 157 0
	.cfi_startproc
	@ args = 0, pretend = 0, frame = 8
	@ frame_needed = 0, uses_anonymous_args = 0
	str	lr, [sp, #-4]!
.LCFI8:
	.cfi_def_cfa_offset 4
	sub	sp, sp, #12
.LCFI9:
	.cfi_def_cfa_offset 16
	str	r0, [sp, #4]
	str	r1, [sp, #0]
	.loc 3 158 0
	ldr	r3, [sp, #0]
	cmp	r3, #0
	blt	.L23
	.cfi_offset 14, -4
	ldr	r3, [sp, #4]
	ldr	r2, [r3, #12]
	ldr	r3, [sp, #0]
	cmp	r2, r3
	bgt	.L24
.L23:
	ldr	r0, .L26
	mov	r1, #158
	ldr	r2, .L26+4
	bl	__assert
.L24:
	.loc 3 159 0
	ldr	r3, [sp, #4]
	ldr	r1, [r3, #4]
	ldr	r2, [sp, #0]
	mov	r3, r2
	mov	r3, r3, asl #3
	add	r3, r3, r2
	mov	r3, r3, asl #2
	add	r3, r1, r3
	ldr	r3, [r3, #16]
	.loc 3 160 0
	mov	r0, r3
	add	sp, sp, #12
	ldmfd	sp!, {pc}
.L27:
	.align	2
.L26:
	.word	.LC0
	.word	.LC1
	.cfi_endproc
.LFE132:
	.size	_ZNK13b2DynamicTree11GetUserDataEi, .-_ZNK13b2DynamicTree11GetUserDataEi
	.section	.text._ZNK13b2DynamicTree10GetFatAABBEi,"axG",%progbits,_ZNK13b2DynamicTree10GetFatAABBEi,comdat
	.align	2
	.weak	_ZNK13b2DynamicTree10GetFatAABBEi
	.hidden	_ZNK13b2DynamicTree10GetFatAABBEi
	.type	_ZNK13b2DynamicTree10GetFatAABBEi, %function
_ZNK13b2DynamicTree10GetFatAABBEi:
.LFB133:
	.loc 3 163 0
	.cfi_startproc
	@ args = 0, pretend = 0, frame = 8
	@ frame_needed = 0, uses_anonymous_args = 0
	str	lr, [sp, #-4]!
.LCFI10:
	.cfi_def_cfa_offset 4
	sub	sp, sp, #12
.LCFI11:
	.cfi_def_cfa_offset 16
	str	r0, [sp, #4]
	str	r1, [sp, #0]
	.loc 3 164 0
	ldr	r3, [sp, #0]
	cmp	r3, #0
	blt	.L29
	.cfi_offset 14, -4
	ldr	r3, [sp, #4]
	ldr	r2, [r3, #12]
	ldr	r3, [sp, #0]
	cmp	r2, r3
	bgt	.L30
.L29:
	ldr	r0, .L32
	mov	r1, #164
	ldr	r2, .L32+4
	bl	__assert
.L30:
	.loc 3 165 0
	ldr	r3, [sp, #4]
	ldr	r1, [r3, #4]
	ldr	r2, [sp, #0]
	mov	r3, r2
	mov	r3, r3, asl #3
	add	r3, r3, r2
	mov	r3, r3, asl #2
	add	r3, r1, r3
	.loc 3 166 0
	mov	r0, r3
	add	sp, sp, #12
	ldmfd	sp!, {pc}
.L33:
	.align	2
.L32:
	.word	.LC0
	.word	.LC1
	.cfi_endproc
.LFE133:
	.size	_ZNK13b2DynamicTree10GetFatAABBEi, .-_ZNK13b2DynamicTree10GetFatAABBEi
	.section	.text._Z14b2PairLessThanRK6b2PairS1_,"axG",%progbits,_Z14b2PairLessThanRK6b2PairS1_,comdat
	.align	2
	.weak	_Z14b2PairLessThanRK6b2PairS1_
	.hidden	_Z14b2PairLessThanRK6b2PairS1_
	.type	_Z14b2PairLessThanRK6b2PairS1_, %function
_Z14b2PairLessThanRK6b2PairS1_:
.LFB545:
	.file 4 "v:/gigglingbits/box2d/Box2D/Collision/b2BroadPhase.h"
	.loc 4 133 0
	.cfi_startproc
	@ args = 0, pretend = 0, frame = 8
	@ frame_needed = 0, uses_anonymous_args = 0
	@ link register save eliminated.
	sub	sp, sp, #8
.LCFI12:
	.cfi_def_cfa_offset 8
	str	r0, [sp, #4]
	str	r1, [sp, #0]
	.loc 4 134 0
	ldr	r3, [sp, #4]
	ldr	r2, [r3, #0]
	ldr	r3, [sp, #0]
	ldr	r3, [r3, #0]
	cmp	r2, r3
	bge	.L35
	.loc 4 136 0
	mov	r3, #1
	b	.L36
.L35:
	.loc 4 139 0
	ldr	r3, [sp, #4]
	ldr	r2, [r3, #0]
	ldr	r3, [sp, #0]
	ldr	r3, [r3, #0]
	cmp	r2, r3
	bne	.L37
	.loc 4 141 0
	ldr	r3, [sp, #4]
	ldr	r2, [r3, #4]
	ldr	r3, [sp, #0]
	ldr	r3, [r3, #4]
	cmp	r2, r3
	movge	r3, #0
	movlt	r3, #1
	and	r3, r3, #255
	b	.L36
.L37:
	.loc 4 144 0
	mov	r3, #0
.L36:
	.loc 4 145 0
	mov	r0, r3
	add	sp, sp, #8
	bx	lr
	.cfi_endproc
.LFE545:
	.size	_Z14b2PairLessThanRK6b2PairS1_, .-_Z14b2PairLessThanRK6b2PairS1_
	.section	.text._ZNK12b2BroadPhase11TestOverlapEii,"axG",%progbits,_ZNK12b2BroadPhase11TestOverlapEii,comdat
	.align	2
	.weak	_ZNK12b2BroadPhase11TestOverlapEii
	.hidden	_ZNK12b2BroadPhase11TestOverlapEii
	.type	_ZNK12b2BroadPhase11TestOverlapEii, %function
_ZNK12b2BroadPhase11TestOverlapEii:
.LFB547:
	.loc 4 153 0
	.cfi_startproc
	@ args = 0, pretend = 0, frame = 24
	@ frame_needed = 0, uses_anonymous_args = 0
	str	lr, [sp, #-4]!
.LCFI13:
	.cfi_def_cfa_offset 4
	sub	sp, sp, #28
.LCFI14:
	.cfi_def_cfa_offset 32
	str	r0, [sp, #12]
	str	r1, [sp, #8]
	str	r2, [sp, #4]
.LBB3:
	.loc 4 154 0
	ldr	r3, [sp, #12]
	mov	r0, r3
	ldr	r1, [sp, #8]
	.cfi_offset 14, -4
	bl	_ZNK13b2DynamicTree10GetFatAABBEi
	mov	r3, r0
	str	r3, [sp, #16]
	.loc 4 155 0
	ldr	r3, [sp, #12]
	mov	r0, r3
	ldr	r1, [sp, #4]
	bl	_ZNK13b2DynamicTree10GetFatAABBEi
	mov	r3, r0
	str	r3, [sp, #20]
	.loc 4 156 0
	ldr	r0, [sp, #16]
	ldr	r1, [sp, #20]
	bl	_Z13b2TestOverlapRK6b2AABBS1_
	mov	r3, r0
.LBE3:
	.loc 4 157 0
	mov	r0, r3
	add	sp, sp, #28
	ldmfd	sp!, {pc}
	.cfi_endproc
.LFE547:
	.size	_ZNK12b2BroadPhase11TestOverlapEii, .-_ZNK12b2BroadPhase11TestOverlapEii
	.section	.text._ZN6b2Body8SetAwakeEb,"axG",%progbits,_ZN6b2Body8SetAwakeEb,comdat
	.align	2
	.weak	_ZN6b2Body8SetAwakeEb
	.hidden	_ZN6b2Body8SetAwakeEb
	.type	_ZN6b2Body8SetAwakeEb, %function
_ZN6b2Body8SetAwakeEb:
.LFB671:
	.file 5 "v:/gigglingbits/box2d/Box2D/Dynamics/b2Body.h"
	.loc 5 634 0
	.cfi_startproc
	@ args = 0, pretend = 0, frame = 8
	@ frame_needed = 0, uses_anonymous_args = 0
	str	lr, [sp, #-4]!
.LCFI15:
	.cfi_def_cfa_offset 4
	sub	sp, sp, #12
.LCFI16:
	.cfi_def_cfa_offset 16
	str	r0, [sp, #4]
	mov	r3, r1
	strb	r3, [sp, #3]
	.loc 5 635 0
	ldrb	r3, [sp, #3]	@ zero_extendqisi2
	cmp	r3, #0
	beq	.L42
	.cfi_offset 14, -4
	.loc 5 637 0
	ldr	r3, [sp, #4]
	ldrh	r3, [r3, #4]
	and	r3, r3, #2
	cmp	r3, #0
	bne	.L46
	.loc 5 639 0
	ldr	r3, [sp, #4]
	ldrh	r3, [r3, #4]
	orr	r3, r3, #2
	mov	r3, r3, asl #16
	mov	r2, r3, lsr #16
	ldr	r3, [sp, #4]
	strh	r2, [r3, #4]	@ movhi
	.loc 5 640 0
	ldr	r3, [sp, #4]
	flds	s15, .L47
	fsts	s15, [r3, #144]
	b	.L45
.L42:
	.loc 5 645 0
	ldr	r3, [sp, #4]
	ldrh	r3, [r3, #4]
	ldr	r2, .L47+4
	and	r2, r3, r2
	mov	r3, r2
	ldr	r2, [sp, #4]
	strh	r3, [r2, #4]	@ movhi
	.loc 5 646 0
	ldr	r3, [sp, #4]
	flds	s15, .L47
	fsts	s15, [r3, #144]
	.loc 5 647 0
	ldr	r3, [sp, #4]
	add	r3, r3, #64
	mov	r0, r3
	bl	_ZN6b2Vec27SetZeroEv
	.loc 5 648 0
	ldr	r3, [sp, #4]
	flds	s15, .L47
	fsts	s15, [r3, #72]
	.loc 5 649 0
	ldr	r3, [sp, #4]
	add	r3, r3, #76
	mov	r0, r3
	bl	_ZN6b2Vec27SetZeroEv
	.loc 5 650 0
	ldr	r3, [sp, #4]
	flds	s15, .L47
	fsts	s15, [r3, #84]
	b	.L45
.L46:
	.loc 5 640 0
	mov	r0, r0	@ nop
.L45:
	.loc 5 652 0
	add	sp, sp, #12
	ldmfd	sp!, {pc}
.L48:
	.align	2
.L47:
	.word	0
	.word	65533
	.cfi_endproc
.LFE671:
	.size	_ZN6b2Body8SetAwakeEb, .-_ZN6b2Body8SetAwakeEb
	.section	.text._ZNK6b2Body7IsAwakeEv,"axG",%progbits,_ZNK6b2Body7IsAwakeEv,comdat
	.align	2
	.weak	_ZNK6b2Body7IsAwakeEv
	.hidden	_ZNK6b2Body7IsAwakeEv
	.type	_ZNK6b2Body7IsAwakeEv, %function
_ZNK6b2Body7IsAwakeEv:
.LFB672:
	.loc 5 655 0
	.cfi_startproc
	@ args = 0, pretend = 0, frame = 8
	@ frame_needed = 0, uses_anonymous_args = 0
	@ link register save eliminated.
	sub	sp, sp, #8
.LCFI17:
	.cfi_def_cfa_offset 8
	str	r0, [sp, #4]
	.loc 5 656 0
	ldr	r3, [sp, #4]
	ldrh	r3, [r3, #4]
	and	r3, r3, #2
	cmp	r3, #0
	moveq	r3, #0
	movne	r3, #1
	and	r3, r3, #255
	.loc 5 657 0
	mov	r0, r3
	add	sp, sp, #8
	bx	lr
	.cfi_endproc
.LFE672:
	.size	_ZNK6b2Body7IsAwakeEv, .-_ZNK6b2Body7IsAwakeEv
	.section	.text._ZN6b2Body14GetContactListEv,"axG",%progbits,_ZN6b2Body14GetContactListEv,comdat
	.align	2
	.weak	_ZN6b2Body14GetContactListEv
	.hidden	_ZN6b2Body14GetContactListEv
	.type	_ZN6b2Body14GetContactListEv, %function
_ZN6b2Body14GetContactListEv:
.LFB681:
	.loc 5 708 0
	.cfi_startproc
	@ args = 0, pretend = 0, frame = 8
	@ frame_needed = 0, uses_anonymous_args = 0
	@ link register save eliminated.
	sub	sp, sp, #8
.LCFI18:
	.cfi_def_cfa_offset 8
	str	r0, [sp, #4]
	.loc 5 709 0
	ldr	r3, [sp, #4]
	ldr	r3, [r3, #112]
	.loc 5 710 0
	mov	r0, r3
	add	sp, sp, #8
	bx	lr
	.cfi_endproc
.LFE681:
	.size	_ZN6b2Body14GetContactListEv, .-_ZN6b2Body14GetContactListEv
	.section	.text._ZNK9b2Fixture8IsSensorEv,"axG",%progbits,_ZNK9b2Fixture8IsSensorEv,comdat
	.align	2
	.weak	_ZNK9b2Fixture8IsSensorEv
	.hidden	_ZNK9b2Fixture8IsSensorEv
	.type	_ZNK9b2Fixture8IsSensorEv, %function
_ZNK9b2Fixture8IsSensorEv:
.LFB705:
	.file 6 "v:/gigglingbits/box2d/Box2D/Dynamics/b2Fixture.h"
	.loc 6 254 0
	.cfi_startproc
	@ args = 0, pretend = 0, frame = 8
	@ frame_needed = 0, uses_anonymous_args = 0
	@ link register save eliminated.
	sub	sp, sp, #8
.LCFI19:
	.cfi_def_cfa_offset 8
	str	r0, [sp, #4]
	.loc 6 255 0
	ldr	r3, [sp, #4]
	ldrb	r3, [r3, #38]	@ zero_extendqisi2
	.loc 6 256 0
	mov	r0, r3
	add	sp, sp, #8
	bx	lr
	.cfi_endproc
.LFE705:
	.size	_ZNK9b2Fixture8IsSensorEv, .-_ZNK9b2Fixture8IsSensorEv
	.section	.text._ZN9b2Fixture7GetBodyEv,"axG",%progbits,_ZN9b2Fixture7GetBodyEv,comdat
	.align	2
	.weak	_ZN9b2Fixture7GetBodyEv
	.hidden	_ZN9b2Fixture7GetBodyEv
	.type	_ZN9b2Fixture7GetBodyEv, %function
_ZN9b2Fixture7GetBodyEv:
.LFB709:
	.loc 6 274 0
	.cfi_startproc
	@ args = 0, pretend = 0, frame = 8
	@ frame_needed = 0, uses_anonymous_args = 0
	@ link register save eliminated.
	sub	sp, sp, #8
.LCFI20:
	.cfi_def_cfa_offset 8
	str	r0, [sp, #4]
	.loc 6 275 0
	ldr	r3, [sp, #4]
	ldr	r3, [r3, #8]
	.loc 6 276 0
	mov	r0, r3
	add	sp, sp, #8
	bx	lr
	.cfi_endproc
.LFE709:
	.size	_ZN9b2Fixture7GetBodyEv, .-_ZN9b2Fixture7GetBodyEv
	.section	.text._ZN15b2ContactFilterD1Ev,"axG",%progbits,_ZN15b2ContactFilterD1Ev,comdat
	.align	2
	.weak	_ZN15b2ContactFilterD1Ev
	.hidden	_ZN15b2ContactFilterD1Ev
	.type	_ZN15b2ContactFilterD1Ev, %function
_ZN15b2ContactFilterD1Ev:
.LFB729:
	.file 7 "v:/gigglingbits/box2d/Box2D/Dynamics/b2WorldCallbacks.h"
	.loc 7 55 0
	.cfi_startproc
	@ args = 0, pretend = 0, frame = 8
	@ frame_needed = 0, uses_anonymous_args = 0
	str	lr, [sp, #-4]!
.LCFI21:
	.cfi_def_cfa_offset 4
	sub	sp, sp, #12
.LCFI22:
	.cfi_def_cfa_offset 16
	str	r0, [sp, #4]
	.loc 7 55 0
	ldr	r3, [sp, #4]
	ldr	r2, .L61
	str	r2, [r3, #0]
	mov	r3, #0
	and	r3, r3, #255
	cmp	r3, #0
	beq	.L59
	.cfi_offset 14, -4
	ldr	r0, [sp, #4]
	bl	_ZdlPv
.L59:
	ldr	r3, [sp, #4]
	mov	r0, r3
	add	sp, sp, #12
	ldmfd	sp!, {pc}
.L62:
	.align	2
.L61:
	.word	_ZTV15b2ContactFilter+8
	.cfi_endproc
.LFE729:
	.size	_ZN15b2ContactFilterD1Ev, .-_ZN15b2ContactFilterD1Ev
	.section	.text._ZN17b2ContactListenerD1Ev,"axG",%progbits,_ZN17b2ContactListenerD1Ev,comdat
	.align	2
	.weak	_ZN17b2ContactListenerD1Ev
	.hidden	_ZN17b2ContactListenerD1Ev
	.type	_ZN17b2ContactListenerD1Ev, %function
_ZN17b2ContactListenerD1Ev:
.LFB733:
	.loc 7 84 0
	.cfi_startproc
	@ args = 0, pretend = 0, frame = 8
	@ frame_needed = 0, uses_anonymous_args = 0
	str	lr, [sp, #-4]!
.LCFI23:
	.cfi_def_cfa_offset 4
	sub	sp, sp, #12
.LCFI24:
	.cfi_def_cfa_offset 16
	str	r0, [sp, #4]
	.loc 7 84 0
	ldr	r3, [sp, #4]
	ldr	r2, .L67
	str	r2, [r3, #0]
	mov	r3, #0
	and	r3, r3, #255
	cmp	r3, #0
	beq	.L65
	.cfi_offset 14, -4
	ldr	r0, [sp, #4]
	bl	_ZdlPv
.L65:
	ldr	r3, [sp, #4]
	mov	r0, r3
	add	sp, sp, #12
	ldmfd	sp!, {pc}
.L68:
	.align	2
.L67:
	.word	_ZTV17b2ContactListener+8
	.cfi_endproc
.LFE733:
	.size	_ZN17b2ContactListenerD1Ev, .-_ZN17b2ContactListenerD1Ev
	.section	.text._ZN17b2ContactListenerD0Ev,"axG",%progbits,_ZN17b2ContactListenerD0Ev,comdat
	.align	2
	.weak	_ZN17b2ContactListenerD0Ev
	.hidden	_ZN17b2ContactListenerD0Ev
	.type	_ZN17b2ContactListenerD0Ev, %function
_ZN17b2ContactListenerD0Ev:
.LFB734:
	.loc 7 84 0
	.cfi_startproc
	@ args = 0, pretend = 0, frame = 8
	@ frame_needed = 0, uses_anonymous_args = 0
	str	lr, [sp, #-4]!
.LCFI25:
	.cfi_def_cfa_offset 4
	sub	sp, sp, #12
.LCFI26:
	.cfi_def_cfa_offset 16
	str	r0, [sp, #4]
	.loc 7 84 0
	ldr	r3, [sp, #4]
	ldr	r2, .L73
	str	r2, [r3, #0]
	mov	r3, #1
	and	r3, r3, #255
	cmp	r3, #0
	beq	.L71
	.cfi_offset 14, -4
	ldr	r0, [sp, #4]
	bl	_ZdlPv
.L71:
	ldr	r3, [sp, #4]
	mov	r0, r3
	add	sp, sp, #12
	ldmfd	sp!, {pc}
.L74:
	.align	2
.L73:
	.word	_ZTV17b2ContactListener+8
	.cfi_endproc
.LFE734:
	.size	_ZN17b2ContactListenerD0Ev, .-_ZN17b2ContactListenerD0Ev
	.section	.text._ZN17b2ContactListener12BeginContactEP9b2Contact,"axG",%progbits,_ZN17b2ContactListener12BeginContactEP9b2Contact,comdat
	.align	2
	.weak	_ZN17b2ContactListener12BeginContactEP9b2Contact
	.hidden	_ZN17b2ContactListener12BeginContactEP9b2Contact
	.type	_ZN17b2ContactListener12BeginContactEP9b2Contact, %function
_ZN17b2ContactListener12BeginContactEP9b2Contact:
.LFB735:
	.loc 7 87 0
	.cfi_startproc
	@ args = 0, pretend = 0, frame = 8
	@ frame_needed = 0, uses_anonymous_args = 0
	@ link register save eliminated.
	sub	sp, sp, #8
.LCFI27:
	.cfi_def_cfa_offset 8
	str	r0, [sp, #4]
	str	r1, [sp, #0]
	.loc 7 87 0
	add	sp, sp, #8
	bx	lr
	.cfi_endproc
.LFE735:
	.size	_ZN17b2ContactListener12BeginContactEP9b2Contact, .-_ZN17b2ContactListener12BeginContactEP9b2Contact
	.section	.text._ZN17b2ContactListener10EndContactEP9b2Contact,"axG",%progbits,_ZN17b2ContactListener10EndContactEP9b2Contact,comdat
	.align	2
	.weak	_ZN17b2ContactListener10EndContactEP9b2Contact
	.hidden	_ZN17b2ContactListener10EndContactEP9b2Contact
	.type	_ZN17b2ContactListener10EndContactEP9b2Contact, %function
_ZN17b2ContactListener10EndContactEP9b2Contact:
.LFB736:
	.loc 7 90 0
	.cfi_startproc
	@ args = 0, pretend = 0, frame = 8
	@ frame_needed = 0, uses_anonymous_args = 0
	@ link register save eliminated.
	sub	sp, sp, #8
.LCFI28:
	.cfi_def_cfa_offset 8
	str	r0, [sp, #4]
	str	r1, [sp, #0]
	.loc 7 90 0
	add	sp, sp, #8
	bx	lr
	.cfi_endproc
.LFE736:
	.size	_ZN17b2ContactListener10EndContactEP9b2Contact, .-_ZN17b2ContactListener10EndContactEP9b2Contact
	.section	.text._ZN17b2ContactListener8PreSolveEP9b2ContactPK10b2Manifold,"axG",%progbits,_ZN17b2ContactListener8PreSolveEP9b2ContactPK10b2Manifold,comdat
	.align	2
	.weak	_ZN17b2ContactListener8PreSolveEP9b2ContactPK10b2Manifold
	.hidden	_ZN17b2ContactListener8PreSolveEP9b2ContactPK10b2Manifold
	.type	_ZN17b2ContactListener8PreSolveEP9b2ContactPK10b2Manifold, %function
_ZN17b2ContactListener8PreSolveEP9b2ContactPK10b2Manifold:
.LFB737:
	.loc 7 102 0
	.cfi_startproc
	@ args = 0, pretend = 0, frame = 16
	@ frame_needed = 0, uses_anonymous_args = 0
	@ link register save eliminated.
	sub	sp, sp, #16
.LCFI29:
	.cfi_def_cfa_offset 16
	str	r0, [sp, #12]
	str	r1, [sp, #8]
	str	r2, [sp, #4]
	.loc 7 106 0
	add	sp, sp, #16
	bx	lr
	.cfi_endproc
.LFE737:
	.size	_ZN17b2ContactListener8PreSolveEP9b2ContactPK10b2Manifold, .-_ZN17b2ContactListener8PreSolveEP9b2ContactPK10b2Manifold
	.section	.text._ZN17b2ContactListener9PostSolveEP9b2ContactPK16b2ContactImpulse,"axG",%progbits,_ZN17b2ContactListener9PostSolveEP9b2ContactPK16b2ContactImpulse,comdat
	.align	2
	.weak	_ZN17b2ContactListener9PostSolveEP9b2ContactPK16b2ContactImpulse
	.hidden	_ZN17b2ContactListener9PostSolveEP9b2ContactPK16b2ContactImpulse
	.type	_ZN17b2ContactListener9PostSolveEP9b2ContactPK16b2ContactImpulse, %function
_ZN17b2ContactListener9PostSolveEP9b2ContactPK16b2ContactImpulse:
.LFB738:
	.loc 7 114 0
	.cfi_startproc
	@ args = 0, pretend = 0, frame = 16
	@ frame_needed = 0, uses_anonymous_args = 0
	@ link register save eliminated.
	sub	sp, sp, #16
.LCFI30:
	.cfi_def_cfa_offset 16
	str	r0, [sp, #12]
	str	r1, [sp, #8]
	str	r2, [sp, #4]
	.loc 7 118 0
	add	sp, sp, #16
	bx	lr
	.cfi_endproc
.LFE738:
	.size	_ZN17b2ContactListener9PostSolveEP9b2ContactPK16b2ContactImpulse, .-_ZN17b2ContactListener9PostSolveEP9b2ContactPK16b2ContactImpulse
	.section	.text._ZNK9b2Contact10IsTouchingEv,"axG",%progbits,_ZNK9b2Contact10IsTouchingEv,comdat
	.align	2
	.weak	_ZNK9b2Contact10IsTouchingEv
	.hidden	_ZNK9b2Contact10IsTouchingEv
	.type	_ZNK9b2Contact10IsTouchingEv, %function
_ZNK9b2Contact10IsTouchingEv:
.LFB767:
	.file 8 "v:/gigglingbits/box2d/Box2D/Dynamics/Contacts/b2Contact.h"
	.loc 8 260 0
	.cfi_startproc
	@ args = 0, pretend = 0, frame = 8
	@ frame_needed = 0, uses_anonymous_args = 0
	@ link register save eliminated.
	sub	sp, sp, #8
.LCFI31:
	.cfi_def_cfa_offset 8
	str	r0, [sp, #4]
	.loc 8 261 0
	ldr	r3, [sp, #4]
	ldr	r3, [r3, #4]
	and	r3, r3, #2
	cmp	r3, #0
	moveq	r3, #0
	movne	r3, #1
	and	r3, r3, #255
	.loc 8 262 0
	mov	r0, r3
	add	sp, sp, #8
	bx	lr
	.cfi_endproc
.LFE767:
	.size	_ZNK9b2Contact10IsTouchingEv, .-_ZNK9b2Contact10IsTouchingEv
	.section	.text._ZN9b2Contact7GetNextEv,"axG",%progbits,_ZN9b2Contact7GetNextEv,comdat
	.align	2
	.weak	_ZN9b2Contact7GetNextEv
	.hidden	_ZN9b2Contact7GetNextEv
	.type	_ZN9b2Contact7GetNextEv, %function
_ZN9b2Contact7GetNextEv:
.LFB768:
	.loc 8 265 0
	.cfi_startproc
	@ args = 0, pretend = 0, frame = 8
	@ frame_needed = 0, uses_anonymous_args = 0
	@ link register save eliminated.
	sub	sp, sp, #8
.LCFI32:
	.cfi_def_cfa_offset 8
	str	r0, [sp, #4]
	.loc 8 266 0
	ldr	r3, [sp, #4]
	ldr	r3, [r3, #12]
	.loc 8 267 0
	mov	r0, r3
	add	sp, sp, #8
	bx	lr
	.cfi_endproc
.LFE768:
	.size	_ZN9b2Contact7GetNextEv, .-_ZN9b2Contact7GetNextEv
	.section	.text._ZN9b2Contact11GetFixtureAEv,"axG",%progbits,_ZN9b2Contact11GetFixtureAEv,comdat
	.align	2
	.weak	_ZN9b2Contact11GetFixtureAEv
	.hidden	_ZN9b2Contact11GetFixtureAEv
	.type	_ZN9b2Contact11GetFixtureAEv, %function
_ZN9b2Contact11GetFixtureAEv:
.LFB770:
	.loc 8 275 0
	.cfi_startproc
	@ args = 0, pretend = 0, frame = 8
	@ frame_needed = 0, uses_anonymous_args = 0
	@ link register save eliminated.
	sub	sp, sp, #8
.LCFI33:
	.cfi_def_cfa_offset 8
	str	r0, [sp, #4]
	.loc 8 276 0
	ldr	r3, [sp, #4]
	ldr	r3, [r3, #48]
	.loc 8 277 0
	mov	r0, r3
	add	sp, sp, #8
	bx	lr
	.cfi_endproc
.LFE770:
	.size	_ZN9b2Contact11GetFixtureAEv, .-_ZN9b2Contact11GetFixtureAEv
	.section	.text._ZN9b2Contact11GetFixtureBEv,"axG",%progbits,_ZN9b2Contact11GetFixtureBEv,comdat
	.align	2
	.weak	_ZN9b2Contact11GetFixtureBEv
	.hidden	_ZN9b2Contact11GetFixtureBEv
	.type	_ZN9b2Contact11GetFixtureBEv, %function
_ZN9b2Contact11GetFixtureBEv:
.LFB772:
	.loc 8 285 0
	.cfi_startproc
	@ args = 0, pretend = 0, frame = 8
	@ frame_needed = 0, uses_anonymous_args = 0
	@ link register save eliminated.
	sub	sp, sp, #8
.LCFI34:
	.cfi_def_cfa_offset 8
	str	r0, [sp, #4]
	.loc 8 286 0
	ldr	r3, [sp, #4]
	ldr	r3, [r3, #52]
	.loc 8 287 0
	mov	r0, r3
	add	sp, sp, #8
	bx	lr
	.cfi_endproc
.LFE772:
	.size	_ZN9b2Contact11GetFixtureBEv, .-_ZN9b2Contact11GetFixtureBEv
	.section	.text._ZNK9b2Contact14GetChildIndexAEv,"axG",%progbits,_ZNK9b2Contact14GetChildIndexAEv,comdat
	.align	2
	.weak	_ZNK9b2Contact14GetChildIndexAEv
	.hidden	_ZNK9b2Contact14GetChildIndexAEv
	.type	_ZNK9b2Contact14GetChildIndexAEv, %function
_ZNK9b2Contact14GetChildIndexAEv:
.LFB773:
	.loc 8 290 0
	.cfi_startproc
	@ args = 0, pretend = 0, frame = 8
	@ frame_needed = 0, uses_anonymous_args = 0
	@ link register save eliminated.
	sub	sp, sp, #8
.LCFI35:
	.cfi_def_cfa_offset 8
	str	r0, [sp, #4]
	.loc 8 291 0
	ldr	r3, [sp, #4]
	ldr	r3, [r3, #56]
	.loc 8 292 0
	mov	r0, r3
	add	sp, sp, #8
	bx	lr
	.cfi_endproc
.LFE773:
	.size	_ZNK9b2Contact14GetChildIndexAEv, .-_ZNK9b2Contact14GetChildIndexAEv
	.section	.text._ZNK9b2Contact14GetChildIndexBEv,"axG",%progbits,_ZNK9b2Contact14GetChildIndexBEv,comdat
	.align	2
	.weak	_ZNK9b2Contact14GetChildIndexBEv
	.hidden	_ZNK9b2Contact14GetChildIndexBEv
	.type	_ZNK9b2Contact14GetChildIndexBEv, %function
_ZNK9b2Contact14GetChildIndexBEv:
.LFB775:
	.loc 8 300 0
	.cfi_startproc
	@ args = 0, pretend = 0, frame = 8
	@ frame_needed = 0, uses_anonymous_args = 0
	@ link register save eliminated.
	sub	sp, sp, #8
.LCFI36:
	.cfi_def_cfa_offset 8
	str	r0, [sp, #4]
	.loc 8 301 0
	ldr	r3, [sp, #4]
	ldr	r3, [r3, #60]
	.loc 8 302 0
	mov	r0, r3
	add	sp, sp, #8
	bx	lr
	.cfi_endproc
.LFE775:
	.size	_ZNK9b2Contact14GetChildIndexBEv, .-_ZNK9b2Contact14GetChildIndexBEv
	.hidden	b2_defaultFilter
	.global	b2_defaultFilter
	.bss
	.align	2
	.type	b2_defaultFilter, %object
	.size	b2_defaultFilter, 4
b2_defaultFilter:
	.space	4
	.hidden	b2_defaultListener
	.global	b2_defaultListener
	.align	2
	.type	b2_defaultListener, %object
	.size	b2_defaultListener, 4
b2_defaultListener:
	.space	4
	.section	.text._ZN16b2ContactManagerC2Ev,"ax",%progbits
	.align	2
	.global	_ZN16b2ContactManagerC2Ev
	.hidden	_ZN16b2ContactManagerC2Ev
	.type	_ZN16b2ContactManagerC2Ev, %function
_ZN16b2ContactManagerC2Ev:
.LFB786:
	.file 9 "v:/gigglingbits/box2d/Box2D/Dynamics/b2ContactManager.cpp"
	.loc 9 28 0
	.cfi_startproc
	@ args = 0, pretend = 0, frame = 8
	@ frame_needed = 0, uses_anonymous_args = 0
	str	lr, [sp, #-4]!
.LCFI37:
	.cfi_def_cfa_offset 4
	sub	sp, sp, #12
.LCFI38:
	.cfi_def_cfa_offset 16
	str	r0, [sp, #4]
	.loc 9 28 0
	ldr	r3, [sp, #4]
	mov	r0, r3
	.cfi_offset 14, -4
	bl	_ZN12b2BroadPhaseC1Ev
	.loc 9 30 0
	ldr	r3, [sp, #4]
	mov	r2, #0
	str	r2, [r3, #60]
	.loc 9 31 0
	ldr	r3, [sp, #4]
	mov	r2, #0
	str	r2, [r3, #64]
	.loc 9 32 0
	ldr	r3, [sp, #4]
	ldr	r2, .L98
	str	r2, [r3, #68]
	.loc 9 33 0
	ldr	r3, [sp, #4]
	ldr	r2, .L98+4
	str	r2, [r3, #72]
	.loc 9 34 0
	ldr	r3, [sp, #4]
	mov	r2, #0
	str	r2, [r3, #76]
	.loc 9 35 0
	ldr	r3, [sp, #4]
	mov	r0, r3
	add	sp, sp, #12
	ldmfd	sp!, {pc}
.L99:
	.align	2
.L98:
	.word	b2_defaultFilter
	.word	b2_defaultListener
	.cfi_endproc
.LFE786:
	.size	_ZN16b2ContactManagerC2Ev, .-_ZN16b2ContactManagerC2Ev
	.section	.text._ZN16b2ContactManagerC1Ev,"ax",%progbits
	.align	2
	.global	_ZN16b2ContactManagerC1Ev
	.hidden	_ZN16b2ContactManagerC1Ev
	.type	_ZN16b2ContactManagerC1Ev, %function
_ZN16b2ContactManagerC1Ev:
.LFB787:
	.loc 9 28 0
	.cfi_startproc
	@ args = 0, pretend = 0, frame = 8
	@ frame_needed = 0, uses_anonymous_args = 0
	str	lr, [sp, #-4]!
.LCFI39:
	.cfi_def_cfa_offset 4
	sub	sp, sp, #12
.LCFI40:
	.cfi_def_cfa_offset 16
	str	r0, [sp, #4]
	.loc 9 28 0
	ldr	r3, [sp, #4]
	mov	r0, r3
	.cfi_offset 14, -4
	bl	_ZN12b2BroadPhaseC1Ev
	.loc 9 30 0
	ldr	r3, [sp, #4]
	mov	r2, #0
	str	r2, [r3, #60]
	.loc 9 31 0
	ldr	r3, [sp, #4]
	mov	r2, #0
	str	r2, [r3, #64]
	.loc 9 32 0
	ldr	r3, [sp, #4]
	ldr	r2, .L103
	str	r2, [r3, #68]
	.loc 9 33 0
	ldr	r3, [sp, #4]
	ldr	r2, .L103+4
	str	r2, [r3, #72]
	.loc 9 34 0
	ldr	r3, [sp, #4]
	mov	r2, #0
	str	r2, [r3, #76]
	.loc 9 35 0
	ldr	r3, [sp, #4]
	mov	r0, r3
	add	sp, sp, #12
	ldmfd	sp!, {pc}
.L104:
	.align	2
.L103:
	.word	b2_defaultFilter
	.word	b2_defaultListener
	.cfi_endproc
.LFE787:
	.size	_ZN16b2ContactManagerC1Ev, .-_ZN16b2ContactManagerC1Ev
	.section	.text._ZN16b2ContactManager7DestroyEP9b2Contact,"ax",%progbits
	.align	2
	.global	_ZN16b2ContactManager7DestroyEP9b2Contact
	.hidden	_ZN16b2ContactManager7DestroyEP9b2Contact
	.type	_ZN16b2ContactManager7DestroyEP9b2Contact, %function
_ZN16b2ContactManager7DestroyEP9b2Contact:
.LFB788:
	.loc 9 38 0
	.cfi_startproc
	@ args = 0, pretend = 0, frame = 24
	@ frame_needed = 0, uses_anonymous_args = 0
	str	lr, [sp, #-4]!
.LCFI41:
	.cfi_def_cfa_offset 4
	sub	sp, sp, #28
.LCFI42:
	.cfi_def_cfa_offset 32
	str	r0, [sp, #4]
	str	r1, [sp, #0]
.LBB4:
	.loc 9 39 0
	ldr	r0, [sp, #0]
	.cfi_offset 14, -4
	bl	_ZN9b2Contact11GetFixtureAEv
	mov	r3, r0
	str	r3, [sp, #8]
	.loc 9 40 0
	ldr	r0, [sp, #0]
	bl	_ZN9b2Contact11GetFixtureBEv
	mov	r3, r0
	str	r3, [sp, #12]
	.loc 9 41 0
	ldr	r0, [sp, #8]
	bl	_ZN9b2Fixture7GetBodyEv
	mov	r3, r0
	str	r3, [sp, #16]
	.loc 9 42 0
	ldr	r0, [sp, #12]
	bl	_ZN9b2Fixture7GetBodyEv
	mov	r3, r0
	str	r3, [sp, #20]
	.loc 9 44 0
	ldr	r3, [sp, #4]
	ldr	r3, [r3, #72]
	cmp	r3, #0
	beq	.L106
	ldr	r0, [sp, #0]
	bl	_ZNK9b2Contact10IsTouchingEv
	mov	r3, r0
	cmp	r3, #0
	beq	.L106
	mov	r3, #1
	b	.L107
.L106:
	mov	r3, #0
.L107:
	cmp	r3, #0
	beq	.L108
	.loc 9 46 0
	ldr	r3, [sp, #4]
	ldr	r3, [r3, #72]
	ldr	r3, [r3, #0]
	add	r3, r3, #12
	ldr	r3, [r3, #0]
	ldr	r2, [sp, #4]
	ldr	r2, [r2, #72]
	mov	r0, r2
	ldr	r1, [sp, #0]
	blx	r3
.L108:
	.loc 9 50 0
	ldr	r3, [sp, #0]
	ldr	r3, [r3, #8]
	cmp	r3, #0
	beq	.L109
	.loc 9 52 0
	ldr	r3, [sp, #0]
	ldr	r3, [r3, #8]
	ldr	r2, [sp, #0]
	ldr	r2, [r2, #12]
	str	r2, [r3, #12]
.L109:
	.loc 9 55 0
	ldr	r3, [sp, #0]
	ldr	r3, [r3, #12]
	cmp	r3, #0
	beq	.L110
	.loc 9 57 0
	ldr	r3, [sp, #0]
	ldr	r3, [r3, #12]
	ldr	r2, [sp, #0]
	ldr	r2, [r2, #8]
	str	r2, [r3, #8]
.L110:
	.loc 9 60 0
	ldr	r3, [sp, #4]
	ldr	r2, [r3, #60]
	ldr	r3, [sp, #0]
	cmp	r2, r3
	bne	.L111
	.loc 9 62 0
	ldr	r3, [sp, #0]
	ldr	r2, [r3, #12]
	ldr	r3, [sp, #4]
	str	r2, [r3, #60]
.L111:
	.loc 9 66 0
	ldr	r3, [sp, #0]
	ldr	r3, [r3, #24]
	cmp	r3, #0
	beq	.L112
	.loc 9 68 0
	ldr	r3, [sp, #0]
	ldr	r3, [r3, #24]
	ldr	r2, [sp, #0]
	ldr	r2, [r2, #28]
	str	r2, [r3, #12]
.L112:
	.loc 9 71 0
	ldr	r3, [sp, #0]
	ldr	r3, [r3, #28]
	cmp	r3, #0
	beq	.L113
	.loc 9 73 0
	ldr	r3, [sp, #0]
	ldr	r3, [r3, #28]
	ldr	r2, [sp, #0]
	ldr	r2, [r2, #24]
	str	r2, [r3, #8]
.L113:
	.loc 9 76 0
	ldr	r3, [sp, #0]
	add	r2, r3, #16
	ldr	r3, [sp, #16]
	ldr	r3, [r3, #112]
	cmp	r2, r3
	bne	.L114
	.loc 9 78 0
	ldr	r3, [sp, #0]
	ldr	r2, [r3, #28]
	ldr	r3, [sp, #16]
	str	r2, [r3, #112]
.L114:
	.loc 9 82 0
	ldr	r3, [sp, #0]
	ldr	r3, [r3, #40]
	cmp	r3, #0
	beq	.L115
	.loc 9 84 0
	ldr	r3, [sp, #0]
	ldr	r3, [r3, #40]
	ldr	r2, [sp, #0]
	ldr	r2, [r2, #44]
	str	r2, [r3, #12]
.L115:
	.loc 9 87 0
	ldr	r3, [sp, #0]
	ldr	r3, [r3, #44]
	cmp	r3, #0
	beq	.L116
	.loc 9 89 0
	ldr	r3, [sp, #0]
	ldr	r3, [r3, #44]
	ldr	r2, [sp, #0]
	ldr	r2, [r2, #40]
	str	r2, [r3, #8]
.L116:
	.loc 9 92 0
	ldr	r3, [sp, #0]
	add	r2, r3, #32
	ldr	r3, [sp, #20]
	ldr	r3, [r3, #112]
	cmp	r2, r3
	bne	.L117
	.loc 9 94 0
	ldr	r3, [sp, #0]
	ldr	r2, [r3, #44]
	ldr	r3, [sp, #20]
	str	r2, [r3, #112]
.L117:
	.loc 9 98 0
	ldr	r3, [sp, #4]
	ldr	r3, [r3, #76]
	ldr	r0, [sp, #0]
	mov	r1, r3
	bl	_ZN9b2Contact7DestroyEPS_P16b2BlockAllocator
	.loc 9 99 0
	ldr	r3, [sp, #4]
	ldr	r3, [r3, #64]
	sub	r2, r3, #1
	ldr	r3, [sp, #4]
	str	r2, [r3, #64]
.LBE4:
	.loc 9 100 0
	add	sp, sp, #28
	ldmfd	sp!, {pc}
	.cfi_endproc
.LFE788:
	.size	_ZN16b2ContactManager7DestroyEP9b2Contact, .-_ZN16b2ContactManager7DestroyEP9b2Contact
	.section	.text._ZN16b2ContactManager7CollideEv,"ax",%progbits
	.align	2
	.global	_ZN16b2ContactManager7CollideEv
	.hidden	_ZN16b2ContactManager7CollideEv
	.type	_ZN16b2ContactManager7CollideEv, %function
_ZN16b2ContactManager7CollideEv:
.LFB789:
	.loc 9 106 0
	.cfi_startproc
	@ args = 0, pretend = 0, frame = 64
	@ frame_needed = 0, uses_anonymous_args = 0
	str	lr, [sp, #-4]!
.LCFI43:
	.cfi_def_cfa_offset 4
	sub	sp, sp, #68
.LCFI44:
	.cfi_def_cfa_offset 72
	str	r0, [sp, #4]
.LBB5:
	.loc 9 108 0
	ldr	r3, [sp, #4]
	ldr	r3, [r3, #60]
	str	r3, [sp, #8]
	.loc 9 109 0
	b	.L120
	.cfi_offset 14, -4
.L132:
.LBB6:
	.loc 9 111 0
	ldr	r0, [sp, #8]
	bl	_ZN9b2Contact11GetFixtureAEv
	mov	r3, r0
	str	r3, [sp, #12]
	.loc 9 112 0
	ldr	r0, [sp, #8]
	bl	_ZN9b2Contact11GetFixtureBEv
	mov	r3, r0
	str	r3, [sp, #16]
	.loc 9 113 0
	ldr	r0, [sp, #8]
	bl	_ZNK9b2Contact14GetChildIndexAEv
	mov	r3, r0
	str	r3, [sp, #20]
	.loc 9 114 0
	ldr	r0, [sp, #8]
	bl	_ZNK9b2Contact14GetChildIndexBEv
	mov	r3, r0
	str	r3, [sp, #24]
	.loc 9 115 0
	ldr	r0, [sp, #12]
	bl	_ZN9b2Fixture7GetBodyEv
	mov	r3, r0
	str	r3, [sp, #28]
	.loc 9 116 0
	ldr	r0, [sp, #16]
	bl	_ZN9b2Fixture7GetBodyEv
	mov	r3, r0
	str	r3, [sp, #32]
	.loc 9 119 0
	ldr	r3, [sp, #8]
	ldr	r3, [r3, #4]
	and	r3, r3, #8
	cmp	r3, #0
	beq	.L121
	.loc 9 122 0
	ldr	r0, [sp, #32]
	ldr	r1, [sp, #28]
	bl	_ZNK6b2Body13ShouldCollideEPKS_
	mov	r3, r0
	eor	r3, r3, #1
	and	r3, r3, #255
	cmp	r3, #0
	beq	.L122
.LBB7:
	.loc 9 124 0
	ldr	r3, [sp, #8]
	str	r3, [sp, #52]
	.loc 9 125 0
	ldr	r0, [sp, #52]
	bl	_ZN9b2Contact7GetNextEv
	mov	r3, r0
	str	r3, [sp, #8]
	.loc 9 126 0
	ldr	r0, [sp, #4]
	ldr	r1, [sp, #52]
	bl	_ZN16b2ContactManager7DestroyEP9b2Contact
	.loc 9 127 0
	b	.L120
.L122:
.LBE7:
	.loc 9 131 0
	ldr	r3, [sp, #4]
	ldr	r3, [r3, #68]
	cmp	r3, #0
	beq	.L123
	ldr	r3, [sp, #4]
	ldr	r3, [r3, #68]
	ldr	r3, [r3, #0]
	add	r3, r3, #8
	ldr	r3, [r3, #0]
	ldr	r2, [sp, #4]
	ldr	r2, [r2, #68]
	mov	r0, r2
	ldr	r1, [sp, #12]
	ldr	r2, [sp, #16]
	blx	r3
	mov	r3, r0
	eor	r3, r3, #1
	and	r3, r3, #255
	cmp	r3, #0
	beq	.L123
	mov	r3, #1
	b	.L124
.L123:
	mov	r3, #0
.L124:
	cmp	r3, #0
	beq	.L125
.LBB8:
	.loc 9 133 0
	ldr	r3, [sp, #8]
	str	r3, [sp, #56]
	.loc 9 134 0
	ldr	r0, [sp, #56]
	bl	_ZN9b2Contact7GetNextEv
	mov	r3, r0
	str	r3, [sp, #8]
	.loc 9 135 0
	ldr	r0, [sp, #4]
	ldr	r1, [sp, #56]
	bl	_ZN16b2ContactManager7DestroyEP9b2Contact
	.loc 9 136 0
	b	.L120
.L125:
.LBE8:
	.loc 9 140 0
	ldr	r3, [sp, #8]
	ldr	r3, [r3, #4]
	bic	r2, r3, #8
	ldr	r3, [sp, #8]
	str	r2, [r3, #4]
.L121:
	.loc 9 143 0
	ldr	r0, [sp, #28]
	bl	_ZNK6b2Body7IsAwakeEv
	mov	r3, r0
	cmp	r3, #0
	beq	.L126
	ldr	r3, [sp, #28]
	ldr	r3, [r3, #0]
	cmp	r3, #0
	beq	.L126
	mov	r3, #1
	b	.L127
.L126:
	mov	r3, #0
.L127:
	strb	r3, [sp, #38]
	.loc 9 144 0
	ldr	r0, [sp, #32]
	bl	_ZNK6b2Body7IsAwakeEv
	mov	r3, r0
	cmp	r3, #0
	beq	.L128
	ldr	r3, [sp, #32]
	ldr	r3, [r3, #0]
	cmp	r3, #0
	beq	.L128
	mov	r3, #1
	b	.L129
.L128:
	mov	r3, #0
.L129:
	strb	r3, [sp, #39]
	.loc 9 147 0
	ldrb	r3, [sp, #38]
	eor	r3, r3, #1
	and	r3, r3, #255
	cmp	r3, #0
	beq	.L130
	ldrb	r3, [sp, #39]
	eor	r3, r3, #1
	and	r3, r3, #255
	cmp	r3, #0
	beq	.L130
	.loc 9 149 0
	ldr	r0, [sp, #8]
	bl	_ZN9b2Contact7GetNextEv
	mov	r3, r0
	str	r3, [sp, #8]
	.loc 9 150 0
	b	.L120
.L130:
	.loc 9 153 0
	ldr	r3, [sp, #12]
	ldr	r1, [r3, #24]
	ldr	r2, [sp, #20]
	mov	r3, r2
	mov	r3, r3, asl #3
	rsb	r3, r2, r3
	mov	r3, r3, asl #2
	add	r3, r1, r3
	ldr	r3, [r3, #24]
	str	r3, [sp, #40]
	.loc 9 154 0
	ldr	r3, [sp, #16]
	ldr	r1, [r3, #24]
	ldr	r2, [sp, #24]
	mov	r3, r2
	mov	r3, r3, asl #3
	rsb	r3, r2, r3
	mov	r3, r3, asl #2
	add	r3, r1, r3
	ldr	r3, [r3, #24]
	str	r3, [sp, #44]
	.loc 9 155 0
	ldr	r3, [sp, #4]
	mov	r0, r3
	ldr	r1, [sp, #40]
	ldr	r2, [sp, #44]
	bl	_ZNK12b2BroadPhase11TestOverlapEii
	mov	r3, r0
	strb	r3, [sp, #51]
	.loc 9 158 0
	ldrb	r3, [sp, #51]
	eor	r3, r3, #1
	and	r3, r3, #255
	cmp	r3, #0
	beq	.L131
.LBB9:
	.loc 9 160 0
	ldr	r3, [sp, #8]
	str	r3, [sp, #60]
	.loc 9 161 0
	ldr	r0, [sp, #60]
	bl	_ZN9b2Contact7GetNextEv
	mov	r3, r0
	str	r3, [sp, #8]
	.loc 9 162 0
	ldr	r0, [sp, #4]
	ldr	r1, [sp, #60]
	bl	_ZN16b2ContactManager7DestroyEP9b2Contact
	.loc 9 163 0
	b	.L120
.L131:
.LBE9:
	.loc 9 167 0
	ldr	r3, [sp, #4]
	ldr	r3, [r3, #72]
	ldr	r0, [sp, #8]
	mov	r1, r3
	bl	_ZN9b2Contact6UpdateEP17b2ContactListener
	.loc 9 168 0
	ldr	r0, [sp, #8]
	bl	_ZN9b2Contact7GetNextEv
	mov	r3, r0
	str	r3, [sp, #8]
.L120:
.LBE6:
	.loc 9 109 0
	ldr	r3, [sp, #8]
	cmp	r3, #0
	moveq	r3, #0
	movne	r3, #1
	and	r3, r3, #255
	cmp	r3, #0
	bne	.L132
.LBE5:
	.loc 9 170 0
	add	sp, sp, #68
	ldmfd	sp!, {pc}
	.cfi_endproc
.LFE789:
	.size	_ZN16b2ContactManager7CollideEv, .-_ZN16b2ContactManager7CollideEv
	.section	.text._ZN16b2ContactManager15FindNewContactsEv,"ax",%progbits
	.align	2
	.global	_ZN16b2ContactManager15FindNewContactsEv
	.hidden	_ZN16b2ContactManager15FindNewContactsEv
	.type	_ZN16b2ContactManager15FindNewContactsEv, %function
_ZN16b2ContactManager15FindNewContactsEv:
.LFB790:
	.loc 9 173 0
	.cfi_startproc
	@ args = 0, pretend = 0, frame = 8
	@ frame_needed = 0, uses_anonymous_args = 0
	str	lr, [sp, #-4]!
.LCFI45:
	.cfi_def_cfa_offset 4
	sub	sp, sp, #12
.LCFI46:
	.cfi_def_cfa_offset 16
	str	r0, [sp, #4]
	.loc 9 174 0
	ldr	r3, [sp, #4]
	mov	r0, r3
	ldr	r1, [sp, #4]
	.cfi_offset 14, -4
	bl	_ZN12b2BroadPhase11UpdatePairsI16b2ContactManagerEEvPT_
	.loc 9 175 0
	add	sp, sp, #12
	ldmfd	sp!, {pc}
	.cfi_endproc
.LFE790:
	.size	_ZN16b2ContactManager15FindNewContactsEv, .-_ZN16b2ContactManager15FindNewContactsEv
	.section	.text._ZN16b2ContactManager7AddPairEPvS0_,"ax",%progbits
	.align	2
	.global	_ZN16b2ContactManager7AddPairEPvS0_
	.hidden	_ZN16b2ContactManager7AddPairEPvS0_
	.type	_ZN16b2ContactManager7AddPairEPvS0_, %function
_ZN16b2ContactManager7AddPairEPvS0_:
.LFB791:
	.loc 9 178 0
	.cfi_startproc
	@ args = 0, pretend = 0, frame = 72
	@ frame_needed = 0, uses_anonymous_args = 0
	str	lr, [sp, #-4]!
.LCFI47:
	.cfi_def_cfa_offset 4
	sub	sp, sp, #84
.LCFI48:
	.cfi_def_cfa_offset 88
	str	r0, [sp, #20]
	str	r1, [sp, #16]
	str	r2, [sp, #12]
.LBB10:
	.loc 9 179 0
	ldr	r3, [sp, #16]
	str	r3, [sp, #24]
	.loc 9 180 0
	ldr	r3, [sp, #12]
	str	r3, [sp, #28]
	.loc 9 182 0
	ldr	r3, [sp, #24]
	ldr	r3, [r3, #16]
	str	r3, [sp, #32]
	.loc 9 183 0
	ldr	r3, [sp, #28]
	ldr	r3, [r3, #16]
	str	r3, [sp, #36]
	.loc 9 185 0
	ldr	r3, [sp, #24]
	ldr	r3, [r3, #20]
	str	r3, [sp, #40]
	.loc 9 186 0
	ldr	r3, [sp, #28]
	ldr	r3, [r3, #20]
	str	r3, [sp, #44]
	.loc 9 188 0
	ldr	r0, [sp, #32]
	.cfi_offset 14, -4
	bl	_ZN9b2Fixture7GetBodyEv
	mov	r3, r0
	str	r3, [sp, #48]
	.loc 9 189 0
	ldr	r0, [sp, #36]
	bl	_ZN9b2Fixture7GetBodyEv
	mov	r3, r0
	str	r3, [sp, #52]
	.loc 9 192 0
	ldr	r2, [sp, #48]
	ldr	r3, [sp, #52]
	cmp	r2, r3
	beq	.L155
.L137:
	.loc 9 200 0
	ldr	r0, [sp, #52]
	bl	_ZN6b2Body14GetContactListEv
	mov	r3, r0
	str	r3, [sp, #56]
	.loc 9 201 0
	b	.L139
.L142:
	.loc 9 203 0
	ldr	r3, [sp, #56]
	ldr	r2, [r3, #0]
	ldr	r3, [sp, #48]
	cmp	r2, r3
	bne	.L140
.LBB11:
	.loc 9 205 0
	ldr	r3, [sp, #56]
	ldr	r3, [r3, #4]
	mov	r0, r3
	bl	_ZN9b2Contact11GetFixtureAEv
	mov	r3, r0
	str	r3, [sp, #64]
	.loc 9 206 0
	ldr	r3, [sp, #56]
	ldr	r3, [r3, #4]
	mov	r0, r3
	bl	_ZN9b2Contact11GetFixtureBEv
	mov	r3, r0
	str	r3, [sp, #68]
	.loc 9 207 0
	ldr	r3, [sp, #56]
	ldr	r3, [r3, #4]
	mov	r0, r3
	bl	_ZNK9b2Contact14GetChildIndexAEv
	mov	r3, r0
	str	r3, [sp, #72]
	.loc 9 208 0
	ldr	r3, [sp, #56]
	ldr	r3, [r3, #4]
	mov	r0, r3
	bl	_ZNK9b2Contact14GetChildIndexBEv
	mov	r3, r0
	str	r3, [sp, #76]
	.loc 9 210 0
	ldr	r2, [sp, #64]
	ldr	r3, [sp, #32]
	cmp	r2, r3
	bne	.L141
	ldr	r2, [sp, #68]
	ldr	r3, [sp, #36]
	cmp	r2, r3
	bne	.L141
	ldr	r2, [sp, #72]
	ldr	r3, [sp, #40]
	cmp	r2, r3
	bne	.L141
	ldr	r2, [sp, #76]
	ldr	r3, [sp, #44]
	cmp	r2, r3
	beq	.L156
.L141:
	.loc 9 216 0
	ldr	r2, [sp, #64]
	ldr	r3, [sp, #36]
	cmp	r2, r3
	bne	.L140
	ldr	r2, [sp, #68]
	ldr	r3, [sp, #32]
	cmp	r2, r3
	bne	.L140
	ldr	r2, [sp, #72]
	ldr	r3, [sp, #44]
	cmp	r2, r3
	bne	.L140
	ldr	r2, [sp, #76]
	ldr	r3, [sp, #40]
	cmp	r2, r3
	beq	.L157
.L140:
.LBE11:
	.loc 9 223 0
	ldr	r3, [sp, #56]
	ldr	r3, [r3, #12]
	str	r3, [sp, #56]
.L139:
	.loc 9 201 0
	ldr	r3, [sp, #56]
	cmp	r3, #0
	moveq	r3, #0
	movne	r3, #1
	and	r3, r3, #255
	cmp	r3, #0
	bne	.L142
	.loc 9 227 0
	ldr	r0, [sp, #52]
	ldr	r1, [sp, #48]
	bl	_ZNK6b2Body13ShouldCollideEPKS_
	mov	r3, r0
	eor	r3, r3, #1
	and	r3, r3, #255
	cmp	r3, #0
	bne	.L158
.L143:
	.loc 9 233 0
	ldr	r3, [sp, #20]
	ldr	r3, [r3, #68]
	cmp	r3, #0
	beq	.L144
	ldr	r3, [sp, #20]
	ldr	r3, [r3, #68]
	ldr	r3, [r3, #0]
	add	r3, r3, #8
	ldr	r3, [r3, #0]
	ldr	r2, [sp, #20]
	ldr	r2, [r2, #68]
	mov	r0, r2
	ldr	r1, [sp, #32]
	ldr	r2, [sp, #36]
	blx	r3
	mov	r3, r0
	eor	r3, r3, #1
	and	r3, r3, #255
	cmp	r3, #0
	beq	.L144
	mov	r3, #1
	b	.L145
.L144:
	mov	r3, #0
.L145:
	cmp	r3, #0
	bne	.L159
.L146:
	.loc 9 239 0
	ldr	r3, [sp, #20]
	ldr	r3, [r3, #76]
	str	r3, [sp, #0]
	ldr	r0, [sp, #32]
	ldr	r1, [sp, #40]
	ldr	r2, [sp, #36]
	ldr	r3, [sp, #44]
	bl	_ZN9b2Contact6CreateEP9b2FixtureiS1_iP16b2BlockAllocator
	mov	r3, r0
	str	r3, [sp, #60]
	.loc 9 240 0
	ldr	r3, [sp, #60]
	cmp	r3, #0
	beq	.L160
.L147:
	.loc 9 246 0
	ldr	r0, [sp, #60]
	bl	_ZN9b2Contact11GetFixtureAEv
	mov	r3, r0
	str	r3, [sp, #32]
	.loc 9 247 0
	ldr	r0, [sp, #60]
	bl	_ZN9b2Contact11GetFixtureBEv
	mov	r3, r0
	str	r3, [sp, #36]
	.loc 9 248 0
	ldr	r0, [sp, #60]
	bl	_ZNK9b2Contact14GetChildIndexAEv
	mov	r3, r0
	str	r3, [sp, #40]
	.loc 9 249 0
	ldr	r0, [sp, #60]
	bl	_ZNK9b2Contact14GetChildIndexBEv
	mov	r3, r0
	str	r3, [sp, #44]
	.loc 9 250 0
	ldr	r0, [sp, #32]
	bl	_ZN9b2Fixture7GetBodyEv
	mov	r3, r0
	str	r3, [sp, #48]
	.loc 9 251 0
	ldr	r0, [sp, #36]
	bl	_ZN9b2Fixture7GetBodyEv
	mov	r3, r0
	str	r3, [sp, #52]
	.loc 9 254 0
	ldr	r3, [sp, #60]
	mov	r2, #0
	str	r2, [r3, #8]
	.loc 9 255 0
	ldr	r3, [sp, #20]
	ldr	r2, [r3, #60]
	ldr	r3, [sp, #60]
	str	r2, [r3, #12]
	.loc 9 256 0
	ldr	r3, [sp, #20]
	ldr	r3, [r3, #60]
	cmp	r3, #0
	beq	.L148
	.loc 9 258 0
	ldr	r3, [sp, #20]
	ldr	r3, [r3, #60]
	ldr	r2, [sp, #60]
	str	r2, [r3, #8]
.L148:
	.loc 9 260 0
	ldr	r3, [sp, #20]
	ldr	r2, [sp, #60]
	str	r2, [r3, #60]
	.loc 9 265 0
	ldr	r3, [sp, #60]
	ldr	r2, [sp, #60]
	str	r2, [r3, #20]
	.loc 9 266 0
	ldr	r3, [sp, #60]
	ldr	r2, [sp, #52]
	str	r2, [r3, #16]
	.loc 9 268 0
	ldr	r3, [sp, #60]
	mov	r2, #0
	str	r2, [r3, #24]
	.loc 9 269 0
	ldr	r3, [sp, #48]
	ldr	r2, [r3, #112]
	ldr	r3, [sp, #60]
	str	r2, [r3, #28]
	.loc 9 270 0
	ldr	r3, [sp, #48]
	ldr	r3, [r3, #112]
	cmp	r3, #0
	beq	.L149
	.loc 9 272 0
	ldr	r3, [sp, #48]
	ldr	r3, [r3, #112]
	ldr	r2, [sp, #60]
	add	r2, r2, #16
	str	r2, [r3, #8]
.L149:
	.loc 9 274 0
	ldr	r3, [sp, #60]
	add	r2, r3, #16
	ldr	r3, [sp, #48]
	str	r2, [r3, #112]
	.loc 9 277 0
	ldr	r3, [sp, #60]
	ldr	r2, [sp, #60]
	str	r2, [r3, #36]
	.loc 9 278 0
	ldr	r3, [sp, #60]
	ldr	r2, [sp, #48]
	str	r2, [r3, #32]
	.loc 9 280 0
	ldr	r3, [sp, #60]
	mov	r2, #0
	str	r2, [r3, #40]
	.loc 9 281 0
	ldr	r3, [sp, #52]
	ldr	r2, [r3, #112]
	ldr	r3, [sp, #60]
	str	r2, [r3, #44]
	.loc 9 282 0
	ldr	r3, [sp, #52]
	ldr	r3, [r3, #112]
	cmp	r3, #0
	beq	.L150
	.loc 9 284 0
	ldr	r3, [sp, #52]
	ldr	r3, [r3, #112]
	ldr	r2, [sp, #60]
	add	r2, r2, #32
	str	r2, [r3, #8]
.L150:
	.loc 9 286 0
	ldr	r3, [sp, #60]
	add	r2, r3, #32
	ldr	r3, [sp, #52]
	str	r2, [r3, #112]
	.loc 9 289 0
	ldr	r0, [sp, #32]
	bl	_ZNK9b2Fixture8IsSensorEv
	mov	r3, r0
	eor	r3, r3, #1
	and	r3, r3, #255
	cmp	r3, #0
	beq	.L151
	ldr	r0, [sp, #36]
	bl	_ZNK9b2Fixture8IsSensorEv
	mov	r3, r0
	eor	r3, r3, #1
	and	r3, r3, #255
	cmp	r3, #0
	beq	.L151
	mov	r3, #1
	b	.L152
.L151:
	mov	r3, #0
.L152:
	cmp	r3, #0
	beq	.L153
	.loc 9 291 0
	ldr	r0, [sp, #48]
	mov	r1, #1
	bl	_ZN6b2Body8SetAwakeEb
	.loc 9 292 0
	ldr	r0, [sp, #52]
	mov	r1, #1
	bl	_ZN6b2Body8SetAwakeEb
.L153:
	.loc 9 295 0
	ldr	r3, [sp, #20]
	ldr	r3, [r3, #64]
	add	r2, r3, #1
	ldr	r3, [sp, #20]
	str	r2, [r3, #64]
	b	.L154
.L155:
	.loc 9 194 0
	mov	r0, r0	@ nop
	b	.L154
.L156:
.LBB12:
	.loc 9 213 0
	mov	r0, r0	@ nop
	b	.L154
.L157:
	.loc 9 219 0
	mov	r0, r0	@ nop
	b	.L154
.L158:
.LBE12:
	.loc 9 229 0
	mov	r0, r0	@ nop
	b	.L154
.L159:
	.loc 9 235 0
	mov	r0, r0	@ nop
	b	.L154
.L160:
	.loc 9 242 0
	mov	r0, r0	@ nop
.L154:
.LBE10:
	.loc 9 296 0
	add	sp, sp, #84
	ldmfd	sp!, {pc}
	.cfi_endproc
.LFE791:
	.size	_ZN16b2ContactManager7AddPairEPvS0_, .-_ZN16b2ContactManager7AddPairEPvS0_
	.section	.text._ZN12b2BroadPhase11UpdatePairsI16b2ContactManagerEEvPT_,"axG",%progbits,_ZN12b2BroadPhase11UpdatePairsI16b2ContactManagerEEvPT_,comdat
	.align	2
	.weak	_ZN12b2BroadPhase11UpdatePairsI16b2ContactManagerEEvPT_
	.hidden	_ZN12b2BroadPhase11UpdatePairsI16b2ContactManagerEEvPT_
	.type	_ZN12b2BroadPhase11UpdatePairsI16b2ContactManagerEEvPT_, %function
_ZN12b2BroadPhase11UpdatePairsI16b2ContactManagerEEvPT_:
.LFB797:
	.loc 4 185 0
	.cfi_startproc
	@ args = 0, pretend = 0, frame = 40
	@ frame_needed = 0, uses_anonymous_args = 0
	str	lr, [sp, #-4]!
.LCFI49:
	.cfi_def_cfa_offset 4
	sub	sp, sp, #44
.LCFI50:
	.cfi_def_cfa_offset 48
	str	r0, [sp, #4]
	str	r1, [sp, #0]
.LBB13:
	.loc 4 188 0
	ldr	r3, [sp, #4]
	mov	r2, #0
	str	r2, [r3, #52]
.LBB14:
	.loc 4 191 0
	mov	r3, #0
	str	r3, [sp, #16]
	b	.L162
	.cfi_offset 14, -4
.L165:
.LBB15:
	.loc 4 193 0
	ldr	r3, [sp, #4]
	ldr	r2, [r3, #32]
	ldr	r3, [sp, #16]
	mov	r3, r3, asl #2
	add	r3, r2, r3
	ldr	r2, [r3, #0]
	ldr	r3, [sp, #4]
	str	r2, [r3, #56]
	.loc 4 194 0
	ldr	r3, [sp, #4]
	ldr	r3, [r3, #56]
	cmn	r3, #1
	beq	.L173
.L163:
	.loc 4 201 0
	ldr	r2, [sp, #4]
	ldr	r3, [sp, #4]
	ldr	r3, [r3, #56]
	mov	r0, r2
	mov	r1, r3
	bl	_ZNK13b2DynamicTree10GetFatAABBEi
	mov	r3, r0
	str	r3, [sp, #20]
	.loc 4 204 0
	ldr	r3, [sp, #4]
	mov	r0, r3
	ldr	r1, [sp, #4]
	ldr	r2, [sp, #20]
	bl	_ZNK13b2DynamicTree5QueryI12b2BroadPhaseEEvPT_RK6b2AABB
	b	.L164
.L173:
	.loc 4 196 0
	mov	r0, r0	@ nop
.L164:
.LBE15:
	.loc 4 191 0
	ldr	r3, [sp, #16]
	add	r3, r3, #1
	str	r3, [sp, #16]
.L162:
	ldr	r3, [sp, #4]
	ldr	r2, [r3, #40]
	ldr	r3, [sp, #16]
	cmp	r2, r3
	movle	r3, #0
	movgt	r3, #1
	and	r3, r3, #255
	cmp	r3, #0
	bne	.L165
.LBE14:
	.loc 4 208 0
	ldr	r3, [sp, #4]
	mov	r2, #0
	str	r2, [r3, #40]
	.loc 4 211 0
	ldr	r3, [sp, #4]
	ldr	r2, [r3, #44]
	ldr	r3, [sp, #4]
	ldr	r1, [r3, #44]
	ldr	r3, [sp, #4]
	ldr	r3, [r3, #52]
	mov	r3, r3, asl #3
	add	r3, r1, r3
	mov	r0, r2
	mov	r1, r3
	ldr	r2, .L176
	bl	_ZN4_STL4sortIP6b2PairPFbRKS1_S4_EEEvT_S7_T0_
	.loc 4 214 0
	mov	r3, #0
	str	r3, [sp, #12]
	.loc 4 215 0
	b	.L166
.L171:
.LBB16:
	.loc 4 217 0
	ldr	r3, [sp, #4]
	ldr	r2, [r3, #44]
	ldr	r3, [sp, #12]
	mov	r3, r3, asl #3
	add	r3, r2, r3
	str	r3, [sp, #24]
	.loc 4 218 0
	ldr	r2, [sp, #4]
	ldr	r3, [sp, #24]
	ldr	r3, [r3, #0]
	mov	r0, r2
	mov	r1, r3
	bl	_ZNK13b2DynamicTree11GetUserDataEi
	mov	r3, r0
	str	r3, [sp, #28]
	.loc 4 219 0
	ldr	r2, [sp, #4]
	ldr	r3, [sp, #24]
	ldr	r3, [r3, #4]
	mov	r0, r2
	mov	r1, r3
	bl	_ZNK13b2DynamicTree11GetUserDataEi
	mov	r3, r0
	str	r3, [sp, #32]
	.loc 4 221 0
	ldr	r0, [sp, #0]
	ldr	r1, [sp, #28]
	ldr	r2, [sp, #32]
	bl	_ZN16b2ContactManager7AddPairEPvS0_
	.loc 4 222 0
	ldr	r3, [sp, #12]
	add	r3, r3, #1
	str	r3, [sp, #12]
	.loc 4 225 0
	b	.L167
.L170:
.LBB17:
	.loc 4 227 0
	ldr	r3, [sp, #4]
	ldr	r2, [r3, #44]
	ldr	r3, [sp, #12]
	mov	r3, r3, asl #3
	add	r3, r2, r3
	str	r3, [sp, #36]
	.loc 4 228 0
	ldr	r3, [sp, #36]
	ldr	r2, [r3, #0]
	ldr	r3, [sp, #24]
	ldr	r3, [r3, #0]
	cmp	r2, r3
	bne	.L174
	ldr	r3, [sp, #36]
	ldr	r2, [r3, #4]
	ldr	r3, [sp, #24]
	ldr	r3, [r3, #4]
	cmp	r2, r3
	bne	.L175
.L169:
	.loc 4 232 0
	ldr	r3, [sp, #12]
	add	r3, r3, #1
	str	r3, [sp, #12]
.L167:
.LBE17:
	.loc 4 225 0
	ldr	r3, [sp, #4]
	ldr	r2, [r3, #52]
	ldr	r3, [sp, #12]
	cmp	r2, r3
	movle	r3, #0
	movgt	r3, #1
	and	r3, r3, #255
	cmp	r3, #0
	bne	.L170
	b	.L166
.L174:
.LBB18:
	.loc 4 230 0
	mov	r0, r0	@ nop
	b	.L166
.L175:
	mov	r0, r0	@ nop
.L166:
.LBE18:
.LBE16:
	.loc 4 215 0
	ldr	r3, [sp, #4]
	ldr	r2, [r3, #52]
	ldr	r3, [sp, #12]
	cmp	r2, r3
	movle	r3, #0
	movgt	r3, #1
	and	r3, r3, #255
	cmp	r3, #0
	bne	.L171
.LBE13:
	.loc 4 238 0
	add	sp, sp, #44
	ldmfd	sp!, {pc}
.L177:
	.align	2
.L176:
	.word	_Z14b2PairLessThanRK6b2PairS1_
	.cfi_endproc
.LFE797:
	.size	_ZN12b2BroadPhase11UpdatePairsI16b2ContactManagerEEvPT_, .-_ZN12b2BroadPhase11UpdatePairsI16b2ContactManagerEEvPT_
	.section	.text._ZNK13b2DynamicTree5QueryI12b2BroadPhaseEEvPT_RK6b2AABB,"axG",%progbits,_ZNK13b2DynamicTree5QueryI12b2BroadPhaseEEvPT_RK6b2AABB,comdat
	.align	2
	.weak	_ZNK13b2DynamicTree5QueryI12b2BroadPhaseEEvPT_RK6b2AABB
	.hidden	_ZNK13b2DynamicTree5QueryI12b2BroadPhaseEEvPT_RK6b2AABB
	.type	_ZNK13b2DynamicTree5QueryI12b2BroadPhaseEEvPT_RK6b2AABB, %function
_ZNK13b2DynamicTree5QueryI12b2BroadPhaseEEvPT_RK6b2AABB:
.LFB798:
	.loc 3 169 0
	.cfi_startproc
	@ args = 0, pretend = 0, frame = 1064
	@ frame_needed = 0, uses_anonymous_args = 0
	stmfd	sp!, {r4, lr}
.LCFI51:
	.cfi_def_cfa_offset 8
	sub	sp, sp, #1056
.LCFI52:
	.cfi_def_cfa_offset 1064
	sub	sp, sp, #8
.LCFI53:
	.cfi_def_cfa_offset 1072
	str	r0, [sp, #12]
	str	r1, [sp, #8]
	str	r2, [sp, #4]
.LBB19:
	.loc 3 171 0
	add	r3, sp, #24
	sub	r3, r3, #8
	mov	r0, r3
	.cfi_offset 14, -4
	.cfi_offset 4, -8
	bl	_ZN15b2GrowableStackIiLi256EEC1Ev
	.loc 3 172 0
	ldr	r2, [sp, #12]
	add	r3, sp, #24
	sub	r3, r3, #8
	mov	r0, r3
	mov	r1, r2
	bl	_ZN15b2GrowableStackIiLi256EE4PushERKi
	.loc 3 174 0
	b	.L179
.L184:
.LBB20:
	.loc 3 176 0
	add	r3, sp, #24
	sub	r3, r3, #8
	mov	r0, r3
	bl	_ZN15b2GrowableStackIiLi256EE3PopEv
	mov	r3, r0
	str	r3, [sp, #1052]
	.loc 3 177 0
	ldr	r3, [sp, #1052]
	cmn	r3, #1
	beq	.L189
.L180:
	.loc 3 182 0
	ldr	r3, [sp, #12]
	ldr	r1, [r3, #4]
	ldr	r2, [sp, #1052]
	mov	r3, r2
	mov	r3, r3, asl #3
	add	r3, r3, r2
	mov	r3, r3, asl #2
	add	r3, r1, r3
	str	r3, [sp, #1056]
	.loc 3 184 0
	ldr	r3, [sp, #1056]
	mov	r0, r3
	ldr	r1, [sp, #4]
	bl	_Z13b2TestOverlapRK6b2AABBS1_
	mov	r3, r0
	cmp	r3, #0
	beq	.L179
	.loc 3 186 0
	ldr	r0, [sp, #1056]
	bl	_ZNK10b2TreeNode6IsLeafEv
	mov	r3, r0
	cmp	r3, #0
	beq	.L181
.LBB21:
	.loc 3 188 0
	ldr	r0, [sp, #8]
	ldr	r1, [sp, #1052]
	bl	_ZN12b2BroadPhase13QueryCallbackEi
	mov	r3, r0
	strb	r3, [sp, #1063]
	.loc 3 189 0
	ldrb	r3, [sp, #1063]
	eor	r3, r3, #1
	and	r3, r3, #255
	cmp	r3, #0
	beq	.L179
	mov	r4, #0
	b	.L183
.L181:
.LBE21:
	.loc 3 196 0
	ldr	r3, [sp, #1056]
	add	r2, r3, #24
	add	r3, sp, #24
	sub	r3, r3, #8
	mov	r0, r3
	mov	r1, r2
	bl	_ZN15b2GrowableStackIiLi256EE4PushERKi
	.loc 3 197 0
	ldr	r3, [sp, #1056]
	add	r2, r3, #28
	add	r3, sp, #24
	sub	r3, r3, #8
	mov	r0, r3
	mov	r1, r2
	bl	_ZN15b2GrowableStackIiLi256EE4PushERKi
	b	.L179
.L189:
	.loc 3 179 0
	mov	r0, r0	@ nop
.L179:
.LBE20:
	.loc 3 174 0
	add	r3, sp, #24
	sub	r3, r3, #8
	mov	r0, r3
	bl	_ZN15b2GrowableStackIiLi256EE8GetCountEv
	mov	r3, r0
	cmp	r3, #0
	movle	r3, #0
	movgt	r3, #1
	and	r3, r3, #255
	cmp	r3, #0
	bne	.L184
	mov	r4, #1
.L183:
	.loc 3 197 0
	add	r3, sp, #24
	sub	r3, r3, #8
	mov	r0, r3
	bl	_ZN15b2GrowableStackIiLi256EED1Ev
	cmp	r4, #1
.LBE19:
	.loc 3 201 0
	add	sp, sp, #40
	add	sp, sp, #1024
	ldmfd	sp!, {r4, pc}
	.cfi_endproc
.LFE798:
	.size	_ZNK13b2DynamicTree5QueryI12b2BroadPhaseEEvPT_RK6b2AABB, .-_ZNK13b2DynamicTree5QueryI12b2BroadPhaseEEvPT_RK6b2AABB
	.section	.text._ZN4_STL4sortIP6b2PairPFbRKS1_S4_EEEvT_S7_T0_,"axG",%progbits,_ZN4_STL4sortIP6b2PairPFbRKS1_S4_EEEvT_S7_T0_,comdat
	.align	2
	.weak	_ZN4_STL4sortIP6b2PairPFbRKS1_S4_EEEvT_S7_T0_
	.hidden	_ZN4_STL4sortIP6b2PairPFbRKS1_S4_EEEvT_S7_T0_
	.type	_ZN4_STL4sortIP6b2PairPFbRKS1_S4_EEEvT_S7_T0_, %function
_ZN4_STL4sortIP6b2PairPFbRKS1_S4_EEEvT_S7_T0_:
.LFB799:
	.file 10 "c:/marmalade/6.3/s3e/h/std/c++/stl/_algo.c"
	.loc 10 838 0
	.cfi_startproc
	@ args = 0, pretend = 0, frame = 16
	@ frame_needed = 0, uses_anonymous_args = 0
	str	lr, [sp, #-4]!
.LCFI54:
	.cfi_def_cfa_offset 4
	sub	sp, sp, #28
.LCFI55:
	.cfi_def_cfa_offset 32
	str	r0, [sp, #20]
	str	r1, [sp, #16]
	str	r2, [sp, #12]
	.loc 10 840 0
	ldr	r2, [sp, #20]
	ldr	r3, [sp, #16]
	cmp	r2, r3
	beq	.L192
	.cfi_offset 14, -4
	.loc 10 841 0
	ldr	r2, [sp, #16]
	ldr	r3, [sp, #20]
	rsb	r3, r3, r2
	mov	r3, r3, asr #3
	mov	r0, r3
	bl	_ZN4_STL4__lgIiEET_S1_
	mov	r3, r0
	mov	r3, r3, asl #1
	ldr	r2, [sp, #12]
	str	r2, [sp, #0]
	ldr	r0, [sp, #20]
	ldr	r1, [sp, #16]
	mov	r2, #0
	bl	_ZN4_STL16__introsort_loopIP6b2PairS1_iPFbRKS1_S4_EEEvT_S7_PT0_T1_T2_
	.loc 10 845 0
	ldr	r0, [sp, #20]
	ldr	r1, [sp, #16]
	ldr	r2, [sp, #12]
	bl	_ZN4_STL22__final_insertion_sortIP6b2PairPFbRKS1_S4_EEEvT_S7_T0_
.L192:
	.loc 10 847 0
	add	sp, sp, #28
	ldmfd	sp!, {pc}
	.cfi_endproc
.LFE799:
	.size	_ZN4_STL4sortIP6b2PairPFbRKS1_S4_EEEvT_S7_T0_, .-_ZN4_STL4sortIP6b2PairPFbRKS1_S4_EEEvT_S7_T0_
	.section	.text._ZN15b2GrowableStackIiLi256EEC1Ev,"axG",%progbits,_ZN15b2GrowableStackIiLi256EEC1Ev,comdat
	.align	2
	.weak	_ZN15b2GrowableStackIiLi256EEC1Ev
	.hidden	_ZN15b2GrowableStackIiLi256EEC1Ev
	.type	_ZN15b2GrowableStackIiLi256EEC1Ev, %function
_ZN15b2GrowableStackIiLi256EEC1Ev:
.LFB802:
	.file 11 "v:/gigglingbits/box2d/Box2D/Common/b2GrowableStack.h"
	.loc 11 31 0
	.cfi_startproc
	@ args = 0, pretend = 0, frame = 8
	@ frame_needed = 0, uses_anonymous_args = 0
	@ link register save eliminated.
	sub	sp, sp, #8
.LCFI56:
	.cfi_def_cfa_offset 8
	str	r0, [sp, #4]
	.loc 11 33 0
	ldr	r3, [sp, #4]
	add	r2, r3, #4
	ldr	r3, [sp, #4]
	str	r2, [r3, #0]
	.loc 11 34 0
	ldr	r3, [sp, #4]
	mov	r2, #0
	str	r2, [r3, #1028]
	.loc 11 35 0
	ldr	r3, [sp, #4]
	mov	r2, #256
	str	r2, [r3, #1032]
	ldr	r3, [sp, #4]
	.loc 11 36 0
	mov	r0, r3
	add	sp, sp, #8
	bx	lr
	.cfi_endproc
.LFE802:
	.size	_ZN15b2GrowableStackIiLi256EEC1Ev, .-_ZN15b2GrowableStackIiLi256EEC1Ev
	.section	.text._ZN15b2GrowableStackIiLi256EED1Ev,"axG",%progbits,_ZN15b2GrowableStackIiLi256EED1Ev,comdat
	.align	2
	.weak	_ZN15b2GrowableStackIiLi256EED1Ev
	.hidden	_ZN15b2GrowableStackIiLi256EED1Ev
	.type	_ZN15b2GrowableStackIiLi256EED1Ev, %function
_ZN15b2GrowableStackIiLi256EED1Ev:
.LFB805:
	.loc 11 38 0
	.cfi_startproc
	@ args = 0, pretend = 0, frame = 8
	@ frame_needed = 0, uses_anonymous_args = 0
	str	lr, [sp, #-4]!
.LCFI57:
	.cfi_def_cfa_offset 4
	sub	sp, sp, #12
.LCFI58:
	.cfi_def_cfa_offset 16
	str	r0, [sp, #4]
	.loc 11 40 0
	ldr	r3, [sp, #4]
	ldr	r2, [r3, #0]
	ldr	r3, [sp, #4]
	add	r3, r3, #4
	cmp	r2, r3
	beq	.L197
	.cfi_offset 14, -4
	.loc 11 42 0
	ldr	r3, [sp, #4]
	ldr	r3, [r3, #0]
	mov	r0, r3
	bl	_Z6b2FreePv
	.loc 11 43 0
	ldr	r3, [sp, #4]
	mov	r2, #0
	str	r2, [r3, #0]
.L197:
	ldr	r3, [sp, #4]
	.loc 11 45 0
	mov	r0, r3
	add	sp, sp, #12
	ldmfd	sp!, {pc}
	.cfi_endproc
.LFE805:
	.size	_ZN15b2GrowableStackIiLi256EED1Ev, .-_ZN15b2GrowableStackIiLi256EED1Ev
	.section	.text._ZN15b2GrowableStackIiLi256EE4PushERKi,"axG",%progbits,_ZN15b2GrowableStackIiLi256EE4PushERKi,comdat
	.align	2
	.weak	_ZN15b2GrowableStackIiLi256EE4PushERKi
	.hidden	_ZN15b2GrowableStackIiLi256EE4PushERKi
	.type	_ZN15b2GrowableStackIiLi256EE4PushERKi, %function
_ZN15b2GrowableStackIiLi256EE4PushERKi:
.LFB806:
	.loc 11 47 0
	.cfi_startproc
	@ args = 0, pretend = 0, frame = 16
	@ frame_needed = 0, uses_anonymous_args = 0
	str	lr, [sp, #-4]!
.LCFI59:
	.cfi_def_cfa_offset 4
	sub	sp, sp, #20
.LCFI60:
	.cfi_def_cfa_offset 24
	str	r0, [sp, #4]
	str	r1, [sp, #0]
.LBB22:
	.loc 11 49 0
	ldr	r3, [sp, #4]
	ldr	r2, [r3, #1028]
	ldr	r3, [sp, #4]
	ldr	r3, [r3, #1032]
	cmp	r2, r3
	bne	.L200
	.cfi_offset 14, -4
.LBB23:
	.loc 11 51 0
	ldr	r3, [sp, #4]
	ldr	r3, [r3, #0]
	str	r3, [sp, #12]
	.loc 11 52 0
	ldr	r3, [sp, #4]
	ldr	r3, [r3, #1032]
	mov	r2, r3, asl #1
	ldr	r3, [sp, #4]
	str	r2, [r3, #1032]
	.loc 11 53 0
	ldr	r3, [sp, #4]
	ldr	r3, [r3, #1032]
	mov	r3, r3, asl #2
	mov	r0, r3
	bl	_Z7b2Alloci
	mov	r3, r0
	mov	r2, r3
	ldr	r3, [sp, #4]
	str	r2, [r3, #0]
	.loc 11 54 0
	ldr	r3, [sp, #4]
	ldr	r2, [r3, #0]
	ldr	r3, [sp, #4]
	ldr	r3, [r3, #1028]
	mov	r3, r3, asl #2
	mov	r0, r2
	ldr	r1, [sp, #12]
	mov	r2, r3
	bl	memcpy
	.loc 11 55 0
	ldr	r3, [sp, #4]
	add	r2, r3, #4
	ldr	r3, [sp, #12]
	cmp	r2, r3
	beq	.L200
	.loc 11 57 0
	ldr	r0, [sp, #12]
	bl	_Z6b2FreePv
.L200:
.LBE23:
	.loc 11 61 0
	ldr	r3, [sp, #4]
	ldr	r2, [r3, #0]
	ldr	r3, [sp, #4]
	ldr	r3, [r3, #1028]
	mov	r3, r3, asl #2
	add	r3, r2, r3
	ldr	r2, [sp, #0]
	ldr	r2, [r2, #0]
	str	r2, [r3, #0]
	.loc 11 62 0
	ldr	r3, [sp, #4]
	ldr	r3, [r3, #1028]
	add	r2, r3, #1
	ldr	r3, [sp, #4]
	str	r2, [r3, #1028]
.LBE22:
	.loc 11 63 0
	add	sp, sp, #20
	ldmfd	sp!, {pc}
	.cfi_endproc
.LFE806:
	.size	_ZN15b2GrowableStackIiLi256EE4PushERKi, .-_ZN15b2GrowableStackIiLi256EE4PushERKi
	.section	.text._ZN15b2GrowableStackIiLi256EE8GetCountEv,"axG",%progbits,_ZN15b2GrowableStackIiLi256EE8GetCountEv,comdat
	.align	2
	.weak	_ZN15b2GrowableStackIiLi256EE8GetCountEv
	.hidden	_ZN15b2GrowableStackIiLi256EE8GetCountEv
	.type	_ZN15b2GrowableStackIiLi256EE8GetCountEv, %function
_ZN15b2GrowableStackIiLi256EE8GetCountEv:
.LFB807:
	.loc 11 72 0
	.cfi_startproc
	@ args = 0, pretend = 0, frame = 8
	@ frame_needed = 0, uses_anonymous_args = 0
	@ link register save eliminated.
	sub	sp, sp, #8
.LCFI61:
	.cfi_def_cfa_offset 8
	str	r0, [sp, #4]
	.loc 11 74 0
	ldr	r3, [sp, #4]
	ldr	r3, [r3, #1028]
	.loc 11 75 0
	mov	r0, r3
	add	sp, sp, #8
	bx	lr
	.cfi_endproc
.LFE807:
	.size	_ZN15b2GrowableStackIiLi256EE8GetCountEv, .-_ZN15b2GrowableStackIiLi256EE8GetCountEv
	.section	.rodata
	.align	2
.LC2:
	.ascii	"v:/gigglingbits/box2d/Box2D/Common/b2GrowableStack."
	.ascii	"h\000"
	.align	2
.LC3:
	.ascii	"m_count > 0\000"
	.section	.text._ZN15b2GrowableStackIiLi256EE3PopEv,"axG",%progbits,_ZN15b2GrowableStackIiLi256EE3PopEv,comdat
	.align	2
	.weak	_ZN15b2GrowableStackIiLi256EE3PopEv
	.hidden	_ZN15b2GrowableStackIiLi256EE3PopEv
	.type	_ZN15b2GrowableStackIiLi256EE3PopEv, %function
_ZN15b2GrowableStackIiLi256EE3PopEv:
.LFB808:
	.loc 11 65 0
	.cfi_startproc
	@ args = 0, pretend = 0, frame = 8
	@ frame_needed = 0, uses_anonymous_args = 0
	str	lr, [sp, #-4]!
.LCFI62:
	.cfi_def_cfa_offset 4
	sub	sp, sp, #12
.LCFI63:
	.cfi_def_cfa_offset 16
	str	r0, [sp, #4]
	.loc 11 67 0
	ldr	r3, [sp, #4]
	ldr	r3, [r3, #1028]
	cmp	r3, #0
	bgt	.L205
	.cfi_offset 14, -4
	ldr	r0, .L207
	mov	r1, #67
	ldr	r2, .L207+4
	bl	__assert
.L205:
	.loc 11 68 0
	ldr	r3, [sp, #4]
	ldr	r3, [r3, #1028]
	sub	r2, r3, #1
	ldr	r3, [sp, #4]
	str	r2, [r3, #1028]
	.loc 11 69 0
	ldr	r3, [sp, #4]
	ldr	r2, [r3, #0]
	ldr	r3, [sp, #4]
	ldr	r3, [r3, #1028]
	mov	r3, r3, asl #2
	add	r3, r2, r3
	ldr	r3, [r3, #0]
	.loc 11 70 0
	mov	r0, r3
	add	sp, sp, #12
	ldmfd	sp!, {pc}
.L208:
	.align	2
.L207:
	.word	.LC2
	.word	.LC3
	.cfi_endproc
.LFE808:
	.size	_ZN15b2GrowableStackIiLi256EE3PopEv, .-_ZN15b2GrowableStackIiLi256EE3PopEv
	.section	.text._ZN4_STL4__lgIiEET_S1_,"axG",%progbits,_ZN4_STL4__lgIiEET_S1_,comdat
	.align	2
	.weak	_ZN4_STL4__lgIiEET_S1_
	.hidden	_ZN4_STL4__lgIiEET_S1_
	.type	_ZN4_STL4__lgIiEET_S1_, %function
_ZN4_STL4__lgIiEET_S1_:
.LFB809:
	.file 12 "c:/marmalade/6.3/s3e/h/std/c++/stl/_algo.h"
	.loc 12 423 0
	.cfi_startproc
	@ args = 0, pretend = 0, frame = 16
	@ frame_needed = 0, uses_anonymous_args = 0
	@ link register save eliminated.
	sub	sp, sp, #16
.LCFI64:
	.cfi_def_cfa_offset 16
	str	r0, [sp, #4]
.LBB24:
	.loc 12 425 0
	mov	r3, #0
	str	r3, [sp, #12]
	b	.L210
.L211:
	ldr	r3, [sp, #12]
	add	r3, r3, #1
	str	r3, [sp, #12]
	ldr	r3, [sp, #4]
	mov	r3, r3, asr #1
	str	r3, [sp, #4]
.L210:
	ldr	r3, [sp, #4]
	cmp	r3, #1
	moveq	r3, #0
	movne	r3, #1
	and	r3, r3, #255
	cmp	r3, #0
	bne	.L211
	.loc 12 426 0
	ldr	r3, [sp, #12]
.LBE24:
	.loc 12 427 0
	mov	r0, r3
	add	sp, sp, #16
	bx	lr
	.cfi_endproc
.LFE809:
	.size	_ZN4_STL4__lgIiEET_S1_, .-_ZN4_STL4__lgIiEET_S1_
	.section	.text._ZN4_STL16__introsort_loopIP6b2PairS1_iPFbRKS1_S4_EEEvT_S7_PT0_T1_T2_,"axG",%progbits,_ZN4_STL16__introsort_loopIP6b2PairS1_iPFbRKS1_S4_EEEvT_S7_PT0_T1_T2_,comdat
	.align	2
	.weak	_ZN4_STL16__introsort_loopIP6b2PairS1_iPFbRKS1_S4_EEEvT_S7_PT0_T1_T2_
	.hidden	_ZN4_STL16__introsort_loopIP6b2PairS1_iPFbRKS1_S4_EEEvT_S7_PT0_T1_T2_
	.type	_ZN4_STL16__introsort_loopIP6b2PairS1_iPFbRKS1_S4_EEEvT_S7_PT0_T1_T2_, %function
_ZN4_STL16__introsort_loopIP6b2PairS1_iPFbRKS1_S4_EEEvT_S7_PT0_T1_T2_:
.LFB810:
	.loc 10 805 0
	.cfi_startproc
	@ args = 4, pretend = 0, frame = 32
	@ frame_needed = 0, uses_anonymous_args = 0
	str	lr, [sp, #-4]!
.LCFI65:
	.cfi_def_cfa_offset 4
	sub	sp, sp, #44
.LCFI66:
	.cfi_def_cfa_offset 48
	str	r0, [sp, #20]
	str	r1, [sp, #16]
	str	r2, [sp, #12]
	str	r3, [sp, #8]
.LBB25:
	.loc 10 809 0
	b	.L214
	.cfi_offset 14, -4
.L217:
.LBB26:
	.loc 10 810 0
	ldr	r3, [sp, #8]
	cmp	r3, #0
	bne	.L215
	.loc 10 811 0
	ldr	r0, [sp, #20]
	ldr	r1, [sp, #16]
	ldr	r2, [sp, #16]
	ldr	r3, [sp, #48]
	bl	_ZN4_STL12partial_sortIP6b2PairPFbRKS1_S4_EEEvT_S7_S7_T0_
	.loc 10 812 0
	b	.L218
.L215:
	.loc 10 814 0
	ldr	r3, [sp, #8]
	sub	r3, r3, #1
	str	r3, [sp, #8]
	.loc 10 820 0
	ldr	r2, [sp, #16]
	ldr	r3, [sp, #20]
	rsb	r3, r3, r2
	mov	r3, r3, asr #3
	mov	r2, r3, lsr #31
	add	r3, r2, r3
	mov	r3, r3, asr #1
	mov	r2, r3, asl #3
	ldr	r3, [sp, #20]
	add	r2, r2, r3
	ldr	r3, [sp, #16]
	sub	r3, r3, #8
	ldr	r0, [sp, #20]
	mov	r1, r2
	mov	r2, r3
	ldr	r3, [sp, #48]
	bl	_ZN4_STL8__medianI6b2PairPFbRKS1_S3_EEERKT_S8_S8_S8_T0_
	mov	r2, r0
	add	r3, sp, #28
	ldmia	r2, {r0, r1}
	stmia	r3, {r0, r1}
	ldr	r3, [sp, #48]
	str	r3, [sp, #0]
	ldr	r0, [sp, #20]
	ldr	r1, [sp, #16]
	add	r3, sp, #28
	ldmia	r3, {r2, r3}
	bl	_ZN4_STL21__unguarded_partitionIP6b2PairS1_PFbRKS1_S4_EEET_S7_S7_T0_T1_
	mov	r3, r0
	str	r3, [sp, #36]
	.loc 10 821 0
	ldr	r3, [sp, #48]
	str	r3, [sp, #0]
	ldr	r0, [sp, #36]
	ldr	r1, [sp, #16]
	mov	r2, #0
	ldr	r3, [sp, #8]
	bl	_ZN4_STL16__introsort_loopIP6b2PairS1_iPFbRKS1_S4_EEEvT_S7_PT0_T1_T2_
	.loc 10 822 0
	ldr	r3, [sp, #36]
	str	r3, [sp, #16]
.L214:
.LBE26:
	.loc 10 809 0
	ldr	r2, [sp, #16]
	ldr	r3, [sp, #20]
	rsb	r3, r3, r2
	cmp	r3, #135
	movle	r3, #0
	movgt	r3, #1
	and	r3, r3, #255
	cmp	r3, #0
	bne	.L217
.L218:
.LBE25:
	.loc 10 824 0
	add	sp, sp, #44
	ldmfd	sp!, {pc}
	.cfi_endproc
.LFE810:
	.size	_ZN4_STL16__introsort_loopIP6b2PairS1_iPFbRKS1_S4_EEEvT_S7_PT0_T1_T2_, .-_ZN4_STL16__introsort_loopIP6b2PairS1_iPFbRKS1_S4_EEEvT_S7_PT0_T1_T2_
	.section	.text._ZN4_STL22__final_insertion_sortIP6b2PairPFbRKS1_S4_EEEvT_S7_T0_,"axG",%progbits,_ZN4_STL22__final_insertion_sortIP6b2PairPFbRKS1_S4_EEEvT_S7_T0_,comdat
	.align	2
	.weak	_ZN4_STL22__final_insertion_sortIP6b2PairPFbRKS1_S4_EEEvT_S7_T0_
	.hidden	_ZN4_STL22__final_insertion_sortIP6b2PairPFbRKS1_S4_EEEvT_S7_T0_
	.type	_ZN4_STL22__final_insertion_sortIP6b2PairPFbRKS1_S4_EEEvT_S7_T0_, %function
_ZN4_STL22__final_insertion_sortIP6b2PairPFbRKS1_S4_EEEvT_S7_T0_:
.LFB811:
	.loc 10 794 0
	.cfi_startproc
	@ args = 0, pretend = 0, frame = 16
	@ frame_needed = 0, uses_anonymous_args = 0
	str	lr, [sp, #-4]!
.LCFI67:
	.cfi_def_cfa_offset 4
	sub	sp, sp, #20
.LCFI68:
	.cfi_def_cfa_offset 24
	str	r0, [sp, #12]
	str	r1, [sp, #8]
	str	r2, [sp, #4]
	.loc 10 796 0
	ldr	r2, [sp, #8]
	ldr	r3, [sp, #12]
	rsb	r3, r3, r2
	cmp	r3, #135
	ble	.L220
	.cfi_offset 14, -4
	.loc 10 797 0
	ldr	r3, [sp, #12]
	add	r3, r3, #128
	ldr	r0, [sp, #12]
	mov	r1, r3
	ldr	r2, [sp, #4]
	bl	_ZN4_STL16__insertion_sortIP6b2PairPFbRKS1_S4_EEEvT_S7_T0_
	.loc 10 798 0
	ldr	r3, [sp, #12]
	add	r3, r3, #128
	mov	r0, r3
	ldr	r1, [sp, #8]
	ldr	r2, [sp, #4]
	bl	_ZN4_STL26__unguarded_insertion_sortIP6b2PairPFbRKS1_S4_EEEvT_S7_T0_
	b	.L222
.L220:
	.loc 10 801 0
	ldr	r0, [sp, #12]
	ldr	r1, [sp, #8]
	ldr	r2, [sp, #4]
	bl	_ZN4_STL16__insertion_sortIP6b2PairPFbRKS1_S4_EEEvT_S7_T0_
.L222:
	.loc 10 802 0
	add	sp, sp, #20
	ldmfd	sp!, {pc}
	.cfi_endproc
.LFE811:
	.size	_ZN4_STL22__final_insertion_sortIP6b2PairPFbRKS1_S4_EEEvT_S7_T0_, .-_ZN4_STL22__final_insertion_sortIP6b2PairPFbRKS1_S4_EEEvT_S7_T0_
	.section	.text._ZN4_STL12partial_sortIP6b2PairPFbRKS1_S4_EEEvT_S7_S7_T0_,"axG",%progbits,_ZN4_STL12partial_sortIP6b2PairPFbRKS1_S4_EEEvT_S7_S7_T0_,comdat
	.align	2
	.weak	_ZN4_STL12partial_sortIP6b2PairPFbRKS1_S4_EEEvT_S7_S7_T0_
	.hidden	_ZN4_STL12partial_sortIP6b2PairPFbRKS1_S4_EEEvT_S7_S7_T0_
	.type	_ZN4_STL12partial_sortIP6b2PairPFbRKS1_S4_EEEvT_S7_S7_T0_, %function
_ZN4_STL12partial_sortIP6b2PairPFbRKS1_S4_EEEvT_S7_S7_T0_:
.LFB812:
	.loc 10 1071 0
	.cfi_startproc
	@ args = 0, pretend = 0, frame = 16
	@ frame_needed = 0, uses_anonymous_args = 0
	str	lr, [sp, #-4]!
.LCFI69:
	.cfi_def_cfa_offset 4
	sub	sp, sp, #28
.LCFI70:
	.cfi_def_cfa_offset 32
	str	r0, [sp, #20]
	str	r1, [sp, #16]
	str	r2, [sp, #12]
	str	r3, [sp, #8]
	.loc 10 1074 0
	ldr	r3, [sp, #8]
	str	r3, [sp, #0]
	ldr	r0, [sp, #20]
	ldr	r1, [sp, #16]
	ldr	r2, [sp, #12]
	mov	r3, #0
	.cfi_offset 14, -4
	bl	_ZN4_STL14__partial_sortIP6b2PairS1_PFbRKS1_S4_EEEvT_S7_S7_PT0_T1_
	.loc 10 1075 0
	add	sp, sp, #28
	ldmfd	sp!, {pc}
	.cfi_endproc
.LFE812:
	.size	_ZN4_STL12partial_sortIP6b2PairPFbRKS1_S4_EEEvT_S7_S7_T0_, .-_ZN4_STL12partial_sortIP6b2PairPFbRKS1_S4_EEEvT_S7_S7_T0_
	.section	.text._ZN4_STL8__medianI6b2PairPFbRKS1_S3_EEERKT_S8_S8_S8_T0_,"axG",%progbits,_ZN4_STL8__medianI6b2PairPFbRKS1_S3_EEERKT_S8_S8_S8_T0_,comdat
	.align	2
	.weak	_ZN4_STL8__medianI6b2PairPFbRKS1_S3_EEERKT_S8_S8_S8_T0_
	.hidden	_ZN4_STL8__medianI6b2PairPFbRKS1_S3_EEERKT_S8_S8_S8_T0_
	.type	_ZN4_STL8__medianI6b2PairPFbRKS1_S3_EEERKT_S8_S8_S8_T0_, %function
_ZN4_STL8__medianI6b2PairPFbRKS1_S3_EEERKT_S8_S8_S8_T0_:
.LFB813:
	.loc 10 77 0
	.cfi_startproc
	@ args = 0, pretend = 0, frame = 16
	@ frame_needed = 0, uses_anonymous_args = 0
	str	lr, [sp, #-4]!
.LCFI71:
	.cfi_def_cfa_offset 4
	sub	sp, sp, #20
.LCFI72:
	.cfi_def_cfa_offset 24
	str	r0, [sp, #12]
	str	r1, [sp, #8]
	str	r2, [sp, #4]
	str	r3, [sp, #0]
	.loc 10 78 0
	ldr	r3, [sp, #0]
	ldr	r0, [sp, #12]
	ldr	r1, [sp, #8]
	.cfi_offset 14, -4
	blx	r3
	mov	r3, r0
	cmp	r3, #0
	beq	.L226
	.loc 10 79 0
	ldr	r3, [sp, #0]
	ldr	r0, [sp, #8]
	ldr	r1, [sp, #4]
	blx	r3
	mov	r3, r0
	cmp	r3, #0
	beq	.L227
	.loc 10 80 0
	ldr	r3, [sp, #8]
	b	.L228
.L227:
	.loc 10 81 0
	ldr	r3, [sp, #0]
	ldr	r0, [sp, #12]
	ldr	r1, [sp, #4]
	blx	r3
	mov	r3, r0
	cmp	r3, #0
	beq	.L229
	.loc 10 82 0
	ldr	r3, [sp, #4]
	b	.L228
.L229:
	.loc 10 84 0
	ldr	r3, [sp, #12]
	b	.L228
.L226:
	.loc 10 85 0
	ldr	r3, [sp, #0]
	ldr	r0, [sp, #12]
	ldr	r1, [sp, #4]
	blx	r3
	mov	r3, r0
	cmp	r3, #0
	beq	.L230
	.loc 10 86 0
	ldr	r3, [sp, #12]
	b	.L228
.L230:
	.loc 10 87 0
	ldr	r3, [sp, #0]
	ldr	r0, [sp, #8]
	ldr	r1, [sp, #4]
	blx	r3
	mov	r3, r0
	cmp	r3, #0
	beq	.L231
	.loc 10 88 0
	ldr	r3, [sp, #4]
	b	.L228
.L231:
	.loc 10 90 0
	ldr	r3, [sp, #8]
.L228:
	.loc 10 91 0
	mov	r0, r3
	add	sp, sp, #20
	ldmfd	sp!, {pc}
	.cfi_endproc
.LFE813:
	.size	_ZN4_STL8__medianI6b2PairPFbRKS1_S3_EEERKT_S8_S8_S8_T0_, .-_ZN4_STL8__medianI6b2PairPFbRKS1_S3_EEERKT_S8_S8_S8_T0_
	.section	.text._ZN4_STL21__unguarded_partitionIP6b2PairS1_PFbRKS1_S4_EEET_S7_S7_T0_T1_,"axG",%progbits,_ZN4_STL21__unguarded_partitionIP6b2PairS1_PFbRKS1_S4_EEET_S7_S7_T0_T1_,comdat
	.align	2
	.weak	_ZN4_STL21__unguarded_partitionIP6b2PairS1_PFbRKS1_S4_EEET_S7_S7_T0_T1_
	.hidden	_ZN4_STL21__unguarded_partitionIP6b2PairS1_PFbRKS1_S4_EEET_S7_S7_T0_T1_
	.type	_ZN4_STL21__unguarded_partitionIP6b2PairS1_PFbRKS1_S4_EEET_S7_S7_T0_T1_, %function
_ZN4_STL21__unguarded_partitionIP6b2PairS1_PFbRKS1_S4_EEET_S7_S7_T0_T1_:
.LFB814:
	.loc 10 723 0
	.cfi_startproc
	@ args = 4, pretend = 0, frame = 16
	@ frame_needed = 0, uses_anonymous_args = 0
	str	lr, [sp, #-4]!
.LCFI73:
	.cfi_def_cfa_offset 4
	sub	sp, sp, #20
.LCFI74:
	.cfi_def_cfa_offset 24
	str	r0, [sp, #12]
	str	r1, [sp, #8]
	mov	r1, sp
	stmia	r1, {r2, r3}
	.loc 10 728 0
	b	.L234
	.cfi_offset 14, -4
.L235:
	.loc 10 729 0
	ldr	r3, [sp, #12]
	add	r3, r3, #8
	str	r3, [sp, #12]
.L234:
	.loc 10 728 0
	mov	r2, sp
	ldr	r3, [sp, #24]
	ldr	r0, [sp, #12]
	mov	r1, r2
	blx	r3
	mov	r3, r0
	cmp	r3, #0
	bne	.L235
	.loc 10 730 0
	ldr	r3, [sp, #8]
	sub	r3, r3, #8
	str	r3, [sp, #8]
	.loc 10 731 0
	b	.L236
.L237:
	.loc 10 732 0
	ldr	r3, [sp, #8]
	sub	r3, r3, #8
	str	r3, [sp, #8]
.L236:
	.loc 10 731 0
	mov	r2, sp
	ldr	r3, [sp, #24]
	mov	r0, r2
	ldr	r1, [sp, #8]
	blx	r3
	mov	r3, r0
	cmp	r3, #0
	bne	.L237
	.loc 10 733 0
	ldr	r2, [sp, #12]
	ldr	r3, [sp, #8]
	cmp	r2, r3
	bcc	.L238
	.loc 10 734 0
	ldr	r3, [sp, #12]
	.loc 10 738 0
	mov	r0, r3
	add	sp, sp, #20
	ldmfd	sp!, {pc}
.L238:
	.loc 10 735 0
	ldr	r0, [sp, #12]
	ldr	r1, [sp, #8]
	bl	_ZN4_STL9iter_swapIP6b2PairS2_EEvT_T0_
	.loc 10 736 0
	ldr	r3, [sp, #12]
	add	r3, r3, #8
	str	r3, [sp, #12]
	.loc 10 727 0
	mov	r0, r0	@ nop
	.loc 10 728 0
	b	.L234
	.cfi_endproc
.LFE814:
	.size	_ZN4_STL21__unguarded_partitionIP6b2PairS1_PFbRKS1_S4_EEET_S7_S7_T0_T1_, .-_ZN4_STL21__unguarded_partitionIP6b2PairS1_PFbRKS1_S4_EEET_S7_S7_T0_T1_
	.section	.text._ZN4_STL16__insertion_sortIP6b2PairPFbRKS1_S4_EEEvT_S7_T0_,"axG",%progbits,_ZN4_STL16__insertion_sortIP6b2PairPFbRKS1_S4_EEEvT_S7_T0_,comdat
	.align	2
	.weak	_ZN4_STL16__insertion_sortIP6b2PairPFbRKS1_S4_EEEvT_S7_T0_
	.hidden	_ZN4_STL16__insertion_sortIP6b2PairPFbRKS1_S4_EEEvT_S7_T0_
	.type	_ZN4_STL16__insertion_sortIP6b2PairPFbRKS1_S4_EEEvT_S7_T0_, %function
_ZN4_STL16__insertion_sortIP6b2PairPFbRKS1_S4_EEEvT_S7_T0_:
.LFB815:
	.loc 10 771 0
	.cfi_startproc
	@ args = 0, pretend = 0, frame = 24
	@ frame_needed = 0, uses_anonymous_args = 0
	str	lr, [sp, #-4]!
.LCFI75:
	.cfi_def_cfa_offset 4
	sub	sp, sp, #36
.LCFI76:
	.cfi_def_cfa_offset 40
	str	r0, [sp, #20]
	str	r1, [sp, #16]
	str	r2, [sp, #12]
.LBB27:
	.loc 10 773 0
	ldr	r2, [sp, #20]
	ldr	r3, [sp, #16]
	cmp	r2, r3
	beq	.L247
	.cfi_offset 14, -4
.L242:
.LBB28:
	.loc 10 774 0
	ldr	r3, [sp, #20]
	add	r3, r3, #8
	str	r3, [sp, #28]
	b	.L244
.L245:
	.loc 10 775 0
	ldr	r3, [sp, #28]
	ldr	r2, [sp, #12]
	str	r2, [sp, #0]
	ldr	r0, [sp, #20]
	ldr	r1, [sp, #28]
	ldmia	r3, {r2, r3}
	bl	_ZN4_STL15__linear_insertIP6b2PairS1_PFbRKS1_S4_EEEvT_S7_T0_T1_
	.loc 10 774 0
	ldr	r3, [sp, #28]
	add	r3, r3, #8
	str	r3, [sp, #28]
.L244:
	ldr	r2, [sp, #28]
	ldr	r3, [sp, #16]
	cmp	r2, r3
	moveq	r3, #0
	movne	r3, #1
	and	r3, r3, #255
	cmp	r3, #0
	bne	.L245
	b	.L246
.L247:
.LBE28:
	.loc 10 773 0
	mov	r0, r0	@ nop
.L246:
.LBE27:
	.loc 10 776 0
	add	sp, sp, #36
	ldmfd	sp!, {pc}
	.cfi_endproc
.LFE815:
	.size	_ZN4_STL16__insertion_sortIP6b2PairPFbRKS1_S4_EEEvT_S7_T0_, .-_ZN4_STL16__insertion_sortIP6b2PairPFbRKS1_S4_EEEvT_S7_T0_
	.section	.text._ZN4_STL26__unguarded_insertion_sortIP6b2PairPFbRKS1_S4_EEEvT_S7_T0_,"axG",%progbits,_ZN4_STL26__unguarded_insertion_sortIP6b2PairPFbRKS1_S4_EEEvT_S7_T0_,comdat
	.align	2
	.weak	_ZN4_STL26__unguarded_insertion_sortIP6b2PairPFbRKS1_S4_EEEvT_S7_T0_
	.hidden	_ZN4_STL26__unguarded_insertion_sortIP6b2PairPFbRKS1_S4_EEEvT_S7_T0_
	.type	_ZN4_STL26__unguarded_insertion_sortIP6b2PairPFbRKS1_S4_EEEvT_S7_T0_, %function
_ZN4_STL26__unguarded_insertion_sortIP6b2PairPFbRKS1_S4_EEEvT_S7_T0_:
.LFB816:
	.loc 10 787 0
	.cfi_startproc
	@ args = 0, pretend = 0, frame = 16
	@ frame_needed = 0, uses_anonymous_args = 0
	str	lr, [sp, #-4]!
.LCFI77:
	.cfi_def_cfa_offset 4
	sub	sp, sp, #20
.LCFI78:
	.cfi_def_cfa_offset 24
	str	r0, [sp, #12]
	str	r1, [sp, #8]
	str	r2, [sp, #4]
	.loc 10 790 0
	ldr	r0, [sp, #12]
	ldr	r1, [sp, #8]
	mov	r2, #0
	ldr	r3, [sp, #4]
	.cfi_offset 14, -4
	bl	_ZN4_STL30__unguarded_insertion_sort_auxIP6b2PairS1_PFbRKS1_S4_EEEvT_S7_PT0_T1_
	.loc 10 791 0
	add	sp, sp, #20
	ldmfd	sp!, {pc}
	.cfi_endproc
.LFE816:
	.size	_ZN4_STL26__unguarded_insertion_sortIP6b2PairPFbRKS1_S4_EEEvT_S7_T0_, .-_ZN4_STL26__unguarded_insertion_sortIP6b2PairPFbRKS1_S4_EEEvT_S7_T0_
	.section	.text._ZN4_STL14__partial_sortIP6b2PairS1_PFbRKS1_S4_EEEvT_S7_S7_PT0_T1_,"axG",%progbits,_ZN4_STL14__partial_sortIP6b2PairS1_PFbRKS1_S4_EEEvT_S7_S7_PT0_T1_,comdat
	.align	2
	.weak	_ZN4_STL14__partial_sortIP6b2PairS1_PFbRKS1_S4_EEEvT_S7_S7_PT0_T1_
	.hidden	_ZN4_STL14__partial_sortIP6b2PairS1_PFbRKS1_S4_EEEvT_S7_S7_PT0_T1_
	.type	_ZN4_STL14__partial_sortIP6b2PairS1_PFbRKS1_S4_EEEvT_S7_S7_PT0_T1_, %function
_ZN4_STL14__partial_sortIP6b2PairS1_PFbRKS1_S4_EEEvT_S7_S7_PT0_T1_:
.LFB817:
	.loc 10 1049 0
	.cfi_startproc
	@ args = 4, pretend = 0, frame = 32
	@ frame_needed = 0, uses_anonymous_args = 0
	str	lr, [sp, #-4]!
.LCFI79:
	.cfi_def_cfa_offset 4
	sub	sp, sp, #52
.LCFI80:
	.cfi_def_cfa_offset 56
	str	r0, [sp, #28]
	str	r1, [sp, #24]
	str	r2, [sp, #20]
	str	r3, [sp, #16]
.LBB29:
	.loc 10 1051 0
	ldr	r0, [sp, #28]
	ldr	r1, [sp, #24]
	ldr	r2, [sp, #56]
	.cfi_offset 14, -4
	bl	_ZN4_STL9make_heapIP6b2PairPFbRKS1_S4_EEEvT_S7_T0_
.LBB30:
	.loc 10 1052 0
	ldr	r3, [sp, #24]
	str	r3, [sp, #44]
	b	.L251
.L253:
	.loc 10 1053 0
	ldr	r3, [sp, #56]
	ldr	r0, [sp, #44]
	ldr	r1, [sp, #28]
	blx	r3
	mov	r3, r0
	cmp	r3, #0
	beq	.L252
	.loc 10 1054 0
	ldr	r2, [sp, #44]
	add	r3, sp, #36
	ldmia	r2, {r0, r1}
	stmia	r3, {r0, r1}
	ldr	r3, [sp, #56]
	str	r3, [sp, #4]
	mov	r3, #0
	str	r3, [sp, #8]
	ldr	r3, [sp, #40]
	str	r3, [sp, #0]
	ldr	r3, [sp, #36]
	ldr	r0, [sp, #28]
	ldr	r1, [sp, #24]
	ldr	r2, [sp, #44]
	bl	_ZN4_STL10__pop_heapIP6b2PairS1_PFbRKS1_S4_EiEEvT_S7_S7_T0_T1_PT2_
.L252:
	.loc 10 1052 0
	ldr	r3, [sp, #44]
	add	r3, r3, #8
	str	r3, [sp, #44]
.L251:
	ldr	r2, [sp, #44]
	ldr	r3, [sp, #20]
	cmp	r2, r3
	movcs	r3, #0
	movcc	r3, #1
	and	r3, r3, #255
	cmp	r3, #0
	bne	.L253
.LBE30:
	.loc 10 1056 0
	ldr	r0, [sp, #28]
	ldr	r1, [sp, #24]
	ldr	r2, [sp, #56]
	bl	_ZN4_STL9sort_heapIP6b2PairPFbRKS1_S4_EEEvT_S7_T0_
.LBE29:
	.loc 10 1057 0
	add	sp, sp, #52
	ldmfd	sp!, {pc}
	.cfi_endproc
.LFE817:
	.size	_ZN4_STL14__partial_sortIP6b2PairS1_PFbRKS1_S4_EEEvT_S7_S7_PT0_T1_, .-_ZN4_STL14__partial_sortIP6b2PairS1_PFbRKS1_S4_EEEvT_S7_S7_PT0_T1_
	.section	.text._ZN4_STL9iter_swapIP6b2PairS2_EEvT_T0_,"axG",%progbits,_ZN4_STL9iter_swapIP6b2PairS2_EEvT_T0_,comdat
	.align	2
	.weak	_ZN4_STL9iter_swapIP6b2PairS2_EEvT_T0_
	.hidden	_ZN4_STL9iter_swapIP6b2PairS2_EEvT_T0_
	.type	_ZN4_STL9iter_swapIP6b2PairS2_EEvT_T0_, %function
_ZN4_STL9iter_swapIP6b2PairS2_EEvT_T0_:
.LFB818:
	.file 13 "c:/marmalade/6.3/s3e/h/std/c++/stl/_algobase.h"
	.loc 13 68 0
	.cfi_startproc
	@ args = 0, pretend = 0, frame = 8
	@ frame_needed = 0, uses_anonymous_args = 0
	str	lr, [sp, #-4]!
.LCFI81:
	.cfi_def_cfa_offset 4
	sub	sp, sp, #12
.LCFI82:
	.cfi_def_cfa_offset 16
	str	r0, [sp, #4]
	str	r1, [sp, #0]
	.loc 13 69 0
	ldr	r0, [sp, #4]
	ldr	r1, [sp, #0]
	.cfi_offset 14, -4
	bl	_ZN4_STL4swapI6b2PairEEvRT_S3_
	.loc 13 70 0
	add	sp, sp, #12
	ldmfd	sp!, {pc}
	.cfi_endproc
.LFE818:
	.size	_ZN4_STL9iter_swapIP6b2PairS2_EEvT_T0_, .-_ZN4_STL9iter_swapIP6b2PairS2_EEvT_T0_
	.section	.text._ZN4_STL15__linear_insertIP6b2PairS1_PFbRKS1_S4_EEEvT_S7_T0_T1_,"axG",%progbits,_ZN4_STL15__linear_insertIP6b2PairS1_PFbRKS1_S4_EEEvT_S7_T0_T1_,comdat
	.align	2
	.weak	_ZN4_STL15__linear_insertIP6b2PairS1_PFbRKS1_S4_EEEvT_S7_T0_T1_
	.hidden	_ZN4_STL15__linear_insertIP6b2PairS1_PFbRKS1_S4_EEEvT_S7_T0_T1_
	.type	_ZN4_STL15__linear_insertIP6b2PairS1_PFbRKS1_S4_EEEvT_S7_T0_T1_, %function
_ZN4_STL15__linear_insertIP6b2PairS1_PFbRKS1_S4_EEEvT_S7_T0_T1_:
.LFB819:
	.loc 10 758 0
	.cfi_startproc
	@ args = 4, pretend = 0, frame = 16
	@ frame_needed = 0, uses_anonymous_args = 0
	str	lr, [sp, #-4]!
.LCFI83:
	.cfi_def_cfa_offset 4
	sub	sp, sp, #20
.LCFI84:
	.cfi_def_cfa_offset 24
	str	r0, [sp, #12]
	str	r1, [sp, #8]
	mov	r1, sp
	stmia	r1, {r2, r3}
	.loc 10 762 0
	mov	r2, sp
	ldr	r3, [sp, #24]
	mov	r0, r2
	ldr	r1, [sp, #12]
	.cfi_offset 14, -4
	blx	r3
	mov	r3, r0
	cmp	r3, #0
	beq	.L258
	.loc 10 763 0
	ldr	r3, [sp, #8]
	add	r3, r3, #8
	ldr	r0, [sp, #12]
	ldr	r1, [sp, #8]
	mov	r2, r3
	bl	_ZN4_STL13copy_backwardIP6b2PairS2_EET0_T_S4_S3_
	.loc 10 764 0
	ldr	r3, [sp, #12]
	mov	r2, sp
	ldmia	r2, {r0, r1}
	stmia	r3, {r0, r1}
	b	.L260
.L258:
	.loc 10 767 0
	ldr	r0, [sp, #8]
	mov	r3, sp
	ldmia	r3, {r1, r2}
	ldr	r3, [sp, #24]
	bl	_ZN4_STL25__unguarded_linear_insertIP6b2PairS1_PFbRKS1_S4_EEEvT_T0_T1_
.L260:
	.loc 10 768 0
	add	sp, sp, #20
	ldmfd	sp!, {pc}
	.cfi_endproc
.LFE819:
	.size	_ZN4_STL15__linear_insertIP6b2PairS1_PFbRKS1_S4_EEEvT_S7_T0_T1_, .-_ZN4_STL15__linear_insertIP6b2PairS1_PFbRKS1_S4_EEEvT_S7_T0_T1_
	.section	.text._ZN4_STL30__unguarded_insertion_sort_auxIP6b2PairS1_PFbRKS1_S4_EEEvT_S7_PT0_T1_,"axG",%progbits,_ZN4_STL30__unguarded_insertion_sort_auxIP6b2PairS1_PFbRKS1_S4_EEEvT_S7_PT0_T1_,comdat
	.align	2
	.weak	_ZN4_STL30__unguarded_insertion_sort_auxIP6b2PairS1_PFbRKS1_S4_EEEvT_S7_PT0_T1_
	.hidden	_ZN4_STL30__unguarded_insertion_sort_auxIP6b2PairS1_PFbRKS1_S4_EEEvT_S7_PT0_T1_
	.type	_ZN4_STL30__unguarded_insertion_sort_auxIP6b2PairS1_PFbRKS1_S4_EEEvT_S7_PT0_T1_, %function
_ZN4_STL30__unguarded_insertion_sort_auxIP6b2PairS1_PFbRKS1_S4_EEEvT_S7_PT0_T1_:
.LFB820:
	.loc 10 779 0
	.cfi_startproc
	@ args = 0, pretend = 0, frame = 32
	@ frame_needed = 0, uses_anonymous_args = 0
	str	lr, [sp, #-4]!
.LCFI85:
	.cfi_def_cfa_offset 4
	sub	sp, sp, #36
.LCFI86:
	.cfi_def_cfa_offset 40
	str	r0, [sp, #12]
	str	r1, [sp, #8]
	str	r2, [sp, #4]
	str	r3, [sp, #0]
.LBB31:
.LBB32:
	.loc 10 782 0
	ldr	r3, [sp, #12]
	str	r3, [sp, #28]
	b	.L262
	.cfi_offset 14, -4
.L263:
	.loc 10 783 0
	ldr	r2, [sp, #28]
	add	r3, sp, #20
	ldmia	r2, {r0, r1}
	stmia	r3, {r0, r1}
	ldr	r0, [sp, #28]
	add	r3, sp, #20
	ldmia	r3, {r1, r2}
	ldr	r3, [sp, #0]
	bl	_ZN4_STL25__unguarded_linear_insertIP6b2PairS1_PFbRKS1_S4_EEEvT_T0_T1_
	.loc 10 782 0
	ldr	r3, [sp, #28]
	add	r3, r3, #8
	str	r3, [sp, #28]
.L262:
	ldr	r2, [sp, #28]
	ldr	r3, [sp, #8]
	cmp	r2, r3
	moveq	r3, #0
	movne	r3, #1
	and	r3, r3, #255
	cmp	r3, #0
	bne	.L263
.LBE32:
.LBE31:
	.loc 10 784 0
	add	sp, sp, #36
	ldmfd	sp!, {pc}
	.cfi_endproc
.LFE820:
	.size	_ZN4_STL30__unguarded_insertion_sort_auxIP6b2PairS1_PFbRKS1_S4_EEEvT_S7_PT0_T1_, .-_ZN4_STL30__unguarded_insertion_sort_auxIP6b2PairS1_PFbRKS1_S4_EEEvT_S7_PT0_T1_
	.section	.text._ZN4_STL9make_heapIP6b2PairPFbRKS1_S4_EEEvT_S7_T0_,"axG",%progbits,_ZN4_STL9make_heapIP6b2PairPFbRKS1_S4_EEEvT_S7_T0_,comdat
	.align	2
	.weak	_ZN4_STL9make_heapIP6b2PairPFbRKS1_S4_EEEvT_S7_T0_
	.hidden	_ZN4_STL9make_heapIP6b2PairPFbRKS1_S4_EEEvT_S7_T0_
	.type	_ZN4_STL9make_heapIP6b2PairPFbRKS1_S4_EEEvT_S7_T0_, %function
_ZN4_STL9make_heapIP6b2PairPFbRKS1_S4_EEEvT_S7_T0_:
.LFB821:
	.file 14 "c:/marmalade/6.3/s3e/h/std/c++/stl/_heap.c"
	.loc 14 230 0
	.cfi_startproc
	@ args = 0, pretend = 0, frame = 16
	@ frame_needed = 0, uses_anonymous_args = 0
	str	lr, [sp, #-4]!
.LCFI87:
	.cfi_def_cfa_offset 4
	sub	sp, sp, #28
.LCFI88:
	.cfi_def_cfa_offset 32
	str	r0, [sp, #20]
	str	r1, [sp, #16]
	str	r2, [sp, #12]
	.loc 14 232 0
	mov	r3, #0
	str	r3, [sp, #0]
	ldr	r0, [sp, #20]
	ldr	r1, [sp, #16]
	ldr	r2, [sp, #12]
	mov	r3, #0
	.cfi_offset 14, -4
	bl	_ZN4_STL11__make_heapIP6b2PairPFbRKS1_S4_ES1_iEEvT_S7_T0_PT1_PT2_
	.loc 14 234 0
	add	sp, sp, #28
	ldmfd	sp!, {pc}
	.cfi_endproc
.LFE821:
	.size	_ZN4_STL9make_heapIP6b2PairPFbRKS1_S4_EEEvT_S7_T0_, .-_ZN4_STL9make_heapIP6b2PairPFbRKS1_S4_EEEvT_S7_T0_
	.section	.text._ZN4_STL10__pop_heapIP6b2PairS1_PFbRKS1_S4_EiEEvT_S7_S7_T0_T1_PT2_,"axG",%progbits,_ZN4_STL10__pop_heapIP6b2PairS1_PFbRKS1_S4_EiEEvT_S7_S7_T0_T1_PT2_,comdat
	.align	2
	.weak	_ZN4_STL10__pop_heapIP6b2PairS1_PFbRKS1_S4_EiEEvT_S7_S7_T0_T1_PT2_
	.hidden	_ZN4_STL10__pop_heapIP6b2PairS1_PFbRKS1_S4_EiEEvT_S7_S7_T0_T1_PT2_
	.type	_ZN4_STL10__pop_heapIP6b2PairS1_PFbRKS1_S4_EiEEvT_S7_S7_T0_T1_PT2_, %function
_ZN4_STL10__pop_heapIP6b2PairS1_PFbRKS1_S4_EiEEvT_S7_S7_T0_T1_PT2_:
.LFB822:
	.file 15 "c:/marmalade/6.3/s3e/h/std/c++/stl/_heap.h"
	.loc 15 78 0
	.cfi_startproc
	@ args = 20, pretend = 8, frame = 16
	@ frame_needed = 0, uses_anonymous_args = 0
	sub	sp, sp, #8
.LCFI89:
	.cfi_def_cfa_offset 8
	str	lr, [sp, #-4]!
.LCFI90:
	.cfi_def_cfa_offset 12
	sub	sp, sp, #28
.LCFI91:
	.cfi_def_cfa_offset 40
	str	r0, [sp, #20]
	str	r1, [sp, #16]
	str	r2, [sp, #12]
	str	r3, [sp, #36]
	.loc 15 82 0
	ldr	r3, [sp, #12]
	ldr	r2, [sp, #20]
	ldmia	r2, {r0, r1}
	stmia	r3, {r0, r1}
	.loc 15 83 0
	ldr	r2, [sp, #16]
	ldr	r3, [sp, #20]
	rsb	r3, r3, r2
	mov	r3, r3, asr #3
	mov	r2, r3
	ldr	r3, [sp, #44]
	str	r3, [sp, #4]
	ldr	r3, [sp, #40]
	str	r3, [sp, #0]
	ldr	r3, [sp, #36]
	ldr	r0, [sp, #20]
	mov	r1, #0
	.cfi_offset 14, -12
	bl	_ZN4_STL13__adjust_heapIP6b2PairiS1_PFbRKS1_S4_EEEvT_T0_S8_T1_T2_
	.loc 15 85 0
	add	sp, sp, #28
	ldr	lr, [sp], #4
	add	sp, sp, #8
	bx	lr
	.cfi_endproc
.LFE822:
	.size	_ZN4_STL10__pop_heapIP6b2PairS1_PFbRKS1_S4_EiEEvT_S7_S7_T0_T1_PT2_, .-_ZN4_STL10__pop_heapIP6b2PairS1_PFbRKS1_S4_EiEEvT_S7_S7_T0_T1_PT2_
	.section	.text._ZN4_STL9sort_heapIP6b2PairPFbRKS1_S4_EEEvT_S7_T0_,"axG",%progbits,_ZN4_STL9sort_heapIP6b2PairPFbRKS1_S4_EEEvT_S7_T0_,comdat
	.align	2
	.weak	_ZN4_STL9sort_heapIP6b2PairPFbRKS1_S4_EEEvT_S7_T0_
	.hidden	_ZN4_STL9sort_heapIP6b2PairPFbRKS1_S4_EEEvT_S7_T0_
	.type	_ZN4_STL9sort_heapIP6b2PairPFbRKS1_S4_EEEvT_S7_T0_, %function
_ZN4_STL9sort_heapIP6b2PairPFbRKS1_S4_EEEvT_S7_T0_:
.LFB823:
	.loc 15 112 0
	.cfi_startproc
	@ args = 0, pretend = 0, frame = 16
	@ frame_needed = 0, uses_anonymous_args = 0
	str	lr, [sp, #-4]!
.LCFI92:
	.cfi_def_cfa_offset 4
	sub	sp, sp, #20
.LCFI93:
	.cfi_def_cfa_offset 24
	str	r0, [sp, #12]
	str	r1, [sp, #8]
	str	r2, [sp, #4]
	.loc 15 115 0
	b	.L270
	.cfi_offset 14, -4
.L271:
	.loc 15 116 0
	ldr	r3, [sp, #8]
	ldr	r2, [sp, #8]
	sub	r2, r2, #8
	str	r2, [sp, #8]
	ldr	r0, [sp, #12]
	mov	r1, r3
	ldr	r2, [sp, #4]
	bl	_ZN4_STL8pop_heapIP6b2PairPFbRKS1_S4_EEEvT_S7_T0_
.L270:
	.loc 15 115 0
	ldr	r2, [sp, #8]
	ldr	r3, [sp, #12]
	rsb	r3, r3, r2
	cmp	r3, #15
	movle	r3, #0
	movgt	r3, #1
	and	r3, r3, #255
	cmp	r3, #0
	bne	.L271
	.loc 15 117 0
	add	sp, sp, #20
	ldmfd	sp!, {pc}
	.cfi_endproc
.LFE823:
	.size	_ZN4_STL9sort_heapIP6b2PairPFbRKS1_S4_EEEvT_S7_T0_, .-_ZN4_STL9sort_heapIP6b2PairPFbRKS1_S4_EEEvT_S7_T0_
	.section	.text._ZN4_STL4swapI6b2PairEEvRT_S3_,"axG",%progbits,_ZN4_STL4swapI6b2PairEEvRT_S3_,comdat
	.align	2
	.weak	_ZN4_STL4swapI6b2PairEEvRT_S3_
	.hidden	_ZN4_STL4swapI6b2PairEEvRT_S3_
	.type	_ZN4_STL4swapI6b2PairEEvRT_S3_, %function
_ZN4_STL4swapI6b2PairEEvRT_S3_:
.LFB824:
	.loc 13 61 0
	.cfi_startproc
	@ args = 0, pretend = 0, frame = 16
	@ frame_needed = 0, uses_anonymous_args = 0
	@ link register save eliminated.
	sub	sp, sp, #16
.LCFI94:
	.cfi_def_cfa_offset 16
	str	r0, [sp, #4]
	str	r1, [sp, #0]
.LBB33:
	.loc 13 62 0
	ldr	r2, [sp, #4]
	add	r3, sp, #8
	ldmia	r2, {r0, r1}
	stmia	r3, {r0, r1}
	.loc 13 63 0
	ldr	r3, [sp, #4]
	ldr	r2, [sp, #0]
	ldmia	r2, {r0, r1}
	stmia	r3, {r0, r1}
	.loc 13 64 0
	ldr	r3, [sp, #0]
	add	r2, sp, #8
	ldmia	r2, {r0, r1}
	stmia	r3, {r0, r1}
.LBE33:
	.loc 13 65 0
	add	sp, sp, #16
	bx	lr
	.cfi_endproc
.LFE824:
	.size	_ZN4_STL4swapI6b2PairEEvRT_S3_, .-_ZN4_STL4swapI6b2PairEEvRT_S3_
	.section	.text._ZN4_STL13copy_backwardIP6b2PairS2_EET0_T_S4_S3_,"axG",%progbits,_ZN4_STL13copy_backwardIP6b2PairS2_EET0_T_S4_S3_,comdat
	.align	2
	.weak	_ZN4_STL13copy_backwardIP6b2PairS2_EET0_T_S4_S3_
	.hidden	_ZN4_STL13copy_backwardIP6b2PairS2_EET0_T_S4_S3_
	.type	_ZN4_STL13copy_backwardIP6b2PairS2_EET0_T_S4_S3_, %function
_ZN4_STL13copy_backwardIP6b2PairS2_EET0_T_S4_S3_:
.LFB825:
	.loc 13 241 0
	.cfi_startproc
	@ args = 0, pretend = 0, frame = 24
	@ frame_needed = 0, uses_anonymous_args = 0
	str	lr, [sp, #-4]!
.LCFI95:
	.cfi_def_cfa_offset 4
	sub	sp, sp, #28
.LCFI96:
	.cfi_def_cfa_offset 32
	str	r0, [sp, #12]
	str	r1, [sp, #8]
	str	r2, [sp, #4]
	.loc 13 243 0
	.cfi_offset 14, -4
	bl	_ZN4_STL12_BothPtrTypeIP6b2PairS2_E4_RetEv
	mov	r3, r0
	strb	r3, [sp, #20]
	add	r3, sp, #20
	ldr	r0, [sp, #12]
	ldr	r1, [sp, #8]
	ldr	r2, [sp, #4]
	bl	_ZN4_STL19__copy_backward_auxIP6b2PairS2_EET0_T_S4_S3_RKNS_11__true_typeE
	mov	r3, r0
	.loc 13 244 0
	mov	r0, r3
	add	sp, sp, #28
	ldmfd	sp!, {pc}
	.cfi_endproc
.LFE825:
	.size	_ZN4_STL13copy_backwardIP6b2PairS2_EET0_T_S4_S3_, .-_ZN4_STL13copy_backwardIP6b2PairS2_EET0_T_S4_S3_
	.section	.text._ZN4_STL25__unguarded_linear_insertIP6b2PairS1_PFbRKS1_S4_EEEvT_T0_T1_,"axG",%progbits,_ZN4_STL25__unguarded_linear_insertIP6b2PairS1_PFbRKS1_S4_EEEvT_T0_T1_,comdat
	.align	2
	.weak	_ZN4_STL25__unguarded_linear_insertIP6b2PairS1_PFbRKS1_S4_EEEvT_T0_T1_
	.hidden	_ZN4_STL25__unguarded_linear_insertIP6b2PairS1_PFbRKS1_S4_EEEvT_T0_T1_
	.type	_ZN4_STL25__unguarded_linear_insertIP6b2PairS1_PFbRKS1_S4_EEEvT_T0_T1_, %function
_ZN4_STL25__unguarded_linear_insertIP6b2PairS1_PFbRKS1_S4_EEEvT_T0_T1_:
.LFB826:
	.loc 10 745 0
	.cfi_startproc
	@ args = 0, pretend = 0, frame = 24
	@ frame_needed = 0, uses_anonymous_args = 0
	str	lr, [sp, #-4]!
.LCFI97:
	.cfi_def_cfa_offset 4
	sub	sp, sp, #28
.LCFI98:
	.cfi_def_cfa_offset 32
	str	r0, [sp, #12]
	add	r0, sp, #4
	stmia	r0, {r1, r2}
	str	r3, [sp, #0]
.LBB34:
	.loc 10 747 0
	ldr	r3, [sp, #12]
	str	r3, [sp, #20]
	.loc 10 748 0
	ldr	r3, [sp, #20]
	sub	r3, r3, #8
	str	r3, [sp, #20]
	.loc 10 749 0
	b	.L278
	.cfi_offset 14, -4
.L279:
	.loc 10 750 0
	ldr	r3, [sp, #12]
	ldr	r2, [sp, #20]
	ldmia	r2, {r0, r1}
	stmia	r3, {r0, r1}
	.loc 10 751 0
	ldr	r3, [sp, #20]
	str	r3, [sp, #12]
	.loc 10 752 0
	ldr	r3, [sp, #20]
	sub	r3, r3, #8
	str	r3, [sp, #20]
.L278:
	.loc 10 749 0
	add	r2, sp, #4
	ldr	r3, [sp, #0]
	mov	r0, r2
	ldr	r1, [sp, #20]
	blx	r3
	mov	r3, r0
	cmp	r3, #0
	bne	.L279
	.loc 10 754 0
	ldr	r3, [sp, #12]
	add	r2, sp, #4
	ldmia	r2, {r0, r1}
	stmia	r3, {r0, r1}
.LBE34:
	.loc 10 755 0
	add	sp, sp, #28
	ldmfd	sp!, {pc}
	.cfi_endproc
.LFE826:
	.size	_ZN4_STL25__unguarded_linear_insertIP6b2PairS1_PFbRKS1_S4_EEEvT_T0_T1_, .-_ZN4_STL25__unguarded_linear_insertIP6b2PairS1_PFbRKS1_S4_EEEvT_T0_T1_
	.section	.text._ZN4_STL11__make_heapIP6b2PairPFbRKS1_S4_ES1_iEEvT_S7_T0_PT1_PT2_,"axG",%progbits,_ZN4_STL11__make_heapIP6b2PairPFbRKS1_S4_ES1_iEEvT_S7_T0_PT1_PT2_,comdat
	.align	2
	.weak	_ZN4_STL11__make_heapIP6b2PairPFbRKS1_S4_ES1_iEEvT_S7_T0_PT1_PT2_
	.hidden	_ZN4_STL11__make_heapIP6b2PairPFbRKS1_S4_ES1_iEEvT_S7_T0_PT1_PT2_
	.type	_ZN4_STL11__make_heapIP6b2PairPFbRKS1_S4_ES1_iEEvT_S7_T0_PT1_PT2_, %function
_ZN4_STL11__make_heapIP6b2PairPFbRKS1_S4_ES1_iEEvT_S7_T0_PT1_PT2_:
.LFB827:
	.loc 14 212 0
	.cfi_startproc
	@ args = 4, pretend = 0, frame = 32
	@ frame_needed = 0, uses_anonymous_args = 0
	str	lr, [sp, #-4]!
.LCFI99:
	.cfi_def_cfa_offset 4
	sub	sp, sp, #44
.LCFI100:
	.cfi_def_cfa_offset 48
	str	r0, [sp, #20]
	str	r1, [sp, #16]
	str	r2, [sp, #12]
	str	r3, [sp, #8]
.LBB35:
	.loc 14 215 0
	ldr	r2, [sp, #16]
	ldr	r3, [sp, #20]
	rsb	r3, r3, r2
	cmp	r3, #15
	ble	.L287
	.cfi_offset 14, -4
.L282:
	.loc 14 216 0
	ldr	r2, [sp, #16]
	ldr	r3, [sp, #20]
	rsb	r3, r3, r2
	mov	r3, r3, asr #3
	str	r3, [sp, #32]
	.loc 14 217 0
	ldr	r3, [sp, #32]
	sub	r3, r3, #2
	mov	r2, r3, lsr #31
	add	r3, r2, r3
	mov	r3, r3, asr #1
	str	r3, [sp, #36]
.L285:
	.loc 14 220 0
	ldr	r3, [sp, #36]
	mov	r2, r3, asl #3
	ldr	r3, [sp, #20]
	add	r2, r2, r3
	add	r3, sp, #24
	ldmia	r2, {r0, r1}
	stmia	r3, {r0, r1}
	ldr	r3, [sp, #12]
	str	r3, [sp, #4]
	ldr	r3, [sp, #28]
	str	r3, [sp, #0]
	ldr	r3, [sp, #24]
	ldr	r0, [sp, #20]
	ldr	r1, [sp, #36]
	ldr	r2, [sp, #32]
	bl	_ZN4_STL13__adjust_heapIP6b2PairiS1_PFbRKS1_S4_EEEvT_T0_S8_T1_T2_
	.loc 14 222 0
	ldr	r3, [sp, #36]
	cmp	r3, #0
	beq	.L288
.L284:
	.loc 14 223 0
	ldr	r3, [sp, #36]
	sub	r3, r3, #1
	str	r3, [sp, #36]
	.loc 14 219 0
	b	.L285
.L287:
	.loc 14 215 0
	mov	r0, r0	@ nop
	b	.L286
.L288:
	.loc 14 222 0
	mov	r0, r0	@ nop
.L286:
.LBE35:
	.loc 14 225 0
	add	sp, sp, #44
	ldmfd	sp!, {pc}
	.cfi_endproc
.LFE827:
	.size	_ZN4_STL11__make_heapIP6b2PairPFbRKS1_S4_ES1_iEEvT_S7_T0_PT1_PT2_, .-_ZN4_STL11__make_heapIP6b2PairPFbRKS1_S4_ES1_iEEvT_S7_T0_PT1_PT2_
	.section	.text._ZN4_STL13__adjust_heapIP6b2PairiS1_PFbRKS1_S4_EEEvT_T0_S8_T1_T2_,"axG",%progbits,_ZN4_STL13__adjust_heapIP6b2PairiS1_PFbRKS1_S4_EEEvT_T0_S8_T1_T2_,comdat
	.align	2
	.weak	_ZN4_STL13__adjust_heapIP6b2PairiS1_PFbRKS1_S4_EEEvT_T0_S8_T1_T2_
	.hidden	_ZN4_STL13__adjust_heapIP6b2PairiS1_PFbRKS1_S4_EEEvT_T0_S8_T1_T2_
	.type	_ZN4_STL13__adjust_heapIP6b2PairiS1_PFbRKS1_S4_EEEvT_T0_S8_T1_T2_, %function
_ZN4_STL13__adjust_heapIP6b2PairiS1_PFbRKS1_S4_EEEvT_T0_S8_T1_T2_:
.LFB828:
	.loc 14 146 0
	.cfi_startproc
	@ args = 16, pretend = 8, frame = 24
	@ frame_needed = 0, uses_anonymous_args = 0
	sub	sp, sp, #8
.LCFI101:
	.cfi_def_cfa_offset 8
	str	lr, [sp, #-4]!
.LCFI102:
	.cfi_def_cfa_offset 12
	sub	sp, sp, #36
.LCFI103:
	.cfi_def_cfa_offset 48
	str	r0, [sp, #20]
	str	r1, [sp, #16]
	str	r2, [sp, #12]
	str	r3, [sp, #44]
.LBB36:
	.loc 14 148 0
	ldr	r3, [sp, #16]
	str	r3, [sp, #24]
	.loc 14 149 0
	ldr	r3, [sp, #16]
	add	r3, r3, #1
	mov	r3, r3, asl #1
	str	r3, [sp, #28]
	.loc 14 150 0
	b	.L290
	.cfi_offset 14, -12
.L292:
	.loc 14 151 0
	ldr	r3, [sp, #28]
	mov	r2, r3, asl #3
	ldr	r3, [sp, #20]
	add	r1, r2, r3
	ldr	r3, [sp, #28]
	sub	r3, r3, #1
	mov	r2, r3, asl #3
	ldr	r3, [sp, #20]
	add	r2, r2, r3
	ldr	r3, [sp, #52]
	mov	r0, r1
	mov	r1, r2
	blx	r3
	mov	r3, r0
	cmp	r3, #0
	beq	.L291
	.loc 14 152 0
	ldr	r3, [sp, #28]
	sub	r3, r3, #1
	str	r3, [sp, #28]
.L291:
	.loc 14 153 0
	ldr	r3, [sp, #16]
	mov	r2, r3, asl #3
	ldr	r3, [sp, #20]
	add	r3, r2, r3
	ldr	r2, [sp, #28]
	mov	r1, r2, asl #3
	ldr	r2, [sp, #20]
	add	r2, r1, r2
	ldmia	r2, {r0, r1}
	stmia	r3, {r0, r1}
	.loc 14 154 0
	ldr	r3, [sp, #28]
	str	r3, [sp, #16]
	.loc 14 155 0
	ldr	r3, [sp, #28]
	add	r3, r3, #1
	mov	r3, r3, asl #1
	str	r3, [sp, #28]
.L290:
	.loc 14 150 0
	ldr	r2, [sp, #28]
	ldr	r3, [sp, #12]
	cmp	r2, r3
	movge	r3, #0
	movlt	r3, #1
	and	r3, r3, #255
	cmp	r3, #0
	bne	.L292
	.loc 14 157 0
	ldr	r2, [sp, #28]
	ldr	r3, [sp, #12]
	cmp	r2, r3
	bne	.L293
	.loc 14 158 0
	ldr	r3, [sp, #16]
	mov	r2, r3, asl #3
	ldr	r3, [sp, #20]
	add	r3, r2, r3
	ldr	r2, [sp, #28]
	sub	r2, r2, #1
	mov	r1, r2, asl #3
	ldr	r2, [sp, #20]
	add	r2, r1, r2
	ldmia	r2, {r0, r1}
	stmia	r3, {r0, r1}
	.loc 14 159 0
	ldr	r3, [sp, #28]
	sub	r3, r3, #1
	str	r3, [sp, #16]
.L293:
	.loc 14 161 0
	ldr	r3, [sp, #52]
	str	r3, [sp, #4]
	ldr	r3, [sp, #48]
	str	r3, [sp, #0]
	ldr	r3, [sp, #44]
	ldr	r0, [sp, #20]
	ldr	r1, [sp, #16]
	ldr	r2, [sp, #24]
	bl	_ZN4_STL11__push_heapIP6b2PairiS1_PFbRKS1_S4_EEEvT_T0_S8_T1_T2_
.LBE36:
	.loc 14 162 0
	add	sp, sp, #36
	ldr	lr, [sp], #4
	add	sp, sp, #8
	bx	lr
	.cfi_endproc
.LFE828:
	.size	_ZN4_STL13__adjust_heapIP6b2PairiS1_PFbRKS1_S4_EEEvT_T0_S8_T1_T2_, .-_ZN4_STL13__adjust_heapIP6b2PairiS1_PFbRKS1_S4_EEEvT_T0_S8_T1_T2_
	.section	.text._ZN4_STL8pop_heapIP6b2PairPFbRKS1_S4_EEEvT_S7_T0_,"axG",%progbits,_ZN4_STL8pop_heapIP6b2PairPFbRKS1_S4_EEEvT_S7_T0_,comdat
	.align	2
	.weak	_ZN4_STL8pop_heapIP6b2PairPFbRKS1_S4_EEEvT_S7_T0_
	.hidden	_ZN4_STL8pop_heapIP6b2PairPFbRKS1_S4_EEEvT_S7_T0_
	.type	_ZN4_STL8pop_heapIP6b2PairPFbRKS1_S4_EEEvT_S7_T0_, %function
_ZN4_STL8pop_heapIP6b2PairPFbRKS1_S4_EEEvT_S7_T0_:
.LFB829:
	.loc 14 178 0
	.cfi_startproc
	@ args = 0, pretend = 0, frame = 16
	@ frame_needed = 0, uses_anonymous_args = 0
	str	lr, [sp, #-4]!
.LCFI104:
	.cfi_def_cfa_offset 4
	sub	sp, sp, #20
.LCFI105:
	.cfi_def_cfa_offset 24
	str	r0, [sp, #12]
	str	r1, [sp, #8]
	str	r2, [sp, #4]
	.loc 14 180 0
	ldr	r0, [sp, #12]
	ldr	r1, [sp, #8]
	mov	r2, #0
	ldr	r3, [sp, #4]
	.cfi_offset 14, -4
	bl	_ZN4_STL14__pop_heap_auxIP6b2PairS1_PFbRKS1_S4_EEEvT_S7_PT0_T1_
	.loc 14 181 0
	add	sp, sp, #20
	ldmfd	sp!, {pc}
	.cfi_endproc
.LFE829:
	.size	_ZN4_STL8pop_heapIP6b2PairPFbRKS1_S4_EEEvT_S7_T0_, .-_ZN4_STL8pop_heapIP6b2PairPFbRKS1_S4_EEEvT_S7_T0_
	.section	.text._ZN4_STL12_BothPtrTypeIP6b2PairS2_E4_RetEv,"axG",%progbits,_ZN4_STL12_BothPtrTypeIP6b2PairS2_E4_RetEv,comdat
	.align	2
	.weak	_ZN4_STL12_BothPtrTypeIP6b2PairS2_E4_RetEv
	.hidden	_ZN4_STL12_BothPtrTypeIP6b2PairS2_E4_RetEv
	.type	_ZN4_STL12_BothPtrTypeIP6b2PairS2_E4_RetEv, %function
_ZN4_STL12_BothPtrTypeIP6b2PairS2_E4_RetEv:
.LFB830:
	.file 16 "c:/marmalade/6.3/s3e/h/std/c++/stl/type_traits.h"
	.loc 16 234 0
	.cfi_startproc
	@ args = 0, pretend = 0, frame = 0
	@ frame_needed = 0, uses_anonymous_args = 0
	@ link register save eliminated.
	.loc 16 234 0
	mov	r0, r3
	bx	lr
	.cfi_endproc
.LFE830:
	.size	_ZN4_STL12_BothPtrTypeIP6b2PairS2_E4_RetEv, .-_ZN4_STL12_BothPtrTypeIP6b2PairS2_E4_RetEv
	.section	.text._ZN4_STL19__copy_backward_auxIP6b2PairS2_EET0_T_S4_S3_RKNS_11__true_typeE,"axG",%progbits,_ZN4_STL19__copy_backward_auxIP6b2PairS2_EET0_T_S4_S3_RKNS_11__true_typeE,comdat
	.align	2
	.weak	_ZN4_STL19__copy_backward_auxIP6b2PairS2_EET0_T_S4_S3_RKNS_11__true_typeE
	.hidden	_ZN4_STL19__copy_backward_auxIP6b2PairS2_EET0_T_S4_S3_RKNS_11__true_typeE
	.type	_ZN4_STL19__copy_backward_auxIP6b2PairS2_EET0_T_S4_S3_RKNS_11__true_typeE, %function
_ZN4_STL19__copy_backward_auxIP6b2PairS2_EET0_T_S4_S3_RKNS_11__true_typeE:
.LFB831:
	.loc 13 234 0
	.cfi_startproc
	@ args = 0, pretend = 0, frame = 24
	@ frame_needed = 0, uses_anonymous_args = 0
	str	lr, [sp, #-4]!
.LCFI106:
	.cfi_def_cfa_offset 4
	sub	sp, sp, #28
.LCFI107:
	.cfi_def_cfa_offset 32
	str	r0, [sp, #12]
	str	r1, [sp, #8]
	str	r2, [sp, #4]
	str	r3, [sp, #0]
	.loc 13 237 0
	mov	r0, #0
	mov	r1, #0
	.cfi_offset 14, -4
	bl	_ZN4_STL13_IsOKToMemCpyI6b2PairS1_EENS_11_OKToMemCpyIT_T0_EEPS3_PS4_
	mov	r3, r0
	strb	r3, [sp, #16]
	bl	_ZN4_STL11_OKToMemCpyI6b2PairS1_E4_RetEv
	mov	r3, r0
	strb	r3, [sp, #20]
	add	r3, sp, #20
	ldr	r0, [sp, #12]
	ldr	r1, [sp, #8]
	ldr	r2, [sp, #4]
	bl	_ZN4_STL20__copy_backward_ptrsIP6b2PairS2_EET0_T_S4_S3_RKNS_12__false_typeE
	mov	r3, r0
	.loc 13 238 0
	mov	r0, r3
	add	sp, sp, #28
	ldmfd	sp!, {pc}
	.cfi_endproc
.LFE831:
	.size	_ZN4_STL19__copy_backward_auxIP6b2PairS2_EET0_T_S4_S3_RKNS_11__true_typeE, .-_ZN4_STL19__copy_backward_auxIP6b2PairS2_EET0_T_S4_S3_RKNS_11__true_typeE
	.section	.text._ZN4_STL11__push_heapIP6b2PairiS1_PFbRKS1_S4_EEEvT_T0_S8_T1_T2_,"axG",%progbits,_ZN4_STL11__push_heapIP6b2PairiS1_PFbRKS1_S4_EEEvT_T0_S8_T1_T2_,comdat
	.align	2
	.weak	_ZN4_STL11__push_heapIP6b2PairiS1_PFbRKS1_S4_EEEvT_T0_S8_T1_T2_
	.hidden	_ZN4_STL11__push_heapIP6b2PairiS1_PFbRKS1_S4_EEEvT_T0_S8_T1_T2_
	.type	_ZN4_STL11__push_heapIP6b2PairiS1_PFbRKS1_S4_EEEvT_T0_S8_T1_T2_, %function
_ZN4_STL11__push_heapIP6b2PairiS1_PFbRKS1_S4_EEEvT_T0_S8_T1_T2_:
.LFB832:
	.loc 14 76 0
	.cfi_startproc
	@ args = 16, pretend = 8, frame = 24
	@ frame_needed = 0, uses_anonymous_args = 0
	sub	sp, sp, #8
.LCFI108:
	.cfi_def_cfa_offset 8
	str	lr, [sp, #-4]!
.LCFI109:
	.cfi_def_cfa_offset 12
	sub	sp, sp, #28
.LCFI110:
	.cfi_def_cfa_offset 40
	str	r0, [sp, #12]
	str	r1, [sp, #8]
	str	r2, [sp, #4]
	str	r3, [sp, #36]
.LBB37:
	.loc 14 79 0
	ldr	r3, [sp, #8]
	sub	r3, r3, #1
	mov	r2, r3, lsr #31
	add	r3, r2, r3
	mov	r3, r3, asr #1
	str	r3, [sp, #20]
	.loc 14 80 0
	b	.L302
	.cfi_offset 14, -12
.L305:
	.loc 14 81 0
	ldr	r3, [sp, #8]
	mov	r2, r3, asl #3
	ldr	r3, [sp, #12]
	add	r3, r2, r3
	ldr	r2, [sp, #20]
	mov	r1, r2, asl #3
	ldr	r2, [sp, #12]
	add	r2, r1, r2
	ldmia	r2, {r0, r1}
	stmia	r3, {r0, r1}
	.loc 14 82 0
	ldr	r3, [sp, #20]
	str	r3, [sp, #8]
	.loc 14 83 0
	ldr	r3, [sp, #8]
	sub	r3, r3, #1
	mov	r2, r3, lsr #31
	add	r3, r2, r3
	mov	r3, r3, asr #1
	str	r3, [sp, #20]
.L302:
	.loc 14 80 0
	ldr	r2, [sp, #8]
	ldr	r3, [sp, #4]
	cmp	r2, r3
	ble	.L303
	ldr	r3, [sp, #20]
	mov	r2, r3, asl #3
	ldr	r3, [sp, #12]
	add	r1, r2, r3
	add	r2, sp, #36
	ldr	r3, [sp, #44]
	mov	r0, r1
	mov	r1, r2
	blx	r3
	mov	r3, r0
	cmp	r3, #0
	beq	.L303
	mov	r3, #1
	b	.L304
.L303:
	mov	r3, #0
.L304:
	cmp	r3, #0
	bne	.L305
	.loc 14 85 0
	ldr	r3, [sp, #8]
	mov	r2, r3, asl #3
	ldr	r3, [sp, #12]
	add	r3, r2, r3
	add	r2, sp, #36
	ldmia	r2, {r0, r1}
	stmia	r3, {r0, r1}
.LBE37:
	.loc 14 86 0
	add	sp, sp, #28
	ldr	lr, [sp], #4
	add	sp, sp, #8
	bx	lr
	.cfi_endproc
.LFE832:
	.size	_ZN4_STL11__push_heapIP6b2PairiS1_PFbRKS1_S4_EEEvT_T0_S8_T1_T2_, .-_ZN4_STL11__push_heapIP6b2PairiS1_PFbRKS1_S4_EEEvT_T0_S8_T1_T2_
	.section	.text._ZN4_STL14__pop_heap_auxIP6b2PairS1_PFbRKS1_S4_EEEvT_S7_PT0_T1_,"axG",%progbits,_ZN4_STL14__pop_heap_auxIP6b2PairS1_PFbRKS1_S4_EEEvT_S7_PT0_T1_,comdat
	.align	2
	.weak	_ZN4_STL14__pop_heap_auxIP6b2PairS1_PFbRKS1_S4_EEEvT_S7_PT0_T1_
	.hidden	_ZN4_STL14__pop_heap_auxIP6b2PairS1_PFbRKS1_S4_EEEvT_S7_PT0_T1_
	.type	_ZN4_STL14__pop_heap_auxIP6b2PairS1_PFbRKS1_S4_EEEvT_S7_PT0_T1_, %function
_ZN4_STL14__pop_heap_auxIP6b2PairS1_PFbRKS1_S4_EEEvT_S7_PT0_T1_:
.LFB833:
	.loc 14 167 0
	.cfi_startproc
	@ args = 0, pretend = 0, frame = 24
	@ frame_needed = 0, uses_anonymous_args = 0
	str	lr, [sp, #-4]!
.LCFI111:
	.cfi_def_cfa_offset 4
	sub	sp, sp, #44
.LCFI112:
	.cfi_def_cfa_offset 48
	str	r0, [sp, #28]
	str	r1, [sp, #24]
	str	r2, [sp, #20]
	str	r3, [sp, #16]
	.loc 14 170 0
	ldr	r3, [sp, #24]
	sub	ip, r3, #8
	ldr	r3, [sp, #24]
	sub	r2, r3, #8
	ldr	r3, [sp, #24]
	sub	r1, r3, #8
	add	r3, sp, #32
	ldmia	r1, {r0, r1}
	stmia	r3, {r0, r1}
	ldr	r3, [sp, #16]
	str	r3, [sp, #4]
	mov	r3, #0
	str	r3, [sp, #8]
	ldr	r3, [sp, #36]
	str	r3, [sp, #0]
	ldr	r3, [sp, #32]
	ldr	r0, [sp, #28]
	mov	r1, ip
	.cfi_offset 14, -4
	bl	_ZN4_STL10__pop_heapIP6b2PairS1_PFbRKS1_S4_EiEEvT_S7_S7_T0_T1_PT2_
	.loc 14 172 0
	add	sp, sp, #44
	ldmfd	sp!, {pc}
	.cfi_endproc
.LFE833:
	.size	_ZN4_STL14__pop_heap_auxIP6b2PairS1_PFbRKS1_S4_EEEvT_S7_PT0_T1_, .-_ZN4_STL14__pop_heap_auxIP6b2PairS1_PFbRKS1_S4_EEEvT_S7_PT0_T1_
	.section	.text._ZN4_STL13_IsOKToMemCpyI6b2PairS1_EENS_11_OKToMemCpyIT_T0_EEPS3_PS4_,"axG",%progbits,_ZN4_STL13_IsOKToMemCpyI6b2PairS1_EENS_11_OKToMemCpyIT_T0_EEPS3_PS4_,comdat
	.align	2
	.weak	_ZN4_STL13_IsOKToMemCpyI6b2PairS1_EENS_11_OKToMemCpyIT_T0_EEPS3_PS4_
	.hidden	_ZN4_STL13_IsOKToMemCpyI6b2PairS1_EENS_11_OKToMemCpyIT_T0_EEPS3_PS4_
	.type	_ZN4_STL13_IsOKToMemCpyI6b2PairS1_EENS_11_OKToMemCpyIT_T0_EEPS3_PS4_, %function
_ZN4_STL13_IsOKToMemCpyI6b2PairS1_EENS_11_OKToMemCpyIT_T0_EEPS3_PS4_:
.LFB834:
	.loc 16 365 0
	.cfi_startproc
	@ args = 0, pretend = 0, frame = 8
	@ frame_needed = 0, uses_anonymous_args = 0
	@ link register save eliminated.
	sub	sp, sp, #8
.LCFI113:
	.cfi_def_cfa_offset 8
	str	r0, [sp, #4]
	str	r1, [sp, #0]
	.loc 16 367 0
	mov	r0, r3
	add	sp, sp, #8
	bx	lr
	.cfi_endproc
.LFE834:
	.size	_ZN4_STL13_IsOKToMemCpyI6b2PairS1_EENS_11_OKToMemCpyIT_T0_EEPS3_PS4_, .-_ZN4_STL13_IsOKToMemCpyI6b2PairS1_EENS_11_OKToMemCpyIT_T0_EEPS3_PS4_
	.section	.text._ZN4_STL11_OKToMemCpyI6b2PairS1_E4_RetEv,"axG",%progbits,_ZN4_STL11_OKToMemCpyI6b2PairS1_E4_RetEv,comdat
	.align	2
	.weak	_ZN4_STL11_OKToMemCpyI6b2PairS1_E4_RetEv
	.hidden	_ZN4_STL11_OKToMemCpyI6b2PairS1_E4_RetEv
	.type	_ZN4_STL11_OKToMemCpyI6b2PairS1_E4_RetEv, %function
_ZN4_STL11_OKToMemCpyI6b2PairS1_E4_RetEv:
.LFB835:
	.loc 16 361 0
	.cfi_startproc
	@ args = 0, pretend = 0, frame = 0
	@ frame_needed = 0, uses_anonymous_args = 0
	@ link register save eliminated.
	.loc 16 361 0
	mov	r0, r3
	bx	lr
	.cfi_endproc
.LFE835:
	.size	_ZN4_STL11_OKToMemCpyI6b2PairS1_E4_RetEv, .-_ZN4_STL11_OKToMemCpyI6b2PairS1_E4_RetEv
	.section	.text._ZN4_STL20__copy_backward_ptrsIP6b2PairS2_EET0_T_S4_S3_RKNS_12__false_typeE,"axG",%progbits,_ZN4_STL20__copy_backward_ptrsIP6b2PairS2_EET0_T_S4_S3_RKNS_12__false_typeE,comdat
	.align	2
	.weak	_ZN4_STL20__copy_backward_ptrsIP6b2PairS2_EET0_T_S4_S3_RKNS_12__false_typeE
	.hidden	_ZN4_STL20__copy_backward_ptrsIP6b2PairS2_EET0_T_S4_S3_RKNS_12__false_typeE
	.type	_ZN4_STL20__copy_backward_ptrsIP6b2PairS2_EET0_T_S4_S3_RKNS_12__false_typeE, %function
_ZN4_STL20__copy_backward_ptrsIP6b2PairS2_EET0_T_S4_S3_RKNS_12__false_typeE:
.LFB836:
	.loc 13 220 0
	.cfi_startproc
	@ args = 0, pretend = 0, frame = 24
	@ frame_needed = 0, uses_anonymous_args = 0
	str	lr, [sp, #-4]!
.LCFI114:
	.cfi_def_cfa_offset 4
	sub	sp, sp, #36
.LCFI115:
	.cfi_def_cfa_offset 40
	str	r0, [sp, #20]
	str	r1, [sp, #16]
	str	r2, [sp, #12]
	str	r3, [sp, #8]
	.loc 13 221 0
	add	r3, sp, #28
	mov	r2, #0
	str	r2, [sp, #0]
	ldr	r0, [sp, #20]
	ldr	r1, [sp, #16]
	ldr	r2, [sp, #12]
	.cfi_offset 14, -4
	bl	_ZN4_STL15__copy_backwardIP6b2PairS2_iEET0_T_S4_S3_RKNS_26random_access_iterator_tagEPT1_
	mov	r3, r0
	.loc 13 222 0
	mov	r0, r3
	add	sp, sp, #36
	ldmfd	sp!, {pc}
	.cfi_endproc
.LFE836:
	.size	_ZN4_STL20__copy_backward_ptrsIP6b2PairS2_EET0_T_S4_S3_RKNS_12__false_typeE, .-_ZN4_STL20__copy_backward_ptrsIP6b2PairS2_EET0_T_S4_S3_RKNS_12__false_typeE
	.section	.text._ZN4_STL15__copy_backwardIP6b2PairS2_iEET0_T_S4_S3_RKNS_26random_access_iterator_tagEPT1_,"axG",%progbits,_ZN4_STL15__copy_backwardIP6b2PairS2_iEET0_T_S4_S3_RKNS_26random_access_iterator_tagEPT1_,comdat
	.align	2
	.weak	_ZN4_STL15__copy_backwardIP6b2PairS2_iEET0_T_S4_S3_RKNS_26random_access_iterator_tagEPT1_
	.hidden	_ZN4_STL15__copy_backwardIP6b2PairS2_iEET0_T_S4_S3_RKNS_26random_access_iterator_tagEPT1_
	.type	_ZN4_STL15__copy_backwardIP6b2PairS2_iEET0_T_S4_S3_RKNS_26random_access_iterator_tagEPT1_, %function
_ZN4_STL15__copy_backwardIP6b2PairS2_iEET0_T_S4_S3_RKNS_26random_access_iterator_tagEPT1_:
.LFB837:
	.loc 13 170 0
	.cfi_startproc
	@ args = 4, pretend = 0, frame = 24
	@ frame_needed = 0, uses_anonymous_args = 0
	@ link register save eliminated.
	sub	sp, sp, #24
.LCFI116:
	.cfi_def_cfa_offset 24
	str	r0, [sp, #12]
	str	r1, [sp, #8]
	str	r2, [sp, #4]
	str	r3, [sp, #0]
.LBB38:
.LBB39:
	.loc 13 176 0
	ldr	r2, [sp, #8]
	ldr	r3, [sp, #12]
	rsb	r3, r3, r2
	mov	r3, r3, asr #3
	str	r3, [sp, #20]
	b	.L316
.L317:
	.loc 13 177 0
	ldr	r3, [sp, #4]
	sub	r3, r3, #8
	str	r3, [sp, #4]
	ldr	r3, [sp, #4]
	ldr	r2, [sp, #8]
	sub	r2, r2, #8
	str	r2, [sp, #8]
	ldr	r2, [sp, #8]
	ldmia	r2, {r0, r1}
	stmia	r3, {r0, r1}
	.loc 13 176 0
	ldr	r3, [sp, #20]
	sub	r3, r3, #1
	str	r3, [sp, #20]
.L316:
	ldr	r3, [sp, #20]
	cmp	r3, #0
	movle	r3, #0
	movgt	r3, #1
	and	r3, r3, #255
	cmp	r3, #0
	bne	.L317
.LBE39:
	.loc 13 178 0
	ldr	r3, [sp, #4]
.LBE38:
	.loc 13 179 0
	mov	r0, r3
	add	sp, sp, #24
	bx	lr
	.cfi_endproc
.LFE837:
	.size	_ZN4_STL15__copy_backwardIP6b2PairS2_iEET0_T_S4_S3_RKNS_26random_access_iterator_tagEPT1_, .-_ZN4_STL15__copy_backwardIP6b2PairS2_iEET0_T_S4_S3_RKNS_26random_access_iterator_tagEPT1_
	.hidden	_ZTV17b2ContactListener
	.weak	_ZTV17b2ContactListener
	.section	.rodata._ZTV17b2ContactListener,"aG",%progbits,_ZTV17b2ContactListener,comdat
	.align	3
	.type	_ZTV17b2ContactListener, %object
	.size	_ZTV17b2ContactListener, 32
_ZTV17b2ContactListener:
	.word	0
	.word	_ZTI17b2ContactListener
	.word	_ZN17b2ContactListenerD1Ev
	.word	_ZN17b2ContactListenerD0Ev
	.word	_ZN17b2ContactListener12BeginContactEP9b2Contact
	.word	_ZN17b2ContactListener10EndContactEP9b2Contact
	.word	_ZN17b2ContactListener8PreSolveEP9b2ContactPK10b2Manifold
	.word	_ZN17b2ContactListener9PostSolveEP9b2ContactPK16b2ContactImpulse
	.hidden	_ZTS17b2ContactListener
	.weak	_ZTS17b2ContactListener
	.section	.rodata._ZTS17b2ContactListener,"aG",%progbits,_ZTS17b2ContactListener,comdat
	.align	2
	.type	_ZTS17b2ContactListener, %object
	.size	_ZTS17b2ContactListener, 20
_ZTS17b2ContactListener:
	.ascii	"17b2ContactListener\000"
	.hidden	_ZTI17b2ContactListener
	.weak	_ZTI17b2ContactListener
	.section	.rodata._ZTI17b2ContactListener,"aG",%progbits,_ZTI17b2ContactListener,comdat
	.align	2
	.type	_ZTI17b2ContactListener, %object
	.size	_ZTI17b2ContactListener, 8
_ZTI17b2ContactListener:
	.word	_ZTVN10__cxxabiv117__class_type_infoE+8
	.word	_ZTS17b2ContactListener
	.section	.text._Z41__static_initialization_and_destruction_0ii,"ax",%progbits
	.align	2
	.type	_Z41__static_initialization_and_destruction_0ii, %function
_Z41__static_initialization_and_destruction_0ii:
.LFB838:
	.loc 9 296 0
	.cfi_startproc
	@ args = 0, pretend = 0, frame = 8
	@ frame_needed = 0, uses_anonymous_args = 0
	str	lr, [sp, #-4]!
.LCFI117:
	.cfi_def_cfa_offset 4
	sub	sp, sp, #12
.LCFI118:
	.cfi_def_cfa_offset 16
	str	r0, [sp, #4]
	str	r1, [sp, #0]
	.loc 9 296 0
	ldr	r3, [sp, #4]
	cmp	r3, #1
	bne	.L321
	.cfi_offset 14, -4
	ldr	r2, [sp, #0]
	ldr	r3, .L322
	cmp	r2, r3
	bne	.L321
	.loc 9 25 0
	ldr	r0, .L322+4
	bl	_ZN15b2ContactFilterC1Ev
	ldr	r3, .L322+8
	ldr	r0, .L322+4
	mov	r1, r3
	ldr	r2, .L322+12
	bl	__aeabi_atexit
	.loc 9 26 0
	ldr	r0, .L322+16
	bl	_ZN17b2ContactListenerC1Ev
	ldr	r3, .L322+20
	ldr	r0, .L322+16
	mov	r1, r3
	ldr	r2, .L322+12
	bl	__aeabi_atexit
.L321:
	.loc 9 296 0
	add	sp, sp, #12
	ldmfd	sp!, {pc}
.L323:
	.align	2
.L322:
	.word	65535
	.word	b2_defaultFilter
	.word	_ZN15b2ContactFilterD1Ev
	.word	__dso_handle
	.word	b2_defaultListener
	.word	_ZN17b2ContactListenerD1Ev
	.cfi_endproc
.LFE838:
	.size	_Z41__static_initialization_and_destruction_0ii, .-_Z41__static_initialization_and_destruction_0ii
	.section	.text._ZN15b2ContactFilterC1Ev,"axG",%progbits,_ZN15b2ContactFilterC1Ev,comdat
	.align	2
	.weak	_ZN15b2ContactFilterC1Ev
	.hidden	_ZN15b2ContactFilterC1Ev
	.type	_ZN15b2ContactFilterC1Ev, %function
_ZN15b2ContactFilterC1Ev:
.LFB841:
	.loc 7 53 0
	.cfi_startproc
	@ args = 0, pretend = 0, frame = 8
	@ frame_needed = 0, uses_anonymous_args = 0
	@ link register save eliminated.
	sub	sp, sp, #8
.LCFI119:
	.cfi_def_cfa_offset 8
	str	r0, [sp, #4]
	.loc 7 53 0
	ldr	r3, [sp, #4]
	ldr	r2, .L327
	str	r2, [r3, #0]
	ldr	r3, [sp, #4]
	mov	r0, r3
	add	sp, sp, #8
	bx	lr
.L328:
	.align	2
.L327:
	.word	_ZTV15b2ContactFilter+8
	.cfi_endproc
.LFE841:
	.size	_ZN15b2ContactFilterC1Ev, .-_ZN15b2ContactFilterC1Ev
	.section	.text._ZN17b2ContactListenerC1Ev,"axG",%progbits,_ZN17b2ContactListenerC1Ev,comdat
	.align	2
	.weak	_ZN17b2ContactListenerC1Ev
	.hidden	_ZN17b2ContactListenerC1Ev
	.type	_ZN17b2ContactListenerC1Ev, %function
_ZN17b2ContactListenerC1Ev:
.LFB844:
	.loc 7 82 0
	.cfi_startproc
	@ args = 0, pretend = 0, frame = 8
	@ frame_needed = 0, uses_anonymous_args = 0
	@ link register save eliminated.
	sub	sp, sp, #8
.LCFI120:
	.cfi_def_cfa_offset 8
	str	r0, [sp, #4]
	.loc 7 82 0
	ldr	r3, [sp, #4]
	ldr	r2, .L332
	str	r2, [r3, #0]
	ldr	r3, [sp, #4]
	mov	r0, r3
	add	sp, sp, #8
	bx	lr
.L333:
	.align	2
.L332:
	.word	_ZTV17b2ContactListener+8
	.cfi_endproc
.LFE844:
	.size	_ZN17b2ContactListenerC1Ev, .-_ZN17b2ContactListenerC1Ev
	.section	.rodata
	.type	_ZL14b2_nullFeature, %object
	.size	_ZL14b2_nullFeature, 1
_ZL14b2_nullFeature:
	.byte	-1
	.align	2
	.type	_ZL12b2_chunkSize, %object
	.size	_ZL12b2_chunkSize, 4
_ZL12b2_chunkSize:
	.word	16384
	.align	2
	.type	_ZL15b2_maxBlockSize, %object
	.size	_ZL15b2_maxBlockSize, 4
_ZL15b2_maxBlockSize:
	.word	640
	.align	2
	.type	_ZL13b2_blockSizes, %object
	.size	_ZL13b2_blockSizes, 4
_ZL13b2_blockSizes:
	.word	14
	.align	2
	.type	_ZL22b2_chunkArrayIncrement, %object
	.size	_ZL22b2_chunkArrayIncrement, 4
_ZL22b2_chunkArrayIncrement:
	.word	128
	.align	2
	.type	_ZN4_STLL16__stl_chunk_sizeE, %object
	.size	_ZN4_STLL16__stl_chunk_sizeE, 4
_ZN4_STLL16__stl_chunk_sizeE:
	.word	7
	.section	.text._GLOBAL__I_b2_defaultFilter,"ax",%progbits
	.align	2
	.type	_GLOBAL__I_b2_defaultFilter, %function
_GLOBAL__I_b2_defaultFilter:
.LFB845:
	.loc 9 296 0
	.cfi_startproc
	@ args = 0, pretend = 0, frame = 0
	@ frame_needed = 0, uses_anonymous_args = 0
	stmfd	sp!, {r3, lr}
.LCFI121:
	.cfi_def_cfa_offset 8
	.loc 9 296 0
	mov	r0, #1
	ldr	r1, .L336
	.cfi_offset 14, -4
	.cfi_offset 3, -8
	bl	_Z41__static_initialization_and_destruction_0ii
	ldmfd	sp!, {r3, pc}
.L337:
	.align	2
.L336:
	.word	65535
	.cfi_endproc
.LFE845:
	.size	_GLOBAL__I_b2_defaultFilter, .-_GLOBAL__I_b2_defaultFilter
	.section	.init_array,"aw",%init_array
	.align	2
	.word	_GLOBAL__I_b2_defaultFilter(target1)
	.text
.Letext0: