	.arch armv5te
	.eabi_attribute 27, 3
	.fpu vfp
	.eabi_attribute 20, 1
	.eabi_attribute 21, 1
	.eabi_attribute 23, 3
	.eabi_attribute 24, 1
	.eabi_attribute 25, 1
	.eabi_attribute 26, 2
	.eabi_attribute 30, 6
	.eabi_attribute 18, 2
	.file	"b2ContactSolver.cpp"
	.text
.Ltext0:
	.cfi_sections	.debug_frame
	.section	.text._ZN6b2Vec2C1Ev,"axG",%progbits,_ZN6b2Vec2C1Ev,comdat
	.align	2
	.weak	_ZN6b2Vec2C1Ev
	.hidden	_ZN6b2Vec2C1Ev
	.type	_ZN6b2Vec2C1Ev, %function
_ZN6b2Vec2C1Ev:
.LFB4:
	.file 1 "v:/gigglingbits/box2d/Box2D/Common/b2Math.h"
	.loc 1 56 0
	.cfi_startproc
	@ args = 0, pretend = 0, frame = 8
	@ frame_needed = 0, uses_anonymous_args = 0
	@ link register save eliminated.
	sub	sp, sp, #8
.LCFI0:
	.cfi_def_cfa_offset 8
	str	r0, [sp, #4]
	.loc 1 56 0
	ldr	r3, [sp, #4]
	mov	r0, r3
	add	sp, sp, #8
	bx	lr
	.cfi_endproc
.LFE4:
	.size	_ZN6b2Vec2C1Ev, .-_ZN6b2Vec2C1Ev
	.section	.text._ZN6b2Vec2C1Eff,"axG",%progbits,_ZN6b2Vec2C1Eff,comdat
	.align	2
	.weak	_ZN6b2Vec2C1Eff
	.hidden	_ZN6b2Vec2C1Eff
	.type	_ZN6b2Vec2C1Eff, %function
_ZN6b2Vec2C1Eff:
.LFB7:
	.loc 1 59 0
	.cfi_startproc
	@ args = 0, pretend = 0, frame = 16
	@ frame_needed = 0, uses_anonymous_args = 0
	@ link register save eliminated.
	sub	sp, sp, #16
.LCFI1:
	.cfi_def_cfa_offset 16
	str	r0, [sp, #12]
	str	r1, [sp, #8]	@ float
	str	r2, [sp, #4]	@ float
	.loc 1 59 0
	ldr	r3, [sp, #12]
	flds	s15, [sp, #8]
	fsts	s15, [r3, #0]
	ldr	r3, [sp, #12]
	flds	s15, [sp, #4]
	fsts	s15, [r3, #4]
	ldr	r3, [sp, #12]
	mov	r0, r3
	add	sp, sp, #16
	bx	lr
	.cfi_endproc
.LFE7:
	.size	_ZN6b2Vec2C1Eff, .-_ZN6b2Vec2C1Eff
	.section	.text._ZN6b2Vec27SetZeroEv,"axG",%progbits,_ZN6b2Vec27SetZeroEv,comdat
	.align	2
	.weak	_ZN6b2Vec27SetZeroEv
	.hidden	_ZN6b2Vec27SetZeroEv
	.type	_ZN6b2Vec27SetZeroEv, %function
_ZN6b2Vec27SetZeroEv:
.LFB8:
	.loc 1 62 0
	.cfi_startproc
	@ args = 0, pretend = 0, frame = 8
	@ frame_needed = 0, uses_anonymous_args = 0
	@ link register save eliminated.
	sub	sp, sp, #8
.LCFI2:
	.cfi_def_cfa_offset 8
	str	r0, [sp, #4]
	.loc 1 62 0
	ldr	r3, [sp, #4]
	flds	s15, .L9
	fsts	s15, [r3, #0]
	ldr	r3, [sp, #4]
	flds	s15, .L9
	fsts	s15, [r3, #4]
	add	sp, sp, #8
	bx	lr
.L10:
	.align	2
.L9:
	.word	0
	.cfi_endproc
.LFE8:
	.size	_ZN6b2Vec27SetZeroEv, .-_ZN6b2Vec27SetZeroEv
	.section	.text._ZN6b2Vec23SetEff,"axG",%progbits,_ZN6b2Vec23SetEff,comdat
	.align	2
	.weak	_ZN6b2Vec23SetEff
	.hidden	_ZN6b2Vec23SetEff
	.type	_ZN6b2Vec23SetEff, %function
_ZN6b2Vec23SetEff:
.LFB9:
	.loc 1 65 0
	.cfi_startproc
	@ args = 0, pretend = 0, frame = 16
	@ frame_needed = 0, uses_anonymous_args = 0
	@ link register save eliminated.
	sub	sp, sp, #16
.LCFI3:
	.cfi_def_cfa_offset 16
	str	r0, [sp, #12]
	str	r1, [sp, #8]	@ float
	str	r2, [sp, #4]	@ float
	.loc 1 65 0
	ldr	r3, [sp, #12]
	flds	s15, [sp, #8]
	fsts	s15, [r3, #0]
	ldr	r3, [sp, #12]
	flds	s15, [sp, #4]
	fsts	s15, [r3, #4]
	add	sp, sp, #16
	bx	lr
	.cfi_endproc
.LFE9:
	.size	_ZN6b2Vec23SetEff, .-_ZN6b2Vec23SetEff
	.section	.text._ZNK6b2Vec2ngEv,"axG",%progbits,_ZNK6b2Vec2ngEv,comdat
	.align	2
	.weak	_ZNK6b2Vec2ngEv
	.hidden	_ZNK6b2Vec2ngEv
	.type	_ZNK6b2Vec2ngEv, %function
_ZNK6b2Vec2ngEv:
.LFB10:
	.loc 1 68 0
	.cfi_startproc
	@ args = 0, pretend = 0, frame = 16
	@ frame_needed = 0, uses_anonymous_args = 0
	stmfd	sp!, {r4, lr}
.LCFI4:
	.cfi_def_cfa_offset 8
	sub	sp, sp, #16
.LCFI5:
	.cfi_def_cfa_offset 24
	mov	r4, r0
	.cfi_offset 14, -4
	.cfi_offset 4, -8
	str	r1, [sp, #4]
.LBB2:
	.loc 1 68 0
	mov	r0, r4
	bl	_ZN6b2Vec2C1Ev
	ldr	r3, [sp, #4]
	flds	s15, [r3, #0]
	fnegs	s14, s15
	ldr	r3, [sp, #4]
	flds	s15, [r3, #4]
	fnegs	s15, s15
	mov	r0, r4
	fmrs	r1, s14
	fmrs	r2, s15
	bl	_ZN6b2Vec23SetEff
.LBE2:
	mov	r0, r4
	add	sp, sp, #16
	ldmfd	sp!, {r4, pc}
	.cfi_endproc
.LFE10:
	.size	_ZNK6b2Vec2ngEv, .-_ZNK6b2Vec2ngEv
	.section	.text._ZN6b2Vec2pLERKS_,"axG",%progbits,_ZN6b2Vec2pLERKS_,comdat
	.align	2
	.weak	_ZN6b2Vec2pLERKS_
	.hidden	_ZN6b2Vec2pLERKS_
	.type	_ZN6b2Vec2pLERKS_, %function
_ZN6b2Vec2pLERKS_:
.LFB13:
	.loc 1 83 0
	.cfi_startproc
	@ args = 0, pretend = 0, frame = 8
	@ frame_needed = 0, uses_anonymous_args = 0
	@ link register save eliminated.
	sub	sp, sp, #8
.LCFI6:
	.cfi_def_cfa_offset 8
	str	r0, [sp, #4]
	str	r1, [sp, #0]
	.loc 1 85 0
	ldr	r3, [sp, #4]
	flds	s14, [r3, #0]
	ldr	r3, [sp, #0]
	flds	s15, [r3, #0]
	fadds	s15, s14, s15
	ldr	r3, [sp, #4]
	fsts	s15, [r3, #0]
	ldr	r3, [sp, #4]
	flds	s14, [r3, #4]
	ldr	r3, [sp, #0]
	flds	s15, [r3, #4]
	fadds	s15, s14, s15
	ldr	r3, [sp, #4]
	fsts	s15, [r3, #4]
	.loc 1 86 0
	add	sp, sp, #8
	bx	lr
	.cfi_endproc
.LFE13:
	.size	_ZN6b2Vec2pLERKS_, .-_ZN6b2Vec2pLERKS_
	.section	.text._ZN6b2Vec2mIERKS_,"axG",%progbits,_ZN6b2Vec2mIERKS_,comdat
	.align	2
	.weak	_ZN6b2Vec2mIERKS_
	.hidden	_ZN6b2Vec2mIERKS_
	.type	_ZN6b2Vec2mIERKS_, %function
_ZN6b2Vec2mIERKS_:
.LFB14:
	.loc 1 89 0
	.cfi_startproc
	@ args = 0, pretend = 0, frame = 8
	@ frame_needed = 0, uses_anonymous_args = 0
	@ link register save eliminated.
	sub	sp, sp, #8
.LCFI7:
	.cfi_def_cfa_offset 8
	str	r0, [sp, #4]
	str	r1, [sp, #0]
	.loc 1 91 0
	ldr	r3, [sp, #4]
	flds	s14, [r3, #0]
	ldr	r3, [sp, #0]
	flds	s15, [r3, #0]
	fsubs	s15, s14, s15
	ldr	r3, [sp, #4]
	fsts	s15, [r3, #0]
	ldr	r3, [sp, #4]
	flds	s14, [r3, #4]
	ldr	r3, [sp, #0]
	flds	s15, [r3, #4]
	fsubs	s15, s14, s15
	ldr	r3, [sp, #4]
	fsts	s15, [r3, #4]
	.loc 1 92 0
	add	sp, sp, #8
	bx	lr
	.cfi_endproc
.LFE14:
	.size	_ZN6b2Vec2mIERKS_, .-_ZN6b2Vec2mIERKS_
	.section	.text._ZNK6b2Vec26LengthEv,"axG",%progbits,_ZNK6b2Vec26LengthEv,comdat
	.align	2
	.weak	_ZNK6b2Vec26LengthEv
	.hidden	_ZNK6b2Vec26LengthEv
	.type	_ZNK6b2Vec26LengthEv, %function
_ZNK6b2Vec26LengthEv:
.LFB16:
	.loc 1 101 0
	.cfi_startproc
	@ args = 0, pretend = 0, frame = 8
	@ frame_needed = 0, uses_anonymous_args = 0
	str	lr, [sp, #-4]!
.LCFI8:
	.cfi_def_cfa_offset 4
	sub	sp, sp, #12
.LCFI9:
	.cfi_def_cfa_offset 16
	str	r0, [sp, #4]
	.loc 1 103 0
	ldr	r3, [sp, #4]
	flds	s14, [r3, #0]
	ldr	r3, [sp, #4]
	flds	s15, [r3, #0]
	fmuls	s14, s14, s15
	ldr	r3, [sp, #4]
	flds	s13, [r3, #4]
	ldr	r3, [sp, #4]
	flds	s15, [r3, #4]
	fmuls	s15, s13, s15
	fadds	s14, s14, s15
	fsqrts	s15, s14
	fcmps	s15, s15
	fmstat
	beq	.L20
	.cfi_offset 14, -4
	fmrs	r0, s14
	bl	sqrtf
	fmsr	s15, r0
.L20:
	fmrs	r3, s15
	.loc 1 104 0
	mov	r0, r3	@ float
	add	sp, sp, #12
	ldmfd	sp!, {pc}
	.cfi_endproc
.LFE16:
	.size	_ZNK6b2Vec26LengthEv, .-_ZNK6b2Vec26LengthEv
	.section	.text._ZN6b2Vec29NormalizeEv,"axG",%progbits,_ZN6b2Vec29NormalizeEv,comdat
	.align	2
	.weak	_ZN6b2Vec29NormalizeEv
	.hidden	_ZN6b2Vec29NormalizeEv
	.type	_ZN6b2Vec29NormalizeEv, %function
_ZN6b2Vec29NormalizeEv:
.LFB18:
	.loc 1 114 0
	.cfi_startproc
	@ args = 0, pretend = 0, frame = 16
	@ frame_needed = 0, uses_anonymous_args = 0
	str	lr, [sp, #-4]!
.LCFI10:
	.cfi_def_cfa_offset 4
	sub	sp, sp, #20
.LCFI11:
	.cfi_def_cfa_offset 24
	str	r0, [sp, #4]
.LBB3:
	.loc 1 116 0
	ldr	r0, [sp, #4]
	.cfi_offset 14, -4
	bl	_ZNK6b2Vec26LengthEv
	mov	r3, r0	@ float
	str	r3, [sp, #8]	@ float
	.loc 1 117 0
	flds	s14, [sp, #8]
	flds	s15, .L26
	fcmpes	s14, s15
	fmstat
	movpl	r3, #0
	movmi	r3, #1
	and	r3, r3, #255
	cmp	r3, #0
	beq	.L23
	.loc 1 119 0
	flds	s15, .L26+4
	b	.L24
.L23:
	.loc 1 121 0
	flds	s14, .L26+8
	flds	s15, [sp, #8]
	fdivs	s15, s14, s15
	fsts	s15, [sp, #12]
	.loc 1 122 0
	ldr	r3, [sp, #4]
	flds	s14, [r3, #0]
	flds	s15, [sp, #12]
	fmuls	s15, s14, s15
	ldr	r3, [sp, #4]
	fsts	s15, [r3, #0]
	.loc 1 123 0
	ldr	r3, [sp, #4]
	flds	s14, [r3, #4]
	flds	s15, [sp, #12]
	fmuls	s15, s14, s15
	ldr	r3, [sp, #4]
	fsts	s15, [r3, #4]
	.loc 1 125 0
	flds	s15, [sp, #8]
.L24:
	fmrs	r3, s15
.LBE3:
	.loc 1 126 0
	mov	r0, r3	@ float
	add	sp, sp, #20
	ldmfd	sp!, {pc}
.L27:
	.align	2
.L26:
	.word	872415232
	.word	0
	.word	1065353216
	.cfi_endproc
.LFE18:
	.size	_ZN6b2Vec29NormalizeEv, .-_ZN6b2Vec29NormalizeEv
	.section	.text._ZN7b2Mat22C1Ev,"axG",%progbits,_ZN7b2Mat22C1Ev,comdat
	.align	2
	.weak	_ZN7b2Mat22C1Ev
	.hidden	_ZN7b2Mat22C1Ev
	.type	_ZN7b2Mat22C1Ev, %function
_ZN7b2Mat22C1Ev:
.LFB35:
	.loc 1 186 0
	.cfi_startproc
	@ args = 0, pretend = 0, frame = 8
	@ frame_needed = 0, uses_anonymous_args = 0
	str	lr, [sp, #-4]!
.LCFI12:
	.cfi_def_cfa_offset 4
	sub	sp, sp, #12
.LCFI13:
	.cfi_def_cfa_offset 16
	str	r0, [sp, #4]
	.loc 1 186 0
	ldr	r3, [sp, #4]
	mov	r0, r3
	.cfi_offset 14, -4
	bl	_ZN6b2Vec2C1Ev
	ldr	r3, [sp, #4]
	add	r3, r3, #8
	mov	r0, r3
	bl	_ZN6b2Vec2C1Ev
	ldr	r3, [sp, #4]
	mov	r0, r3
	add	sp, sp, #12
	ldmfd	sp!, {pc}
	.cfi_endproc
.LFE35:
	.size	_ZN7b2Mat22C1Ev, .-_ZN7b2Mat22C1Ev
	.section	.text._ZN7b2Mat227SetZeroEv,"axG",%progbits,_ZN7b2Mat227SetZeroEv,comdat
	.align	2
	.weak	_ZN7b2Mat227SetZeroEv
	.hidden	_ZN7b2Mat227SetZeroEv
	.type	_ZN7b2Mat227SetZeroEv, %function
_ZN7b2Mat227SetZeroEv:
.LFB44:
	.loc 1 217 0
	.cfi_startproc
	@ args = 0, pretend = 0, frame = 8
	@ frame_needed = 0, uses_anonymous_args = 0
	@ link register save eliminated.
	sub	sp, sp, #8
.LCFI14:
	.cfi_def_cfa_offset 8
	str	r0, [sp, #4]
	.loc 1 219 0
	ldr	r3, [sp, #4]
	flds	s15, .L33
	fsts	s15, [r3, #0]
	ldr	r3, [sp, #4]
	flds	s15, .L33
	fsts	s15, [r3, #8]
	.loc 1 220 0
	ldr	r3, [sp, #4]
	flds	s15, .L33
	fsts	s15, [r3, #4]
	ldr	r3, [sp, #4]
	flds	s15, .L33
	fsts	s15, [r3, #12]
	.loc 1 221 0
	add	sp, sp, #8
	bx	lr
.L34:
	.align	2
.L33:
	.word	0
	.cfi_endproc
.LFE44:
	.size	_ZN7b2Mat227SetZeroEv, .-_ZN7b2Mat227SetZeroEv
	.section	.text._ZNK7b2Mat2210GetInverseEv,"axG",%progbits,_ZNK7b2Mat2210GetInverseEv,comdat
	.align	2
	.weak	_ZNK7b2Mat2210GetInverseEv
	.hidden	_ZNK7b2Mat2210GetInverseEv
	.type	_ZNK7b2Mat2210GetInverseEv, %function
_ZNK7b2Mat2210GetInverseEv:
.LFB45:
	.loc 1 223 0
	.cfi_startproc
	@ args = 0, pretend = 0, frame = 48
	@ frame_needed = 0, uses_anonymous_args = 0
	stmfd	sp!, {r4, lr}
.LCFI15:
	.cfi_def_cfa_offset 8
	sub	sp, sp, #48
.LCFI16:
	.cfi_def_cfa_offset 56
	mov	r4, r0
	.cfi_offset 14, -4
	.cfi_offset 4, -8
	str	r1, [sp, #4]
.LBB4:
	.loc 1 225 0
	ldr	r3, [sp, #4]
	flds	s15, [r3, #0]
	fsts	s15, [sp, #28]
	ldr	r3, [sp, #4]
	flds	s15, [r3, #8]
	fsts	s15, [sp, #32]
	ldr	r3, [sp, #4]
	flds	s15, [r3, #4]
	fsts	s15, [sp, #36]
	ldr	r3, [sp, #4]
	flds	s15, [r3, #12]
	fsts	s15, [sp, #40]
	.loc 1 226 0
	mov	r0, r4
	bl	_ZN7b2Mat22C1Ev
	.loc 1 227 0
	flds	s14, [sp, #28]
	flds	s15, [sp, #40]
	fmuls	s14, s14, s15
	flds	s13, [sp, #32]
	flds	s15, [sp, #36]
	fmuls	s15, s13, s15
	fsubs	s15, s14, s15
	fsts	s15, [sp, #44]
	.loc 1 228 0
	flds	s15, [sp, #44]
	fcmpzs	s15
	fmstat
	beq	.L36
.L39:
	.loc 1 230 0
	flds	s14, .L40
	flds	s15, [sp, #44]
	fdivs	s15, s14, s15
	fsts	s15, [sp, #44]
.L36:
	.loc 1 232 0
	flds	s14, [sp, #44]
	flds	s15, [sp, #40]
	fmuls	s15, s14, s15
	fsts	s15, [r4, #0]
	flds	s15, [sp, #44]
	fnegs	s14, s15
	flds	s15, [sp, #32]
	fmuls	s15, s14, s15
	fsts	s15, [r4, #8]
	.loc 1 233 0
	flds	s15, [sp, #44]
	fnegs	s14, s15
	flds	s15, [sp, #36]
	fmuls	s15, s14, s15
	fsts	s15, [r4, #4]
	flds	s14, [sp, #44]
	flds	s15, [sp, #28]
	fmuls	s15, s14, s15
	fsts	s15, [r4, #12]
.LBE4:
	.loc 1 235 0
	mov	r0, r4
	add	sp, sp, #48
	ldmfd	sp!, {r4, pc}
.L41:
	.align	2
.L40:
	.word	1065353216
	.cfi_endproc
.LFE45:
	.size	_ZNK7b2Mat2210GetInverseEv, .-_ZNK7b2Mat2210GetInverseEv
	.section	.text._ZN5b2RotC1Ev,"axG",%progbits,_ZN5b2RotC1Ev,comdat
	.align	2
	.weak	_ZN5b2RotC1Ev
	.hidden	_ZN5b2RotC1Ev
	.type	_ZN5b2RotC1Ev, %function
_ZN5b2RotC1Ev:
.LFB56:
	.loc 1 301 0
	.cfi_startproc
	@ args = 0, pretend = 0, frame = 8
	@ frame_needed = 0, uses_anonymous_args = 0
	@ link register save eliminated.
	sub	sp, sp, #8
.LCFI17:
	.cfi_def_cfa_offset 8
	str	r0, [sp, #4]
	.loc 1 301 0
	ldr	r3, [sp, #4]
	mov	r0, r3
	add	sp, sp, #8
	bx	lr
	.cfi_endproc
.LFE56:
	.size	_ZN5b2RotC1Ev, .-_ZN5b2RotC1Ev
	.section	.text._ZN5b2Rot3SetEf,"axG",%progbits,_ZN5b2Rot3SetEf,comdat
	.align	2
	.weak	_ZN5b2Rot3SetEf
	.hidden	_ZN5b2Rot3SetEf
	.type	_ZN5b2Rot3SetEf, %function
_ZN5b2Rot3SetEf:
.LFB60:
	.loc 1 312 0
	.cfi_startproc
	@ args = 0, pretend = 0, frame = 8
	@ frame_needed = 0, uses_anonymous_args = 0
	str	lr, [sp, #-4]!
.LCFI18:
	.cfi_def_cfa_offset 4
	sub	sp, sp, #12
.LCFI19:
	.cfi_def_cfa_offset 16
	str	r0, [sp, #4]
	str	r1, [sp, #0]	@ float
	.loc 1 315 0
	ldr	r0, [sp, #0]	@ float
	.cfi_offset 14, -4
	bl	sinf
	mov	r2, r0	@ float
	ldr	r3, [sp, #4]
	str	r2, [r3, #0]	@ float
	.loc 1 316 0
	ldr	r0, [sp, #0]	@ float
	bl	cosf
	mov	r2, r0	@ float
	ldr	r3, [sp, #4]
	str	r2, [r3, #4]	@ float
	.loc 1 317 0
	add	sp, sp, #12
	ldmfd	sp!, {pc}
	.cfi_endproc
.LFE60:
	.size	_ZN5b2Rot3SetEf, .-_ZN5b2Rot3SetEf
	.section	.text._ZN11b2TransformC1Ev,"axG",%progbits,_ZN11b2TransformC1Ev,comdat
	.align	2
	.weak	_ZN11b2TransformC1Ev
	.hidden	_ZN11b2TransformC1Ev
	.type	_ZN11b2TransformC1Ev, %function
_ZN11b2TransformC1Ev:
.LFB67:
	.loc 1 353 0
	.cfi_startproc
	@ args = 0, pretend = 0, frame = 8
	@ frame_needed = 0, uses_anonymous_args = 0
	str	lr, [sp, #-4]!
.LCFI20:
	.cfi_def_cfa_offset 4
	sub	sp, sp, #12
.LCFI21:
	.cfi_def_cfa_offset 16
	str	r0, [sp, #4]
	.loc 1 353 0
	ldr	r3, [sp, #4]
	mov	r0, r3
	.cfi_offset 14, -4
	bl	_ZN6b2Vec2C1Ev
	ldr	r3, [sp, #4]
	add	r3, r3, #8
	mov	r0, r3
	bl	_ZN5b2RotC1Ev
	ldr	r3, [sp, #4]
	mov	r0, r3
	add	sp, sp, #12
	ldmfd	sp!, {pc}
	.cfi_endproc
.LFE67:
	.size	_ZN11b2TransformC1Ev, .-_ZN11b2TransformC1Ev
	.section	.text._Z5b2DotRK6b2Vec2S1_,"axG",%progbits,_Z5b2DotRK6b2Vec2S1_,comdat
	.align	2
	.weak	_Z5b2DotRK6b2Vec2S1_
	.hidden	_Z5b2DotRK6b2Vec2S1_
	.type	_Z5b2DotRK6b2Vec2S1_, %function
_Z5b2DotRK6b2Vec2S1_:
.LFB73:
	.loc 1 407 0
	.cfi_startproc
	@ args = 0, pretend = 0, frame = 8
	@ frame_needed = 0, uses_anonymous_args = 0
	@ link register save eliminated.
	sub	sp, sp, #8
.LCFI22:
	.cfi_def_cfa_offset 8
	str	r0, [sp, #4]
	str	r1, [sp, #0]
	.loc 1 408 0
	ldr	r3, [sp, #4]
	flds	s14, [r3, #0]
	ldr	r3, [sp, #0]
	flds	s15, [r3, #0]
	fmuls	s14, s14, s15
	ldr	r3, [sp, #4]
	flds	s13, [r3, #4]
	ldr	r3, [sp, #0]
	flds	s15, [r3, #4]
	fmuls	s15, s13, s15
	fadds	s15, s14, s15
	fmrs	r3, s15
	.loc 1 409 0
	mov	r0, r3	@ float
	add	sp, sp, #8
	bx	lr
	.cfi_endproc
.LFE73:
	.size	_Z5b2DotRK6b2Vec2S1_, .-_Z5b2DotRK6b2Vec2S1_
	.section	.text._Z7b2CrossRK6b2Vec2S1_,"axG",%progbits,_Z7b2CrossRK6b2Vec2S1_,comdat
	.align	2
	.weak	_Z7b2CrossRK6b2Vec2S1_
	.hidden	_Z7b2CrossRK6b2Vec2S1_
	.type	_Z7b2CrossRK6b2Vec2S1_, %function
_Z7b2CrossRK6b2Vec2S1_:
.LFB74:
	.loc 1 413 0
	.cfi_startproc
	@ args = 0, pretend = 0, frame = 8
	@ frame_needed = 0, uses_anonymous_args = 0
	@ link register save eliminated.
	sub	sp, sp, #8
.LCFI23:
	.cfi_def_cfa_offset 8
	str	r0, [sp, #4]
	str	r1, [sp, #0]
	.loc 1 414 0
	ldr	r3, [sp, #4]
	flds	s14, [r3, #0]
	ldr	r3, [sp, #0]
	flds	s15, [r3, #4]
	fmuls	s14, s14, s15
	ldr	r3, [sp, #4]
	flds	s13, [r3, #4]
	ldr	r3, [sp, #0]
	flds	s15, [r3, #0]
	fmuls	s15, s13, s15
	fsubs	s15, s14, s15
	fmrs	r3, s15
	.loc 1 415 0
	mov	r0, r3	@ float
	add	sp, sp, #8
	bx	lr
	.cfi_endproc
.LFE74:
	.size	_Z7b2CrossRK6b2Vec2S1_, .-_Z7b2CrossRK6b2Vec2S1_
	.section	.text._Z7b2CrossRK6b2Vec2f,"axG",%progbits,_Z7b2CrossRK6b2Vec2f,comdat
	.align	2
	.weak	_Z7b2CrossRK6b2Vec2f
	.hidden	_Z7b2CrossRK6b2Vec2f
	.type	_Z7b2CrossRK6b2Vec2f, %function
_Z7b2CrossRK6b2Vec2f:
.LFB75:
	.loc 1 420 0
	.cfi_startproc
	@ args = 0, pretend = 0, frame = 8
	@ frame_needed = 0, uses_anonymous_args = 0
	stmfd	sp!, {r4, lr}
.LCFI24:
	.cfi_def_cfa_offset 8
	sub	sp, sp, #8
.LCFI25:
	.cfi_def_cfa_offset 16
	mov	r4, r0
	.cfi_offset 14, -4
	.cfi_offset 4, -8
	str	r1, [sp, #4]
	str	r2, [sp, #0]	@ float
	.loc 1 421 0
	ldr	r3, [sp, #4]
	flds	s14, [r3, #4]
	flds	s15, [sp, #0]
	fmuls	s14, s14, s15
	flds	s15, [sp, #0]
	fnegs	s13, s15
	ldr	r3, [sp, #4]
	flds	s15, [r3, #0]
	fmuls	s15, s13, s15
	mov	r0, r4
	fmrs	r1, s14
	fmrs	r2, s15
	bl	_ZN6b2Vec2C1Eff
	.loc 1 422 0
	mov	r0, r4
	add	sp, sp, #8
	ldmfd	sp!, {r4, pc}
	.cfi_endproc
.LFE75:
	.size	_Z7b2CrossRK6b2Vec2f, .-_Z7b2CrossRK6b2Vec2f
	.section	.text._Z7b2CrossfRK6b2Vec2,"axG",%progbits,_Z7b2CrossfRK6b2Vec2,comdat
	.align	2
	.weak	_Z7b2CrossfRK6b2Vec2
	.hidden	_Z7b2CrossfRK6b2Vec2
	.type	_Z7b2CrossfRK6b2Vec2, %function
_Z7b2CrossfRK6b2Vec2:
.LFB76:
	.loc 1 427 0
	.cfi_startproc
	@ args = 0, pretend = 0, frame = 8
	@ frame_needed = 0, uses_anonymous_args = 0
	stmfd	sp!, {r4, lr}
.LCFI26:
	.cfi_def_cfa_offset 8
	sub	sp, sp, #8
.LCFI27:
	.cfi_def_cfa_offset 16
	mov	r4, r0
	.cfi_offset 14, -4
	.cfi_offset 4, -8
	str	r1, [sp, #4]	@ float
	str	r2, [sp, #0]
	.loc 1 428 0
	flds	s15, [sp, #4]
	fnegs	s14, s15
	ldr	r3, [sp, #0]
	flds	s15, [r3, #4]
	fmuls	s14, s14, s15
	ldr	r3, [sp, #0]
	flds	s13, [r3, #0]
	flds	s15, [sp, #4]
	fmuls	s15, s13, s15
	mov	r0, r4
	fmrs	r1, s14
	fmrs	r2, s15
	bl	_ZN6b2Vec2C1Eff
	.loc 1 429 0
	mov	r0, r4
	add	sp, sp, #8
	ldmfd	sp!, {r4, pc}
	.cfi_endproc
.LFE76:
	.size	_Z7b2CrossfRK6b2Vec2, .-_Z7b2CrossfRK6b2Vec2
	.section	.text._Z5b2MulRK7b2Mat22RK6b2Vec2,"axG",%progbits,_Z5b2MulRK7b2Mat22RK6b2Vec2,comdat
	.align	2
	.weak	_Z5b2MulRK7b2Mat22RK6b2Vec2
	.hidden	_Z5b2MulRK7b2Mat22RK6b2Vec2
	.type	_Z5b2MulRK7b2Mat22RK6b2Vec2, %function
_Z5b2MulRK7b2Mat22RK6b2Vec2:
.LFB77:
	.loc 1 434 0
	.cfi_startproc
	@ args = 0, pretend = 0, frame = 8
	@ frame_needed = 0, uses_anonymous_args = 0
	stmfd	sp!, {r4, lr}
.LCFI28:
	.cfi_def_cfa_offset 8
	sub	sp, sp, #8
.LCFI29:
	.cfi_def_cfa_offset 16
	mov	r4, r0
	.cfi_offset 14, -4
	.cfi_offset 4, -8
	str	r1, [sp, #4]
	str	r2, [sp, #0]
	.loc 1 435 0
	ldr	r3, [sp, #4]
	flds	s14, [r3, #0]
	ldr	r3, [sp, #0]
	flds	s15, [r3, #0]
	fmuls	s14, s14, s15
	ldr	r3, [sp, #4]
	flds	s13, [r3, #8]
	ldr	r3, [sp, #0]
	flds	s15, [r3, #4]
	fmuls	s15, s13, s15
	fadds	s12, s14, s15
	ldr	r3, [sp, #4]
	flds	s14, [r3, #4]
	ldr	r3, [sp, #0]
	flds	s15, [r3, #0]
	fmuls	s14, s14, s15
	ldr	r3, [sp, #4]
	flds	s13, [r3, #12]
	ldr	r3, [sp, #0]
	flds	s15, [r3, #4]
	fmuls	s15, s13, s15
	fadds	s15, s14, s15
	mov	r0, r4
	fmrs	r1, s12
	fmrs	r2, s15
	bl	_ZN6b2Vec2C1Eff
	.loc 1 436 0
	mov	r0, r4
	add	sp, sp, #8
	ldmfd	sp!, {r4, pc}
	.cfi_endproc
.LFE77:
	.size	_Z5b2MulRK7b2Mat22RK6b2Vec2, .-_Z5b2MulRK7b2Mat22RK6b2Vec2
	.section	.text._ZplRK6b2Vec2S1_,"axG",%progbits,_ZplRK6b2Vec2S1_,comdat
	.align	2
	.weak	_ZplRK6b2Vec2S1_
	.hidden	_ZplRK6b2Vec2S1_
	.type	_ZplRK6b2Vec2S1_, %function
_ZplRK6b2Vec2S1_:
.LFB79:
	.loc 1 447 0
	.cfi_startproc
	@ args = 0, pretend = 0, frame = 8
	@ frame_needed = 0, uses_anonymous_args = 0
	stmfd	sp!, {r4, lr}
.LCFI30:
	.cfi_def_cfa_offset 8
	sub	sp, sp, #8
.LCFI31:
	.cfi_def_cfa_offset 16
	mov	r4, r0
	.cfi_offset 14, -4
	.cfi_offset 4, -8
	str	r1, [sp, #4]
	str	r2, [sp, #0]
	.loc 1 448 0
	ldr	r3, [sp, #4]
	flds	s14, [r3, #0]
	ldr	r3, [sp, #0]
	flds	s15, [r3, #0]
	fadds	s13, s14, s15
	ldr	r3, [sp, #4]
	flds	s14, [r3, #4]
	ldr	r3, [sp, #0]
	flds	s15, [r3, #4]
	fadds	s15, s14, s15
	mov	r0, r4
	fmrs	r1, s13
	fmrs	r2, s15
	bl	_ZN6b2Vec2C1Eff
	.loc 1 449 0
	mov	r0, r4
	add	sp, sp, #8
	ldmfd	sp!, {r4, pc}
	.cfi_endproc
.LFE79:
	.size	_ZplRK6b2Vec2S1_, .-_ZplRK6b2Vec2S1_
	.section	.text._ZmiRK6b2Vec2S1_,"axG",%progbits,_ZmiRK6b2Vec2S1_,comdat
	.align	2
	.weak	_ZmiRK6b2Vec2S1_
	.hidden	_ZmiRK6b2Vec2S1_
	.type	_ZmiRK6b2Vec2S1_, %function
_ZmiRK6b2Vec2S1_:
.LFB80:
	.loc 1 453 0
	.cfi_startproc
	@ args = 0, pretend = 0, frame = 8
	@ frame_needed = 0, uses_anonymous_args = 0
	stmfd	sp!, {r4, lr}
.LCFI32:
	.cfi_def_cfa_offset 8
	sub	sp, sp, #8
.LCFI33:
	.cfi_def_cfa_offset 16
	mov	r4, r0
	.cfi_offset 14, -4
	.cfi_offset 4, -8
	str	r1, [sp, #4]
	str	r2, [sp, #0]
	.loc 1 454 0
	ldr	r3, [sp, #4]
	flds	s14, [r3, #0]
	ldr	r3, [sp, #0]
	flds	s15, [r3, #0]
	fsubs	s13, s14, s15
	ldr	r3, [sp, #4]
	flds	s14, [r3, #4]
	ldr	r3, [sp, #0]
	flds	s15, [r3, #4]
	fsubs	s15, s14, s15
	mov	r0, r4
	fmrs	r1, s13
	fmrs	r2, s15
	bl	_ZN6b2Vec2C1Eff
	.loc 1 455 0
	mov	r0, r4
	add	sp, sp, #8
	ldmfd	sp!, {r4, pc}
	.cfi_endproc
.LFE80:
	.size	_ZmiRK6b2Vec2S1_, .-_ZmiRK6b2Vec2S1_
	.section	.text._ZmlfRK6b2Vec2,"axG",%progbits,_ZmlfRK6b2Vec2,comdat
	.align	2
	.weak	_ZmlfRK6b2Vec2
	.hidden	_ZmlfRK6b2Vec2
	.type	_ZmlfRK6b2Vec2, %function
_ZmlfRK6b2Vec2:
.LFB81:
	.loc 1 458 0
	.cfi_startproc
	@ args = 0, pretend = 0, frame = 8
	@ frame_needed = 0, uses_anonymous_args = 0
	stmfd	sp!, {r4, lr}
.LCFI34:
	.cfi_def_cfa_offset 8
	sub	sp, sp, #8
.LCFI35:
	.cfi_def_cfa_offset 16
	mov	r4, r0
	.cfi_offset 14, -4
	.cfi_offset 4, -8
	str	r1, [sp, #4]	@ float
	str	r2, [sp, #0]
	.loc 1 459 0
	ldr	r3, [sp, #0]
	flds	s14, [r3, #0]
	flds	s15, [sp, #4]
	fmuls	s14, s14, s15
	ldr	r3, [sp, #0]
	flds	s13, [r3, #4]
	flds	s15, [sp, #4]
	fmuls	s15, s13, s15
	mov	r0, r4
	fmrs	r1, s14
	fmrs	r2, s15
	bl	_ZN6b2Vec2C1Eff
	.loc 1 460 0
	mov	r0, r4
	add	sp, sp, #8
	ldmfd	sp!, {r4, pc}
	.cfi_endproc
.LFE81:
	.size	_ZmlfRK6b2Vec2, .-_ZmlfRK6b2Vec2
	.section	.text._Z5b2MulRK5b2RotRK6b2Vec2,"axG",%progbits,_Z5b2MulRK5b2RotRK6b2Vec2,comdat
	.align	2
	.weak	_Z5b2MulRK5b2RotRK6b2Vec2
	.hidden	_Z5b2MulRK5b2RotRK6b2Vec2
	.type	_Z5b2MulRK5b2RotRK6b2Vec2, %function
_Z5b2MulRK5b2RotRK6b2Vec2:
.LFB97:
	.loc 1 567 0
	.cfi_startproc
	@ args = 0, pretend = 0, frame = 8
	@ frame_needed = 0, uses_anonymous_args = 0
	stmfd	sp!, {r4, lr}
.LCFI36:
	.cfi_def_cfa_offset 8
	sub	sp, sp, #8
.LCFI37:
	.cfi_def_cfa_offset 16
	mov	r4, r0
	.cfi_offset 14, -4
	.cfi_offset 4, -8
	str	r1, [sp, #4]
	str	r2, [sp, #0]
	.loc 1 568 0
	ldr	r3, [sp, #4]
	flds	s14, [r3, #4]
	ldr	r3, [sp, #0]
	flds	s15, [r3, #0]
	fmuls	s14, s14, s15
	ldr	r3, [sp, #4]
	flds	s13, [r3, #0]
	ldr	r3, [sp, #0]
	flds	s15, [r3, #4]
	fmuls	s15, s13, s15
	fsubs	s12, s14, s15
	ldr	r3, [sp, #4]
	flds	s14, [r3, #0]
	ldr	r3, [sp, #0]
	flds	s15, [r3, #0]
	fmuls	s14, s14, s15
	ldr	r3, [sp, #4]
	flds	s13, [r3, #4]
	ldr	r3, [sp, #0]
	flds	s15, [r3, #4]
	fmuls	s15, s13, s15
	fadds	s15, s14, s15
	mov	r0, r4
	fmrs	r1, s12
	fmrs	r2, s15
	bl	_ZN6b2Vec2C1Eff
	.loc 1 569 0
	mov	r0, r4
	add	sp, sp, #8
	ldmfd	sp!, {r4, pc}
	.cfi_endproc
.LFE97:
	.size	_Z5b2MulRK5b2RotRK6b2Vec2, .-_Z5b2MulRK5b2RotRK6b2Vec2
	.section	.text._Z5b2MulRK11b2TransformRK6b2Vec2,"axG",%progbits,_Z5b2MulRK11b2TransformRK6b2Vec2,comdat
	.align	2
	.weak	_Z5b2MulRK11b2TransformRK6b2Vec2
	.hidden	_Z5b2MulRK11b2TransformRK6b2Vec2
	.type	_Z5b2MulRK11b2TransformRK6b2Vec2, %function
_Z5b2MulRK11b2TransformRK6b2Vec2:
.LFB99:
	.loc 1 578 0
	.cfi_startproc
	@ args = 0, pretend = 0, frame = 16
	@ frame_needed = 0, uses_anonymous_args = 0
	stmfd	sp!, {r4, lr}
.LCFI38:
	.cfi_def_cfa_offset 8
	sub	sp, sp, #16
.LCFI39:
	.cfi_def_cfa_offset 24
	mov	r4, r0
	.cfi_offset 14, -4
	.cfi_offset 4, -8
	str	r1, [sp, #4]
	str	r2, [sp, #0]
.LBB5:
	.loc 1 579 0
	ldr	r3, [sp, #4]
	flds	s14, [r3, #12]
	ldr	r3, [sp, #0]
	flds	s15, [r3, #0]
	fmuls	s14, s14, s15
	ldr	r3, [sp, #4]
	flds	s13, [r3, #8]
	ldr	r3, [sp, #0]
	flds	s15, [r3, #4]
	fmuls	s15, s13, s15
	fsubs	s14, s14, s15
	ldr	r3, [sp, #4]
	flds	s15, [r3, #0]
	fadds	s15, s14, s15
	fsts	s15, [sp, #8]
	.loc 1 580 0
	ldr	r3, [sp, #4]
	flds	s14, [r3, #8]
	ldr	r3, [sp, #0]
	flds	s15, [r3, #0]
	fmuls	s14, s14, s15
	ldr	r3, [sp, #4]
	flds	s13, [r3, #12]
	ldr	r3, [sp, #0]
	flds	s15, [r3, #4]
	fmuls	s15, s13, s15
	fadds	s14, s14, s15
	ldr	r3, [sp, #4]
	flds	s15, [r3, #4]
	fadds	s15, s14, s15
	fsts	s15, [sp, #12]
	.loc 1 582 0
	mov	r0, r4
	ldr	r1, [sp, #8]	@ float
	ldr	r2, [sp, #12]	@ float
	bl	_ZN6b2Vec2C1Eff
.LBE5:
	.loc 1 583 0
	mov	r0, r4
	add	sp, sp, #16
	ldmfd	sp!, {r4, pc}
	.cfi_endproc
.LFE99:
	.size	_Z5b2MulRK11b2TransformRK6b2Vec2, .-_Z5b2MulRK11b2TransformRK6b2Vec2
	.section	.text._ZN9b2Fixture8GetShapeEv,"axG",%progbits,_ZN9b2Fixture8GetShapeEv,comdat
	.align	2
	.weak	_ZN9b2Fixture8GetShapeEv
	.hidden	_ZN9b2Fixture8GetShapeEv
	.type	_ZN9b2Fixture8GetShapeEv, %function
_ZN9b2Fixture8GetShapeEv:
.LFB491:
	.file 2 "v:/gigglingbits/box2d/Box2D/Dynamics/b2Fixture.h"
	.loc 2 244 0
	.cfi_startproc
	@ args = 0, pretend = 0, frame = 8
	@ frame_needed = 0, uses_anonymous_args = 0
	@ link register save eliminated.
	sub	sp, sp, #8
.LCFI40:
	.cfi_def_cfa_offset 8
	str	r0, [sp, #4]
	.loc 2 245 0
	ldr	r3, [sp, #4]
	ldr	r3, [r3, #12]
	.loc 2 246 0
	mov	r0, r3
	add	sp, sp, #8
	bx	lr
	.cfi_endproc
.LFE491:
	.size	_ZN9b2Fixture8GetShapeEv, .-_ZN9b2Fixture8GetShapeEv
	.section	.text._ZN9b2Fixture7GetBodyEv,"axG",%progbits,_ZN9b2Fixture7GetBodyEv,comdat
	.align	2
	.weak	_ZN9b2Fixture7GetBodyEv
	.hidden	_ZN9b2Fixture7GetBodyEv
	.type	_ZN9b2Fixture7GetBodyEv, %function
_ZN9b2Fixture7GetBodyEv:
.LFB497:
	.loc 2 274 0
	.cfi_startproc
	@ args = 0, pretend = 0, frame = 8
	@ frame_needed = 0, uses_anonymous_args = 0
	@ link register save eliminated.
	sub	sp, sp, #8
.LCFI41:
	.cfi_def_cfa_offset 8
	str	r0, [sp, #4]
	.loc 2 275 0
	ldr	r3, [sp, #4]
	ldr	r3, [r3, #8]
	.loc 2 276 0
	mov	r0, r3
	add	sp, sp, #8
	bx	lr
	.cfi_endproc
.LFE497:
	.size	_ZN9b2Fixture7GetBodyEv, .-_ZN9b2Fixture7GetBodyEv
	.section	.text._ZN9b2Contact11GetManifoldEv,"axG",%progbits,_ZN9b2Contact11GetManifoldEv,comdat
	.align	2
	.weak	_ZN9b2Contact11GetManifoldEv
	.hidden	_ZN9b2Contact11GetManifoldEv
	.type	_ZN9b2Contact11GetManifoldEv, %function
_ZN9b2Contact11GetManifoldEv:
.LFB526:
	.file 3 "v:/gigglingbits/box2d/Box2D/Dynamics/Contacts/b2Contact.h"
	.loc 3 223 0
	.cfi_startproc
	@ args = 0, pretend = 0, frame = 8
	@ frame_needed = 0, uses_anonymous_args = 0
	@ link register save eliminated.
	sub	sp, sp, #8
.LCFI42:
	.cfi_def_cfa_offset 8
	str	r0, [sp, #4]
	.loc 3 224 0
	ldr	r3, [sp, #4]
	add	r3, r3, #64
	.loc 3 225 0
	mov	r0, r3
	add	sp, sp, #8
	bx	lr
	.cfi_endproc
.LFE526:
	.size	_ZN9b2Contact11GetManifoldEv, .-_ZN9b2Contact11GetManifoldEv
	.section	.rodata
	.align	2
.LC0:
	.ascii	"v:/gigglingbits/box2d/Box2D/Dynamics/Contacts/b2Con"
	.ascii	"tactSolver.cpp\000"
	.align	2
.LC1:
	.ascii	"pointCount > 0\000"
	.section	.text._ZN15b2ContactSolverC2EP18b2ContactSolverDef,"ax",%progbits
	.align	2
	.global	_ZN15b2ContactSolverC2EP18b2ContactSolverDef
	.hidden	_ZN15b2ContactSolverC2EP18b2ContactSolverDef
	.type	_ZN15b2ContactSolverC2EP18b2ContactSolverDef, %function
_ZN15b2ContactSolverC2EP18b2ContactSolverDef:
.LFB809:
	.file 4 "v:/gigglingbits/box2d/Box2D/Dynamics/Contacts/b2ContactSolver.cpp"
	.loc 4 44 0
	.cfi_startproc
	@ args = 0, pretend = 0, frame = 80
	@ frame_needed = 0, uses_anonymous_args = 0
	str	lr, [sp, #-4]!
.LCFI43:
	.cfi_def_cfa_offset 4
	sub	sp, sp, #84
.LCFI44:
	.cfi_def_cfa_offset 88
	str	r0, [sp, #4]
	str	r1, [sp, #0]
	.loc 4 46 0
	ldr	r2, [sp, #4]
	ldr	r3, [sp, #0]
	mov	ip, r2
	mov	lr, r3
	.cfi_offset 14, -4
	ldmia	lr!, {r0, r1, r2, r3}
	stmia	ip!, {r0, r1, r2, r3}
	ldmia	lr, {r0, r1}
	stmia	ip, {r0, r1}
	.loc 4 47 0
	ldr	r3, [sp, #0]
	ldr	r2, [r3, #40]
	ldr	r3, [sp, #4]
	str	r2, [r3, #32]
	.loc 4 48 0
	ldr	r3, [sp, #0]
	ldr	r2, [r3, #28]
	ldr	r3, [sp, #4]
	str	r2, [r3, #48]
	.loc 4 49 0
	ldr	r3, [sp, #4]
	ldr	r2, [r3, #32]
	ldr	r3, [sp, #4]
	ldr	r3, [r3, #48]
	mov	r1, #88
	mul	r3, r1, r3
	mov	r0, r2
	mov	r1, r3
	bl	_ZN16b2StackAllocator8AllocateEi
	mov	r3, r0
	mov	r2, r3
	ldr	r3, [sp, #4]
	str	r2, [r3, #36]
	.loc 4 50 0
	ldr	r3, [sp, #4]
	ldr	r2, [r3, #32]
	ldr	r3, [sp, #4]
	ldr	r3, [r3, #48]
	mov	r1, #156
	mul	r3, r1, r3
	mov	r0, r2
	mov	r1, r3
	bl	_ZN16b2StackAllocator8AllocateEi
	mov	r3, r0
	mov	r2, r3
	ldr	r3, [sp, #4]
	str	r2, [r3, #40]
	.loc 4 51 0
	ldr	r3, [sp, #0]
	ldr	r2, [r3, #32]
	ldr	r3, [sp, #4]
	str	r2, [r3, #24]
	.loc 4 52 0
	ldr	r3, [sp, #0]
	ldr	r2, [r3, #36]
	ldr	r3, [sp, #4]
	str	r2, [r3, #28]
	.loc 4 53 0
	ldr	r3, [sp, #0]
	ldr	r2, [r3, #24]
	ldr	r3, [sp, #4]
	str	r2, [r3, #44]
.LBB6:
	.loc 4 56 0
	mov	r3, #0
	str	r3, [sp, #12]
	b	.L77
.L83:
.LBB7:
	.loc 4 58 0
	ldr	r3, [sp, #4]
	ldr	r2, [r3, #44]
	ldr	r3, [sp, #12]
	mov	r3, r3, asl #2
	add	r3, r2, r3
	ldr	r3, [r3, #0]
	str	r3, [sp, #16]
	.loc 4 60 0
	ldr	r3, [sp, #16]
	ldr	r3, [r3, #48]
	str	r3, [sp, #20]
	.loc 4 61 0
	ldr	r3, [sp, #16]
	ldr	r3, [r3, #52]
	str	r3, [sp, #24]
	.loc 4 62 0
	ldr	r0, [sp, #20]
	bl	_ZN9b2Fixture8GetShapeEv
	mov	r3, r0
	str	r3, [sp, #28]
	.loc 4 63 0
	ldr	r0, [sp, #24]
	bl	_ZN9b2Fixture8GetShapeEv
	mov	r3, r0
	str	r3, [sp, #32]
	.loc 4 64 0
	ldr	r3, [sp, #28]
	flds	s15, [r3, #8]
	fsts	s15, [sp, #36]
	.loc 4 65 0
	ldr	r3, [sp, #32]
	flds	s15, [r3, #8]
	fsts	s15, [sp, #40]
	.loc 4 66 0
	ldr	r0, [sp, #20]
	bl	_ZN9b2Fixture7GetBodyEv
	mov	r3, r0
	str	r3, [sp, #44]
	.loc 4 67 0
	ldr	r0, [sp, #24]
	bl	_ZN9b2Fixture7GetBodyEv
	mov	r3, r0
	str	r3, [sp, #48]
	.loc 4 68 0
	ldr	r0, [sp, #16]
	bl	_ZN9b2Contact11GetManifoldEv
	mov	r3, r0
	str	r3, [sp, #52]
	.loc 4 70 0
	ldr	r3, [sp, #52]
	ldr	r3, [r3, #60]
	str	r3, [sp, #56]
	.loc 4 71 0
	ldr	r3, [sp, #56]
	cmp	r3, #0
	bgt	.L78
	ldr	r0, .L86+4
	mov	r1, #71
	ldr	r2, .L86+8
	bl	__assert
.L78:
	.loc 4 73 0
	ldr	r3, [sp, #4]
	ldr	r2, [r3, #40]
	ldr	r3, [sp, #12]
	mov	r1, #156
	mul	r3, r1, r3
	add	r3, r2, r3
	str	r3, [sp, #60]
	.loc 4 74 0
	ldr	r3, [sp, #16]
	flds	s15, [r3, #136]
	ldr	r3, [sp, #60]
	fsts	s15, [r3, #136]
	.loc 4 75 0
	ldr	r3, [sp, #16]
	flds	s15, [r3, #140]
	ldr	r3, [sp, #60]
	fsts	s15, [r3, #140]
	.loc 4 76 0
	ldr	r3, [sp, #16]
	flds	s15, [r3, #144]
	ldr	r3, [sp, #60]
	fsts	s15, [r3, #144]
	.loc 4 77 0
	ldr	r3, [sp, #44]
	ldr	r2, [r3, #8]
	ldr	r3, [sp, #60]
	str	r2, [r3, #112]
	.loc 4 78 0
	ldr	r3, [sp, #48]
	ldr	r2, [r3, #8]
	ldr	r3, [sp, #60]
	str	r2, [r3, #116]
	.loc 4 79 0
	ldr	r3, [sp, #44]
	flds	s15, [r3, #120]
	ldr	r3, [sp, #60]
	fsts	s15, [r3, #120]
	.loc 4 80 0
	ldr	r3, [sp, #48]
	flds	s15, [r3, #120]
	ldr	r3, [sp, #60]
	fsts	s15, [r3, #124]
	.loc 4 81 0
	ldr	r3, [sp, #44]
	flds	s15, [r3, #128]
	ldr	r3, [sp, #60]
	fsts	s15, [r3, #128]
	.loc 4 82 0
	ldr	r3, [sp, #48]
	flds	s15, [r3, #128]
	ldr	r3, [sp, #60]
	fsts	s15, [r3, #132]
	.loc 4 83 0
	ldr	r3, [sp, #60]
	ldr	r2, [sp, #12]
	str	r2, [r3, #152]
	.loc 4 84 0
	ldr	r3, [sp, #60]
	ldr	r2, [sp, #56]
	str	r2, [r3, #148]
	.loc 4 85 0
	ldr	r3, [sp, #60]
	add	r3, r3, #96
	mov	r0, r3
	bl	_ZN7b2Mat227SetZeroEv
	.loc 4 86 0
	ldr	r3, [sp, #60]
	add	r3, r3, #80
	mov	r0, r3
	bl	_ZN7b2Mat227SetZeroEv
	.loc 4 88 0
	ldr	r3, [sp, #4]
	ldr	r2, [r3, #36]
	ldr	r3, [sp, #12]
	mov	r1, #88
	mul	r3, r1, r3
	add	r3, r2, r3
	str	r3, [sp, #64]
	.loc 4 89 0
	ldr	r3, [sp, #44]
	ldr	r2, [r3, #8]
	ldr	r3, [sp, #64]
	str	r2, [r3, #32]
	.loc 4 90 0
	ldr	r3, [sp, #48]
	ldr	r2, [r3, #8]
	ldr	r3, [sp, #64]
	str	r2, [r3, #36]
	.loc 4 91 0
	ldr	r3, [sp, #44]
	flds	s15, [r3, #120]
	ldr	r3, [sp, #64]
	fsts	s15, [r3, #40]
	.loc 4 92 0
	ldr	r3, [sp, #48]
	flds	s15, [r3, #120]
	ldr	r3, [sp, #64]
	fsts	s15, [r3, #44]
	.loc 4 93 0
	ldr	r3, [sp, #64]
	ldr	r2, [sp, #44]
	add	r3, r3, #48
	add	r2, r2, #28
	ldmia	r2, {r0, r1}
	stmia	r3, {r0, r1}
	.loc 4 94 0
	ldr	r3, [sp, #64]
	ldr	r2, [sp, #48]
	add	r3, r3, #56
	add	r2, r2, #28
	ldmia	r2, {r0, r1}
	stmia	r3, {r0, r1}
	.loc 4 95 0
	ldr	r3, [sp, #44]
	flds	s15, [r3, #128]
	ldr	r3, [sp, #64]
	fsts	s15, [r3, #64]
	.loc 4 96 0
	ldr	r3, [sp, #48]
	flds	s15, [r3, #128]
	ldr	r3, [sp, #64]
	fsts	s15, [r3, #68]
	.loc 4 97 0
	ldr	r3, [sp, #64]
	ldr	r2, [sp, #52]
	add	r3, r3, #16
	add	r2, r2, #40
	ldmia	r2, {r0, r1}
	stmia	r3, {r0, r1}
	.loc 4 98 0
	ldr	r3, [sp, #64]
	ldr	r2, [sp, #52]
	add	r3, r3, #24
	add	r2, r2, #48
	ldmia	r2, {r0, r1}
	stmia	r3, {r0, r1}
	.loc 4 99 0
	ldr	r3, [sp, #64]
	ldr	r2, [sp, #56]
	str	r2, [r3, #84]
	.loc 4 100 0
	ldr	r3, [sp, #64]
	flds	s15, [sp, #36]
	fsts	s15, [r3, #76]
	.loc 4 101 0
	ldr	r3, [sp, #64]
	flds	s15, [sp, #40]
	fsts	s15, [r3, #80]
	.loc 4 102 0
	ldr	r3, [sp, #52]
	ldr	r2, [r3, #56]
	ldr	r3, [sp, #64]
	str	r2, [r3, #72]
.LBB8:
	.loc 4 104 0
	mov	r3, #0
	str	r3, [sp, #68]
	b	.L79
.L82:
.LBB9:
	.loc 4 106 0
	ldr	r1, [sp, #52]
	ldr	r2, [sp, #68]
	mov	r3, r2
	mov	r3, r3, asl #2
	add	r3, r3, r2
	mov	r3, r3, asl #2
	add	r3, r1, r3
	str	r3, [sp, #72]
	.loc 4 107 0
	ldr	r1, [sp, #60]
	ldr	r2, [sp, #68]
	mov	r3, r2
	mov	r3, r3, asl #3
	add	r3, r3, r2
	mov	r3, r3, asl #2
	add	r3, r1, r3
	str	r3, [sp, #76]
	.loc 4 109 0
	ldr	r3, [sp, #4]
	ldrb	r3, [r3, #20]	@ zero_extendqisi2
	cmp	r3, #0
	beq	.L80
	.loc 4 111 0
	ldr	r3, [sp, #4]
	flds	s14, [r3, #8]
	ldr	r3, [sp, #72]
	flds	s15, [r3, #8]
	fmuls	s15, s14, s15
	ldr	r3, [sp, #76]
	fsts	s15, [r3, #16]
	.loc 4 112 0
	ldr	r3, [sp, #4]
	flds	s14, [r3, #8]
	ldr	r3, [sp, #72]
	flds	s15, [r3, #12]
	fmuls	s15, s14, s15
	ldr	r3, [sp, #76]
	fsts	s15, [r3, #20]
	b	.L81
.L80:
	.loc 4 116 0
	ldr	r3, [sp, #76]
	flds	s15, .L86
	fsts	s15, [r3, #16]
	.loc 4 117 0
	ldr	r3, [sp, #76]
	flds	s15, .L86
	fsts	s15, [r3, #20]
.L81:
	.loc 4 120 0
	ldr	r3, [sp, #76]
	mov	r0, r3
	bl	_ZN6b2Vec27SetZeroEv
	.loc 4 121 0
	ldr	r3, [sp, #76]
	add	r3, r3, #8
	mov	r0, r3
	bl	_ZN6b2Vec27SetZeroEv
	.loc 4 122 0
	ldr	r3, [sp, #76]
	flds	s15, .L86
	fsts	s15, [r3, #24]
	.loc 4 123 0
	ldr	r3, [sp, #76]
	flds	s15, .L86
	fsts	s15, [r3, #28]
	.loc 4 124 0
	ldr	r3, [sp, #76]
	flds	s15, .L86
	fsts	s15, [r3, #32]
	.loc 4 126 0
	ldr	r3, [sp, #68]
	ldr	r1, [sp, #64]
	ldr	r2, [sp, #72]
	mov	r3, r3, asl #3
	add	r3, r3, r1
	ldmia	r2, {r0, r1}
	stmia	r3, {r0, r1}
.LBE9:
	.loc 4 104 0
	ldr	r3, [sp, #68]
	add	r3, r3, #1
	str	r3, [sp, #68]
.L79:
	ldr	r2, [sp, #68]
	ldr	r3, [sp, #56]
	cmp	r2, r3
	movge	r3, #0
	movlt	r3, #1
	and	r3, r3, #255
	cmp	r3, #0
	bne	.L82
.LBE8:
.LBE7:
	.loc 4 56 0
	ldr	r3, [sp, #12]
	add	r3, r3, #1
	str	r3, [sp, #12]
.L77:
	ldr	r3, [sp, #4]
	ldr	r2, [r3, #48]
	ldr	r3, [sp, #12]
	cmp	r2, r3
	movle	r3, #0
	movgt	r3, #1
	and	r3, r3, #255
	cmp	r3, #0
	bne	.L83
.LBE6:
	.loc 4 129 0
	ldr	r3, [sp, #4]
	mov	r0, r3
	add	sp, sp, #84
	ldmfd	sp!, {pc}
.L87:
	.align	2
.L86:
	.word	0
	.word	.LC0
	.word	.LC1
	.cfi_endproc
.LFE809:
	.size	_ZN15b2ContactSolverC2EP18b2ContactSolverDef, .-_ZN15b2ContactSolverC2EP18b2ContactSolverDef
	.section	.text._ZN15b2ContactSolverC1EP18b2ContactSolverDef,"ax",%progbits
	.align	2
	.global	_ZN15b2ContactSolverC1EP18b2ContactSolverDef
	.hidden	_ZN15b2ContactSolverC1EP18b2ContactSolverDef
	.type	_ZN15b2ContactSolverC1EP18b2ContactSolverDef, %function
_ZN15b2ContactSolverC1EP18b2ContactSolverDef:
.LFB810:
	.loc 4 44 0
	.cfi_startproc
	@ args = 0, pretend = 0, frame = 80
	@ frame_needed = 0, uses_anonymous_args = 0
	str	lr, [sp, #-4]!
.LCFI45:
	.cfi_def_cfa_offset 4
	sub	sp, sp, #84
.LCFI46:
	.cfi_def_cfa_offset 88
	str	r0, [sp, #4]
	str	r1, [sp, #0]
	.loc 4 46 0
	ldr	r2, [sp, #4]
	ldr	r3, [sp, #0]
	mov	ip, r2
	mov	lr, r3
	.cfi_offset 14, -4
	ldmia	lr!, {r0, r1, r2, r3}
	stmia	ip!, {r0, r1, r2, r3}
	ldmia	lr, {r0, r1}
	stmia	ip, {r0, r1}
	.loc 4 47 0
	ldr	r3, [sp, #0]
	ldr	r2, [r3, #40]
	ldr	r3, [sp, #4]
	str	r2, [r3, #32]
	.loc 4 48 0
	ldr	r3, [sp, #0]
	ldr	r2, [r3, #28]
	ldr	r3, [sp, #4]
	str	r2, [r3, #48]
	.loc 4 49 0
	ldr	r3, [sp, #4]
	ldr	r2, [r3, #32]
	ldr	r3, [sp, #4]
	ldr	r3, [r3, #48]
	mov	r1, #88
	mul	r3, r1, r3
	mov	r0, r2
	mov	r1, r3
	bl	_ZN16b2StackAllocator8AllocateEi
	mov	r3, r0
	mov	r2, r3
	ldr	r3, [sp, #4]
	str	r2, [r3, #36]
	.loc 4 50 0
	ldr	r3, [sp, #4]
	ldr	r2, [r3, #32]
	ldr	r3, [sp, #4]
	ldr	r3, [r3, #48]
	mov	r1, #156
	mul	r3, r1, r3
	mov	r0, r2
	mov	r1, r3
	bl	_ZN16b2StackAllocator8AllocateEi
	mov	r3, r0
	mov	r2, r3
	ldr	r3, [sp, #4]
	str	r2, [r3, #40]
	.loc 4 51 0
	ldr	r3, [sp, #0]
	ldr	r2, [r3, #32]
	ldr	r3, [sp, #4]
	str	r2, [r3, #24]
	.loc 4 52 0
	ldr	r3, [sp, #0]
	ldr	r2, [r3, #36]
	ldr	r3, [sp, #4]
	str	r2, [r3, #28]
	.loc 4 53 0
	ldr	r3, [sp, #0]
	ldr	r2, [r3, #24]
	ldr	r3, [sp, #4]
	str	r2, [r3, #44]
.LBB10:
	.loc 4 56 0
	mov	r3, #0
	str	r3, [sp, #12]
	b	.L89
.L95:
.LBB11:
	.loc 4 58 0
	ldr	r3, [sp, #4]
	ldr	r2, [r3, #44]
	ldr	r3, [sp, #12]
	mov	r3, r3, asl #2
	add	r3, r2, r3
	ldr	r3, [r3, #0]
	str	r3, [sp, #16]
	.loc 4 60 0
	ldr	r3, [sp, #16]
	ldr	r3, [r3, #48]
	str	r3, [sp, #20]
	.loc 4 61 0
	ldr	r3, [sp, #16]
	ldr	r3, [r3, #52]
	str	r3, [sp, #24]
	.loc 4 62 0
	ldr	r0, [sp, #20]
	bl	_ZN9b2Fixture8GetShapeEv
	mov	r3, r0
	str	r3, [sp, #28]
	.loc 4 63 0
	ldr	r0, [sp, #24]
	bl	_ZN9b2Fixture8GetShapeEv
	mov	r3, r0
	str	r3, [sp, #32]
	.loc 4 64 0
	ldr	r3, [sp, #28]
	flds	s15, [r3, #8]
	fsts	s15, [sp, #36]
	.loc 4 65 0
	ldr	r3, [sp, #32]
	flds	s15, [r3, #8]
	fsts	s15, [sp, #40]
	.loc 4 66 0
	ldr	r0, [sp, #20]
	bl	_ZN9b2Fixture7GetBodyEv
	mov	r3, r0
	str	r3, [sp, #44]
	.loc 4 67 0
	ldr	r0, [sp, #24]
	bl	_ZN9b2Fixture7GetBodyEv
	mov	r3, r0
	str	r3, [sp, #48]
	.loc 4 68 0
	ldr	r0, [sp, #16]
	bl	_ZN9b2Contact11GetManifoldEv
	mov	r3, r0
	str	r3, [sp, #52]
	.loc 4 70 0
	ldr	r3, [sp, #52]
	ldr	r3, [r3, #60]
	str	r3, [sp, #56]
	.loc 4 71 0
	ldr	r3, [sp, #56]
	cmp	r3, #0
	bgt	.L90
	ldr	r0, .L98+4
	mov	r1, #71
	ldr	r2, .L98+8
	bl	__assert
.L90:
	.loc 4 73 0
	ldr	r3, [sp, #4]
	ldr	r2, [r3, #40]
	ldr	r3, [sp, #12]
	mov	r1, #156
	mul	r3, r1, r3
	add	r3, r2, r3
	str	r3, [sp, #60]
	.loc 4 74 0
	ldr	r3, [sp, #16]
	flds	s15, [r3, #136]
	ldr	r3, [sp, #60]
	fsts	s15, [r3, #136]
	.loc 4 75 0
	ldr	r3, [sp, #16]
	flds	s15, [r3, #140]
	ldr	r3, [sp, #60]
	fsts	s15, [r3, #140]
	.loc 4 76 0
	ldr	r3, [sp, #16]
	flds	s15, [r3, #144]
	ldr	r3, [sp, #60]
	fsts	s15, [r3, #144]
	.loc 4 77 0
	ldr	r3, [sp, #44]
	ldr	r2, [r3, #8]
	ldr	r3, [sp, #60]
	str	r2, [r3, #112]
	.loc 4 78 0
	ldr	r3, [sp, #48]
	ldr	r2, [r3, #8]
	ldr	r3, [sp, #60]
	str	r2, [r3, #116]
	.loc 4 79 0
	ldr	r3, [sp, #44]
	flds	s15, [r3, #120]
	ldr	r3, [sp, #60]
	fsts	s15, [r3, #120]
	.loc 4 80 0
	ldr	r3, [sp, #48]
	flds	s15, [r3, #120]
	ldr	r3, [sp, #60]
	fsts	s15, [r3, #124]
	.loc 4 81 0
	ldr	r3, [sp, #44]
	flds	s15, [r3, #128]
	ldr	r3, [sp, #60]
	fsts	s15, [r3, #128]
	.loc 4 82 0
	ldr	r3, [sp, #48]
	flds	s15, [r3, #128]
	ldr	r3, [sp, #60]
	fsts	s15, [r3, #132]
	.loc 4 83 0
	ldr	r3, [sp, #60]
	ldr	r2, [sp, #12]
	str	r2, [r3, #152]
	.loc 4 84 0
	ldr	r3, [sp, #60]
	ldr	r2, [sp, #56]
	str	r2, [r3, #148]
	.loc 4 85 0
	ldr	r3, [sp, #60]
	add	r3, r3, #96
	mov	r0, r3
	bl	_ZN7b2Mat227SetZeroEv
	.loc 4 86 0
	ldr	r3, [sp, #60]
	add	r3, r3, #80
	mov	r0, r3
	bl	_ZN7b2Mat227SetZeroEv
	.loc 4 88 0
	ldr	r3, [sp, #4]
	ldr	r2, [r3, #36]
	ldr	r3, [sp, #12]
	mov	r1, #88
	mul	r3, r1, r3
	add	r3, r2, r3
	str	r3, [sp, #64]
	.loc 4 89 0
	ldr	r3, [sp, #44]
	ldr	r2, [r3, #8]
	ldr	r3, [sp, #64]
	str	r2, [r3, #32]
	.loc 4 90 0
	ldr	r3, [sp, #48]
	ldr	r2, [r3, #8]
	ldr	r3, [sp, #64]
	str	r2, [r3, #36]
	.loc 4 91 0
	ldr	r3, [sp, #44]
	flds	s15, [r3, #120]
	ldr	r3, [sp, #64]
	fsts	s15, [r3, #40]
	.loc 4 92 0
	ldr	r3, [sp, #48]
	flds	s15, [r3, #120]
	ldr	r3, [sp, #64]
	fsts	s15, [r3, #44]
	.loc 4 93 0
	ldr	r3, [sp, #64]
	ldr	r2, [sp, #44]
	add	r3, r3, #48
	add	r2, r2, #28
	ldmia	r2, {r0, r1}
	stmia	r3, {r0, r1}
	.loc 4 94 0
	ldr	r3, [sp, #64]
	ldr	r2, [sp, #48]
	add	r3, r3, #56
	add	r2, r2, #28
	ldmia	r2, {r0, r1}
	stmia	r3, {r0, r1}
	.loc 4 95 0
	ldr	r3, [sp, #44]
	flds	s15, [r3, #128]
	ldr	r3, [sp, #64]
	fsts	s15, [r3, #64]
	.loc 4 96 0
	ldr	r3, [sp, #48]
	flds	s15, [r3, #128]
	ldr	r3, [sp, #64]
	fsts	s15, [r3, #68]
	.loc 4 97 0
	ldr	r3, [sp, #64]
	ldr	r2, [sp, #52]
	add	r3, r3, #16
	add	r2, r2, #40
	ldmia	r2, {r0, r1}
	stmia	r3, {r0, r1}
	.loc 4 98 0
	ldr	r3, [sp, #64]
	ldr	r2, [sp, #52]
	add	r3, r3, #24
	add	r2, r2, #48
	ldmia	r2, {r0, r1}
	stmia	r3, {r0, r1}
	.loc 4 99 0
	ldr	r3, [sp, #64]
	ldr	r2, [sp, #56]
	str	r2, [r3, #84]
	.loc 4 100 0
	ldr	r3, [sp, #64]
	flds	s15, [sp, #36]
	fsts	s15, [r3, #76]
	.loc 4 101 0
	ldr	r3, [sp, #64]
	flds	s15, [sp, #40]
	fsts	s15, [r3, #80]
	.loc 4 102 0
	ldr	r3, [sp, #52]
	ldr	r2, [r3, #56]
	ldr	r3, [sp, #64]
	str	r2, [r3, #72]
.LBB12:
	.loc 4 104 0
	mov	r3, #0
	str	r3, [sp, #68]
	b	.L91
.L94:
.LBB13:
	.loc 4 106 0
	ldr	r1, [sp, #52]
	ldr	r2, [sp, #68]
	mov	r3, r2
	mov	r3, r3, asl #2
	add	r3, r3, r2
	mov	r3, r3, asl #2
	add	r3, r1, r3
	str	r3, [sp, #72]
	.loc 4 107 0
	ldr	r1, [sp, #60]
	ldr	r2, [sp, #68]
	mov	r3, r2
	mov	r3, r3, asl #3
	add	r3, r3, r2
	mov	r3, r3, asl #2
	add	r3, r1, r3
	str	r3, [sp, #76]
	.loc 4 109 0
	ldr	r3, [sp, #4]
	ldrb	r3, [r3, #20]	@ zero_extendqisi2
	cmp	r3, #0
	beq	.L92
	.loc 4 111 0
	ldr	r3, [sp, #4]
	flds	s14, [r3, #8]
	ldr	r3, [sp, #72]
	flds	s15, [r3, #8]
	fmuls	s15, s14, s15
	ldr	r3, [sp, #76]
	fsts	s15, [r3, #16]
	.loc 4 112 0
	ldr	r3, [sp, #4]
	flds	s14, [r3, #8]
	ldr	r3, [sp, #72]
	flds	s15, [r3, #12]
	fmuls	s15, s14, s15
	ldr	r3, [sp, #76]
	fsts	s15, [r3, #20]
	b	.L93
.L92:
	.loc 4 116 0
	ldr	r3, [sp, #76]
	flds	s15, .L98
	fsts	s15, [r3, #16]
	.loc 4 117 0
	ldr	r3, [sp, #76]
	flds	s15, .L98
	fsts	s15, [r3, #20]
.L93:
	.loc 4 120 0
	ldr	r3, [sp, #76]
	mov	r0, r3
	bl	_ZN6b2Vec27SetZeroEv
	.loc 4 121 0
	ldr	r3, [sp, #76]
	add	r3, r3, #8
	mov	r0, r3
	bl	_ZN6b2Vec27SetZeroEv
	.loc 4 122 0
	ldr	r3, [sp, #76]
	flds	s15, .L98
	fsts	s15, [r3, #24]
	.loc 4 123 0
	ldr	r3, [sp, #76]
	flds	s15, .L98
	fsts	s15, [r3, #28]
	.loc 4 124 0
	ldr	r3, [sp, #76]
	flds	s15, .L98
	fsts	s15, [r3, #32]
	.loc 4 126 0
	ldr	r3, [sp, #68]
	ldr	r1, [sp, #64]
	ldr	r2, [sp, #72]
	mov	r3, r3, asl #3
	add	r3, r3, r1
	ldmia	r2, {r0, r1}
	stmia	r3, {r0, r1}
.LBE13:
	.loc 4 104 0
	ldr	r3, [sp, #68]
	add	r3, r3, #1
	str	r3, [sp, #68]
.L91:
	ldr	r2, [sp, #68]
	ldr	r3, [sp, #56]
	cmp	r2, r3
	movge	r3, #0
	movlt	r3, #1
	and	r3, r3, #255
	cmp	r3, #0
	bne	.L94
.LBE12:
.LBE11:
	.loc 4 56 0
	ldr	r3, [sp, #12]
	add	r3, r3, #1
	str	r3, [sp, #12]
.L89:
	ldr	r3, [sp, #4]
	ldr	r2, [r3, #48]
	ldr	r3, [sp, #12]
	cmp	r2, r3
	movle	r3, #0
	movgt	r3, #1
	and	r3, r3, #255
	cmp	r3, #0
	bne	.L95
.LBE10:
	.loc 4 129 0
	ldr	r3, [sp, #4]
	mov	r0, r3
	add	sp, sp, #84
	ldmfd	sp!, {pc}
.L99:
	.align	2
.L98:
	.word	0
	.word	.LC0
	.word	.LC1
	.cfi_endproc
.LFE810:
	.size	_ZN15b2ContactSolverC1EP18b2ContactSolverDef, .-_ZN15b2ContactSolverC1EP18b2ContactSolverDef
	.section	.text._ZN15b2ContactSolverD2Ev,"ax",%progbits
	.align	2
	.global	_ZN15b2ContactSolverD2Ev
	.hidden	_ZN15b2ContactSolverD2Ev
	.type	_ZN15b2ContactSolverD2Ev, %function
_ZN15b2ContactSolverD2Ev:
.LFB812:
	.loc 4 131 0
	.cfi_startproc
	@ args = 0, pretend = 0, frame = 8
	@ frame_needed = 0, uses_anonymous_args = 0
	str	lr, [sp, #-4]!
.LCFI47:
	.cfi_def_cfa_offset 4
	sub	sp, sp, #12
.LCFI48:
	.cfi_def_cfa_offset 16
	str	r0, [sp, #4]
	.loc 4 133 0
	ldr	r3, [sp, #4]
	ldr	r2, [r3, #32]
	ldr	r3, [sp, #4]
	ldr	r3, [r3, #40]
	mov	r0, r2
	mov	r1, r3
	.cfi_offset 14, -4
	bl	_ZN16b2StackAllocator4FreeEPv
	.loc 4 134 0
	ldr	r3, [sp, #4]
	ldr	r2, [r3, #32]
	ldr	r3, [sp, #4]
	ldr	r3, [r3, #36]
	mov	r0, r2
	mov	r1, r3
	bl	_ZN16b2StackAllocator4FreeEPv
	.loc 4 135 0
	ldr	r3, [sp, #4]
	mov	r0, r3
	add	sp, sp, #12
	ldmfd	sp!, {pc}
	.cfi_endproc
.LFE812:
	.size	_ZN15b2ContactSolverD2Ev, .-_ZN15b2ContactSolverD2Ev
	.section	.text._ZN15b2ContactSolverD1Ev,"ax",%progbits
	.align	2
	.global	_ZN15b2ContactSolverD1Ev
	.hidden	_ZN15b2ContactSolverD1Ev
	.type	_ZN15b2ContactSolverD1Ev, %function
_ZN15b2ContactSolverD1Ev:
.LFB813:
	.loc 4 131 0
	.cfi_startproc
	@ args = 0, pretend = 0, frame = 8
	@ frame_needed = 0, uses_anonymous_args = 0
	str	lr, [sp, #-4]!
.LCFI49:
	.cfi_def_cfa_offset 4
	sub	sp, sp, #12
.LCFI50:
	.cfi_def_cfa_offset 16
	str	r0, [sp, #4]
	.loc 4 133 0
	ldr	r3, [sp, #4]
	ldr	r2, [r3, #32]
	ldr	r3, [sp, #4]
	ldr	r3, [r3, #40]
	mov	r0, r2
	mov	r1, r3
	.cfi_offset 14, -4
	bl	_ZN16b2StackAllocator4FreeEPv
	.loc 4 134 0
	ldr	r3, [sp, #4]
	ldr	r2, [r3, #32]
	ldr	r3, [sp, #4]
	ldr	r3, [r3, #36]
	mov	r0, r2
	mov	r1, r3
	bl	_ZN16b2StackAllocator4FreeEPv
	.loc 4 135 0
	ldr	r3, [sp, #4]
	mov	r0, r3
	add	sp, sp, #12
	ldmfd	sp!, {pc}
	.cfi_endproc
.LFE813:
	.size	_ZN15b2ContactSolverD1Ev, .-_ZN15b2ContactSolverD1Ev
	.section	.text._ZN15b2WorldManifoldC1Ev,"axG",%progbits,_ZN15b2WorldManifoldC1Ev,comdat
	.align	2
	.weak	_ZN15b2WorldManifoldC1Ev
	.hidden	_ZN15b2WorldManifoldC1Ev
	.type	_ZN15b2WorldManifoldC1Ev, %function
_ZN15b2WorldManifoldC1Ev:
.LFB817:
	.file 5 "v:/gigglingbits/box2d/Box2D/Collision/b2Collision.h"
	.loc 5 111 0
	.cfi_startproc
	@ args = 0, pretend = 0, frame = 8
	@ frame_needed = 0, uses_anonymous_args = 0
	stmfd	sp!, {r4, r5, lr}
.LCFI51:
	.cfi_def_cfa_offset 12
	sub	sp, sp, #12
.LCFI52:
	.cfi_def_cfa_offset 24
	str	r0, [sp, #4]
	.loc 5 111 0
	ldr	r3, [sp, #4]
	mov	r0, r3
	.cfi_offset 14, -4
	.cfi_offset 5, -8
	.cfi_offset 4, -12
	bl	_ZN6b2Vec2C1Ev
	ldr	r3, [sp, #4]
	add	r3, r3, #8
	mov	r5, r3
	mov	r4, #1
	b	.L107
.L108:
	mov	r0, r5
	bl	_ZN6b2Vec2C1Ev
	add	r5, r5, #8
	sub	r4, r4, #1
.L107:
	cmn	r4, #1
	moveq	r3, #0
	movne	r3, #1
	and	r3, r3, #255
	cmp	r3, #0
	bne	.L108
	ldr	r3, [sp, #4]
	mov	r0, r3
	add	sp, sp, #12
	ldmfd	sp!, {r4, r5, pc}
	.cfi_endproc
.LFE817:
	.size	_ZN15b2WorldManifoldC1Ev, .-_ZN15b2WorldManifoldC1Ev
	.section	.rodata
	.align	2
.LC2:
	.ascii	"manifold->pointCount > 0\000"
	.section	.text._ZN15b2ContactSolver29InitializeVelocityConstraintsEv,"ax",%progbits
	.align	2
	.global	_ZN15b2ContactSolver29InitializeVelocityConstraintsEv
	.hidden	_ZN15b2ContactSolver29InitializeVelocityConstraintsEv
	.type	_ZN15b2ContactSolver29InitializeVelocityConstraintsEv, %function
_ZN15b2ContactSolver29InitializeVelocityConstraintsEv:
.LFB814:
	.loc 4 139 0
	.cfi_startproc
	@ args = 0, pretend = 0, frame = 352
	@ frame_needed = 0, uses_anonymous_args = 0
	stmfd	sp!, {r4, lr}
.LCFI53:
	.cfi_def_cfa_offset 8
	sub	sp, sp, #360
.LCFI54:
	.cfi_def_cfa_offset 368
	str	r0, [sp, #36]
.LBB14:
.LBB15:
	.loc 4 140 0
	mov	r3, #0
	str	r3, [sp, #216]
	b	.L112
	.cfi_offset 14, -4
	.cfi_offset 4, -8
.L123:
.LBB16:
	.loc 4 142 0
	ldr	r3, [sp, #36]
	ldr	r2, [r3, #40]
	ldr	r3, [sp, #216]
	mov	r1, #156
	mul	r3, r1, r3
	add	r3, r2, r3
	str	r3, [sp, #220]
	.loc 4 143 0
	ldr	r3, [sp, #36]
	ldr	r2, [r3, #36]
	ldr	r3, [sp, #216]
	mov	r1, #88
	mul	r3, r1, r3
	add	r3, r2, r3
	str	r3, [sp, #224]
	.loc 4 145 0
	ldr	r3, [sp, #224]
	flds	s15, [r3, #76]
	fsts	s15, [sp, #228]
	.loc 4 146 0
	ldr	r3, [sp, #224]
	flds	s15, [r3, #80]
	fsts	s15, [sp, #232]
	.loc 4 147 0
	ldr	r3, [sp, #36]
	ldr	r2, [r3, #44]
	ldr	r3, [sp, #220]
	ldr	r3, [r3, #152]
	mov	r3, r3, asl #2
	add	r3, r2, r3
	ldr	r3, [r3, #0]
	mov	r0, r3
	bl	_ZN9b2Contact11GetManifoldEv
	mov	r3, r0
	str	r3, [sp, #236]
	.loc 4 149 0
	ldr	r3, [sp, #220]
	ldr	r3, [r3, #112]
	str	r3, [sp, #240]
	.loc 4 150 0
	ldr	r3, [sp, #220]
	ldr	r3, [r3, #116]
	str	r3, [sp, #244]
	.loc 4 152 0
	ldr	r3, [sp, #220]
	flds	s15, [r3, #120]
	fsts	s15, [sp, #248]
	.loc 4 153 0
	ldr	r3, [sp, #220]
	flds	s15, [r3, #124]
	fsts	s15, [sp, #252]
	.loc 4 154 0
	ldr	r3, [sp, #220]
	flds	s15, [r3, #128]
	fsts	s15, [sp, #256]
	.loc 4 155 0
	ldr	r3, [sp, #220]
	flds	s15, [r3, #132]
	fsts	s15, [sp, #260]
	.loc 4 156 0
	ldr	r2, [sp, #224]
	add	r3, sp, #152
	add	r2, r2, #48
	ldmia	r2, {r0, r1}
	stmia	r3, {r0, r1}
	.loc 4 157 0
	ldr	r2, [sp, #224]
	add	r3, sp, #144
	add	r2, r2, #56
	ldmia	r2, {r0, r1}
	stmia	r3, {r0, r1}
	.loc 4 159 0
	ldr	r3, [sp, #36]
	ldr	r1, [r3, #24]
	ldr	r2, [sp, #240]
	mov	r3, r2
	mov	r3, r3, asl #1
	add	r3, r3, r2
	mov	r3, r3, asl #2
	add	r2, r1, r3
	add	r3, sp, #136
	ldmia	r2, {r0, r1}
	stmia	r3, {r0, r1}
	.loc 4 160 0
	ldr	r3, [sp, #36]
	ldr	r1, [r3, #24]
	ldr	r2, [sp, #240]
	mov	r3, r2
	mov	r3, r3, asl #1
	add	r3, r3, r2
	mov	r3, r3, asl #2
	add	r3, r1, r3
	flds	s15, [r3, #8]
	fsts	s15, [sp, #264]
	.loc 4 161 0
	ldr	r3, [sp, #36]
	ldr	r1, [r3, #28]
	ldr	r2, [sp, #240]
	mov	r3, r2
	mov	r3, r3, asl #1
	add	r3, r3, r2
	mov	r3, r3, asl #2
	add	r2, r1, r3
	add	r3, sp, #128
	ldmia	r2, {r0, r1}
	stmia	r3, {r0, r1}
	.loc 4 162 0
	ldr	r3, [sp, #36]
	ldr	r1, [r3, #28]
	ldr	r2, [sp, #240]
	mov	r3, r2
	mov	r3, r3, asl #1
	add	r3, r3, r2
	mov	r3, r3, asl #2
	add	r3, r1, r3
	flds	s15, [r3, #8]
	fsts	s15, [sp, #268]
	.loc 4 164 0
	ldr	r3, [sp, #36]
	ldr	r1, [r3, #24]
	ldr	r2, [sp, #244]
	mov	r3, r2
	mov	r3, r3, asl #1
	add	r3, r3, r2
	mov	r3, r3, asl #2
	add	r2, r1, r3
	add	r3, sp, #120
	ldmia	r2, {r0, r1}
	stmia	r3, {r0, r1}
	.loc 4 165 0
	ldr	r3, [sp, #36]
	ldr	r1, [r3, #24]
	ldr	r2, [sp, #244]
	mov	r3, r2
	mov	r3, r3, asl #1
	add	r3, r3, r2
	mov	r3, r3, asl #2
	add	r3, r1, r3
	flds	s15, [r3, #8]
	fsts	s15, [sp, #272]
	.loc 4 166 0
	ldr	r3, [sp, #36]
	ldr	r1, [r3, #28]
	ldr	r2, [sp, #244]
	mov	r3, r2
	mov	r3, r3, asl #1
	add	r3, r3, r2
	mov	r3, r3, asl #2
	add	r2, r1, r3
	add	r3, sp, #112
	ldmia	r2, {r0, r1}
	stmia	r3, {r0, r1}
	.loc 4 167 0
	ldr	r3, [sp, #36]
	ldr	r1, [r3, #28]
	ldr	r2, [sp, #244]
	mov	r3, r2
	mov	r3, r3, asl #1
	add	r3, r3, r2
	mov	r3, r3, asl #2
	add	r3, r1, r3
	flds	s15, [r3, #8]
	fsts	s15, [sp, #276]
	.loc 4 169 0
	ldr	r3, [sp, #236]
	ldr	r3, [r3, #60]
	cmp	r3, #0
	bgt	.L113
	ldr	r0, .L125+4
	mov	r1, #169
	ldr	r2, .L125+8
	bl	__assert
.L113:
	.loc 4 171 0
	add	r3, sp, #96
	mov	r0, r3
	bl	_ZN11b2TransformC1Ev
	add	r3, sp, #80
	mov	r0, r3
	bl	_ZN11b2TransformC1Ev
	.loc 4 172 0
	add	r3, sp, #96
	add	r3, r3, #8
	mov	r0, r3
	ldr	r1, [sp, #264]	@ float
	bl	_ZN5b2Rot3SetEf
	.loc 4 173 0
	add	r3, sp, #80
	add	r3, r3, #8
	mov	r0, r3
	ldr	r1, [sp, #272]	@ float
	bl	_ZN5b2Rot3SetEf
	.loc 4 174 0
	add	r1, sp, #160
	add	r3, sp, #96
	add	r2, r3, #8
	add	r3, sp, #152
	mov	r0, r1
	mov	r1, r2
	mov	r2, r3
	bl	_Z5b2MulRK5b2RotRK6b2Vec2
	add	r1, sp, #24
	add	r2, sp, #136
	add	r3, sp, #160
	mov	r0, r1
	mov	r1, r2
	mov	r2, r3
	bl	_ZmiRK6b2Vec2S1_
	add	r3, sp, #96
	add	r2, sp, #24
	ldmia	r2, {r0, r1}
	stmia	r3, {r0, r1}
	.loc 4 175 0
	add	r1, sp, #168
	add	r3, sp, #80
	add	r2, r3, #8
	add	r3, sp, #144
	mov	r0, r1
	mov	r1, r2
	mov	r2, r3
	bl	_Z5b2MulRK5b2RotRK6b2Vec2
	add	r1, sp, #24
	add	r2, sp, #120
	add	r3, sp, #168
	mov	r0, r1
	mov	r1, r2
	mov	r2, r3
	bl	_ZmiRK6b2Vec2S1_
	add	r3, sp, #80
	add	r2, sp, #24
	ldmia	r2, {r0, r1}
	stmia	r3, {r0, r1}
	.loc 4 177 0
	add	r3, sp, #40
	mov	r0, r3
	bl	_ZN15b2WorldManifoldC1Ev
	.loc 4 178 0
	add	r2, sp, #40
	add	r3, sp, #96
	add	r1, sp, #80
	str	r1, [sp, #0]
	flds	s15, [sp, #232]
	fsts	s15, [sp, #4]
	mov	r0, r2
	ldr	r1, [sp, #236]
	mov	r2, r3
	ldr	r3, [sp, #228]	@ float
	bl	_ZN15b2WorldManifold10InitializeEPK10b2ManifoldRK11b2TransformfS5_f
	.loc 4 180 0
	ldr	r3, [sp, #220]
	add	r3, r3, #72
	add	r2, sp, #40
	ldmia	r2, {r0, r1}
	stmia	r3, {r0, r1}
	.loc 4 182 0
	ldr	r3, [sp, #220]
	ldr	r3, [r3, #148]
	str	r3, [sp, #280]
.LBB17:
	.loc 4 183 0
	mov	r3, #0
	str	r3, [sp, #284]
	b	.L114
.L120:
.LBB18:
	.loc 4 185 0
	ldr	r1, [sp, #220]
	ldr	r2, [sp, #284]
	mov	r3, r2
	mov	r3, r3, asl #3
	add	r3, r3, r2
	mov	r3, r3, asl #2
	add	r3, r1, r3
	str	r3, [sp, #288]
	.loc 4 187 0
	ldr	r3, [sp, #284]
	add	r2, sp, #40
	add	r3, r3, #1
	mov	r3, r3, asl #3
	add	r2, r2, r3
	ldr	r4, [sp, #288]
	add	r1, sp, #24
	add	r3, sp, #136
	mov	r0, r1
	mov	r1, r2
	mov	r2, r3
	bl	_ZmiRK6b2Vec2S1_
	mov	r3, r4
	add	r2, sp, #24
	ldmia	r2, {r0, r1}
	stmia	r3, {r0, r1}
	.loc 4 188 0
	ldr	r3, [sp, #284]
	add	r2, sp, #40
	add	r3, r3, #1
	mov	r3, r3, asl #3
	add	r2, r2, r3
	ldr	r4, [sp, #288]
	add	r1, sp, #24
	add	r3, sp, #120
	mov	r0, r1
	mov	r1, r2
	mov	r2, r3
	bl	_ZmiRK6b2Vec2S1_
	add	r3, r4, #8
	add	r2, sp, #24
	ldmia	r2, {r0, r1}
	stmia	r3, {r0, r1}
	.loc 4 190 0
	ldr	r2, [sp, #288]
	ldr	r3, [sp, #220]
	add	r3, r3, #72
	mov	r0, r2
	mov	r1, r3
	bl	_Z7b2CrossRK6b2Vec2S1_
	mov	r3, r0	@ float
	str	r3, [sp, #292]	@ float
	.loc 4 191 0
	ldr	r3, [sp, #288]
	add	r2, r3, #8
	ldr	r3, [sp, #220]
	add	r3, r3, #72
	mov	r0, r2
	mov	r1, r3
	bl	_Z7b2CrossRK6b2Vec2S1_
	mov	r3, r0	@ float
	str	r3, [sp, #296]	@ float
	.loc 4 193 0
	flds	s14, [sp, #248]
	flds	s15, [sp, #252]
	fadds	s14, s14, s15
	flds	s13, [sp, #256]
	flds	s15, [sp, #292]
	fmuls	s15, s13, s15
	flds	s13, [sp, #292]
	fmuls	s15, s15, s13
	fadds	s14, s14, s15
	flds	s13, [sp, #260]
	flds	s15, [sp, #296]
	fmuls	s15, s13, s15
	flds	s13, [sp, #296]
	fmuls	s15, s15, s13
	fadds	s15, s14, s15
	fsts	s15, [sp, #300]
	.loc 4 195 0
	flds	s15, [sp, #300]
	fcmpezs	s15
	fmstat
	movle	r3, #0
	movgt	r3, #1
	and	r3, r3, #255
	cmp	r3, #0
	beq	.L115
	flds	s14, .L125
	flds	s15, [sp, #300]
	fdivs	s15, s14, s15
	b	.L116
.L115:
	flds	s15, .L125+12
.L116:
	ldr	r3, [sp, #288]
	fsts	s15, [r3, #24]
	.loc 4 197 0
	ldr	r3, [sp, #220]
	add	r3, r3, #72
	add	r2, sp, #72
	mov	r0, r2
	mov	r1, r3
	ldr	r2, .L125	@ float
	bl	_Z7b2CrossRK6b2Vec2f
	.loc 4 199 0
	ldr	r2, [sp, #288]
	add	r3, sp, #72
	mov	r0, r2
	mov	r1, r3
	bl	_Z7b2CrossRK6b2Vec2S1_
	mov	r3, r0	@ float
	str	r3, [sp, #304]	@ float
	.loc 4 200 0
	ldr	r3, [sp, #288]
	add	r2, r3, #8
	add	r3, sp, #72
	mov	r0, r2
	mov	r1, r3
	bl	_Z7b2CrossRK6b2Vec2S1_
	mov	r3, r0	@ float
	str	r3, [sp, #308]	@ float
	.loc 4 202 0
	flds	s14, [sp, #248]
	flds	s15, [sp, #252]
	fadds	s14, s14, s15
	flds	s13, [sp, #256]
	flds	s15, [sp, #304]
	fmuls	s15, s13, s15
	flds	s13, [sp, #304]
	fmuls	s15, s15, s13
	fadds	s14, s14, s15
	flds	s13, [sp, #260]
	flds	s15, [sp, #308]
	fmuls	s15, s13, s15
	flds	s13, [sp, #308]
	fmuls	s15, s15, s13
	fadds	s15, s14, s15
	fsts	s15, [sp, #312]
	.loc 4 204 0
	flds	s15, [sp, #312]
	fcmpezs	s15
	fmstat
	movle	r3, #0
	movgt	r3, #1
	and	r3, r3, #255
	cmp	r3, #0
	beq	.L117
	flds	s14, .L125
	flds	s15, [sp, #312]
	fdivs	s15, s14, s15
	b	.L118
.L126:
	.align	2
.L125:
	.word	1065353216
	.word	.LC0
	.word	.LC2
	.word	0
	.word	-1082130432
	.word	1148846080
.L117:
	flds	s15, .L125+12
.L118:
	ldr	r3, [sp, #288]
	fsts	s15, [r3, #28]
	.loc 4 207 0
	ldr	r3, [sp, #288]
	flds	s15, .L125+12
	fsts	s15, [r3, #32]
	.loc 4 208 0
	ldr	r3, [sp, #220]
	add	r4, r3, #72
	ldr	r3, [sp, #288]
	add	r3, r3, #8
	add	r2, sp, #200
	mov	r0, r2
	ldr	r1, [sp, #276]	@ float
	mov	r2, r3
	bl	_Z7b2CrossfRK6b2Vec2
	add	r1, sp, #192
	add	r2, sp, #112
	add	r3, sp, #200
	mov	r0, r1
	mov	r1, r2
	mov	r2, r3
	bl	_ZplRK6b2Vec2S1_
	add	r1, sp, #184
	add	r2, sp, #192
	add	r3, sp, #128
	mov	r0, r1
	mov	r1, r2
	mov	r2, r3
	bl	_ZmiRK6b2Vec2S1_
	ldr	r3, [sp, #288]
	add	r2, sp, #208
	mov	r0, r2
	ldr	r1, [sp, #268]	@ float
	mov	r2, r3
	bl	_Z7b2CrossfRK6b2Vec2
	add	r1, sp, #176
	add	r2, sp, #184
	add	r3, sp, #208
	mov	r0, r1
	mov	r1, r2
	mov	r2, r3
	bl	_ZmiRK6b2Vec2S1_
	add	r3, sp, #176
	mov	r0, r4
	mov	r1, r3
	bl	_Z5b2DotRK6b2Vec2S1_
	mov	r3, r0	@ float
	str	r3, [sp, #316]	@ float
	.loc 4 209 0
	flds	s14, [sp, #316]
	flds	s15, .L125+16
	fcmpes	s14, s15
	fmstat
	movpl	r3, #0
	movmi	r3, #1
	and	r3, r3, #255
	cmp	r3, #0
	beq	.L119
	.loc 4 211 0
	ldr	r3, [sp, #220]
	flds	s15, [r3, #140]
	fnegs	s14, s15
	flds	s15, [sp, #316]
	fmuls	s15, s14, s15
	ldr	r3, [sp, #288]
	fsts	s15, [r3, #32]
.L119:
.LBE18:
	.loc 4 183 0
	ldr	r3, [sp, #284]
	add	r3, r3, #1
	str	r3, [sp, #284]
.L114:
	ldr	r2, [sp, #284]
	ldr	r3, [sp, #280]
	cmp	r2, r3
	movge	r3, #0
	movlt	r3, #1
	and	r3, r3, #255
	cmp	r3, #0
	bne	.L120
.LBE17:
	.loc 4 216 0
	ldr	r3, [sp, #220]
	ldr	r3, [r3, #148]
	cmp	r3, #2
	bne	.L121
.LBB19:
	.loc 4 218 0
	ldr	r3, [sp, #220]
	str	r3, [sp, #320]
	.loc 4 219 0
	ldr	r3, [sp, #220]
	add	r3, r3, #36
	str	r3, [sp, #324]
	.loc 4 221 0
	ldr	r2, [sp, #320]
	ldr	r3, [sp, #220]
	add	r3, r3, #72
	mov	r0, r2
	mov	r1, r3
	bl	_Z7b2CrossRK6b2Vec2S1_
	mov	r3, r0	@ float
	str	r3, [sp, #328]	@ float
	.loc 4 222 0
	ldr	r3, [sp, #320]
	add	r2, r3, #8
	ldr	r3, [sp, #220]
	add	r3, r3, #72
	mov	r0, r2
	mov	r1, r3
	bl	_Z7b2CrossRK6b2Vec2S1_
	mov	r3, r0	@ float
	str	r3, [sp, #332]	@ float
	.loc 4 223 0
	ldr	r2, [sp, #324]
	ldr	r3, [sp, #220]
	add	r3, r3, #72
	mov	r0, r2
	mov	r1, r3
	bl	_Z7b2CrossRK6b2Vec2S1_
	mov	r3, r0	@ float
	str	r3, [sp, #336]	@ float
	.loc 4 224 0
	ldr	r3, [sp, #324]
	add	r2, r3, #8
	ldr	r3, [sp, #220]
	add	r3, r3, #72
	mov	r0, r2
	mov	r1, r3
	bl	_Z7b2CrossRK6b2Vec2S1_
	mov	r3, r0	@ float
	str	r3, [sp, #340]	@ float
	.loc 4 226 0
	flds	s14, [sp, #248]
	flds	s15, [sp, #252]
	fadds	s14, s14, s15
	flds	s13, [sp, #256]
	flds	s15, [sp, #328]
	fmuls	s15, s13, s15
	flds	s13, [sp, #328]
	fmuls	s15, s15, s13
	fadds	s14, s14, s15
	flds	s13, [sp, #260]
	flds	s15, [sp, #332]
	fmuls	s15, s13, s15
	flds	s13, [sp, #332]
	fmuls	s15, s15, s13
	fadds	s15, s14, s15
	fsts	s15, [sp, #344]
	.loc 4 227 0
	flds	s14, [sp, #248]
	flds	s15, [sp, #252]
	fadds	s14, s14, s15
	flds	s13, [sp, #256]
	flds	s15, [sp, #336]
	fmuls	s15, s13, s15
	flds	s13, [sp, #336]
	fmuls	s15, s15, s13
	fadds	s14, s14, s15
	flds	s13, [sp, #260]
	flds	s15, [sp, #340]
	fmuls	s15, s13, s15
	flds	s13, [sp, #340]
	fmuls	s15, s15, s13
	fadds	s15, s14, s15
	fsts	s15, [sp, #348]
	.loc 4 228 0
	flds	s14, [sp, #248]
	flds	s15, [sp, #252]
	fadds	s14, s14, s15
	flds	s13, [sp, #256]
	flds	s15, [sp, #328]
	fmuls	s15, s13, s15
	flds	s13, [sp, #336]
	fmuls	s15, s15, s13
	fadds	s14, s14, s15
	flds	s13, [sp, #260]
	flds	s15, [sp, #332]
	fmuls	s15, s13, s15
	flds	s13, [sp, #340]
	fmuls	s15, s15, s13
	fadds	s15, s14, s15
	fsts	s15, [sp, #352]
	.loc 4 231 0
	flds	s15, .L125+20
	fsts	s15, [sp, #356]
	.loc 4 232 0
	flds	s14, [sp, #344]
	flds	s15, [sp, #344]
	fmuls	s14, s14, s15
	flds	s13, [sp, #344]
	flds	s15, [sp, #348]
	fmuls	s13, s13, s15
	flds	s12, [sp, #352]
	flds	s15, [sp, #352]
	fmuls	s15, s12, s15
	fsubs	s13, s13, s15
	flds	s15, .L125+20
	fmuls	s15, s13, s15
	fcmpes	s14, s15
	fmstat
	movpl	r3, #0
	movmi	r3, #1
	and	r3, r3, #255
	cmp	r3, #0
	beq	.L122
	.loc 4 235 0
	ldr	r3, [sp, #220]
	add	r3, r3, #96
	mov	r0, r3
	ldr	r1, [sp, #344]	@ float
	ldr	r2, [sp, #352]	@ float
	bl	_ZN6b2Vec23SetEff
	.loc 4 236 0
	ldr	r3, [sp, #220]
	add	r3, r3, #104
	mov	r0, r3
	ldr	r1, [sp, #352]	@ float
	ldr	r2, [sp, #348]	@ float
	bl	_ZN6b2Vec23SetEff
	.loc 4 237 0
	ldr	r3, [sp, #220]
	add	r3, r3, #96
	ldr	r4, [sp, #220]
	add	r2, sp, #8
	mov	r0, r2
	mov	r1, r3
	bl	_ZNK7b2Mat2210GetInverseEv
	add	ip, r4, #80
	add	r3, sp, #8
	ldmia	r3, {r0, r1, r2, r3}
	stmia	ip, {r0, r1, r2, r3}
	b	.L121
.L122:
	.loc 4 243 0
	ldr	r3, [sp, #220]
	mov	r2, #1
	str	r2, [r3, #148]
.L121:
.LBE19:
.LBE16:
	.loc 4 140 0
	ldr	r3, [sp, #216]
	add	r3, r3, #1
	str	r3, [sp, #216]
.L112:
	ldr	r3, [sp, #36]
	ldr	r2, [r3, #48]
	ldr	r3, [sp, #216]
	cmp	r2, r3
	movle	r3, #0
	movgt	r3, #1
	and	r3, r3, #255
	cmp	r3, #0
	bne	.L123
.LBE15:
.LBE14:
	.loc 4 247 0
	add	sp, sp, #360
	ldmfd	sp!, {r4, pc}
	.cfi_endproc
.LFE814:
	.size	_ZN15b2ContactSolver29InitializeVelocityConstraintsEv, .-_ZN15b2ContactSolver29InitializeVelocityConstraintsEv
	.section	.text._ZN15b2ContactSolver9WarmStartEv,"ax",%progbits
	.align	2
	.global	_ZN15b2ContactSolver9WarmStartEv
	.hidden	_ZN15b2ContactSolver9WarmStartEv
	.type	_ZN15b2ContactSolver9WarmStartEv, %function
_ZN15b2ContactSolver9WarmStartEv:
.LFB818:
	.loc 4 250 0
	.cfi_startproc
	@ args = 0, pretend = 0, frame = 136
	@ frame_needed = 0, uses_anonymous_args = 0
	str	lr, [sp, #-4]!
.LCFI55:
	.cfi_def_cfa_offset 4
	sub	sp, sp, #140
.LCFI56:
	.cfi_def_cfa_offset 144
	str	r0, [sp, #4]
.LBB20:
.LBB21:
	.loc 4 252 0
	mov	r3, #0
	str	r3, [sp, #84]
	b	.L128
	.cfi_offset 14, -4
.L131:
.LBB22:
	.loc 4 254 0
	ldr	r3, [sp, #4]
	ldr	r2, [r3, #40]
	ldr	r3, [sp, #84]
	mov	r1, #156
	mul	r3, r1, r3
	add	r3, r2, r3
	str	r3, [sp, #88]
	.loc 4 256 0
	ldr	r3, [sp, #88]
	ldr	r3, [r3, #112]
	str	r3, [sp, #92]
	.loc 4 257 0
	ldr	r3, [sp, #88]
	ldr	r3, [r3, #116]
	str	r3, [sp, #96]
	.loc 4 258 0
	ldr	r3, [sp, #88]
	flds	s15, [r3, #120]
	fsts	s15, [sp, #100]
	.loc 4 259 0
	ldr	r3, [sp, #88]
	flds	s15, [r3, #128]
	fsts	s15, [sp, #104]
	.loc 4 260 0
	ldr	r3, [sp, #88]
	flds	s15, [r3, #124]
	fsts	s15, [sp, #108]
	.loc 4 261 0
	ldr	r3, [sp, #88]
	flds	s15, [r3, #132]
	fsts	s15, [sp, #112]
	.loc 4 262 0
	ldr	r3, [sp, #88]
	ldr	r3, [r3, #148]
	str	r3, [sp, #116]
	.loc 4 264 0
	ldr	r3, [sp, #4]
	ldr	r1, [r3, #28]
	ldr	r2, [sp, #92]
	mov	r3, r2
	mov	r3, r3, asl #1
	add	r3, r3, r2
	mov	r3, r3, asl #2
	add	r2, r1, r3
	add	r3, sp, #44
	ldmia	r2, {r0, r1}
	stmia	r3, {r0, r1}
	.loc 4 265 0
	ldr	r3, [sp, #4]
	ldr	r1, [r3, #28]
	ldr	r2, [sp, #92]
	mov	r3, r2
	mov	r3, r3, asl #1
	add	r3, r3, r2
	mov	r3, r3, asl #2
	add	r3, r1, r3
	flds	s15, [r3, #8]
	fsts	s15, [sp, #120]
	.loc 4 266 0
	ldr	r3, [sp, #4]
	ldr	r1, [r3, #28]
	ldr	r2, [sp, #96]
	mov	r3, r2
	mov	r3, r3, asl #1
	add	r3, r3, r2
	mov	r3, r3, asl #2
	add	r2, r1, r3
	add	r3, sp, #36
	ldmia	r2, {r0, r1}
	stmia	r3, {r0, r1}
	.loc 4 267 0
	ldr	r3, [sp, #4]
	ldr	r1, [r3, #28]
	ldr	r2, [sp, #96]
	mov	r3, r2
	mov	r3, r3, asl #1
	add	r3, r3, r2
	mov	r3, r3, asl #2
	add	r3, r1, r3
	flds	s15, [r3, #8]
	fsts	s15, [sp, #124]
	.loc 4 269 0
	ldr	r2, [sp, #88]
	add	r3, sp, #28
	add	r2, r2, #72
	ldmia	r2, {r0, r1}
	stmia	r3, {r0, r1}
	.loc 4 270 0
	add	r2, sp, #20
	add	r3, sp, #28
	mov	r0, r2
	mov	r1, r3
	ldr	r2, .L133	@ float
	bl	_Z7b2CrossRK6b2Vec2f
.LBB23:
	.loc 4 272 0
	mov	r3, #0
	str	r3, [sp, #128]
	b	.L129
.L130:
.LBB24:
	.loc 4 274 0
	ldr	r1, [sp, #88]
	ldr	r2, [sp, #128]
	mov	r3, r2
	mov	r3, r3, asl #3
	add	r3, r3, r2
	mov	r3, r3, asl #2
	add	r3, r1, r3
	str	r3, [sp, #132]
	.loc 4 275 0
	ldr	r3, [sp, #132]
	ldr	r2, [r3, #16]	@ float
	add	r1, sp, #52
	add	r3, sp, #28
	mov	r0, r1
	mov	r1, r2	@ float
	mov	r2, r3
	bl	_ZmlfRK6b2Vec2
	ldr	r3, [sp, #132]
	ldr	r2, [r3, #20]	@ float
	add	r1, sp, #60
	add	r3, sp, #20
	mov	r0, r1
	mov	r1, r2	@ float
	mov	r2, r3
	bl	_ZmlfRK6b2Vec2
	add	r1, sp, #12
	add	r2, sp, #52
	add	r3, sp, #60
	mov	r0, r1
	mov	r1, r2
	mov	r2, r3
	bl	_ZplRK6b2Vec2S1_
	.loc 4 276 0
	ldr	r2, [sp, #132]
	add	r3, sp, #12
	mov	r0, r2
	mov	r1, r3
	bl	_Z7b2CrossRK6b2Vec2S1_
	fmsr	s14, r0
	flds	s15, [sp, #104]
	fmuls	s15, s14, s15
	flds	s14, [sp, #120]
	fsubs	s15, s14, s15
	fsts	s15, [sp, #120]
	.loc 4 277 0
	add	r2, sp, #68
	add	r3, sp, #12
	mov	r0, r2
	ldr	r1, [sp, #100]	@ float
	mov	r2, r3
	bl	_ZmlfRK6b2Vec2
	add	r2, sp, #44
	add	r3, sp, #68
	mov	r0, r2
	mov	r1, r3
	bl	_ZN6b2Vec2mIERKS_
	.loc 4 278 0
	ldr	r3, [sp, #132]
	add	r2, r3, #8
	add	r3, sp, #12
	mov	r0, r2
	mov	r1, r3
	bl	_Z7b2CrossRK6b2Vec2S1_
	fmsr	s14, r0
	flds	s15, [sp, #112]
	fmuls	s15, s14, s15
	flds	s14, [sp, #124]
	fadds	s15, s14, s15
	fsts	s15, [sp, #124]
	.loc 4 279 0
	add	r2, sp, #76
	add	r3, sp, #12
	mov	r0, r2
	ldr	r1, [sp, #108]	@ float
	mov	r2, r3
	bl	_ZmlfRK6b2Vec2
	add	r2, sp, #36
	add	r3, sp, #76
	mov	r0, r2
	mov	r1, r3
	bl	_ZN6b2Vec2pLERKS_
.LBE24:
	.loc 4 272 0
	ldr	r3, [sp, #128]
	add	r3, r3, #1
	str	r3, [sp, #128]
.L129:
	ldr	r2, [sp, #128]
	ldr	r3, [sp, #116]
	cmp	r2, r3
	movge	r3, #0
	movlt	r3, #1
	and	r3, r3, #255
	cmp	r3, #0
	bne	.L130
.LBE23:
	.loc 4 282 0
	ldr	r3, [sp, #4]
	ldr	r1, [r3, #28]
	ldr	r2, [sp, #92]
	mov	r3, r2
	mov	r3, r3, asl #1
	add	r3, r3, r2
	mov	r3, r3, asl #2
	add	r3, r1, r3
	add	r2, sp, #44
	ldmia	r2, {r0, r1}
	stmia	r3, {r0, r1}
	.loc 4 283 0
	ldr	r3, [sp, #4]
	ldr	r1, [r3, #28]
	ldr	r2, [sp, #92]
	mov	r3, r2
	mov	r3, r3, asl #1
	add	r3, r3, r2
	mov	r3, r3, asl #2
	add	r3, r1, r3
	flds	s15, [sp, #120]
	fsts	s15, [r3, #8]
	.loc 4 284 0
	ldr	r3, [sp, #4]
	ldr	r1, [r3, #28]
	ldr	r2, [sp, #96]
	mov	r3, r2
	mov	r3, r3, asl #1
	add	r3, r3, r2
	mov	r3, r3, asl #2
	add	r3, r1, r3
	add	r2, sp, #36
	ldmia	r2, {r0, r1}
	stmia	r3, {r0, r1}
	.loc 4 285 0
	ldr	r3, [sp, #4]
	ldr	r1, [r3, #28]
	ldr	r2, [sp, #96]
	mov	r3, r2
	mov	r3, r3, asl #1
	add	r3, r3, r2
	mov	r3, r3, asl #2
	add	r3, r1, r3
	flds	s15, [sp, #124]
	fsts	s15, [r3, #8]
.LBE22:
	.loc 4 252 0
	ldr	r3, [sp, #84]
	add	r3, r3, #1
	str	r3, [sp, #84]
.L128:
	ldr	r3, [sp, #4]
	ldr	r2, [r3, #48]
	ldr	r3, [sp, #84]
	cmp	r2, r3
	movle	r3, #0
	movgt	r3, #1
	and	r3, r3, #255
	cmp	r3, #0
	bne	.L131
.LBE21:
.LBE20:
	.loc 4 287 0
	add	sp, sp, #140
	ldmfd	sp!, {pc}
.L134:
	.align	2
.L133:
	.word	1065353216
	.cfi_endproc
.LFE818:
	.size	_ZN15b2ContactSolver9WarmStartEv, .-_ZN15b2ContactSolver9WarmStartEv
	.section	.rodata
	.align	2
.LC3:
	.ascii	"pointCount == 1 || pointCount == 2\000"
	.align	2
.LC4:
	.ascii	"a.x >= 0.0f && a.y >= 0.0f\000"
	.section	.text._ZN15b2ContactSolver24SolveVelocityConstraintsEv,"ax",%progbits
	.align	2
	.global	_ZN15b2ContactSolver24SolveVelocityConstraintsEv
	.hidden	_ZN15b2ContactSolver24SolveVelocityConstraintsEv
	.type	_ZN15b2ContactSolver24SolveVelocityConstraintsEv, %function
_ZN15b2ContactSolver24SolveVelocityConstraintsEv:
.LFB819:
	.loc 4 290 0
	.cfi_startproc
	@ args = 0, pretend = 0, frame = 624
	@ frame_needed = 0, uses_anonymous_args = 0
	str	lr, [sp, #-4]!
.LCFI57:
	.cfi_def_cfa_offset 4
	fstmfdd	sp!, {d8}
.LCFI58:
	.cfi_def_cfa_offset 12
	sub	sp, sp, #628
.LCFI59:
	.cfi_def_cfa_offset 640
	str	r0, [sp, #4]
.LBB25:
.LBB26:
	.loc 4 291 0
	mov	r3, #0
	str	r3, [sp, #516]
	b	.L136
	.cfi_offset 80, -12
	.cfi_offset 14, -4
.L148:
.LBB27:
	.loc 4 293 0
	ldr	r3, [sp, #4]
	ldr	r2, [r3, #40]
	ldr	r3, [sp, #516]
	mov	r1, #156
	mul	r3, r1, r3
	add	r3, r2, r3
	str	r3, [sp, #520]
	.loc 4 295 0
	ldr	r3, [sp, #520]
	ldr	r3, [r3, #112]
	str	r3, [sp, #524]
	.loc 4 296 0
	ldr	r3, [sp, #520]
	ldr	r3, [r3, #116]
	str	r3, [sp, #528]
	.loc 4 297 0
	ldr	r3, [sp, #520]
	flds	s15, [r3, #120]
	fsts	s15, [sp, #532]
	.loc 4 298 0
	ldr	r3, [sp, #520]
	flds	s15, [r3, #128]
	fsts	s15, [sp, #536]
	.loc 4 299 0
	ldr	r3, [sp, #520]
	flds	s15, [r3, #124]
	fsts	s15, [sp, #540]
	.loc 4 300 0
	ldr	r3, [sp, #520]
	flds	s15, [r3, #132]
	fsts	s15, [sp, #544]
	.loc 4 301 0
	ldr	r3, [sp, #520]
	ldr	r3, [r3, #148]
	str	r3, [sp, #548]
	.loc 4 303 0
	ldr	r3, [sp, #4]
	ldr	r1, [r3, #28]
	ldr	r2, [sp, #524]
	mov	r3, r2
	mov	r3, r3, asl #1
	add	r3, r3, r2
	mov	r3, r3, asl #2
	add	r2, r1, r3
	add	r3, sp, #204
	ldmia	r2, {r0, r1}
	stmia	r3, {r0, r1}
	.loc 4 304 0
	ldr	r3, [sp, #4]
	ldr	r1, [r3, #28]
	ldr	r2, [sp, #524]
	mov	r3, r2
	mov	r3, r3, asl #1
	add	r3, r3, r2
	mov	r3, r3, asl #2
	add	r3, r1, r3
	flds	s15, [r3, #8]
	fsts	s15, [sp, #552]
	.loc 4 305 0
	ldr	r3, [sp, #4]
	ldr	r1, [r3, #28]
	ldr	r2, [sp, #528]
	mov	r3, r2
	mov	r3, r3, asl #1
	add	r3, r3, r2
	mov	r3, r3, asl #2
	add	r2, r1, r3
	add	r3, sp, #196
	ldmia	r2, {r0, r1}
	stmia	r3, {r0, r1}
	.loc 4 306 0
	ldr	r3, [sp, #4]
	ldr	r1, [r3, #28]
	ldr	r2, [sp, #528]
	mov	r3, r2
	mov	r3, r3, asl #1
	add	r3, r3, r2
	mov	r3, r3, asl #2
	add	r3, r1, r3
	flds	s15, [r3, #8]
	fsts	s15, [sp, #556]
	.loc 4 308 0
	ldr	r2, [sp, #520]
	add	r3, sp, #188
	add	r2, r2, #72
	ldmia	r2, {r0, r1}
	stmia	r3, {r0, r1}
	.loc 4 309 0
	add	r2, sp, #180
	add	r3, sp, #188
	mov	r0, r2
	mov	r1, r3
	ldr	r2, .L152+4	@ float
	bl	_Z7b2CrossRK6b2Vec2f
	.loc 4 310 0
	ldr	r3, [sp, #520]
	flds	s15, [r3, #136]
	fsts	s15, [sp, #560]
	.loc 4 312 0
	ldr	r3, [sp, #548]
	cmp	r3, #1
	beq	.L137
	ldr	r3, [sp, #548]
	cmp	r3, #2
	beq	.L137
	ldr	r0, .L152+8
	mov	r1, #312
	ldr	r2, .L152+12
	bl	__assert
.L137:
.LBB28:
	.loc 4 316 0
	mov	r3, #0
	str	r3, [sp, #564]
	b	.L138
.L139:
.LBB29:
	.loc 4 318 0
	ldr	r1, [sp, #520]
	ldr	r2, [sp, #564]
	mov	r3, r2
	mov	r3, r3, asl #3
	add	r3, r3, r2
	mov	r3, r3, asl #2
	add	r3, r1, r3
	str	r3, [sp, #568]
	.loc 4 321 0
	ldr	r3, [sp, #568]
	add	r3, r3, #8
	add	r2, sp, #228
	mov	r0, r2
	ldr	r1, [sp, #556]	@ float
	mov	r2, r3
	bl	_Z7b2CrossfRK6b2Vec2
	add	r1, sp, #220
	add	r2, sp, #196
	add	r3, sp, #228
	mov	r0, r1
	mov	r1, r2
	mov	r2, r3
	bl	_ZplRK6b2Vec2S1_
	add	r1, sp, #212
	add	r2, sp, #220
	add	r3, sp, #204
	mov	r0, r1
	mov	r1, r2
	mov	r2, r3
	bl	_ZmiRK6b2Vec2S1_
	ldr	r3, [sp, #568]
	add	r2, sp, #236
	mov	r0, r2
	ldr	r1, [sp, #552]	@ float
	mov	r2, r3
	bl	_Z7b2CrossfRK6b2Vec2
	add	r1, sp, #172
	add	r2, sp, #212
	add	r3, sp, #236
	mov	r0, r1
	mov	r1, r2
	mov	r2, r3
	bl	_ZmiRK6b2Vec2S1_
	.loc 4 324 0
	add	r2, sp, #172
	add	r3, sp, #180
	mov	r0, r2
	mov	r1, r3
	bl	_Z5b2DotRK6b2Vec2S1_
	fmsr	s14, r0
	ldr	r3, [sp, #520]
	flds	s15, [r3, #144]
	fsubs	s15, s14, s15
	fsts	s15, [sp, #572]
	.loc 4 325 0
	ldr	r3, [sp, #568]
	flds	s14, [r3, #28]
	flds	s15, [sp, #572]
	fnegs	s15, s15
	fmuls	s15, s14, s15
	fsts	s15, [sp, #576]
	.loc 4 328 0
	ldr	r3, [sp, #568]
	flds	s14, [r3, #16]
	flds	s15, [sp, #560]
	fmuls	s15, s14, s15
	fsts	s15, [sp, #580]
	.loc 4 329 0
	ldr	r3, [sp, #568]
	flds	s14, [r3, #20]
	flds	s15, [sp, #576]
	fadds	s14, s14, s15
	flds	s15, [sp, #580]
	fnegs	s15, s15
	fmrs	r0, s14
	fmrs	r1, s15
	ldr	r2, [sp, #580]	@ float
	bl	_Z7b2ClampIfET_S0_S0_S0_
	mov	r3, r0	@ float
	str	r3, [sp, #584]	@ float
	.loc 4 330 0
	ldr	r3, [sp, #568]
	flds	s15, [r3, #20]
	flds	s14, [sp, #584]
	fsubs	s15, s14, s15
	fsts	s15, [sp, #576]
	.loc 4 331 0
	ldr	r3, [sp, #568]
	flds	s15, [sp, #584]
	fsts	s15, [r3, #20]
	.loc 4 334 0
	add	r2, sp, #164
	add	r3, sp, #180
	mov	r0, r2
	ldr	r1, [sp, #576]	@ float
	mov	r2, r3
	bl	_ZmlfRK6b2Vec2
	.loc 4 336 0
	add	r2, sp, #244
	add	r3, sp, #164
	mov	r0, r2
	ldr	r1, [sp, #532]	@ float
	mov	r2, r3
	bl	_ZmlfRK6b2Vec2
	add	r2, sp, #204
	add	r3, sp, #244
	mov	r0, r2
	mov	r1, r3
	bl	_ZN6b2Vec2mIERKS_
	.loc 4 337 0
	ldr	r2, [sp, #568]
	add	r3, sp, #164
	mov	r0, r2
	mov	r1, r3
	bl	_Z7b2CrossRK6b2Vec2S1_
	fmsr	s14, r0
	flds	s15, [sp, #536]
	fmuls	s15, s14, s15
	flds	s14, [sp, #552]
	fsubs	s15, s14, s15
	fsts	s15, [sp, #552]
	.loc 4 339 0
	add	r2, sp, #252
	add	r3, sp, #164
	mov	r0, r2
	ldr	r1, [sp, #540]	@ float
	mov	r2, r3
	bl	_ZmlfRK6b2Vec2
	add	r2, sp, #196
	add	r3, sp, #252
	mov	r0, r2
	mov	r1, r3
	bl	_ZN6b2Vec2pLERKS_
	.loc 4 340 0
	ldr	r3, [sp, #568]
	add	r2, r3, #8
	add	r3, sp, #164
	mov	r0, r2
	mov	r1, r3
	bl	_Z7b2CrossRK6b2Vec2S1_
	fmsr	s14, r0
	flds	s15, [sp, #544]
	fmuls	s15, s14, s15
	flds	s14, [sp, #556]
	fadds	s15, s14, s15
	fsts	s15, [sp, #556]
.LBE29:
	.loc 4 316 0
	ldr	r3, [sp, #564]
	add	r3, r3, #1
	str	r3, [sp, #564]
.L138:
	ldr	r2, [sp, #564]
	ldr	r3, [sp, #548]
	cmp	r2, r3
	movge	r3, #0
	movlt	r3, #1
	and	r3, r3, #255
	cmp	r3, #0
	bne	.L139
.LBE28:
	.loc 4 344 0
	ldr	r3, [sp, #520]
	ldr	r3, [r3, #148]
	cmp	r3, #1
	bne	.L140
.LBB30:
	.loc 4 346 0
	ldr	r3, [sp, #520]
	str	r3, [sp, #588]
	.loc 4 349 0
	ldr	r3, [sp, #588]
	add	r3, r3, #8
	add	r2, sp, #276
	mov	r0, r2
	ldr	r1, [sp, #556]	@ float
	mov	r2, r3
	bl	_Z7b2CrossfRK6b2Vec2
	add	r1, sp, #268
	add	r2, sp, #196
	add	r3, sp, #276
	mov	r0, r1
	mov	r1, r2
	mov	r2, r3
	bl	_ZplRK6b2Vec2S1_
	add	r1, sp, #260
	add	r2, sp, #268
	add	r3, sp, #204
	mov	r0, r1
	mov	r1, r2
	mov	r2, r3
	bl	_ZmiRK6b2Vec2S1_
	ldr	r3, [sp, #588]
	add	r2, sp, #284
	mov	r0, r2
	ldr	r1, [sp, #552]	@ float
	mov	r2, r3
	bl	_Z7b2CrossfRK6b2Vec2
	add	r1, sp, #156
	add	r2, sp, #260
	add	r3, sp, #284
	mov	r0, r1
	mov	r1, r2
	mov	r2, r3
	bl	_ZmiRK6b2Vec2S1_
	.loc 4 352 0
	add	r2, sp, #156
	add	r3, sp, #188
	mov	r0, r2
	mov	r1, r3
	bl	_Z5b2DotRK6b2Vec2S1_
	mov	r3, r0	@ float
	str	r3, [sp, #592]	@ float
	.loc 4 353 0
	ldr	r3, [sp, #588]
	flds	s15, [r3, #24]
	fnegs	s14, s15
	ldr	r3, [sp, #588]
	flds	s15, [r3, #32]
	flds	s13, [sp, #592]
	fsubs	s15, s13, s15
	fmuls	s15, s14, s15
	fsts	s15, [sp, #596]
	.loc 4 356 0
	ldr	r3, [sp, #588]
	flds	s14, [r3, #16]
	flds	s15, [sp, #596]
	fadds	s15, s14, s15
	fmrs	r0, s15
	ldr	r1, .L152+24	@ float
	bl	_Z5b2MaxIfET_S0_S0_
	mov	r3, r0	@ float
	str	r3, [sp, #600]	@ float
	.loc 4 357 0
	ldr	r3, [sp, #588]
	flds	s15, [r3, #16]
	flds	s14, [sp, #600]
	fsubs	s15, s14, s15
	fsts	s15, [sp, #596]
	.loc 4 358 0
	ldr	r3, [sp, #588]
	flds	s15, [sp, #600]
	fsts	s15, [r3, #16]
	.loc 4 361 0
	add	r2, sp, #148
	add	r3, sp, #188
	mov	r0, r2
	ldr	r1, [sp, #596]	@ float
	mov	r2, r3
	bl	_ZmlfRK6b2Vec2
	.loc 4 362 0
	add	r2, sp, #292
	add	r3, sp, #148
	mov	r0, r2
	ldr	r1, [sp, #532]	@ float
	mov	r2, r3
	bl	_ZmlfRK6b2Vec2
	add	r2, sp, #204
	add	r3, sp, #292
	mov	r0, r2
	mov	r1, r3
	bl	_ZN6b2Vec2mIERKS_
	.loc 4 363 0
	ldr	r2, [sp, #588]
	add	r3, sp, #148
	mov	r0, r2
	mov	r1, r3
	bl	_Z7b2CrossRK6b2Vec2S1_
	fmsr	s14, r0
	flds	s15, [sp, #536]
	fmuls	s15, s14, s15
	flds	s14, [sp, #552]
	fsubs	s15, s14, s15
	fsts	s15, [sp, #552]
	.loc 4 365 0
	add	r2, sp, #300
	add	r3, sp, #148
	mov	r0, r2
	ldr	r1, [sp, #540]	@ float
	mov	r2, r3
	bl	_ZmlfRK6b2Vec2
	add	r2, sp, #196
	add	r3, sp, #300
	mov	r0, r2
	mov	r1, r3
	bl	_ZN6b2Vec2pLERKS_
	.loc 4 366 0
	ldr	r3, [sp, #588]
	add	r2, r3, #8
	add	r3, sp, #148
	mov	r0, r2
	mov	r1, r3
	bl	_Z7b2CrossRK6b2Vec2S1_
	fmsr	s14, r0
	flds	s15, [sp, #544]
	fmuls	s15, s14, s15
	flds	s14, [sp, #556]
	fadds	s15, s14, s15
	fsts	s15, [sp, #556]
	b	.L141
.L140:
.LBE30:
.LBB31:
	.loc 4 403 0
	ldr	r3, [sp, #520]
	str	r3, [sp, #604]
	.loc 4 404 0
	ldr	r3, [sp, #520]
	add	r3, r3, #36
	str	r3, [sp, #608]
	.loc 4 406 0
	ldr	r3, [sp, #604]
	ldr	r2, [r3, #16]	@ float
	ldr	r3, [sp, #608]
	ldr	r3, [r3, #16]	@ float
	add	r1, sp, #140
	mov	r0, r1
	mov	r1, r2	@ float
	mov	r2, r3	@ float
	bl	_ZN6b2Vec2C1Eff
	.loc 4 407 0
	flds	s15, [sp, #140]
	fcmpezs	s15
	fmstat
	movlt	r3, #0
	movge	r3, #1
	and	r3, r3, #255
	eor	r3, r3, #1
	and	r3, r3, #255
	cmp	r3, #0
	bne	.L142
	flds	s15, [sp, #144]
	fcmpezs	s15
	fmstat
	movlt	r3, #0
	movge	r3, #1
	and	r3, r3, #255
	eor	r3, r3, #1
	and	r3, r3, #255
	cmp	r3, #0
	beq	.L143
.L142:
	ldr	r0, .L152+8
	ldr	r1, .L152+16
	ldr	r2, .L152+20
	bl	__assert
.L143:
	.loc 4 410 0
	ldr	r3, [sp, #604]
	add	r3, r3, #8
	add	r2, sp, #324
	mov	r0, r2
	ldr	r1, [sp, #556]	@ float
	mov	r2, r3
	bl	_Z7b2CrossfRK6b2Vec2
	add	r1, sp, #316
	add	r2, sp, #196
	add	r3, sp, #324
	mov	r0, r1
	mov	r1, r2
	mov	r2, r3
	bl	_ZplRK6b2Vec2S1_
	add	r1, sp, #308
	add	r2, sp, #316
	add	r3, sp, #204
	mov	r0, r1
	mov	r1, r2
	mov	r2, r3
	bl	_ZmiRK6b2Vec2S1_
	ldr	r3, [sp, #604]
	add	r2, sp, #332
	mov	r0, r2
	ldr	r1, [sp, #552]	@ float
	mov	r2, r3
	bl	_Z7b2CrossfRK6b2Vec2
	add	r1, sp, #132
	add	r2, sp, #308
	add	r3, sp, #332
	mov	r0, r1
	mov	r1, r2
	mov	r2, r3
	bl	_ZmiRK6b2Vec2S1_
	.loc 4 411 0
	ldr	r3, [sp, #608]
	add	r3, r3, #8
	add	r2, sp, #356
	mov	r0, r2
	ldr	r1, [sp, #556]	@ float
	mov	r2, r3
	bl	_Z7b2CrossfRK6b2Vec2
	add	r1, sp, #348
	add	r2, sp, #196
	add	r3, sp, #356
	mov	r0, r1
	mov	r1, r2
	mov	r2, r3
	bl	_ZplRK6b2Vec2S1_
	add	r1, sp, #340
	add	r2, sp, #348
	add	r3, sp, #204
	mov	r0, r1
	mov	r1, r2
	mov	r2, r3
	bl	_ZmiRK6b2Vec2S1_
	ldr	r3, [sp, #608]
	add	r2, sp, #364
	mov	r0, r2
	ldr	r1, [sp, #552]	@ float
	mov	r2, r3
	bl	_Z7b2CrossfRK6b2Vec2
	add	r1, sp, #124
	add	r2, sp, #340
	add	r3, sp, #364
	mov	r0, r1
	mov	r1, r2
	mov	r2, r3
	bl	_ZmiRK6b2Vec2S1_
	.loc 4 414 0
	add	r2, sp, #132
	add	r3, sp, #188
	mov	r0, r2
	mov	r1, r3
	bl	_Z5b2DotRK6b2Vec2S1_
	mov	r3, r0	@ float
	str	r3, [sp, #612]	@ float
	.loc 4 415 0
	add	r2, sp, #124
	add	r3, sp, #188
	mov	r0, r2
	mov	r1, r3
	bl	_Z5b2DotRK6b2Vec2S1_
	mov	r3, r0	@ float
	str	r3, [sp, #616]	@ float
	.loc 4 417 0
	add	r3, sp, #116
	mov	r0, r3
	bl	_ZN6b2Vec2C1Ev
	.loc 4 418 0
	ldr	r3, [sp, #604]
	flds	s15, [r3, #32]
	flds	s14, [sp, #612]
	fsubs	s15, s14, s15
	fsts	s15, [sp, #116]
	.loc 4 419 0
	ldr	r3, [sp, #608]
	flds	s15, [r3, #32]
	flds	s14, [sp, #616]
	fsubs	s15, s14, s15
	fsts	s15, [sp, #120]
	.loc 4 422 0
	ldr	r3, [sp, #520]
	add	r2, r3, #96
	add	r1, sp, #372
	add	r3, sp, #140
	mov	r0, r1
	mov	r1, r2
	mov	r2, r3
	bl	_Z5b2MulRK7b2Mat22RK6b2Vec2
	add	r2, sp, #116
	add	r3, sp, #372
	mov	r0, r2
	mov	r1, r3
	bl	_ZN6b2Vec2mIERKS_
	.loc 4 424 0
	flds	s15, .L152
	fsts	s15, [sp, #620]
.LBB32:
	.loc 4 438 0
	ldr	r3, [sp, #520]
	add	r2, r3, #80
	add	r1, sp, #380
	add	r3, sp, #116
	mov	r0, r1
	mov	r1, r2
	mov	r2, r3
	bl	_Z5b2MulRK7b2Mat22RK6b2Vec2
	add	r2, sp, #108
	add	r3, sp, #380
	mov	r0, r2
	mov	r1, r3
	bl	_ZNK6b2Vec2ngEv
	.loc 4 440 0
	flds	s15, [sp, #108]
	fcmpezs	s15
	fmstat
	movlt	r3, #0
	movge	r3, #1
	and	r3, r3, #255
	cmp	r3, #0
	beq	.L144
	flds	s15, [sp, #112]
	fcmpezs	s15
	fmstat
	movlt	r3, #0
	movge	r3, #1
	and	r3, r3, #255
	cmp	r3, #0
	beq	.L144
.LBB33:
	.loc 4 443 0
	add	r1, sp, #100
	add	r2, sp, #108
	add	r3, sp, #140
	mov	r0, r1
	mov	r1, r2
	mov	r2, r3
	bl	_ZmiRK6b2Vec2S1_
	.loc 4 446 0
	ldr	r2, [sp, #100]	@ float
	add	r1, sp, #92
	add	r3, sp, #188
	mov	r0, r1
	mov	r1, r2	@ float
	mov	r2, r3
	bl	_ZmlfRK6b2Vec2
	.loc 4 447 0
	ldr	r2, [sp, #104]	@ float
	add	r1, sp, #84
	add	r3, sp, #188
	mov	r0, r1
	mov	r1, r2	@ float
	mov	r2, r3
	bl	_ZmlfRK6b2Vec2
	.loc 4 448 0
	add	r1, sp, #396
	add	r2, sp, #92
	add	r3, sp, #84
	mov	r0, r1
	mov	r1, r2
	mov	r2, r3
	bl	_ZplRK6b2Vec2S1_
	add	r2, sp, #388
	add	r3, sp, #396
	mov	r0, r2
	ldr	r1, [sp, #532]	@ float
	mov	r2, r3
	bl	_ZmlfRK6b2Vec2
	add	r2, sp, #204
	add	r3, sp, #388
	mov	r0, r2
	mov	r1, r3
	bl	_ZN6b2Vec2mIERKS_
	.loc 4 449 0
	ldr	r2, [sp, #604]
	add	r3, sp, #92
	mov	r0, r2
	mov	r1, r3
	bl	_Z7b2CrossRK6b2Vec2S1_
	fmsr	s16, r0
	ldr	r2, [sp, #608]
	add	r3, sp, #84
	mov	r0, r2
	mov	r1, r3
	bl	_Z7b2CrossRK6b2Vec2S1_
	fmsr	s15, r0
	fadds	s14, s16, s15
	flds	s15, [sp, #536]
	fmuls	s15, s14, s15
	flds	s14, [sp, #552]
	fsubs	s15, s14, s15
	fsts	s15, [sp, #552]
	.loc 4 451 0
	add	r1, sp, #412
	add	r2, sp, #92
	add	r3, sp, #84
	mov	r0, r1
	mov	r1, r2
	mov	r2, r3
	bl	_ZplRK6b2Vec2S1_
	add	r2, sp, #404
	add	r3, sp, #412
	mov	r0, r2
	ldr	r1, [sp, #540]	@ float
	mov	r2, r3
	bl	_ZmlfRK6b2Vec2
	add	r2, sp, #196
	add	r3, sp, #404
	mov	r0, r2
	mov	r1, r3
	bl	_ZN6b2Vec2pLERKS_
	.loc 4 452 0
	ldr	r3, [sp, #604]
	add	r2, r3, #8
	add	r3, sp, #92
	mov	r0, r2
	mov	r1, r3
	bl	_Z7b2CrossRK6b2Vec2S1_
	fmsr	s16, r0
	ldr	r3, [sp, #608]
	add	r2, r3, #8
	add	r3, sp, #84
	mov	r0, r2
	mov	r1, r3
	bl	_Z7b2CrossRK6b2Vec2S1_
	fmsr	s15, r0
	fadds	s14, s16, s15
	flds	s15, [sp, #544]
	fmuls	s15, s14, s15
	flds	s14, [sp, #556]
	fadds	s15, s14, s15
	fsts	s15, [sp, #556]
	.loc 4 455 0
	flds	s15, [sp, #108]
	ldr	r3, [sp, #604]
	fsts	s15, [r3, #16]
	.loc 4 456 0
	flds	s15, [sp, #112]
	ldr	r3, [sp, #608]
	fsts	s15, [r3, #16]
	.loc 4 470 0
	b	.L141
.L153:
	.align	2
.L152:
	.word	981668463
	.word	1065353216
	.word	.LC0
	.word	.LC3
	.word	407
	.word	.LC4
	.word	0
.L144:
.LBE33:
	.loc 4 479 0
	ldr	r3, [sp, #604]
	flds	s15, [r3, #24]
	fnegs	s14, s15
	flds	s15, [sp, #116]
	fmuls	s15, s14, s15
	fsts	s15, [sp, #108]
	.loc 4 480 0
	flds	s15, .L152+24
	fsts	s15, [sp, #112]
	.loc 4 481 0
	flds	s15, .L152+24
	fsts	s15, [sp, #612]
	.loc 4 482 0
	ldr	r3, [sp, #520]
	flds	s14, [r3, #100]
	flds	s15, [sp, #108]
	fmuls	s15, s14, s15
	flds	s14, [sp, #120]
	fadds	s15, s15, s14
	fsts	s15, [sp, #616]
	.loc 4 484 0
	flds	s15, [sp, #108]
	fcmpezs	s15
	fmstat
	movlt	r3, #0
	movge	r3, #1
	and	r3, r3, #255
	cmp	r3, #0
	beq	.L145
	flds	s15, [sp, #616]
	fcmpezs	s15
	fmstat
	movlt	r3, #0
	movge	r3, #1
	and	r3, r3, #255
	cmp	r3, #0
	beq	.L145
.LBB34:
	.loc 4 487 0
	add	r1, sp, #76
	add	r2, sp, #108
	add	r3, sp, #140
	mov	r0, r1
	mov	r1, r2
	mov	r2, r3
	bl	_ZmiRK6b2Vec2S1_
	.loc 4 490 0
	ldr	r2, [sp, #76]	@ float
	add	r1, sp, #68
	add	r3, sp, #188
	mov	r0, r1
	mov	r1, r2	@ float
	mov	r2, r3
	bl	_ZmlfRK6b2Vec2
	.loc 4 491 0
	ldr	r2, [sp, #80]	@ float
	add	r1, sp, #60
	add	r3, sp, #188
	mov	r0, r1
	mov	r1, r2	@ float
	mov	r2, r3
	bl	_ZmlfRK6b2Vec2
	.loc 4 492 0
	add	r1, sp, #428
	add	r2, sp, #68
	add	r3, sp, #60
	mov	r0, r1
	mov	r1, r2
	mov	r2, r3
	bl	_ZplRK6b2Vec2S1_
	add	r2, sp, #420
	add	r3, sp, #428
	mov	r0, r2
	ldr	r1, [sp, #532]	@ float
	mov	r2, r3
	bl	_ZmlfRK6b2Vec2
	add	r2, sp, #204
	add	r3, sp, #420
	mov	r0, r2
	mov	r1, r3
	bl	_ZN6b2Vec2mIERKS_
	.loc 4 493 0
	ldr	r2, [sp, #604]
	add	r3, sp, #68
	mov	r0, r2
	mov	r1, r3
	bl	_Z7b2CrossRK6b2Vec2S1_
	fmsr	s16, r0
	ldr	r2, [sp, #608]
	add	r3, sp, #60
	mov	r0, r2
	mov	r1, r3
	bl	_Z7b2CrossRK6b2Vec2S1_
	fmsr	s15, r0
	fadds	s14, s16, s15
	flds	s15, [sp, #536]
	fmuls	s15, s14, s15
	flds	s14, [sp, #552]
	fsubs	s15, s14, s15
	fsts	s15, [sp, #552]
	.loc 4 495 0
	add	r1, sp, #444
	add	r2, sp, #68
	add	r3, sp, #60
	mov	r0, r1
	mov	r1, r2
	mov	r2, r3
	bl	_ZplRK6b2Vec2S1_
	add	r2, sp, #436
	add	r3, sp, #444
	mov	r0, r2
	ldr	r1, [sp, #540]	@ float
	mov	r2, r3
	bl	_ZmlfRK6b2Vec2
	add	r2, sp, #196
	add	r3, sp, #436
	mov	r0, r2
	mov	r1, r3
	bl	_ZN6b2Vec2pLERKS_
	.loc 4 496 0
	ldr	r3, [sp, #604]
	add	r2, r3, #8
	add	r3, sp, #68
	mov	r0, r2
	mov	r1, r3
	bl	_Z7b2CrossRK6b2Vec2S1_
	fmsr	s16, r0
	ldr	r3, [sp, #608]
	add	r2, r3, #8
	add	r3, sp, #60
	mov	r0, r2
	mov	r1, r3
	bl	_Z7b2CrossRK6b2Vec2S1_
	fmsr	s15, r0
	fadds	s14, s16, s15
	flds	s15, [sp, #544]
	fmuls	s15, s14, s15
	flds	s14, [sp, #556]
	fadds	s15, s14, s15
	fsts	s15, [sp, #556]
	.loc 4 499 0
	flds	s15, [sp, #108]
	ldr	r3, [sp, #604]
	fsts	s15, [r3, #16]
	.loc 4 500 0
	flds	s15, [sp, #112]
	ldr	r3, [sp, #608]
	fsts	s15, [r3, #16]
	.loc 4 511 0
	b	.L141
.L145:
.LBE34:
	.loc 4 521 0
	flds	s15, .L152+24
	fsts	s15, [sp, #108]
	.loc 4 522 0
	ldr	r3, [sp, #608]
	flds	s15, [r3, #24]
	fnegs	s14, s15
	flds	s15, [sp, #120]
	fmuls	s15, s14, s15
	fsts	s15, [sp, #112]
	.loc 4 523 0
	ldr	r3, [sp, #520]
	flds	s14, [r3, #104]
	flds	s15, [sp, #112]
	fmuls	s15, s14, s15
	flds	s14, [sp, #116]
	fadds	s15, s15, s14
	fsts	s15, [sp, #612]
	.loc 4 524 0
	flds	s15, .L152+24
	fsts	s15, [sp, #616]
	.loc 4 526 0
	flds	s15, [sp, #112]
	fcmpezs	s15
	fmstat
	movlt	r3, #0
	movge	r3, #1
	and	r3, r3, #255
	cmp	r3, #0
	beq	.L146
	flds	s15, [sp, #612]
	fcmpezs	s15
	fmstat
	movlt	r3, #0
	movge	r3, #1
	and	r3, r3, #255
	cmp	r3, #0
	beq	.L146
.LBB35:
	.loc 4 529 0
	add	r1, sp, #52
	add	r2, sp, #108
	add	r3, sp, #140
	mov	r0, r1
	mov	r1, r2
	mov	r2, r3
	bl	_ZmiRK6b2Vec2S1_
	.loc 4 532 0
	ldr	r2, [sp, #52]	@ float
	add	r1, sp, #44
	add	r3, sp, #188
	mov	r0, r1
	mov	r1, r2	@ float
	mov	r2, r3
	bl	_ZmlfRK6b2Vec2
	.loc 4 533 0
	ldr	r2, [sp, #56]	@ float
	add	r1, sp, #36
	add	r3, sp, #188
	mov	r0, r1
	mov	r1, r2	@ float
	mov	r2, r3
	bl	_ZmlfRK6b2Vec2
	.loc 4 534 0
	add	r1, sp, #460
	add	r2, sp, #44
	add	r3, sp, #36
	mov	r0, r1
	mov	r1, r2
	mov	r2, r3
	bl	_ZplRK6b2Vec2S1_
	add	r2, sp, #452
	add	r3, sp, #460
	mov	r0, r2
	ldr	r1, [sp, #532]	@ float
	mov	r2, r3
	bl	_ZmlfRK6b2Vec2
	add	r2, sp, #204
	add	r3, sp, #452
	mov	r0, r2
	mov	r1, r3
	bl	_ZN6b2Vec2mIERKS_
	.loc 4 535 0
	ldr	r2, [sp, #604]
	add	r3, sp, #44
	mov	r0, r2
	mov	r1, r3
	bl	_Z7b2CrossRK6b2Vec2S1_
	fmsr	s16, r0
	ldr	r2, [sp, #608]
	add	r3, sp, #36
	mov	r0, r2
	mov	r1, r3
	bl	_Z7b2CrossRK6b2Vec2S1_
	fmsr	s15, r0
	fadds	s14, s16, s15
	flds	s15, [sp, #536]
	fmuls	s15, s14, s15
	flds	s14, [sp, #552]
	fsubs	s15, s14, s15
	fsts	s15, [sp, #552]
	.loc 4 537 0
	add	r1, sp, #476
	add	r2, sp, #44
	add	r3, sp, #36
	mov	r0, r1
	mov	r1, r2
	mov	r2, r3
	bl	_ZplRK6b2Vec2S1_
	add	r2, sp, #468
	add	r3, sp, #476
	mov	r0, r2
	ldr	r1, [sp, #540]	@ float
	mov	r2, r3
	bl	_ZmlfRK6b2Vec2
	add	r2, sp, #196
	add	r3, sp, #468
	mov	r0, r2
	mov	r1, r3
	bl	_ZN6b2Vec2pLERKS_
	.loc 4 538 0
	ldr	r3, [sp, #604]
	add	r2, r3, #8
	add	r3, sp, #44
	mov	r0, r2
	mov	r1, r3
	bl	_Z7b2CrossRK6b2Vec2S1_
	fmsr	s16, r0
	ldr	r3, [sp, #608]
	add	r2, r3, #8
	add	r3, sp, #36
	mov	r0, r2
	mov	r1, r3
	bl	_Z7b2CrossRK6b2Vec2S1_
	fmsr	s15, r0
	fadds	s14, s16, s15
	flds	s15, [sp, #544]
	fmuls	s15, s14, s15
	flds	s14, [sp, #556]
	fadds	s15, s14, s15
	fsts	s15, [sp, #556]
	.loc 4 541 0
	flds	s15, [sp, #108]
	ldr	r3, [sp, #604]
	fsts	s15, [r3, #16]
	.loc 4 542 0
	flds	s15, [sp, #112]
	ldr	r3, [sp, #608]
	fsts	s15, [r3, #16]
	.loc 4 553 0
	b	.L141
.L146:
.LBE35:
	.loc 4 561 0
	flds	s15, .L154
	fsts	s15, [sp, #108]
	.loc 4 562 0
	flds	s15, .L154
	fsts	s15, [sp, #112]
	.loc 4 563 0
	flds	s15, [sp, #116]
	fsts	s15, [sp, #612]
	.loc 4 564 0
	flds	s15, [sp, #120]
	fsts	s15, [sp, #616]
	.loc 4 566 0
	flds	s15, [sp, #612]
	fcmpezs	s15
	fmstat
	movlt	r3, #0
	movge	r3, #1
	and	r3, r3, #255
	cmp	r3, #0
	beq	.L150
	flds	s15, [sp, #616]
	fcmpezs	s15
	fmstat
	movlt	r3, #0
	movge	r3, #1
	and	r3, r3, #255
	cmp	r3, #0
	beq	.L151
.LBB36:
	.loc 4 569 0
	add	r1, sp, #28
	add	r2, sp, #108
	add	r3, sp, #140
	mov	r0, r1
	mov	r1, r2
	mov	r2, r3
	bl	_ZmiRK6b2Vec2S1_
	.loc 4 572 0
	ldr	r2, [sp, #28]	@ float
	add	r1, sp, #20
	add	r3, sp, #188
	mov	r0, r1
	mov	r1, r2	@ float
	mov	r2, r3
	bl	_ZmlfRK6b2Vec2
	.loc 4 573 0
	ldr	r2, [sp, #32]	@ float
	add	r1, sp, #12
	add	r3, sp, #188
	mov	r0, r1
	mov	r1, r2	@ float
	mov	r2, r3
	bl	_ZmlfRK6b2Vec2
	.loc 4 574 0
	add	r1, sp, #492
	add	r2, sp, #20
	add	r3, sp, #12
	mov	r0, r1
	mov	r1, r2
	mov	r2, r3
	bl	_ZplRK6b2Vec2S1_
	add	r2, sp, #484
	add	r3, sp, #492
	mov	r0, r2
	ldr	r1, [sp, #532]	@ float
	mov	r2, r3
	bl	_ZmlfRK6b2Vec2
	add	r2, sp, #204
	add	r3, sp, #484
	mov	r0, r2
	mov	r1, r3
	bl	_ZN6b2Vec2mIERKS_
	.loc 4 575 0
	ldr	r2, [sp, #604]
	add	r3, sp, #20
	mov	r0, r2
	mov	r1, r3
	bl	_Z7b2CrossRK6b2Vec2S1_
	fmsr	s16, r0
	ldr	r2, [sp, #608]
	add	r3, sp, #12
	mov	r0, r2
	mov	r1, r3
	bl	_Z7b2CrossRK6b2Vec2S1_
	fmsr	s15, r0
	fadds	s14, s16, s15
	flds	s15, [sp, #536]
	fmuls	s15, s14, s15
	flds	s14, [sp, #552]
	fsubs	s15, s14, s15
	fsts	s15, [sp, #552]
	.loc 4 577 0
	add	r1, sp, #508
	add	r2, sp, #20
	add	r3, sp, #12
	mov	r0, r1
	mov	r1, r2
	mov	r2, r3
	bl	_ZplRK6b2Vec2S1_
	add	r2, sp, #500
	add	r3, sp, #508
	mov	r0, r2
	ldr	r1, [sp, #540]	@ float
	mov	r2, r3
	bl	_ZmlfRK6b2Vec2
	add	r2, sp, #196
	add	r3, sp, #500
	mov	r0, r2
	mov	r1, r3
	bl	_ZN6b2Vec2pLERKS_
	.loc 4 578 0
	ldr	r3, [sp, #604]
	add	r2, r3, #8
	add	r3, sp, #20
	mov	r0, r2
	mov	r1, r3
	bl	_Z7b2CrossRK6b2Vec2S1_
	fmsr	s16, r0
	ldr	r3, [sp, #608]
	add	r2, r3, #8
	add	r3, sp, #12
	mov	r0, r2
	mov	r1, r3
	bl	_Z7b2CrossRK6b2Vec2S1_
	fmsr	s15, r0
	fadds	s14, s16, s15
	flds	s15, [sp, #544]
	fmuls	s15, s14, s15
	flds	s14, [sp, #556]
	fadds	s15, s14, s15
	fsts	s15, [sp, #556]
	.loc 4 581 0
	flds	s15, [sp, #108]
	ldr	r3, [sp, #604]
	fsts	s15, [r3, #16]
	.loc 4 582 0
	flds	s15, [sp, #112]
	ldr	r3, [sp, #608]
	fsts	s15, [r3, #16]
	.loc 4 584 0
	b	.L141
.L150:
.LBE36:
	.loc 4 588 0
	mov	r0, r0	@ nop
	b	.L141
.L151:
	mov	r0, r0	@ nop
.L141:
.LBE32:
.LBE31:
	.loc 4 592 0
	ldr	r3, [sp, #4]
	ldr	r1, [r3, #28]
	ldr	r2, [sp, #524]
	mov	r3, r2
	mov	r3, r3, asl #1
	add	r3, r3, r2
	mov	r3, r3, asl #2
	add	r3, r1, r3
	add	r2, sp, #204
	ldmia	r2, {r0, r1}
	stmia	r3, {r0, r1}
	.loc 4 593 0
	ldr	r3, [sp, #4]
	ldr	r1, [r3, #28]
	ldr	r2, [sp, #524]
	mov	r3, r2
	mov	r3, r3, asl #1
	add	r3, r3, r2
	mov	r3, r3, asl #2
	add	r3, r1, r3
	flds	s15, [sp, #552]
	fsts	s15, [r3, #8]
	.loc 4 594 0
	ldr	r3, [sp, #4]
	ldr	r1, [r3, #28]
	ldr	r2, [sp, #528]
	mov	r3, r2
	mov	r3, r3, asl #1
	add	r3, r3, r2
	mov	r3, r3, asl #2
	add	r3, r1, r3
	add	r2, sp, #196
	ldmia	r2, {r0, r1}
	stmia	r3, {r0, r1}
	.loc 4 595 0
	ldr	r3, [sp, #4]
	ldr	r1, [r3, #28]
	ldr	r2, [sp, #528]
	mov	r3, r2
	mov	r3, r3, asl #1
	add	r3, r3, r2
	mov	r3, r3, asl #2
	add	r3, r1, r3
	flds	s15, [sp, #556]
	fsts	s15, [r3, #8]
.LBE27:
	.loc 4 291 0
	ldr	r3, [sp, #516]
	add	r3, r3, #1
	str	r3, [sp, #516]
.L136:
	ldr	r3, [sp, #4]
	ldr	r2, [r3, #48]
	ldr	r3, [sp, #516]
	cmp	r2, r3
	movle	r3, #0
	movgt	r3, #1
	and	r3, r3, #255
	cmp	r3, #0
	bne	.L148
.LBE26:
.LBE25:
	.loc 4 597 0
	add	sp, sp, #628
	fldmfdd	sp!, {d8}
	ldmfd	sp!, {pc}
.L155:
	.align	2
.L154:
	.word	0
	.cfi_endproc
.LFE819:
	.size	_ZN15b2ContactSolver24SolveVelocityConstraintsEv, .-_ZN15b2ContactSolver24SolveVelocityConstraintsEv
	.section	.text._ZN15b2ContactSolver13StoreImpulsesEv,"ax",%progbits
	.align	2
	.global	_ZN15b2ContactSolver13StoreImpulsesEv
	.hidden	_ZN15b2ContactSolver13StoreImpulsesEv
	.type	_ZN15b2ContactSolver13StoreImpulsesEv, %function
_ZN15b2ContactSolver13StoreImpulsesEv:
.LFB820:
	.loc 4 600 0
	.cfi_startproc
	@ args = 0, pretend = 0, frame = 24
	@ frame_needed = 0, uses_anonymous_args = 0
	str	lr, [sp, #-4]!
.LCFI60:
	.cfi_def_cfa_offset 4
	sub	sp, sp, #28
.LCFI61:
	.cfi_def_cfa_offset 32
	str	r0, [sp, #4]
.LBB37:
.LBB38:
	.loc 4 601 0
	mov	r3, #0
	str	r3, [sp, #8]
	b	.L157
	.cfi_offset 14, -4
.L160:
.LBB39:
	.loc 4 603 0
	ldr	r3, [sp, #4]
	ldr	r2, [r3, #40]
	ldr	r3, [sp, #8]
	mov	r1, #156
	mul	r3, r1, r3
	add	r3, r2, r3
	str	r3, [sp, #12]
	.loc 4 604 0
	ldr	r3, [sp, #4]
	ldr	r2, [r3, #44]
	ldr	r3, [sp, #12]
	ldr	r3, [r3, #152]
	mov	r3, r3, asl #2
	add	r3, r2, r3
	ldr	r3, [r3, #0]
	mov	r0, r3
	bl	_ZN9b2Contact11GetManifoldEv
	mov	r3, r0
	str	r3, [sp, #16]
.LBB40:
	.loc 4 606 0
	mov	r3, #0
	str	r3, [sp, #20]
	b	.L158
.L159:
	.loc 4 608 0
	ldr	r2, [sp, #20]
	ldr	r1, [sp, #20]
	ldr	ip, [sp, #12]
	mov	r0, #16
	mov	r3, r1
	mov	r3, r3, asl #3
	add	r3, r3, r1
	mov	r3, r3, asl #2
	add	r3, r3, ip
	add	r3, r3, r0
	flds	s15, [r3, #0]
	ldr	r0, [sp, #16]
	mov	r1, #8
	mov	r3, r2
	mov	r3, r3, asl #2
	add	r3, r3, r2
	mov	r3, r3, asl #2
	add	r3, r3, r0
	add	r3, r3, r1
	fsts	s15, [r3, #0]
	.loc 4 609 0
	ldr	r2, [sp, #20]
	ldr	r1, [sp, #20]
	ldr	ip, [sp, #12]
	mov	r0, #20
	mov	r3, r1
	mov	r3, r3, asl #3
	add	r3, r3, r1
	mov	r3, r3, asl #2
	add	r3, r3, ip
	add	r3, r3, r0
	flds	s15, [r3, #0]
	ldr	r0, [sp, #16]
	mov	r1, #12
	mov	r3, r2
	mov	r3, r3, asl #2
	add	r3, r3, r2
	mov	r3, r3, asl #2
	add	r3, r3, r0
	add	r3, r3, r1
	fsts	s15, [r3, #0]
	.loc 4 606 0
	ldr	r3, [sp, #20]
	add	r3, r3, #1
	str	r3, [sp, #20]
.L158:
	ldr	r3, [sp, #12]
	ldr	r2, [r3, #148]
	ldr	r3, [sp, #20]
	cmp	r2, r3
	movle	r3, #0
	movgt	r3, #1
	and	r3, r3, #255
	cmp	r3, #0
	bne	.L159
.LBE40:
.LBE39:
	.loc 4 601 0
	ldr	r3, [sp, #8]
	add	r3, r3, #1
	str	r3, [sp, #8]
.L157:
	ldr	r3, [sp, #4]
	ldr	r2, [r3, #48]
	ldr	r3, [sp, #8]
	cmp	r2, r3
	movle	r3, #0
	movgt	r3, #1
	and	r3, r3, #255
	cmp	r3, #0
	bne	.L160
.LBE38:
.LBE37:
	.loc 4 612 0
	add	sp, sp, #28
	ldmfd	sp!, {pc}
	.cfi_endproc
.LFE820:
	.size	_ZN15b2ContactSolver13StoreImpulsesEv, .-_ZN15b2ContactSolver13StoreImpulsesEv
	.section	.rodata
	.align	2
.LC5:
	.ascii	"pc->pointCount > 0\000"
	.section	.text._ZN24b2PositionSolverManifold10InitializeEP27b2ContactPositionConstraintRK11b2TransformS4_i,"axG",%progbits,_ZN24b2PositionSolverManifold10InitializeEP27b2ContactPositionConstraintRK11b2TransformS4_i,comdat
	.align	2
	.weak	_ZN24b2PositionSolverManifold10InitializeEP27b2ContactPositionConstraintRK11b2TransformS4_i
	.hidden	_ZN24b2PositionSolverManifold10InitializeEP27b2ContactPositionConstraintRK11b2TransformS4_i
	.type	_ZN24b2PositionSolverManifold10InitializeEP27b2ContactPositionConstraintRK11b2TransformS4_i, %function
_ZN24b2PositionSolverManifold10InitializeEP27b2ContactPositionConstraintRK11b2TransformS4_i:
.LFB821:
	.loc 4 616 0
	.cfi_startproc
	@ args = 4, pretend = 0, frame = 104
	@ frame_needed = 0, uses_anonymous_args = 0
	stmfd	sp!, {r4, lr}
.LCFI62:
	.cfi_def_cfa_offset 8
	sub	sp, sp, #104
.LCFI63:
	.cfi_def_cfa_offset 112
	str	r0, [sp, #20]
	str	r1, [sp, #16]
	str	r2, [sp, #12]
	str	r3, [sp, #8]
.LBB41:
	.loc 4 618 0
	ldr	r3, [sp, #16]
	ldr	r3, [r3, #84]
	cmp	r3, #0
	bgt	.L163
	.cfi_offset 14, -4
	.cfi_offset 4, -8
	ldr	r0, .L169
	ldr	r1, .L169+4
	ldr	r2, .L169+8
	bl	__assert
.L163:
	.loc 4 620 0
	ldr	r3, [sp, #16]
	ldr	r3, [r3, #72]
	cmp	r3, #1
	beq	.L166
	cmp	r3, #2
	beq	.L167
	cmp	r3, #0
	bne	.L168
.L165:
.LBB42:
	.loc 4 624 0
	ldr	r3, [sp, #16]
	add	r3, r3, #24
	add	r2, sp, #64
	mov	r0, r2
	ldr	r1, [sp, #12]
	mov	r2, r3
	bl	_Z5b2MulRK11b2TransformRK6b2Vec2
	.loc 4 625 0
	ldr	r3, [sp, #16]
	add	r2, sp, #56
	mov	r0, r2
	ldr	r1, [sp, #8]
	mov	r2, r3
	bl	_Z5b2MulRK11b2TransformRK6b2Vec2
	.loc 4 626 0
	ldr	r4, [sp, #20]
	mov	r1, sp
	add	r2, sp, #56
	add	r3, sp, #64
	mov	r0, r1
	mov	r1, r2
	mov	r2, r3
	bl	_ZmiRK6b2Vec2S1_
	mov	r3, r4
	mov	r2, sp
	ldmia	r2, {r0, r1}
	stmia	r3, {r0, r1}
	.loc 4 627 0
	ldr	r3, [sp, #20]
	mov	r0, r3
	bl	_ZN6b2Vec29NormalizeEv
	.loc 4 628 0
	add	r1, sp, #72
	add	r2, sp, #64
	add	r3, sp, #56
	mov	r0, r1
	mov	r1, r2
	mov	r2, r3
	bl	_ZplRK6b2Vec2S1_
	ldr	r4, [sp, #20]
	mov	r2, sp
	add	r3, sp, #72
	mov	r0, r2
	ldr	r1, .L169+12	@ float
	mov	r2, r3
	bl	_ZmlfRK6b2Vec2
	add	r3, r4, #8
	mov	r2, sp
	ldmia	r2, {r0, r1}
	stmia	r3, {r0, r1}
	.loc 4 629 0
	add	r1, sp, #80
	add	r2, sp, #56
	add	r3, sp, #64
	mov	r0, r1
	mov	r1, r2
	mov	r2, r3
	bl	_ZmiRK6b2Vec2S1_
	ldr	r3, [sp, #20]
	add	r2, sp, #80
	mov	r0, r2
	mov	r1, r3
	bl	_Z5b2DotRK6b2Vec2S1_
	fmsr	s14, r0
	ldr	r3, [sp, #16]
	flds	s15, [r3, #76]
	fsubs	s14, s14, s15
	ldr	r3, [sp, #16]
	flds	s15, [r3, #80]
	fsubs	s15, s14, s15
	ldr	r3, [sp, #20]
	fsts	s15, [r3, #16]
.LBE42:
	.loc 4 631 0
	b	.L168
.L166:
.LBB43:
	.loc 4 635 0
	ldr	r3, [sp, #12]
	add	r2, r3, #8
	ldr	r3, [sp, #16]
	add	r3, r3, #16
	ldr	r4, [sp, #20]
	mov	r1, sp
	mov	r0, r1
	mov	r1, r2
	mov	r2, r3
	bl	_Z5b2MulRK5b2RotRK6b2Vec2
	mov	r3, r4
	mov	r2, sp
	ldmia	r2, {r0, r1}
	stmia	r3, {r0, r1}
	.loc 4 636 0
	ldr	r3, [sp, #16]
	add	r3, r3, #24
	add	r2, sp, #48
	mov	r0, r2
	ldr	r1, [sp, #12]
	mov	r2, r3
	bl	_Z5b2MulRK11b2TransformRK6b2Vec2
	.loc 4 638 0
	ldr	r3, [sp, #112]
	mov	r2, r3, asl #3
	ldr	r3, [sp, #16]
	add	r3, r2, r3
	add	r2, sp, #40
	mov	r0, r2
	ldr	r1, [sp, #8]
	mov	r2, r3
	bl	_Z5b2MulRK11b2TransformRK6b2Vec2
	.loc 4 639 0
	add	r1, sp, #88
	add	r2, sp, #40
	add	r3, sp, #48
	mov	r0, r1
	mov	r1, r2
	mov	r2, r3
	bl	_ZmiRK6b2Vec2S1_
	ldr	r3, [sp, #20]
	add	r2, sp, #88
	mov	r0, r2
	mov	r1, r3
	bl	_Z5b2DotRK6b2Vec2S1_
	fmsr	s14, r0
	ldr	r3, [sp, #16]
	flds	s15, [r3, #76]
	fsubs	s14, s14, s15
	ldr	r3, [sp, #16]
	flds	s15, [r3, #80]
	fsubs	s15, s14, s15
	ldr	r3, [sp, #20]
	fsts	s15, [r3, #16]
	.loc 4 640 0
	ldr	r3, [sp, #20]
	add	r3, r3, #8
	add	r2, sp, #40
	ldmia	r2, {r0, r1}
	stmia	r3, {r0, r1}
.LBE43:
	.loc 4 642 0
	b	.L168
.L167:
.LBB44:
	.loc 4 646 0
	ldr	r3, [sp, #8]
	add	r2, r3, #8
	ldr	r3, [sp, #16]
	add	r3, r3, #16
	ldr	r4, [sp, #20]
	mov	r1, sp
	mov	r0, r1
	mov	r1, r2
	mov	r2, r3
	bl	_Z5b2MulRK5b2RotRK6b2Vec2
	mov	r3, r4
	mov	r2, sp
	ldmia	r2, {r0, r1}
	stmia	r3, {r0, r1}
	.loc 4 647 0
	ldr	r3, [sp, #16]
	add	r3, r3, #24
	add	r2, sp, #32
	mov	r0, r2
	ldr	r1, [sp, #8]
	mov	r2, r3
	bl	_Z5b2MulRK11b2TransformRK6b2Vec2
	.loc 4 649 0
	ldr	r3, [sp, #112]
	mov	r2, r3, asl #3
	ldr	r3, [sp, #16]
	add	r3, r2, r3
	add	r2, sp, #24
	mov	r0, r2
	ldr	r1, [sp, #12]
	mov	r2, r3
	bl	_Z5b2MulRK11b2TransformRK6b2Vec2
	.loc 4 650 0
	add	r1, sp, #96
	add	r2, sp, #24
	add	r3, sp, #32
	mov	r0, r1
	mov	r1, r2
	mov	r2, r3
	bl	_ZmiRK6b2Vec2S1_
	ldr	r3, [sp, #20]
	add	r2, sp, #96
	mov	r0, r2
	mov	r1, r3
	bl	_Z5b2DotRK6b2Vec2S1_
	fmsr	s14, r0
	ldr	r3, [sp, #16]
	flds	s15, [r3, #76]
	fsubs	s14, s14, s15
	ldr	r3, [sp, #16]
	flds	s15, [r3, #80]
	fsubs	s15, s14, s15
	ldr	r3, [sp, #20]
	fsts	s15, [r3, #16]
	.loc 4 651 0
	ldr	r3, [sp, #20]
	add	r3, r3, #8
	add	r2, sp, #24
	ldmia	r2, {r0, r1}
	stmia	r3, {r0, r1}
	.loc 4 654 0
	ldr	r3, [sp, #20]
	ldr	r4, [sp, #20]
	mov	r2, sp
	mov	r0, r2
	mov	r1, r3
	bl	_ZNK6b2Vec2ngEv
	mov	r3, r4
	mov	r2, sp
	ldmia	r2, {r0, r1}
	stmia	r3, {r0, r1}
.L168:
.LBE44:
.LBE41:
	.loc 4 658 0
	add	sp, sp, #104
	ldmfd	sp!, {r4, pc}
.L170:
	.align	2
.L169:
	.word	.LC0
	.word	618
	.word	.LC5
	.word	1056964608
	.cfi_endproc
.LFE821:
	.size	_ZN24b2PositionSolverManifold10InitializeEP27b2ContactPositionConstraintRK11b2TransformS4_i, .-_ZN24b2PositionSolverManifold10InitializeEP27b2ContactPositionConstraintRK11b2TransformS4_i
	.section	.text._ZN24b2PositionSolverManifoldC1Ev,"axG",%progbits,_ZN24b2PositionSolverManifoldC1Ev,comdat
	.align	2
	.weak	_ZN24b2PositionSolverManifoldC1Ev
	.hidden	_ZN24b2PositionSolverManifoldC1Ev
	.type	_ZN24b2PositionSolverManifoldC1Ev, %function
_ZN24b2PositionSolverManifoldC1Ev:
.LFB825:
	.loc 4 615 0
	.cfi_startproc
	@ args = 0, pretend = 0, frame = 8
	@ frame_needed = 0, uses_anonymous_args = 0
	str	lr, [sp, #-4]!
.LCFI64:
	.cfi_def_cfa_offset 4
	sub	sp, sp, #12
.LCFI65:
	.cfi_def_cfa_offset 16
	str	r0, [sp, #4]
	.loc 4 615 0
	ldr	r3, [sp, #4]
	mov	r0, r3
	.cfi_offset 14, -4
	bl	_ZN6b2Vec2C1Ev
	ldr	r3, [sp, #4]
	add	r3, r3, #8
	mov	r0, r3
	bl	_ZN6b2Vec2C1Ev
	ldr	r3, [sp, #4]
	mov	r0, r3
	add	sp, sp, #12
	ldmfd	sp!, {pc}
	.cfi_endproc
.LFE825:
	.size	_ZN24b2PositionSolverManifoldC1Ev, .-_ZN24b2PositionSolverManifoldC1Ev
	.section	.text._ZN15b2ContactSolver24SolvePositionConstraintsEv,"ax",%progbits
	.align	2
	.global	_ZN15b2ContactSolver24SolvePositionConstraintsEv
	.hidden	_ZN15b2ContactSolver24SolvePositionConstraintsEv
	.type	_ZN15b2ContactSolver24SolvePositionConstraintsEv, %function
_ZN15b2ContactSolver24SolvePositionConstraintsEv:
.LFB822:
	.loc 4 667 0
	.cfi_startproc
	@ args = 0, pretend = 0, frame = 248
	@ frame_needed = 0, uses_anonymous_args = 0
	str	lr, [sp, #-4]!
.LCFI66:
	.cfi_def_cfa_offset 4
	sub	sp, sp, #260
.LCFI67:
	.cfi_def_cfa_offset 264
	str	r0, [sp, #20]
.LBB45:
	.loc 4 668 0
	flds	s15, .L182+12
	fsts	s15, [sp, #180]
.LBB46:
	.loc 4 670 0
	mov	r3, #0
	str	r3, [sp, #184]
	b	.L175
	.cfi_offset 14, -4
.L180:
.LBB47:
	.loc 4 672 0
	ldr	r3, [sp, #20]
	ldr	r2, [r3, #36]
	ldr	r3, [sp, #184]
	mov	r1, #88
	mul	r3, r1, r3
	add	r3, r2, r3
	str	r3, [sp, #188]
	.loc 4 674 0
	ldr	r3, [sp, #188]
	ldr	r3, [r3, #32]
	str	r3, [sp, #192]
	.loc 4 675 0
	ldr	r3, [sp, #188]
	ldr	r3, [r3, #36]
	str	r3, [sp, #196]
	.loc 4 676 0
	ldr	r2, [sp, #188]
	add	r3, sp, #140
	add	r2, r2, #48
	ldmia	r2, {r0, r1}
	stmia	r3, {r0, r1}
	.loc 4 677 0
	ldr	r3, [sp, #188]
	flds	s15, [r3, #40]
	fsts	s15, [sp, #200]
	.loc 4 678 0
	ldr	r3, [sp, #188]
	flds	s15, [r3, #64]
	fsts	s15, [sp, #204]
	.loc 4 679 0
	ldr	r2, [sp, #188]
	add	r3, sp, #132
	add	r2, r2, #56
	ldmia	r2, {r0, r1}
	stmia	r3, {r0, r1}
	.loc 4 680 0
	ldr	r3, [sp, #188]
	flds	s15, [r3, #44]
	fsts	s15, [sp, #208]
	.loc 4 681 0
	ldr	r3, [sp, #188]
	flds	s15, [r3, #68]
	fsts	s15, [sp, #212]
	.loc 4 682 0
	ldr	r3, [sp, #188]
	ldr	r3, [r3, #84]
	str	r3, [sp, #216]
	.loc 4 684 0
	ldr	r3, [sp, #20]
	ldr	r1, [r3, #24]
	ldr	r2, [sp, #192]
	mov	r3, r2
	mov	r3, r3, asl #1
	add	r3, r3, r2
	mov	r3, r3, asl #2
	add	r2, r1, r3
	add	r3, sp, #124
	ldmia	r2, {r0, r1}
	stmia	r3, {r0, r1}
	.loc 4 685 0
	ldr	r3, [sp, #20]
	ldr	r1, [r3, #24]
	ldr	r2, [sp, #192]
	mov	r3, r2
	mov	r3, r3, asl #1
	add	r3, r3, r2
	mov	r3, r3, asl #2
	add	r3, r1, r3
	flds	s15, [r3, #8]
	fsts	s15, [sp, #220]
	.loc 4 687 0
	ldr	r3, [sp, #20]
	ldr	r1, [r3, #24]
	ldr	r2, [sp, #196]
	mov	r3, r2
	mov	r3, r3, asl #1
	add	r3, r3, r2
	mov	r3, r3, asl #2
	add	r2, r1, r3
	add	r3, sp, #116
	ldmia	r2, {r0, r1}
	stmia	r3, {r0, r1}
	.loc 4 688 0
	ldr	r3, [sp, #20]
	ldr	r1, [r3, #24]
	ldr	r2, [sp, #196]
	mov	r3, r2
	mov	r3, r3, asl #1
	add	r3, r3, r2
	mov	r3, r3, asl #2
	add	r3, r1, r3
	flds	s15, [r3, #8]
	fsts	s15, [sp, #224]
.LBB48:
	.loc 4 691 0
	mov	r3, #0
	str	r3, [sp, #228]
	b	.L176
.L179:
.LBB49:
	.loc 4 693 0
	add	r3, sp, #100
	mov	r0, r3
	bl	_ZN11b2TransformC1Ev
	add	r3, sp, #84
	mov	r0, r3
	bl	_ZN11b2TransformC1Ev
	.loc 4 694 0
	add	r3, sp, #100
	add	r3, r3, #8
	mov	r0, r3
	ldr	r1, [sp, #220]	@ float
	bl	_ZN5b2Rot3SetEf
	.loc 4 695 0
	add	r3, sp, #84
	add	r3, r3, #8
	mov	r0, r3
	ldr	r1, [sp, #224]	@ float
	bl	_ZN5b2Rot3SetEf
	.loc 4 696 0
	add	r1, sp, #148
	add	r3, sp, #100
	add	r2, r3, #8
	add	r3, sp, #140
	mov	r0, r1
	mov	r1, r2
	mov	r2, r3
	bl	_Z5b2MulRK5b2RotRK6b2Vec2
	add	r1, sp, #8
	add	r2, sp, #124
	add	r3, sp, #148
	mov	r0, r1
	mov	r1, r2
	mov	r2, r3
	bl	_ZmiRK6b2Vec2S1_
	add	r3, sp, #100
	add	r2, sp, #8
	ldmia	r2, {r0, r1}
	stmia	r3, {r0, r1}
	.loc 4 697 0
	add	r1, sp, #156
	add	r3, sp, #84
	add	r2, r3, #8
	add	r3, sp, #132
	mov	r0, r1
	mov	r1, r2
	mov	r2, r3
	bl	_Z5b2MulRK5b2RotRK6b2Vec2
	add	r1, sp, #8
	add	r2, sp, #116
	add	r3, sp, #156
	mov	r0, r1
	mov	r1, r2
	mov	r2, r3
	bl	_ZmiRK6b2Vec2S1_
	add	r3, sp, #84
	add	r2, sp, #8
	ldmia	r2, {r0, r1}
	stmia	r3, {r0, r1}
	.loc 4 699 0
	add	r3, sp, #64
	mov	r0, r3
	bl	_ZN24b2PositionSolverManifoldC1Ev
	.loc 4 700 0
	add	r1, sp, #64
	add	r2, sp, #100
	add	r3, sp, #84
	ldr	r0, [sp, #228]
	str	r0, [sp, #0]
	mov	r0, r1
	ldr	r1, [sp, #188]
	bl	_ZN24b2PositionSolverManifold10InitializeEP27b2ContactPositionConstraintRK11b2TransformS4_i
	.loc 4 701 0
	add	r3, sp, #56
	add	r2, sp, #64
	ldmia	r2, {r0, r1}
	stmia	r3, {r0, r1}
	.loc 4 703 0
	add	r3, sp, #48
	add	r2, sp, #72
	ldmia	r2, {r0, r1}
	stmia	r3, {r0, r1}
	.loc 4 704 0
	flds	s15, [sp, #80]
	fsts	s15, [sp, #232]
	.loc 4 706 0
	add	r1, sp, #40
	add	r2, sp, #48
	add	r3, sp, #124
	mov	r0, r1
	mov	r1, r2
	mov	r2, r3
	bl	_ZmiRK6b2Vec2S1_
	.loc 4 707 0
	add	r1, sp, #32
	add	r2, sp, #48
	add	r3, sp, #116
	mov	r0, r1
	mov	r1, r2
	mov	r2, r3
	bl	_ZmiRK6b2Vec2S1_
	.loc 4 710 0
	ldr	r0, [sp, #180]	@ float
	ldr	r1, [sp, #232]	@ float
	bl	_Z5b2MinIfET_S0_S0_
	mov	r3, r0	@ float
	str	r3, [sp, #180]	@ float
	.loc 4 713 0
	flds	s14, [sp, #232]
	flds	s15, .L182
	fadds	s14, s14, s15
	flds	s15, .L182+4
	fmuls	s15, s14, s15
	fmrs	r0, s15
	ldr	r1, .L182+8	@ float
	ldr	r2, .L182+12	@ float
	bl	_Z7b2ClampIfET_S0_S0_S0_
	mov	r3, r0	@ float
	str	r3, [sp, #236]	@ float
	.loc 4 716 0
	add	r2, sp, #40
	add	r3, sp, #56
	mov	r0, r2
	mov	r1, r3
	bl	_Z7b2CrossRK6b2Vec2S1_
	mov	r3, r0	@ float
	str	r3, [sp, #240]	@ float
	.loc 4 717 0
	add	r2, sp, #32
	add	r3, sp, #56
	mov	r0, r2
	mov	r1, r3
	bl	_Z7b2CrossRK6b2Vec2S1_
	mov	r3, r0	@ float
	str	r3, [sp, #244]	@ float
	.loc 4 718 0
	flds	s14, [sp, #200]
	flds	s15, [sp, #208]
	fadds	s14, s14, s15
	flds	s13, [sp, #204]
	flds	s15, [sp, #240]
	fmuls	s15, s13, s15
	flds	s13, [sp, #240]
	fmuls	s15, s15, s13
	fadds	s14, s14, s15
	flds	s13, [sp, #212]
	flds	s15, [sp, #244]
	fmuls	s15, s13, s15
	flds	s13, [sp, #244]
	fmuls	s15, s15, s13
	fadds	s15, s14, s15
	fsts	s15, [sp, #248]
	.loc 4 721 0
	flds	s15, [sp, #248]
	fcmpezs	s15
	fmstat
	movle	r3, #0
	movgt	r3, #1
	and	r3, r3, #255
	cmp	r3, #0
	beq	.L177
	flds	s15, [sp, #236]
	fnegs	s14, s15
	flds	s15, [sp, #248]
	fdivs	s15, s14, s15
	b	.L178
.L183:
	.align	2
.L182:
	.word	1000593162
	.word	1045220557
	.word	-1102263091
	.word	0
	.word	-1133133169
.L177:
	flds	s15, .L182+12
.L178:
	fsts	s15, [sp, #252]
	.loc 4 723 0
	add	r2, sp, #24
	add	r3, sp, #56
	mov	r0, r2
	ldr	r1, [sp, #252]	@ float
	mov	r2, r3
	bl	_ZmlfRK6b2Vec2
	.loc 4 725 0
	add	r2, sp, #164
	add	r3, sp, #24
	mov	r0, r2
	ldr	r1, [sp, #200]	@ float
	mov	r2, r3
	bl	_ZmlfRK6b2Vec2
	add	r2, sp, #124
	add	r3, sp, #164
	mov	r0, r2
	mov	r1, r3
	bl	_ZN6b2Vec2mIERKS_
	.loc 4 726 0
	add	r2, sp, #40
	add	r3, sp, #24
	mov	r0, r2
	mov	r1, r3
	bl	_Z7b2CrossRK6b2Vec2S1_
	fmsr	s14, r0
	flds	s15, [sp, #204]
	fmuls	s15, s14, s15
	flds	s14, [sp, #220]
	fsubs	s15, s14, s15
	fsts	s15, [sp, #220]
	.loc 4 728 0
	add	r2, sp, #172
	add	r3, sp, #24
	mov	r0, r2
	ldr	r1, [sp, #208]	@ float
	mov	r2, r3
	bl	_ZmlfRK6b2Vec2
	add	r2, sp, #116
	add	r3, sp, #172
	mov	r0, r2
	mov	r1, r3
	bl	_ZN6b2Vec2pLERKS_
	.loc 4 729 0
	add	r2, sp, #32
	add	r3, sp, #24
	mov	r0, r2
	mov	r1, r3
	bl	_Z7b2CrossRK6b2Vec2S1_
	fmsr	s14, r0
	flds	s15, [sp, #212]
	fmuls	s15, s14, s15
	flds	s14, [sp, #224]
	fadds	s15, s14, s15
	fsts	s15, [sp, #224]
.LBE49:
	.loc 4 691 0
	ldr	r3, [sp, #228]
	add	r3, r3, #1
	str	r3, [sp, #228]
.L176:
	ldr	r2, [sp, #228]
	ldr	r3, [sp, #216]
	cmp	r2, r3
	movge	r3, #0
	movlt	r3, #1
	and	r3, r3, #255
	cmp	r3, #0
	bne	.L179
.LBE48:
	.loc 4 732 0
	ldr	r3, [sp, #20]
	ldr	r1, [r3, #24]
	ldr	r2, [sp, #192]
	mov	r3, r2
	mov	r3, r3, asl #1
	add	r3, r3, r2
	mov	r3, r3, asl #2
	add	r3, r1, r3
	add	r2, sp, #124
	ldmia	r2, {r0, r1}
	stmia	r3, {r0, r1}
	.loc 4 733 0
	ldr	r3, [sp, #20]
	ldr	r1, [r3, #24]
	ldr	r2, [sp, #192]
	mov	r3, r2
	mov	r3, r3, asl #1
	add	r3, r3, r2
	mov	r3, r3, asl #2
	add	r3, r1, r3
	flds	s15, [sp, #220]
	fsts	s15, [r3, #8]
	.loc 4 735 0
	ldr	r3, [sp, #20]
	ldr	r1, [r3, #24]
	ldr	r2, [sp, #196]
	mov	r3, r2
	mov	r3, r3, asl #1
	add	r3, r3, r2
	mov	r3, r3, asl #2
	add	r3, r1, r3
	add	r2, sp, #116
	ldmia	r2, {r0, r1}
	stmia	r3, {r0, r1}
	.loc 4 736 0
	ldr	r3, [sp, #20]
	ldr	r1, [r3, #24]
	ldr	r2, [sp, #196]
	mov	r3, r2
	mov	r3, r3, asl #1
	add	r3, r3, r2
	mov	r3, r3, asl #2
	add	r3, r1, r3
	flds	s15, [sp, #224]
	fsts	s15, [r3, #8]
.LBE47:
	.loc 4 670 0
	ldr	r3, [sp, #184]
	add	r3, r3, #1
	str	r3, [sp, #184]
.L175:
	ldr	r3, [sp, #20]
	ldr	r2, [r3, #48]
	ldr	r3, [sp, #184]
	cmp	r2, r3
	movle	r3, #0
	movgt	r3, #1
	and	r3, r3, #255
	cmp	r3, #0
	bne	.L180
.LBE46:
	.loc 4 741 0
	flds	s14, [sp, #180]
	flds	s15, .L182+16
	fcmpes	s14, s15
	fmstat
	movlt	r3, #0
	movge	r3, #1
	and	r3, r3, #255
.LBE45:
	.loc 4 742 0
	mov	r0, r3
	add	sp, sp, #260
	ldmfd	sp!, {pc}
	.cfi_endproc
.LFE822:
	.size	_ZN15b2ContactSolver24SolvePositionConstraintsEv, .-_ZN15b2ContactSolver24SolvePositionConstraintsEv
	.section	.text._ZN15b2ContactSolver27SolveTOIPositionConstraintsEii,"ax",%progbits
	.align	2
	.global	_ZN15b2ContactSolver27SolveTOIPositionConstraintsEii
	.hidden	_ZN15b2ContactSolver27SolveTOIPositionConstraintsEii
	.type	_ZN15b2ContactSolver27SolveTOIPositionConstraintsEii, %function
_ZN15b2ContactSolver27SolveTOIPositionConstraintsEii:
.LFB826:
	.loc 4 746 0
	.cfi_startproc
	@ args = 0, pretend = 0, frame = 256
	@ frame_needed = 0, uses_anonymous_args = 0
	str	lr, [sp, #-4]!
.LCFI68:
	.cfi_def_cfa_offset 4
	sub	sp, sp, #268
.LCFI69:
	.cfi_def_cfa_offset 272
	str	r0, [sp, #28]
	str	r1, [sp, #24]
	str	r2, [sp, #20]
.LBB50:
	.loc 4 747 0
	flds	s15, .L196+12
	fsts	s15, [sp, #188]
.LBB51:
	.loc 4 749 0
	mov	r3, #0
	str	r3, [sp, #192]
	b	.L185
	.cfi_offset 14, -4
.L194:
.LBB52:
	.loc 4 751 0
	ldr	r3, [sp, #28]
	ldr	r2, [r3, #36]
	ldr	r3, [sp, #192]
	mov	r1, #88
	mul	r3, r1, r3
	add	r3, r2, r3
	str	r3, [sp, #196]
	.loc 4 753 0
	ldr	r3, [sp, #196]
	ldr	r3, [r3, #32]
	str	r3, [sp, #200]
	.loc 4 754 0
	ldr	r3, [sp, #196]
	ldr	r3, [r3, #36]
	str	r3, [sp, #204]
	.loc 4 755 0
	ldr	r2, [sp, #196]
	add	r3, sp, #148
	add	r2, r2, #48
	ldmia	r2, {r0, r1}
	stmia	r3, {r0, r1}
	.loc 4 756 0
	ldr	r2, [sp, #196]
	add	r3, sp, #140
	add	r2, r2, #56
	ldmia	r2, {r0, r1}
	stmia	r3, {r0, r1}
	.loc 4 757 0
	ldr	r3, [sp, #196]
	ldr	r3, [r3, #84]
	str	r3, [sp, #208]
	.loc 4 759 0
	flds	s15, .L196+12
	fsts	s15, [sp, #212]
	.loc 4 760 0
	flds	s15, .L196+12
	fsts	s15, [sp, #216]
	.loc 4 761 0
	ldr	r2, [sp, #200]
	ldr	r3, [sp, #24]
	cmp	r2, r3
	beq	.L186
	ldr	r2, [sp, #200]
	ldr	r3, [sp, #20]
	cmp	r2, r3
	bne	.L187
.L186:
	.loc 4 763 0
	ldr	r3, [sp, #196]
	flds	s15, [r3, #40]
	fsts	s15, [sp, #212]
	.loc 4 764 0
	ldr	r3, [sp, #196]
	flds	s15, [r3, #64]
	fsts	s15, [sp, #216]
.L187:
	.loc 4 767 0
	flds	s15, .L196+12
	fsts	s15, [sp, #220]
	.loc 4 768 0
	flds	s15, .L196+12
	fsts	s15, [sp, #224]
	.loc 4 769 0
	ldr	r2, [sp, #204]
	ldr	r3, [sp, #24]
	cmp	r2, r3
	beq	.L188
	ldr	r2, [sp, #204]
	ldr	r3, [sp, #20]
	cmp	r2, r3
	bne	.L189
.L188:
	.loc 4 771 0
	ldr	r3, [sp, #196]
	flds	s15, [r3, #44]
	fsts	s15, [sp, #220]
	.loc 4 772 0
	ldr	r3, [sp, #196]
	flds	s15, [r3, #68]
	fsts	s15, [sp, #224]
.L189:
	.loc 4 775 0
	ldr	r3, [sp, #28]
	ldr	r1, [r3, #24]
	ldr	r2, [sp, #200]
	mov	r3, r2
	mov	r3, r3, asl #1
	add	r3, r3, r2
	mov	r3, r3, asl #2
	add	r2, r1, r3
	add	r3, sp, #132
	ldmia	r2, {r0, r1}
	stmia	r3, {r0, r1}
	.loc 4 776 0
	ldr	r3, [sp, #28]
	ldr	r1, [r3, #24]
	ldr	r2, [sp, #200]
	mov	r3, r2
	mov	r3, r3, asl #1
	add	r3, r3, r2
	mov	r3, r3, asl #2
	add	r3, r1, r3
	flds	s15, [r3, #8]
	fsts	s15, [sp, #228]
	.loc 4 778 0
	ldr	r3, [sp, #28]
	ldr	r1, [r3, #24]
	ldr	r2, [sp, #204]
	mov	r3, r2
	mov	r3, r3, asl #1
	add	r3, r3, r2
	mov	r3, r3, asl #2
	add	r2, r1, r3
	add	r3, sp, #124
	ldmia	r2, {r0, r1}
	stmia	r3, {r0, r1}
	.loc 4 779 0
	ldr	r3, [sp, #28]
	ldr	r1, [r3, #24]
	ldr	r2, [sp, #204]
	mov	r3, r2
	mov	r3, r3, asl #1
	add	r3, r3, r2
	mov	r3, r3, asl #2
	add	r3, r1, r3
	flds	s15, [r3, #8]
	fsts	s15, [sp, #232]
.LBB53:
	.loc 4 782 0
	mov	r3, #0
	str	r3, [sp, #236]
	b	.L190
.L197:
	.align	2
.L196:
	.word	-1102263091
	.word	1000593162
	.word	1061158912
	.word	0
.L193:
.LBB54:
	.loc 4 784 0
	add	r3, sp, #108
	mov	r0, r3
	bl	_ZN11b2TransformC1Ev
	add	r3, sp, #92
	mov	r0, r3
	bl	_ZN11b2TransformC1Ev
	.loc 4 785 0
	add	r3, sp, #108
	add	r3, r3, #8
	mov	r0, r3
	ldr	r1, [sp, #228]	@ float
	bl	_ZN5b2Rot3SetEf
	.loc 4 786 0
	add	r3, sp, #92
	add	r3, r3, #8
	mov	r0, r3
	ldr	r1, [sp, #232]	@ float
	bl	_ZN5b2Rot3SetEf
	.loc 4 787 0
	add	r1, sp, #156
	add	r3, sp, #108
	add	r2, r3, #8
	add	r3, sp, #148
	mov	r0, r1
	mov	r1, r2
	mov	r2, r3
	bl	_Z5b2MulRK5b2RotRK6b2Vec2
	add	r1, sp, #8
	add	r2, sp, #132
	add	r3, sp, #156
	mov	r0, r1
	mov	r1, r2
	mov	r2, r3
	bl	_ZmiRK6b2Vec2S1_
	add	r3, sp, #108
	add	r2, sp, #8
	ldmia	r2, {r0, r1}
	stmia	r3, {r0, r1}
	.loc 4 788 0
	add	r1, sp, #164
	add	r3, sp, #92
	add	r2, r3, #8
	add	r3, sp, #140
	mov	r0, r1
	mov	r1, r2
	mov	r2, r3
	bl	_Z5b2MulRK5b2RotRK6b2Vec2
	add	r1, sp, #8
	add	r2, sp, #124
	add	r3, sp, #164
	mov	r0, r1
	mov	r1, r2
	mov	r2, r3
	bl	_ZmiRK6b2Vec2S1_
	add	r3, sp, #92
	add	r2, sp, #8
	ldmia	r2, {r0, r1}
	stmia	r3, {r0, r1}
	.loc 4 790 0
	add	r3, sp, #72
	mov	r0, r3
	bl	_ZN24b2PositionSolverManifoldC1Ev
	.loc 4 791 0
	add	r1, sp, #72
	add	r2, sp, #108
	add	r3, sp, #92
	ldr	r0, [sp, #236]
	str	r0, [sp, #0]
	mov	r0, r1
	ldr	r1, [sp, #196]
	bl	_ZN24b2PositionSolverManifold10InitializeEP27b2ContactPositionConstraintRK11b2TransformS4_i
	.loc 4 792 0
	add	r3, sp, #64
	add	r2, sp, #72
	ldmia	r2, {r0, r1}
	stmia	r3, {r0, r1}
	.loc 4 794 0
	add	r3, sp, #56
	add	r2, sp, #80
	ldmia	r2, {r0, r1}
	stmia	r3, {r0, r1}
	.loc 4 795 0
	flds	s15, [sp, #88]
	fsts	s15, [sp, #240]
	.loc 4 797 0
	add	r1, sp, #48
	add	r2, sp, #56
	add	r3, sp, #132
	mov	r0, r1
	mov	r1, r2
	mov	r2, r3
	bl	_ZmiRK6b2Vec2S1_
	.loc 4 798 0
	add	r1, sp, #40
	add	r2, sp, #56
	add	r3, sp, #124
	mov	r0, r1
	mov	r1, r2
	mov	r2, r3
	bl	_ZmiRK6b2Vec2S1_
	.loc 4 801 0
	ldr	r0, [sp, #188]	@ float
	ldr	r1, [sp, #240]	@ float
	bl	_Z5b2MinIfET_S0_S0_
	mov	r3, r0	@ float
	str	r3, [sp, #188]	@ float
	.loc 4 804 0
	flds	s14, [sp, #240]
	flds	s15, .L196+4
	fadds	s14, s14, s15
	flds	s15, .L196+8
	fmuls	s15, s14, s15
	fmrs	r0, s15
	ldr	r1, .L196	@ float
	ldr	r2, .L196+12	@ float
	bl	_Z7b2ClampIfET_S0_S0_S0_
	mov	r3, r0	@ float
	str	r3, [sp, #244]	@ float
	.loc 4 807 0
	add	r2, sp, #48
	add	r3, sp, #64
	mov	r0, r2
	mov	r1, r3
	bl	_Z7b2CrossRK6b2Vec2S1_
	mov	r3, r0	@ float
	str	r3, [sp, #248]	@ float
	.loc 4 808 0
	add	r2, sp, #40
	add	r3, sp, #64
	mov	r0, r2
	mov	r1, r3
	bl	_Z7b2CrossRK6b2Vec2S1_
	mov	r3, r0	@ float
	str	r3, [sp, #252]	@ float
	.loc 4 809 0
	flds	s14, [sp, #212]
	flds	s15, [sp, #220]
	fadds	s14, s14, s15
	flds	s13, [sp, #216]
	flds	s15, [sp, #248]
	fmuls	s15, s13, s15
	flds	s13, [sp, #248]
	fmuls	s15, s15, s13
	fadds	s14, s14, s15
	flds	s13, [sp, #224]
	flds	s15, [sp, #252]
	fmuls	s15, s13, s15
	flds	s13, [sp, #252]
	fmuls	s15, s15, s13
	fadds	s15, s14, s15
	fsts	s15, [sp, #256]
	.loc 4 812 0
	flds	s15, [sp, #256]
	fcmpezs	s15
	fmstat
	movle	r3, #0
	movgt	r3, #1
	and	r3, r3, #255
	cmp	r3, #0
	beq	.L191
	flds	s15, [sp, #244]
	fnegs	s14, s15
	flds	s15, [sp, #256]
	fdivs	s15, s14, s15
	b	.L192
.L191:
	flds	s15, .L196+12
.L192:
	fsts	s15, [sp, #260]
	.loc 4 814 0
	add	r2, sp, #32
	add	r3, sp, #64
	mov	r0, r2
	ldr	r1, [sp, #260]	@ float
	mov	r2, r3
	bl	_ZmlfRK6b2Vec2
	.loc 4 816 0
	add	r2, sp, #172
	add	r3, sp, #32
	mov	r0, r2
	ldr	r1, [sp, #212]	@ float
	mov	r2, r3
	bl	_ZmlfRK6b2Vec2
	add	r2, sp, #132
	add	r3, sp, #172
	mov	r0, r2
	mov	r1, r3
	bl	_ZN6b2Vec2mIERKS_
	.loc 4 817 0
	add	r2, sp, #48
	add	r3, sp, #32
	mov	r0, r2
	mov	r1, r3
	bl	_Z7b2CrossRK6b2Vec2S1_
	fmsr	s14, r0
	flds	s15, [sp, #216]
	fmuls	s15, s14, s15
	flds	s14, [sp, #228]
	fsubs	s15, s14, s15
	fsts	s15, [sp, #228]
	.loc 4 819 0
	add	r2, sp, #180
	add	r3, sp, #32
	mov	r0, r2
	ldr	r1, [sp, #220]	@ float
	mov	r2, r3
	bl	_ZmlfRK6b2Vec2
	add	r2, sp, #124
	add	r3, sp, #180
	mov	r0, r2
	mov	r1, r3
	bl	_ZN6b2Vec2pLERKS_
	.loc 4 820 0
	add	r2, sp, #40
	add	r3, sp, #32
	mov	r0, r2
	mov	r1, r3
	bl	_Z7b2CrossRK6b2Vec2S1_
	fmsr	s14, r0
	flds	s15, [sp, #224]
	fmuls	s15, s14, s15
	flds	s14, [sp, #232]
	fadds	s15, s14, s15
	fsts	s15, [sp, #232]
.LBE54:
	.loc 4 782 0
	ldr	r3, [sp, #236]
	add	r3, r3, #1
	str	r3, [sp, #236]
.L190:
	ldr	r2, [sp, #236]
	ldr	r3, [sp, #208]
	cmp	r2, r3
	movge	r3, #0
	movlt	r3, #1
	and	r3, r3, #255
	cmp	r3, #0
	bne	.L193
.LBE53:
	.loc 4 823 0
	ldr	r3, [sp, #28]
	ldr	r1, [r3, #24]
	ldr	r2, [sp, #200]
	mov	r3, r2
	mov	r3, r3, asl #1
	add	r3, r3, r2
	mov	r3, r3, asl #2
	add	r3, r1, r3
	add	r2, sp, #132
	ldmia	r2, {r0, r1}
	stmia	r3, {r0, r1}
	.loc 4 824 0
	ldr	r3, [sp, #28]
	ldr	r1, [r3, #24]
	ldr	r2, [sp, #200]
	mov	r3, r2
	mov	r3, r3, asl #1
	add	r3, r3, r2
	mov	r3, r3, asl #2
	add	r3, r1, r3
	flds	s15, [sp, #228]
	fsts	s15, [r3, #8]
	.loc 4 826 0
	ldr	r3, [sp, #28]
	ldr	r1, [r3, #24]
	ldr	r2, [sp, #204]
	mov	r3, r2
	mov	r3, r3, asl #1
	add	r3, r3, r2
	mov	r3, r3, asl #2
	add	r3, r1, r3
	add	r2, sp, #124
	ldmia	r2, {r0, r1}
	stmia	r3, {r0, r1}
	.loc 4 827 0
	ldr	r3, [sp, #28]
	ldr	r1, [r3, #24]
	ldr	r2, [sp, #204]
	mov	r3, r2
	mov	r3, r3, asl #1
	add	r3, r3, r2
	mov	r3, r3, asl #2
	add	r3, r1, r3
	flds	s15, [sp, #232]
	fsts	s15, [r3, #8]
.LBE52:
	.loc 4 749 0
	ldr	r3, [sp, #192]
	add	r3, r3, #1
	str	r3, [sp, #192]
.L185:
	ldr	r3, [sp, #28]
	ldr	r2, [r3, #48]
	ldr	r3, [sp, #192]
	cmp	r2, r3
	movle	r3, #0
	movgt	r3, #1
	and	r3, r3, #255
	cmp	r3, #0
	bne	.L194
.LBE51:
	.loc 4 832 0
	flds	s14, [sp, #188]
	flds	s15, .L198
	fcmpes	s14, s15
	fmstat
	movlt	r3, #0
	movge	r3, #1
	and	r3, r3, #255
.LBE50:
	.loc 4 833 0
	mov	r0, r3
	add	sp, sp, #268
	ldmfd	sp!, {pc}
.L199:
	.align	2
.L198:
	.word	-1141521777
	.cfi_endproc
.LFE826:
	.size	_ZN15b2ContactSolver27SolveTOIPositionConstraintsEii, .-_ZN15b2ContactSolver27SolveTOIPositionConstraintsEii
	.section	.text._Z5b2MinIfET_S0_S0_,"axG",%progbits,_Z5b2MinIfET_S0_S0_,comdat
	.align	2
	.weak	_Z5b2MinIfET_S0_S0_
	.hidden	_Z5b2MinIfET_S0_S0_
	.type	_Z5b2MinIfET_S0_S0_, %function
_Z5b2MinIfET_S0_S0_:
.LFB828:
	.loc 1 632 0
	.cfi_startproc
	@ args = 0, pretend = 0, frame = 8
	@ frame_needed = 0, uses_anonymous_args = 0
	@ link register save eliminated.
	sub	sp, sp, #8
.LCFI70:
	.cfi_def_cfa_offset 8
	str	r0, [sp, #4]	@ float
	str	r1, [sp, #0]	@ float
	.loc 1 634 0
	flds	s14, [sp, #4]
	flds	s15, [sp, #0]
	fcmpes	s14, s15
	fmstat
	movpl	r3, #0
	movmi	r3, #1
	and	r3, r3, #255
	cmp	r3, #0
	beq	.L201
	flds	s15, [sp, #4]
	b	.L202
.L201:
	flds	s15, [sp, #0]
.L202:
	fmrs	r3, s15
	.loc 1 635 0
	mov	r0, r3	@ float
	add	sp, sp, #8
	bx	lr
	.cfi_endproc
.LFE828:
	.size	_Z5b2MinIfET_S0_S0_, .-_Z5b2MinIfET_S0_S0_
	.section	.text._Z5b2MaxIfET_S0_S0_,"axG",%progbits,_Z5b2MaxIfET_S0_S0_,comdat
	.align	2
	.weak	_Z5b2MaxIfET_S0_S0_
	.hidden	_Z5b2MaxIfET_S0_S0_
	.type	_Z5b2MaxIfET_S0_S0_, %function
_Z5b2MaxIfET_S0_S0_:
.LFB829:
	.loc 1 643 0
	.cfi_startproc
	@ args = 0, pretend = 0, frame = 8
	@ frame_needed = 0, uses_anonymous_args = 0
	@ link register save eliminated.
	sub	sp, sp, #8
.LCFI71:
	.cfi_def_cfa_offset 8
	str	r0, [sp, #4]	@ float
	str	r1, [sp, #0]	@ float
	.loc 1 645 0
	flds	s14, [sp, #4]
	flds	s15, [sp, #0]
	fcmpes	s14, s15
	fmstat
	movle	r3, #0
	movgt	r3, #1
	and	r3, r3, #255
	cmp	r3, #0
	beq	.L205
	flds	s15, [sp, #4]
	b	.L206
.L205:
	flds	s15, [sp, #0]
.L206:
	fmrs	r3, s15
	.loc 1 646 0
	mov	r0, r3	@ float
	add	sp, sp, #8
	bx	lr
	.cfi_endproc
.LFE829:
	.size	_Z5b2MaxIfET_S0_S0_, .-_Z5b2MaxIfET_S0_S0_
	.section	.text._Z7b2ClampIfET_S0_S0_S0_,"axG",%progbits,_Z7b2ClampIfET_S0_S0_S0_,comdat
	.align	2
	.weak	_Z7b2ClampIfET_S0_S0_S0_
	.hidden	_Z7b2ClampIfET_S0_S0_S0_
	.type	_Z7b2ClampIfET_S0_S0_S0_, %function
_Z7b2ClampIfET_S0_S0_S0_:
.LFB832:
	.loc 1 654 0
	.cfi_startproc
	@ args = 0, pretend = 0, frame = 16
	@ frame_needed = 0, uses_anonymous_args = 0
	str	lr, [sp, #-4]!
.LCFI72:
	.cfi_def_cfa_offset 4
	sub	sp, sp, #20
.LCFI73:
	.cfi_def_cfa_offset 24
	str	r0, [sp, #12]	@ float
	str	r1, [sp, #8]	@ float
	str	r2, [sp, #4]	@ float
	.loc 1 656 0
	ldr	r0, [sp, #12]	@ float
	ldr	r1, [sp, #4]	@ float
	.cfi_offset 14, -4
	bl	_Z5b2MinIfET_S0_S0_
	mov	r3, r0	@ float
	ldr	r0, [sp, #8]	@ float
	mov	r1, r3	@ float
	bl	_Z5b2MaxIfET_S0_S0_
	mov	r3, r0	@ float
	fmsr	s15, r3
	fmrs	r3, s15
	.loc 1 657 0
	mov	r0, r3	@ float
	add	sp, sp, #20
	ldmfd	sp!, {pc}
	.cfi_endproc
.LFE832:
	.size	_Z7b2ClampIfET_S0_S0_S0_, .-_Z7b2ClampIfET_S0_S0_S0_
	.section	.rodata
	.type	_ZL14b2_nullFeature, %object
	.size	_ZL14b2_nullFeature, 1
_ZL14b2_nullFeature:
	.byte	-1
	.align	2
	.type	_ZL12b2_chunkSize, %object
	.size	_ZL12b2_chunkSize, 4
_ZL12b2_chunkSize:
	.word	16384
	.align	2
	.type	_ZL15b2_maxBlockSize, %object
	.size	_ZL15b2_maxBlockSize, 4
_ZL15b2_maxBlockSize:
	.word	640
	.align	2
	.type	_ZL13b2_blockSizes, %object
	.size	_ZL13b2_blockSizes, 4
_ZL13b2_blockSizes:
	.word	14
	.align	2
	.type	_ZL22b2_chunkArrayIncrement, %object
	.size	_ZL22b2_chunkArrayIncrement, 4
_ZL22b2_chunkArrayIncrement:
	.word	128
	.align	2
	.type	_ZL12b2_stackSize, %object
	.size	_ZL12b2_stackSize, 4
_ZL12b2_stackSize:
	.word	102400
	.align	2
	.type	_ZL18b2_maxStackEntries, %object
	.size	_ZL18b2_maxStackEntries, 4
_ZL18b2_maxStackEntries:
	.word	32
	.align	2
	.type	_ZN4_STLL16__stl_chunk_sizeE, %object
	.size	_ZN4_STLL16__stl_chunk_sizeE, 4
_ZN4_STLL16__stl_chunk_sizeE:
	.word	7
	.text
.Letext0: