	.arch armv5te
	.eabi_attribute 27, 3
	.fpu vfp
	.eabi_attribute 20, 1
	.eabi_attribute 21, 1
	.eabi_attribute 23, 3
	.eabi_attribute 24, 1
	.eabi_attribute 25, 1
	.eabi_attribute 26, 2
	.eabi_attribute 30, 6
	.eabi_attribute 18, 2
	.file	"b2CollideEdge.cpp"
	.text
.Ltext0:
	.cfi_sections	.debug_frame
	.section	.text._ZN6b2Vec2C1Ev,"axG",%progbits,_ZN6b2Vec2C1Ev,comdat
	.align	2
	.weak	_ZN6b2Vec2C1Ev
	.hidden	_ZN6b2Vec2C1Ev
	.type	_ZN6b2Vec2C1Ev, %function
_ZN6b2Vec2C1Ev:
.LFB4:
	.file 1 "v:/gigglingbits/box2d/Box2D/Common/b2Math.h"
	.loc 1 56 0
	.cfi_startproc
	@ args = 0, pretend = 0, frame = 8
	@ frame_needed = 0, uses_anonymous_args = 0
	@ link register save eliminated.
	sub	sp, sp, #8
.LCFI0:
	.cfi_def_cfa_offset 8
	str	r0, [sp, #4]
	.loc 1 56 0
	ldr	r3, [sp, #4]
	mov	r0, r3
	add	sp, sp, #8
	bx	lr
	.cfi_endproc
.LFE4:
	.size	_ZN6b2Vec2C1Ev, .-_ZN6b2Vec2C1Ev
	.section	.text._ZN6b2Vec2C1Eff,"axG",%progbits,_ZN6b2Vec2C1Eff,comdat
	.align	2
	.weak	_ZN6b2Vec2C1Eff
	.hidden	_ZN6b2Vec2C1Eff
	.type	_ZN6b2Vec2C1Eff, %function
_ZN6b2Vec2C1Eff:
.LFB7:
	.loc 1 59 0
	.cfi_startproc
	@ args = 0, pretend = 0, frame = 16
	@ frame_needed = 0, uses_anonymous_args = 0
	@ link register save eliminated.
	sub	sp, sp, #16
.LCFI1:
	.cfi_def_cfa_offset 16
	str	r0, [sp, #12]
	str	r1, [sp, #8]	@ float
	str	r2, [sp, #4]	@ float
	.loc 1 59 0
	ldr	r3, [sp, #12]
	flds	s15, [sp, #8]
	fsts	s15, [r3, #0]
	ldr	r3, [sp, #12]
	flds	s15, [sp, #4]
	fsts	s15, [r3, #4]
	ldr	r3, [sp, #12]
	mov	r0, r3
	add	sp, sp, #16
	bx	lr
	.cfi_endproc
.LFE7:
	.size	_ZN6b2Vec2C1Eff, .-_ZN6b2Vec2C1Eff
	.section	.text._ZN6b2Vec27SetZeroEv,"axG",%progbits,_ZN6b2Vec27SetZeroEv,comdat
	.align	2
	.weak	_ZN6b2Vec27SetZeroEv
	.hidden	_ZN6b2Vec27SetZeroEv
	.type	_ZN6b2Vec27SetZeroEv, %function
_ZN6b2Vec27SetZeroEv:
.LFB8:
	.loc 1 62 0
	.cfi_startproc
	@ args = 0, pretend = 0, frame = 8
	@ frame_needed = 0, uses_anonymous_args = 0
	@ link register save eliminated.
	sub	sp, sp, #8
.LCFI2:
	.cfi_def_cfa_offset 8
	str	r0, [sp, #4]
	.loc 1 62 0
	ldr	r3, [sp, #4]
	flds	s15, .L9
	fsts	s15, [r3, #0]
	ldr	r3, [sp, #4]
	flds	s15, .L9
	fsts	s15, [r3, #4]
	add	sp, sp, #8
	bx	lr
.L10:
	.align	2
.L9:
	.word	0
	.cfi_endproc
.LFE8:
	.size	_ZN6b2Vec27SetZeroEv, .-_ZN6b2Vec27SetZeroEv
	.section	.text._ZN6b2Vec23SetEff,"axG",%progbits,_ZN6b2Vec23SetEff,comdat
	.align	2
	.weak	_ZN6b2Vec23SetEff
	.hidden	_ZN6b2Vec23SetEff
	.type	_ZN6b2Vec23SetEff, %function
_ZN6b2Vec23SetEff:
.LFB9:
	.loc 1 65 0
	.cfi_startproc
	@ args = 0, pretend = 0, frame = 16
	@ frame_needed = 0, uses_anonymous_args = 0
	@ link register save eliminated.
	sub	sp, sp, #16
.LCFI3:
	.cfi_def_cfa_offset 16
	str	r0, [sp, #12]
	str	r1, [sp, #8]	@ float
	str	r2, [sp, #4]	@ float
	.loc 1 65 0
	ldr	r3, [sp, #12]
	flds	s15, [sp, #8]
	fsts	s15, [r3, #0]
	ldr	r3, [sp, #12]
	flds	s15, [sp, #4]
	fsts	s15, [r3, #4]
	add	sp, sp, #16
	bx	lr
	.cfi_endproc
.LFE9:
	.size	_ZN6b2Vec23SetEff, .-_ZN6b2Vec23SetEff
	.section	.text._ZNK6b2Vec2ngEv,"axG",%progbits,_ZNK6b2Vec2ngEv,comdat
	.align	2
	.weak	_ZNK6b2Vec2ngEv
	.hidden	_ZNK6b2Vec2ngEv
	.type	_ZNK6b2Vec2ngEv, %function
_ZNK6b2Vec2ngEv:
.LFB10:
	.loc 1 68 0
	.cfi_startproc
	@ args = 0, pretend = 0, frame = 16
	@ frame_needed = 0, uses_anonymous_args = 0
	stmfd	sp!, {r4, lr}
.LCFI4:
	.cfi_def_cfa_offset 8
	sub	sp, sp, #16
.LCFI5:
	.cfi_def_cfa_offset 24
	mov	r4, r0
	.cfi_offset 14, -4
	.cfi_offset 4, -8
	str	r1, [sp, #4]
.LBB2:
	.loc 1 68 0
	mov	r0, r4
	bl	_ZN6b2Vec2C1Ev
	ldr	r3, [sp, #4]
	flds	s15, [r3, #0]
	fnegs	s14, s15
	ldr	r3, [sp, #4]
	flds	s15, [r3, #4]
	fnegs	s15, s15
	mov	r0, r4
	fmrs	r1, s14
	fmrs	r2, s15
	bl	_ZN6b2Vec23SetEff
.LBE2:
	mov	r0, r4
	add	sp, sp, #16
	ldmfd	sp!, {r4, pc}
	.cfi_endproc
.LFE10:
	.size	_ZNK6b2Vec2ngEv, .-_ZNK6b2Vec2ngEv
	.section	.text._ZNK6b2Vec26LengthEv,"axG",%progbits,_ZNK6b2Vec26LengthEv,comdat
	.align	2
	.weak	_ZNK6b2Vec26LengthEv
	.hidden	_ZNK6b2Vec26LengthEv
	.type	_ZNK6b2Vec26LengthEv, %function
_ZNK6b2Vec26LengthEv:
.LFB16:
	.loc 1 101 0
	.cfi_startproc
	@ args = 0, pretend = 0, frame = 8
	@ frame_needed = 0, uses_anonymous_args = 0
	str	lr, [sp, #-4]!
.LCFI6:
	.cfi_def_cfa_offset 4
	sub	sp, sp, #12
.LCFI7:
	.cfi_def_cfa_offset 16
	str	r0, [sp, #4]
	.loc 1 103 0
	ldr	r3, [sp, #4]
	flds	s14, [r3, #0]
	ldr	r3, [sp, #4]
	flds	s15, [r3, #0]
	fmuls	s14, s14, s15
	ldr	r3, [sp, #4]
	flds	s13, [r3, #4]
	ldr	r3, [sp, #4]
	flds	s15, [r3, #4]
	fmuls	s15, s13, s15
	fadds	s14, s14, s15
	fsqrts	s15, s14
	fcmps	s15, s15
	fmstat
	beq	.L16
	.cfi_offset 14, -4
	fmrs	r0, s14
	bl	sqrtf
	fmsr	s15, r0
.L16:
	fmrs	r3, s15
	.loc 1 104 0
	mov	r0, r3	@ float
	add	sp, sp, #12
	ldmfd	sp!, {pc}
	.cfi_endproc
.LFE16:
	.size	_ZNK6b2Vec26LengthEv, .-_ZNK6b2Vec26LengthEv
	.section	.text._ZN6b2Vec29NormalizeEv,"axG",%progbits,_ZN6b2Vec29NormalizeEv,comdat
	.align	2
	.weak	_ZN6b2Vec29NormalizeEv
	.hidden	_ZN6b2Vec29NormalizeEv
	.type	_ZN6b2Vec29NormalizeEv, %function
_ZN6b2Vec29NormalizeEv:
.LFB18:
	.loc 1 114 0
	.cfi_startproc
	@ args = 0, pretend = 0, frame = 16
	@ frame_needed = 0, uses_anonymous_args = 0
	str	lr, [sp, #-4]!
.LCFI8:
	.cfi_def_cfa_offset 4
	sub	sp, sp, #20
.LCFI9:
	.cfi_def_cfa_offset 24
	str	r0, [sp, #4]
.LBB3:
	.loc 1 116 0
	ldr	r0, [sp, #4]
	.cfi_offset 14, -4
	bl	_ZNK6b2Vec26LengthEv
	mov	r3, r0	@ float
	str	r3, [sp, #8]	@ float
	.loc 1 117 0
	flds	s14, [sp, #8]
	flds	s15, .L22
	fcmpes	s14, s15
	fmstat
	movpl	r3, #0
	movmi	r3, #1
	and	r3, r3, #255
	cmp	r3, #0
	beq	.L19
	.loc 1 119 0
	flds	s15, .L22+4
	b	.L20
.L19:
	.loc 1 121 0
	flds	s14, .L22+8
	flds	s15, [sp, #8]
	fdivs	s15, s14, s15
	fsts	s15, [sp, #12]
	.loc 1 122 0
	ldr	r3, [sp, #4]
	flds	s14, [r3, #0]
	flds	s15, [sp, #12]
	fmuls	s15, s14, s15
	ldr	r3, [sp, #4]
	fsts	s15, [r3, #0]
	.loc 1 123 0
	ldr	r3, [sp, #4]
	flds	s14, [r3, #4]
	flds	s15, [sp, #12]
	fmuls	s15, s14, s15
	ldr	r3, [sp, #4]
	fsts	s15, [r3, #4]
	.loc 1 125 0
	flds	s15, [sp, #8]
.L20:
	fmrs	r3, s15
.LBE3:
	.loc 1 126 0
	mov	r0, r3	@ float
	add	sp, sp, #20
	ldmfd	sp!, {pc}
.L23:
	.align	2
.L22:
	.word	872415232
	.word	0
	.word	1065353216
	.cfi_endproc
.LFE18:
	.size	_ZN6b2Vec29NormalizeEv, .-_ZN6b2Vec29NormalizeEv
	.section	.text._ZN5b2RotC1Ev,"axG",%progbits,_ZN5b2RotC1Ev,comdat
	.align	2
	.weak	_ZN5b2RotC1Ev
	.hidden	_ZN5b2RotC1Ev
	.type	_ZN5b2RotC1Ev, %function
_ZN5b2RotC1Ev:
.LFB56:
	.loc 1 301 0
	.cfi_startproc
	@ args = 0, pretend = 0, frame = 8
	@ frame_needed = 0, uses_anonymous_args = 0
	@ link register save eliminated.
	sub	sp, sp, #8
.LCFI10:
	.cfi_def_cfa_offset 8
	str	r0, [sp, #4]
	.loc 1 301 0
	ldr	r3, [sp, #4]
	mov	r0, r3
	add	sp, sp, #8
	bx	lr
	.cfi_endproc
.LFE56:
	.size	_ZN5b2RotC1Ev, .-_ZN5b2RotC1Ev
	.section	.text._ZN11b2TransformC1Ev,"axG",%progbits,_ZN11b2TransformC1Ev,comdat
	.align	2
	.weak	_ZN11b2TransformC1Ev
	.hidden	_ZN11b2TransformC1Ev
	.type	_ZN11b2TransformC1Ev, %function
_ZN11b2TransformC1Ev:
.LFB67:
	.loc 1 353 0
	.cfi_startproc
	@ args = 0, pretend = 0, frame = 8
	@ frame_needed = 0, uses_anonymous_args = 0
	str	lr, [sp, #-4]!
.LCFI11:
	.cfi_def_cfa_offset 4
	sub	sp, sp, #12
.LCFI12:
	.cfi_def_cfa_offset 16
	str	r0, [sp, #4]
	.loc 1 353 0
	ldr	r3, [sp, #4]
	mov	r0, r3
	.cfi_offset 14, -4
	bl	_ZN6b2Vec2C1Ev
	ldr	r3, [sp, #4]
	add	r3, r3, #8
	mov	r0, r3
	bl	_ZN5b2RotC1Ev
	ldr	r3, [sp, #4]
	mov	r0, r3
	add	sp, sp, #12
	ldmfd	sp!, {pc}
	.cfi_endproc
.LFE67:
	.size	_ZN11b2TransformC1Ev, .-_ZN11b2TransformC1Ev
	.section	.text._Z5b2DotRK6b2Vec2S1_,"axG",%progbits,_Z5b2DotRK6b2Vec2S1_,comdat
	.align	2
	.weak	_Z5b2DotRK6b2Vec2S1_
	.hidden	_Z5b2DotRK6b2Vec2S1_
	.type	_Z5b2DotRK6b2Vec2S1_, %function
_Z5b2DotRK6b2Vec2S1_:
.LFB73:
	.loc 1 407 0
	.cfi_startproc
	@ args = 0, pretend = 0, frame = 8
	@ frame_needed = 0, uses_anonymous_args = 0
	@ link register save eliminated.
	sub	sp, sp, #8
.LCFI13:
	.cfi_def_cfa_offset 8
	str	r0, [sp, #4]
	str	r1, [sp, #0]
	.loc 1 408 0
	ldr	r3, [sp, #4]
	flds	s14, [r3, #0]
	ldr	r3, [sp, #0]
	flds	s15, [r3, #0]
	fmuls	s14, s14, s15
	ldr	r3, [sp, #4]
	flds	s13, [r3, #4]
	ldr	r3, [sp, #0]
	flds	s15, [r3, #4]
	fmuls	s15, s13, s15
	fadds	s15, s14, s15
	fmrs	r3, s15
	.loc 1 409 0
	mov	r0, r3	@ float
	add	sp, sp, #8
	bx	lr
	.cfi_endproc
.LFE73:
	.size	_Z5b2DotRK6b2Vec2S1_, .-_Z5b2DotRK6b2Vec2S1_
	.section	.text._Z7b2CrossRK6b2Vec2S1_,"axG",%progbits,_Z7b2CrossRK6b2Vec2S1_,comdat
	.align	2
	.weak	_Z7b2CrossRK6b2Vec2S1_
	.hidden	_Z7b2CrossRK6b2Vec2S1_
	.type	_Z7b2CrossRK6b2Vec2S1_, %function
_Z7b2CrossRK6b2Vec2S1_:
.LFB74:
	.loc 1 413 0
	.cfi_startproc
	@ args = 0, pretend = 0, frame = 8
	@ frame_needed = 0, uses_anonymous_args = 0
	@ link register save eliminated.
	sub	sp, sp, #8
.LCFI14:
	.cfi_def_cfa_offset 8
	str	r0, [sp, #4]
	str	r1, [sp, #0]
	.loc 1 414 0
	ldr	r3, [sp, #4]
	flds	s14, [r3, #0]
	ldr	r3, [sp, #0]
	flds	s15, [r3, #4]
	fmuls	s14, s14, s15
	ldr	r3, [sp, #4]
	flds	s13, [r3, #4]
	ldr	r3, [sp, #0]
	flds	s15, [r3, #0]
	fmuls	s15, s13, s15
	fsubs	s15, s14, s15
	fmrs	r3, s15
	.loc 1 415 0
	mov	r0, r3	@ float
	add	sp, sp, #8
	bx	lr
	.cfi_endproc
.LFE74:
	.size	_Z7b2CrossRK6b2Vec2S1_, .-_Z7b2CrossRK6b2Vec2S1_
	.section	.text._ZplRK6b2Vec2S1_,"axG",%progbits,_ZplRK6b2Vec2S1_,comdat
	.align	2
	.weak	_ZplRK6b2Vec2S1_
	.hidden	_ZplRK6b2Vec2S1_
	.type	_ZplRK6b2Vec2S1_, %function
_ZplRK6b2Vec2S1_:
.LFB79:
	.loc 1 447 0
	.cfi_startproc
	@ args = 0, pretend = 0, frame = 8
	@ frame_needed = 0, uses_anonymous_args = 0
	stmfd	sp!, {r4, lr}
.LCFI15:
	.cfi_def_cfa_offset 8
	sub	sp, sp, #8
.LCFI16:
	.cfi_def_cfa_offset 16
	mov	r4, r0
	.cfi_offset 14, -4
	.cfi_offset 4, -8
	str	r1, [sp, #4]
	str	r2, [sp, #0]
	.loc 1 448 0
	ldr	r3, [sp, #4]
	flds	s14, [r3, #0]
	ldr	r3, [sp, #0]
	flds	s15, [r3, #0]
	fadds	s13, s14, s15
	ldr	r3, [sp, #4]
	flds	s14, [r3, #4]
	ldr	r3, [sp, #0]
	flds	s15, [r3, #4]
	fadds	s15, s14, s15
	mov	r0, r4
	fmrs	r1, s13
	fmrs	r2, s15
	bl	_ZN6b2Vec2C1Eff
	.loc 1 449 0
	mov	r0, r4
	add	sp, sp, #8
	ldmfd	sp!, {r4, pc}
	.cfi_endproc
.LFE79:
	.size	_ZplRK6b2Vec2S1_, .-_ZplRK6b2Vec2S1_
	.section	.text._ZmiRK6b2Vec2S1_,"axG",%progbits,_ZmiRK6b2Vec2S1_,comdat
	.align	2
	.weak	_ZmiRK6b2Vec2S1_
	.hidden	_ZmiRK6b2Vec2S1_
	.type	_ZmiRK6b2Vec2S1_, %function
_ZmiRK6b2Vec2S1_:
.LFB80:
	.loc 1 453 0
	.cfi_startproc
	@ args = 0, pretend = 0, frame = 8
	@ frame_needed = 0, uses_anonymous_args = 0
	stmfd	sp!, {r4, lr}
.LCFI17:
	.cfi_def_cfa_offset 8
	sub	sp, sp, #8
.LCFI18:
	.cfi_def_cfa_offset 16
	mov	r4, r0
	.cfi_offset 14, -4
	.cfi_offset 4, -8
	str	r1, [sp, #4]
	str	r2, [sp, #0]
	.loc 1 454 0
	ldr	r3, [sp, #4]
	flds	s14, [r3, #0]
	ldr	r3, [sp, #0]
	flds	s15, [r3, #0]
	fsubs	s13, s14, s15
	ldr	r3, [sp, #4]
	flds	s14, [r3, #4]
	ldr	r3, [sp, #0]
	flds	s15, [r3, #4]
	fsubs	s15, s14, s15
	mov	r0, r4
	fmrs	r1, s13
	fmrs	r2, s15
	bl	_ZN6b2Vec2C1Eff
	.loc 1 455 0
	mov	r0, r4
	add	sp, sp, #8
	ldmfd	sp!, {r4, pc}
	.cfi_endproc
.LFE80:
	.size	_ZmiRK6b2Vec2S1_, .-_ZmiRK6b2Vec2S1_
	.section	.text._ZmlfRK6b2Vec2,"axG",%progbits,_ZmlfRK6b2Vec2,comdat
	.align	2
	.weak	_ZmlfRK6b2Vec2
	.hidden	_ZmlfRK6b2Vec2
	.type	_ZmlfRK6b2Vec2, %function
_ZmlfRK6b2Vec2:
.LFB81:
	.loc 1 458 0
	.cfi_startproc
	@ args = 0, pretend = 0, frame = 8
	@ frame_needed = 0, uses_anonymous_args = 0
	stmfd	sp!, {r4, lr}
.LCFI19:
	.cfi_def_cfa_offset 8
	sub	sp, sp, #8
.LCFI20:
	.cfi_def_cfa_offset 16
	mov	r4, r0
	.cfi_offset 14, -4
	.cfi_offset 4, -8
	str	r1, [sp, #4]	@ float
	str	r2, [sp, #0]
	.loc 1 459 0
	ldr	r3, [sp, #0]
	flds	s14, [r3, #0]
	flds	s15, [sp, #4]
	fmuls	s14, s14, s15
	ldr	r3, [sp, #0]
	flds	s13, [r3, #4]
	flds	s15, [sp, #4]
	fmuls	s15, s13, s15
	mov	r0, r4
	fmrs	r1, s14
	fmrs	r2, s15
	bl	_ZN6b2Vec2C1Eff
	.loc 1 460 0
	mov	r0, r4
	add	sp, sp, #8
	ldmfd	sp!, {r4, pc}
	.cfi_endproc
.LFE81:
	.size	_ZmlfRK6b2Vec2, .-_ZmlfRK6b2Vec2
	.section	.text._Z6b2MulTRK5b2RotS1_,"axG",%progbits,_Z6b2MulTRK5b2RotS1_,comdat
	.align	2
	.weak	_Z6b2MulTRK5b2RotS1_
	.hidden	_Z6b2MulTRK5b2RotS1_
	.type	_Z6b2MulTRK5b2RotS1_, %function
_Z6b2MulTRK5b2RotS1_:
.LFB96:
	.loc 1 554 0
	.cfi_startproc
	@ args = 0, pretend = 0, frame = 16
	@ frame_needed = 0, uses_anonymous_args = 0
	stmfd	sp!, {r4, lr}
.LCFI21:
	.cfi_def_cfa_offset 8
	sub	sp, sp, #16
.LCFI22:
	.cfi_def_cfa_offset 24
	mov	r4, r0
	.cfi_offset 14, -4
	.cfi_offset 4, -8
	str	r1, [sp, #4]
	str	r2, [sp, #0]
.LBB4:
	.loc 1 559 0
	mov	r0, r4
	bl	_ZN5b2RotC1Ev
	.loc 1 560 0
	ldr	r3, [sp, #4]
	flds	s14, [r3, #4]
	ldr	r3, [sp, #0]
	flds	s15, [r3, #0]
	fmuls	s14, s14, s15
	ldr	r3, [sp, #4]
	flds	s13, [r3, #0]
	ldr	r3, [sp, #0]
	flds	s15, [r3, #4]
	fmuls	s15, s13, s15
	fsubs	s15, s14, s15
	fsts	s15, [r4, #0]
	.loc 1 561 0
	ldr	r3, [sp, #4]
	flds	s14, [r3, #4]
	ldr	r3, [sp, #0]
	flds	s15, [r3, #4]
	fmuls	s14, s14, s15
	ldr	r3, [sp, #4]
	flds	s13, [r3, #0]
	ldr	r3, [sp, #0]
	flds	s15, [r3, #0]
	fmuls	s15, s13, s15
	fadds	s15, s14, s15
	fsts	s15, [r4, #4]
.LBE4:
	.loc 1 563 0
	mov	r0, r4
	add	sp, sp, #16
	ldmfd	sp!, {r4, pc}
	.cfi_endproc
.LFE96:
	.size	_Z6b2MulTRK5b2RotS1_, .-_Z6b2MulTRK5b2RotS1_
	.section	.text._Z5b2MulRK5b2RotRK6b2Vec2,"axG",%progbits,_Z5b2MulRK5b2RotRK6b2Vec2,comdat
	.align	2
	.weak	_Z5b2MulRK5b2RotRK6b2Vec2
	.hidden	_Z5b2MulRK5b2RotRK6b2Vec2
	.type	_Z5b2MulRK5b2RotRK6b2Vec2, %function
_Z5b2MulRK5b2RotRK6b2Vec2:
.LFB97:
	.loc 1 567 0
	.cfi_startproc
	@ args = 0, pretend = 0, frame = 8
	@ frame_needed = 0, uses_anonymous_args = 0
	stmfd	sp!, {r4, lr}
.LCFI23:
	.cfi_def_cfa_offset 8
	sub	sp, sp, #8
.LCFI24:
	.cfi_def_cfa_offset 16
	mov	r4, r0
	.cfi_offset 14, -4
	.cfi_offset 4, -8
	str	r1, [sp, #4]
	str	r2, [sp, #0]
	.loc 1 568 0
	ldr	r3, [sp, #4]
	flds	s14, [r3, #4]
	ldr	r3, [sp, #0]
	flds	s15, [r3, #0]
	fmuls	s14, s14, s15
	ldr	r3, [sp, #4]
	flds	s13, [r3, #0]
	ldr	r3, [sp, #0]
	flds	s15, [r3, #4]
	fmuls	s15, s13, s15
	fsubs	s12, s14, s15
	ldr	r3, [sp, #4]
	flds	s14, [r3, #0]
	ldr	r3, [sp, #0]
	flds	s15, [r3, #0]
	fmuls	s14, s14, s15
	ldr	r3, [sp, #4]
	flds	s13, [r3, #4]
	ldr	r3, [sp, #0]
	flds	s15, [r3, #4]
	fmuls	s15, s13, s15
	fadds	s15, s14, s15
	mov	r0, r4
	fmrs	r1, s12
	fmrs	r2, s15
	bl	_ZN6b2Vec2C1Eff
	.loc 1 569 0
	mov	r0, r4
	add	sp, sp, #8
	ldmfd	sp!, {r4, pc}
	.cfi_endproc
.LFE97:
	.size	_Z5b2MulRK5b2RotRK6b2Vec2, .-_Z5b2MulRK5b2RotRK6b2Vec2
	.section	.text._Z6b2MulTRK5b2RotRK6b2Vec2,"axG",%progbits,_Z6b2MulTRK5b2RotRK6b2Vec2,comdat
	.align	2
	.weak	_Z6b2MulTRK5b2RotRK6b2Vec2
	.hidden	_Z6b2MulTRK5b2RotRK6b2Vec2
	.type	_Z6b2MulTRK5b2RotRK6b2Vec2, %function
_Z6b2MulTRK5b2RotRK6b2Vec2:
.LFB98:
	.loc 1 573 0
	.cfi_startproc
	@ args = 0, pretend = 0, frame = 8
	@ frame_needed = 0, uses_anonymous_args = 0
	stmfd	sp!, {r4, lr}
.LCFI25:
	.cfi_def_cfa_offset 8
	sub	sp, sp, #8
.LCFI26:
	.cfi_def_cfa_offset 16
	mov	r4, r0
	.cfi_offset 14, -4
	.cfi_offset 4, -8
	str	r1, [sp, #4]
	str	r2, [sp, #0]
	.loc 1 574 0
	ldr	r3, [sp, #4]
	flds	s14, [r3, #4]
	ldr	r3, [sp, #0]
	flds	s15, [r3, #0]
	fmuls	s14, s14, s15
	ldr	r3, [sp, #4]
	flds	s13, [r3, #0]
	ldr	r3, [sp, #0]
	flds	s15, [r3, #4]
	fmuls	s15, s13, s15
	fadds	s12, s14, s15
	ldr	r3, [sp, #4]
	flds	s15, [r3, #0]
	fnegs	s14, s15
	ldr	r3, [sp, #0]
	flds	s15, [r3, #0]
	fmuls	s14, s14, s15
	ldr	r3, [sp, #4]
	flds	s13, [r3, #4]
	ldr	r3, [sp, #0]
	flds	s15, [r3, #4]
	fmuls	s15, s13, s15
	fadds	s15, s14, s15
	mov	r0, r4
	fmrs	r1, s12
	fmrs	r2, s15
	bl	_ZN6b2Vec2C1Eff
	.loc 1 575 0
	mov	r0, r4
	add	sp, sp, #8
	ldmfd	sp!, {r4, pc}
	.cfi_endproc
.LFE98:
	.size	_Z6b2MulTRK5b2RotRK6b2Vec2, .-_Z6b2MulTRK5b2RotRK6b2Vec2
	.section	.text._Z5b2MulRK11b2TransformRK6b2Vec2,"axG",%progbits,_Z5b2MulRK11b2TransformRK6b2Vec2,comdat
	.align	2
	.weak	_Z5b2MulRK11b2TransformRK6b2Vec2
	.hidden	_Z5b2MulRK11b2TransformRK6b2Vec2
	.type	_Z5b2MulRK11b2TransformRK6b2Vec2, %function
_Z5b2MulRK11b2TransformRK6b2Vec2:
.LFB99:
	.loc 1 578 0
	.cfi_startproc
	@ args = 0, pretend = 0, frame = 16
	@ frame_needed = 0, uses_anonymous_args = 0
	stmfd	sp!, {r4, lr}
.LCFI27:
	.cfi_def_cfa_offset 8
	sub	sp, sp, #16
.LCFI28:
	.cfi_def_cfa_offset 24
	mov	r4, r0
	.cfi_offset 14, -4
	.cfi_offset 4, -8
	str	r1, [sp, #4]
	str	r2, [sp, #0]
.LBB5:
	.loc 1 579 0
	ldr	r3, [sp, #4]
	flds	s14, [r3, #12]
	ldr	r3, [sp, #0]
	flds	s15, [r3, #0]
	fmuls	s14, s14, s15
	ldr	r3, [sp, #4]
	flds	s13, [r3, #8]
	ldr	r3, [sp, #0]
	flds	s15, [r3, #4]
	fmuls	s15, s13, s15
	fsubs	s14, s14, s15
	ldr	r3, [sp, #4]
	flds	s15, [r3, #0]
	fadds	s15, s14, s15
	fsts	s15, [sp, #8]
	.loc 1 580 0
	ldr	r3, [sp, #4]
	flds	s14, [r3, #8]
	ldr	r3, [sp, #0]
	flds	s15, [r3, #0]
	fmuls	s14, s14, s15
	ldr	r3, [sp, #4]
	flds	s13, [r3, #12]
	ldr	r3, [sp, #0]
	flds	s15, [r3, #4]
	fmuls	s15, s13, s15
	fadds	s14, s14, s15
	ldr	r3, [sp, #4]
	flds	s15, [r3, #4]
	fadds	s15, s14, s15
	fsts	s15, [sp, #12]
	.loc 1 582 0
	mov	r0, r4
	ldr	r1, [sp, #8]	@ float
	ldr	r2, [sp, #12]	@ float
	bl	_ZN6b2Vec2C1Eff
.LBE5:
	.loc 1 583 0
	mov	r0, r4
	add	sp, sp, #16
	ldmfd	sp!, {r4, pc}
	.cfi_endproc
.LFE99:
	.size	_Z5b2MulRK11b2TransformRK6b2Vec2, .-_Z5b2MulRK11b2TransformRK6b2Vec2
	.section	.text._Z6b2MulTRK11b2TransformRK6b2Vec2,"axG",%progbits,_Z6b2MulTRK11b2TransformRK6b2Vec2,comdat
	.align	2
	.weak	_Z6b2MulTRK11b2TransformRK6b2Vec2
	.hidden	_Z6b2MulTRK11b2TransformRK6b2Vec2
	.type	_Z6b2MulTRK11b2TransformRK6b2Vec2, %function
_Z6b2MulTRK11b2TransformRK6b2Vec2:
.LFB100:
	.loc 1 586 0
	.cfi_startproc
	@ args = 0, pretend = 0, frame = 24
	@ frame_needed = 0, uses_anonymous_args = 0
	stmfd	sp!, {r4, lr}
.LCFI29:
	.cfi_def_cfa_offset 8
	sub	sp, sp, #24
.LCFI30:
	.cfi_def_cfa_offset 32
	mov	r4, r0
	.cfi_offset 14, -4
	.cfi_offset 4, -8
	str	r1, [sp, #4]
	str	r2, [sp, #0]
.LBB6:
	.loc 1 587 0
	ldr	r3, [sp, #0]
	flds	s14, [r3, #0]
	ldr	r3, [sp, #4]
	flds	s15, [r3, #0]
	fsubs	s15, s14, s15
	fsts	s15, [sp, #8]
	.loc 1 588 0
	ldr	r3, [sp, #0]
	flds	s14, [r3, #4]
	ldr	r3, [sp, #4]
	flds	s15, [r3, #4]
	fsubs	s15, s14, s15
	fsts	s15, [sp, #12]
	.loc 1 589 0
	ldr	r3, [sp, #4]
	flds	s14, [r3, #12]
	flds	s15, [sp, #8]
	fmuls	s14, s14, s15
	ldr	r3, [sp, #4]
	flds	s13, [r3, #8]
	flds	s15, [sp, #12]
	fmuls	s15, s13, s15
	fadds	s15, s14, s15
	fsts	s15, [sp, #16]
	.loc 1 590 0
	ldr	r3, [sp, #4]
	flds	s15, [r3, #8]
	fnegs	s14, s15
	flds	s15, [sp, #8]
	fmuls	s14, s14, s15
	ldr	r3, [sp, #4]
	flds	s13, [r3, #12]
	flds	s15, [sp, #12]
	fmuls	s15, s13, s15
	fadds	s15, s14, s15
	fsts	s15, [sp, #20]
	.loc 1 592 0
	mov	r0, r4
	ldr	r1, [sp, #16]	@ float
	ldr	r2, [sp, #20]	@ float
	bl	_ZN6b2Vec2C1Eff
.LBE6:
	.loc 1 593 0
	mov	r0, r4
	add	sp, sp, #24
	ldmfd	sp!, {r4, pc}
	.cfi_endproc
.LFE100:
	.size	_Z6b2MulTRK11b2TransformRK6b2Vec2, .-_Z6b2MulTRK11b2TransformRK6b2Vec2
	.section	.text._Z6b2MulTRK11b2TransformS1_,"axG",%progbits,_Z6b2MulTRK11b2TransformS1_,comdat
	.align	2
	.weak	_Z6b2MulTRK11b2TransformS1_
	.hidden	_Z6b2MulTRK11b2TransformS1_
	.type	_Z6b2MulTRK11b2TransformS1_, %function
_Z6b2MulTRK11b2TransformS1_:
.LFB102:
	.loc 1 608 0
	.cfi_startproc
	@ args = 0, pretend = 0, frame = 40
	@ frame_needed = 0, uses_anonymous_args = 0
	stmfd	sp!, {r4, r5, lr}
.LCFI31:
	.cfi_def_cfa_offset 12
	sub	sp, sp, #44
.LCFI32:
	.cfi_def_cfa_offset 56
	mov	r4, r0
	.cfi_offset 14, -4
	.cfi_offset 5, -8
	.cfi_offset 4, -12
	str	r1, [sp, #12]
	str	r2, [sp, #8]
.LBB7:
	.loc 1 609 0
	mov	r0, r4
	bl	_ZN11b2TransformC1Ev
	.loc 1 610 0
	ldr	r3, [sp, #12]
	add	r2, r3, #8
	ldr	r3, [sp, #8]
	add	r3, r3, #8
	mov	r1, sp
	mov	r0, r1
	mov	r1, r2
	mov	r2, r3
	bl	_Z6b2MulTRK5b2RotS1_
	add	r3, r4, #8
	mov	r2, sp
	ldmia	r2, {r0, r1}
	stmia	r3, {r0, r1}
	.loc 1 611 0
	ldr	r3, [sp, #12]
	add	r5, r3, #8
	ldr	r2, [sp, #8]
	ldr	r3, [sp, #12]
	add	r1, sp, #32
	mov	r0, r1
	mov	r1, r2
	mov	r2, r3
	bl	_ZmiRK6b2Vec2S1_
	mov	r2, sp
	add	r3, sp, #32
	mov	r0, r2
	mov	r1, r5
	mov	r2, r3
	bl	_Z6b2MulTRK5b2RotRK6b2Vec2
	mov	r3, r4
	mov	r2, sp
	ldmia	r2, {r0, r1}
	stmia	r3, {r0, r1}
.LBE7:
	.loc 1 613 0
	mov	r0, r4
	add	sp, sp, #44
	ldmfd	sp!, {r4, r5, pc}
	.cfi_endproc
.LFE102:
	.size	_Z6b2MulTRK11b2TransformS1_, .-_Z6b2MulTRK11b2TransformS1_
	.section	.rodata
	.align	2
.LC0:
	.ascii	"v:/gigglingbits/box2d/Box2D/Collision/b2CollideEdge"
	.ascii	".cpp\000"
	.align	2
.LC1:
	.ascii	"den > 0.0f\000"
	.section	.text._Z22b2CollideEdgeAndCircleP10b2ManifoldPK11b2EdgeShapeRK11b2TransformPK13b2CircleShapeS6_,"ax",%progbits
	.align	2
	.global	_Z22b2CollideEdgeAndCircleP10b2ManifoldPK11b2EdgeShapeRK11b2TransformPK13b2CircleShapeS6_
	.hidden	_Z22b2CollideEdgeAndCircleP10b2ManifoldPK11b2EdgeShapeRK11b2TransformPK13b2CircleShapeS6_
	.type	_Z22b2CollideEdgeAndCircleP10b2ManifoldPK11b2EdgeShapeRK11b2TransformPK13b2CircleShapeS6_, %function
_Z22b2CollideEdgeAndCircleP10b2ManifoldPK11b2EdgeShapeRK11b2TransformPK13b2CircleShapeS6_:
.LFB149:
	.file 2 "v:/gigglingbits/box2d/Box2D/Collision/b2CollideEdge.cpp"
	.loc 2 30 0
	.cfi_startproc
	@ args = 4, pretend = 0, frame = 264
	@ frame_needed = 0, uses_anonymous_args = 0
	str	lr, [sp, #-4]!
.LCFI33:
	.cfi_def_cfa_offset 4
	fstmfdd	sp!, {d8}
.LCFI34:
	.cfi_def_cfa_offset 12
	sub	sp, sp, #268
.LCFI35:
	.cfi_def_cfa_offset 280
	str	r0, [sp, #12]
	str	r1, [sp, #8]
	str	r2, [sp, #4]
	str	r3, [sp, #0]
.LBB8:
	.loc 2 31 0
	ldr	r3, [sp, #12]
	mov	r2, #0
	str	r2, [r3, #60]
	.loc 2 34 0
	ldr	r3, [sp, #0]
	add	r3, r3, #12
	add	r2, sp, #156
	mov	r0, r2
	ldr	r1, [sp, #280]
	mov	r2, r3
	.cfi_offset 80, -12
	.cfi_offset 14, -4
	bl	_Z5b2MulRK11b2TransformRK6b2Vec2
	add	r2, sp, #148
	add	r3, sp, #156
	mov	r0, r2
	ldr	r1, [sp, #4]
	mov	r2, r3
	bl	_Z6b2MulTRK11b2TransformRK6b2Vec2
	.loc 2 36 0
	ldr	r2, [sp, #8]
	add	r3, sp, #140
	add	r2, r2, #12
	ldmia	r2, {r0, r1}
	stmia	r3, {r0, r1}
	ldr	r2, [sp, #8]
	add	r3, sp, #132
	add	r2, r2, #20
	ldmia	r2, {r0, r1}
	stmia	r3, {r0, r1}
	.loc 2 37 0
	add	r1, sp, #124
	add	r2, sp, #132
	add	r3, sp, #140
	mov	r0, r1
	mov	r1, r2
	mov	r2, r3
	bl	_ZmiRK6b2Vec2S1_
	.loc 2 40 0
	add	r1, sp, #164
	add	r2, sp, #132
	add	r3, sp, #148
	mov	r0, r1
	mov	r1, r2
	mov	r2, r3
	bl	_ZmiRK6b2Vec2S1_
	add	r2, sp, #124
	add	r3, sp, #164
	mov	r0, r2
	mov	r1, r3
	bl	_Z5b2DotRK6b2Vec2S1_
	mov	r3, r0	@ float
	str	r3, [sp, #228]	@ float
	.loc 2 41 0
	add	r1, sp, #172
	add	r2, sp, #148
	add	r3, sp, #140
	mov	r0, r1
	mov	r1, r2
	mov	r2, r3
	bl	_ZmiRK6b2Vec2S1_
	add	r2, sp, #124
	add	r3, sp, #172
	mov	r0, r2
	mov	r1, r3
	bl	_Z5b2DotRK6b2Vec2S1_
	mov	r3, r0	@ float
	str	r3, [sp, #232]	@ float
	.loc 2 43 0
	ldr	r3, [sp, #8]
	flds	s14, [r3, #8]
	ldr	r3, [sp, #0]
	flds	s15, [r3, #8]
	fadds	s15, s14, s15
	fsts	s15, [sp, #236]
	.loc 2 46 0
	mov	r3, #0
	strb	r3, [sp, #121]
	.loc 2 47 0
	mov	r3, #0
	strb	r3, [sp, #123]
	.loc 2 50 0
	flds	s15, [sp, #232]
	fcmpezs	s15
	fmstat
	movhi	r3, #0
	movls	r3, #1
	and	r3, r3, #255
	cmp	r3, #0
	beq	.L53
.LBB9:
	.loc 2 52 0
	add	r3, sp, #88
	add	r2, sp, #140
	ldmia	r2, {r0, r1}
	stmia	r3, {r0, r1}
	.loc 2 53 0
	add	r1, sp, #80
	add	r2, sp, #148
	add	r3, sp, #88
	mov	r0, r1
	mov	r1, r2
	mov	r2, r3
	bl	_ZmiRK6b2Vec2S1_
	.loc 2 54 0
	add	r2, sp, #80
	add	r3, sp, #80
	mov	r0, r2
	mov	r1, r3
	bl	_Z5b2DotRK6b2Vec2S1_
	mov	r3, r0	@ float
	str	r3, [sp, #248]	@ float
	.loc 2 55 0
	flds	s14, [sp, #236]
	flds	s15, [sp, #236]
	fmuls	s15, s14, s15
	flds	s14, [sp, #248]
	fcmpes	s15, s14
	fmstat
	movpl	r3, #0
	movmi	r3, #1
	and	r3, r3, #255
	cmp	r3, #0
	bne	.L65
.L54:
	.loc 2 61 0
	ldr	r3, [sp, #8]
	ldrb	r3, [r3, #44]	@ zero_extendqisi2
	cmp	r3, #0
	beq	.L56
.LBB10:
	.loc 2 63 0
	ldr	r2, [sp, #8]
	add	r3, sp, #72
	add	r2, r2, #28
	ldmia	r2, {r0, r1}
	stmia	r3, {r0, r1}
	.loc 2 64 0
	add	r3, sp, #64
	add	r2, sp, #140
	ldmia	r2, {r0, r1}
	stmia	r3, {r0, r1}
	.loc 2 65 0
	add	r1, sp, #56
	add	r2, sp, #64
	add	r3, sp, #72
	mov	r0, r1
	mov	r1, r2
	mov	r2, r3
	bl	_ZmiRK6b2Vec2S1_
	.loc 2 66 0
	add	r1, sp, #180
	add	r2, sp, #64
	add	r3, sp, #148
	mov	r0, r1
	mov	r1, r2
	mov	r2, r3
	bl	_ZmiRK6b2Vec2S1_
	add	r2, sp, #56
	add	r3, sp, #180
	mov	r0, r2
	mov	r1, r3
	bl	_Z5b2DotRK6b2Vec2S1_
	mov	r3, r0	@ float
	str	r3, [sp, #252]	@ float
	.loc 2 69 0
	flds	s15, [sp, #252]
	fcmpezs	s15
	fmstat
	movle	r3, #0
	movgt	r3, #1
	and	r3, r3, #255
	cmp	r3, #0
	bne	.L66
.L56:
.LBE10:
	.loc 2 75 0
	mov	r3, #0
	strb	r3, [sp, #120]
	.loc 2 76 0
	mov	r3, #0
	strb	r3, [sp, #122]
	.loc 2 77 0
	ldr	r3, [sp, #12]
	mov	r2, #1
	str	r2, [r3, #60]
	.loc 2 78 0
	ldr	r3, [sp, #12]
	mov	r2, #0
	str	r2, [r3, #56]
	.loc 2 79 0
	ldr	r3, [sp, #12]
	add	r3, r3, #40
	mov	r0, r3
	bl	_ZN6b2Vec27SetZeroEv
	.loc 2 80 0
	ldr	r3, [sp, #12]
	add	r3, r3, #48
	add	r2, sp, #88
	ldmia	r2, {r0, r1}
	stmia	r3, {r0, r1}
	.loc 2 81 0
	ldr	r3, [sp, #12]
	mov	r2, #0
	str	r2, [r3, #16]
	.loc 2 82 0
	ldr	r3, [sp, #12]
	ldr	r2, [sp, #120]
	str	r2, [r3, #16]
	.loc 2 83 0
	ldr	r3, [sp, #12]
	ldr	r2, [sp, #0]
	add	r2, r2, #12
	ldmia	r2, {r0, r1}
	stmia	r3, {r0, r1}
	.loc 2 84 0
	b	.L64
.L53:
.LBE9:
	.loc 2 88 0
	flds	s15, [sp, #228]
	fcmpezs	s15
	fmstat
	movhi	r3, #0
	movls	r3, #1
	and	r3, r3, #255
	cmp	r3, #0
	beq	.L57
.LBB12:
	.loc 2 90 0
	add	r3, sp, #48
	add	r2, sp, #132
	ldmia	r2, {r0, r1}
	stmia	r3, {r0, r1}
	.loc 2 91 0
	add	r1, sp, #40
	add	r2, sp, #148
	add	r3, sp, #48
	mov	r0, r1
	mov	r1, r2
	mov	r2, r3
	bl	_ZmiRK6b2Vec2S1_
	.loc 2 92 0
	add	r2, sp, #40
	add	r3, sp, #40
	mov	r0, r2
	mov	r1, r3
	bl	_Z5b2DotRK6b2Vec2S1_
	mov	r3, r0	@ float
	str	r3, [sp, #256]	@ float
	.loc 2 93 0
	flds	s14, [sp, #236]
	flds	s15, [sp, #236]
	fmuls	s15, s14, s15
	flds	s14, [sp, #256]
	fcmpes	s15, s14
	fmstat
	movpl	r3, #0
	movmi	r3, #1
	and	r3, r3, #255
	cmp	r3, #0
	bne	.L67
.L58:
	.loc 2 99 0
	ldr	r3, [sp, #8]
	ldrb	r3, [r3, #45]	@ zero_extendqisi2
	cmp	r3, #0
	beq	.L59
.LBB13:
	.loc 2 101 0
	ldr	r2, [sp, #8]
	add	r3, sp, #32
	add	r2, r2, #36
	ldmia	r2, {r0, r1}
	stmia	r3, {r0, r1}
	.loc 2 102 0
	add	r3, sp, #24
	add	r2, sp, #132
	ldmia	r2, {r0, r1}
	stmia	r3, {r0, r1}
	.loc 2 103 0
	add	r1, sp, #16
	add	r2, sp, #32
	add	r3, sp, #24
	mov	r0, r1
	mov	r1, r2
	mov	r2, r3
	bl	_ZmiRK6b2Vec2S1_
	.loc 2 104 0
	add	r1, sp, #188
	add	r2, sp, #148
	add	r3, sp, #24
	mov	r0, r1
	mov	r1, r2
	mov	r2, r3
	bl	_ZmiRK6b2Vec2S1_
	add	r2, sp, #16
	add	r3, sp, #188
	mov	r0, r2
	mov	r1, r3
	bl	_Z5b2DotRK6b2Vec2S1_
	mov	r3, r0	@ float
	str	r3, [sp, #260]	@ float
	.loc 2 107 0
	flds	s15, [sp, #260]
	fcmpezs	s15
	fmstat
	movle	r3, #0
	movgt	r3, #1
	and	r3, r3, #255
	cmp	r3, #0
	bne	.L68
.L59:
.LBE13:
	.loc 2 113 0
	mov	r3, #1
	strb	r3, [sp, #120]
	.loc 2 114 0
	mov	r3, #0
	strb	r3, [sp, #122]
	.loc 2 115 0
	ldr	r3, [sp, #12]
	mov	r2, #1
	str	r2, [r3, #60]
	.loc 2 116 0
	ldr	r3, [sp, #12]
	mov	r2, #0
	str	r2, [r3, #56]
	.loc 2 117 0
	ldr	r3, [sp, #12]
	add	r3, r3, #40
	mov	r0, r3
	bl	_ZN6b2Vec27SetZeroEv
	.loc 2 118 0
	ldr	r3, [sp, #12]
	add	r3, r3, #48
	add	r2, sp, #48
	ldmia	r2, {r0, r1}
	stmia	r3, {r0, r1}
	.loc 2 119 0
	ldr	r3, [sp, #12]
	mov	r2, #0
	str	r2, [r3, #16]
	.loc 2 120 0
	ldr	r3, [sp, #12]
	ldr	r2, [sp, #120]
	str	r2, [r3, #16]
	.loc 2 121 0
	ldr	r3, [sp, #12]
	ldr	r2, [sp, #0]
	add	r2, r2, #12
	ldmia	r2, {r0, r1}
	stmia	r3, {r0, r1}
	.loc 2 122 0
	b	.L64
.L57:
.LBE12:
	.loc 2 126 0
	add	r2, sp, #124
	add	r3, sp, #124
	mov	r0, r2
	mov	r1, r3
	bl	_Z5b2DotRK6b2Vec2S1_
	mov	r3, r0	@ float
	str	r3, [sp, #240]	@ float
	.loc 2 127 0
	flds	s15, [sp, #240]
	fcmpezs	s15
	fmstat
	movle	r3, #0
	movgt	r3, #1
	and	r3, r3, #255
	cmp	r3, #0
	bne	.L61
.L60:
	ldr	r0, .L70+4
	mov	r1, #127
	ldr	r2, .L70+8
	bl	__assert
.L61:
	.loc 2 128 0
	flds	s14, .L70
	flds	s15, [sp, #240]
	fdivs	s16, s14, s15
	add	r2, sp, #204
	add	r3, sp, #140
	mov	r0, r2
	ldr	r1, [sp, #228]	@ float
	mov	r2, r3
	bl	_ZmlfRK6b2Vec2
	add	r2, sp, #212
	add	r3, sp, #132
	mov	r0, r2
	ldr	r1, [sp, #232]	@ float
	mov	r2, r3
	bl	_ZmlfRK6b2Vec2
	add	r1, sp, #196
	add	r2, sp, #204
	add	r3, sp, #212
	mov	r0, r1
	mov	r1, r2
	mov	r2, r3
	bl	_ZplRK6b2Vec2S1_
	add	r2, sp, #112
	add	r3, sp, #196
	mov	r0, r2
	fmrs	r1, s16
	mov	r2, r3
	bl	_ZmlfRK6b2Vec2
	.loc 2 129 0
	add	r1, sp, #104
	add	r2, sp, #148
	add	r3, sp, #112
	mov	r0, r1
	mov	r1, r2
	mov	r2, r3
	bl	_ZmiRK6b2Vec2S1_
	.loc 2 130 0
	add	r2, sp, #104
	add	r3, sp, #104
	mov	r0, r2
	mov	r1, r3
	bl	_Z5b2DotRK6b2Vec2S1_
	mov	r3, r0	@ float
	str	r3, [sp, #244]	@ float
	.loc 2 131 0
	flds	s14, [sp, #236]
	flds	s15, [sp, #236]
	fmuls	s15, s14, s15
	flds	s14, [sp, #244]
	fcmpes	s15, s14
	fmstat
	movpl	r3, #0
	movmi	r3, #1
	and	r3, r3, #255
	cmp	r3, #0
	bne	.L69
.L62:
	.loc 2 136 0
	flds	s15, [sp, #128]
	fnegs	s15, s15
	ldr	r3, [sp, #124]	@ float
	add	r2, sp, #96
	mov	r0, r2
	fmrs	r1, s15
	mov	r2, r3	@ float
	bl	_ZN6b2Vec2C1Eff
	.loc 2 137 0
	add	r1, sp, #220
	add	r2, sp, #148
	add	r3, sp, #140
	mov	r0, r1
	mov	r1, r2
	mov	r2, r3
	bl	_ZmiRK6b2Vec2S1_
	add	r2, sp, #96
	add	r3, sp, #220
	mov	r0, r2
	mov	r1, r3
	bl	_Z5b2DotRK6b2Vec2S1_
	fmsr	s15, r0
	fcmpezs	s15
	fmstat
	movpl	r3, #0
	movmi	r3, #1
	and	r3, r3, #255
	cmp	r3, #0
	beq	.L63
	.loc 2 139 0
	flds	s15, [sp, #96]
	fnegs	s14, s15
	flds	s15, [sp, #100]
	fnegs	s15, s15
	add	r3, sp, #96
	mov	r0, r3
	fmrs	r1, s14
	fmrs	r2, s15
	bl	_ZN6b2Vec23SetEff
.L63:
	.loc 2 141 0
	add	r3, sp, #96
	mov	r0, r3
	bl	_ZN6b2Vec29NormalizeEv
	.loc 2 143 0
	mov	r3, #0
	strb	r3, [sp, #120]
	.loc 2 144 0
	mov	r3, #1
	strb	r3, [sp, #122]
	.loc 2 145 0
	ldr	r3, [sp, #12]
	mov	r2, #1
	str	r2, [r3, #60]
	.loc 2 146 0
	ldr	r3, [sp, #12]
	mov	r2, #1
	str	r2, [r3, #56]
	.loc 2 147 0
	ldr	r3, [sp, #12]
	add	r3, r3, #40
	add	r2, sp, #96
	ldmia	r2, {r0, r1}
	stmia	r3, {r0, r1}
	.loc 2 148 0
	ldr	r3, [sp, #12]
	add	r3, r3, #48
	add	r2, sp, #140
	ldmia	r2, {r0, r1}
	stmia	r3, {r0, r1}
	.loc 2 149 0
	ldr	r3, [sp, #12]
	mov	r2, #0
	str	r2, [r3, #16]
	.loc 2 150 0
	ldr	r3, [sp, #12]
	ldr	r2, [sp, #120]
	str	r2, [r3, #16]
	.loc 2 151 0
	ldr	r3, [sp, #12]
	ldr	r2, [sp, #0]
	add	r2, r2, #12
	ldmia	r2, {r0, r1}
	stmia	r3, {r0, r1}
	b	.L64
.L65:
.LBB15:
	.loc 2 57 0
	mov	r0, r0	@ nop
	b	.L64
.L66:
.LBB11:
	.loc 2 71 0
	mov	r0, r0	@ nop
	b	.L64
.L67:
.LBE11:
.LBE15:
.LBB16:
	.loc 2 95 0
	mov	r0, r0	@ nop
	b	.L64
.L68:
.LBB14:
	.loc 2 109 0
	mov	r0, r0	@ nop
	b	.L64
.L69:
.LBE14:
.LBE16:
	.loc 2 133 0
	mov	r0, r0	@ nop
.L64:
.LBE8:
	.loc 2 152 0
	add	sp, sp, #268
	fldmfdd	sp!, {d8}
	ldmfd	sp!, {pc}
.L71:
	.align	2
.L70:
	.word	1065353216
	.word	.LC0
	.word	.LC1
	.cfi_endproc
.LFE149:
	.size	_Z22b2CollideEdgeAndCircleP10b2ManifoldPK11b2EdgeShapeRK11b2TransformPK13b2CircleShapeS6_, .-_Z22b2CollideEdgeAndCircleP10b2ManifoldPK11b2EdgeShapeRK11b2TransformPK13b2CircleShapeS6_
	.section	.text._ZN12b2ClipVertexC1Ev,"axG",%progbits,_ZN12b2ClipVertexC1Ev,comdat
	.align	2
	.weak	_ZN12b2ClipVertexC1Ev
	.hidden	_ZN12b2ClipVertexC1Ev
	.type	_ZN12b2ClipVertexC1Ev, %function
_ZN12b2ClipVertexC1Ev:
.LFB153:
	.file 3 "v:/gigglingbits/box2d/Box2D/Collision/b2Collision.h"
	.loc 3 141 0
	.cfi_startproc
	@ args = 0, pretend = 0, frame = 8
	@ frame_needed = 0, uses_anonymous_args = 0
	str	lr, [sp, #-4]!
.LCFI36:
	.cfi_def_cfa_offset 4
	sub	sp, sp, #12
.LCFI37:
	.cfi_def_cfa_offset 16
	str	r0, [sp, #4]
	.loc 3 141 0
	ldr	r3, [sp, #4]
	mov	r0, r3
	.cfi_offset 14, -4
	bl	_ZN6b2Vec2C1Ev
	ldr	r3, [sp, #4]
	mov	r0, r3
	add	sp, sp, #12
	ldmfd	sp!, {pc}
	.cfi_endproc
.LFE153:
	.size	_ZN12b2ClipVertexC1Ev, .-_ZN12b2ClipVertexC1Ev
	.section	.text._ZN15b2ReferenceFaceC1Ev,"axG",%progbits,_ZN15b2ReferenceFaceC1Ev,comdat
	.align	2
	.weak	_ZN15b2ReferenceFaceC1Ev
	.hidden	_ZN15b2ReferenceFaceC1Ev
	.type	_ZN15b2ReferenceFaceC1Ev, %function
_ZN15b2ReferenceFaceC1Ev:
.LFB156:
	.loc 2 179 0
	.cfi_startproc
	@ args = 0, pretend = 0, frame = 8
	@ frame_needed = 0, uses_anonymous_args = 0
	str	lr, [sp, #-4]!
.LCFI38:
	.cfi_def_cfa_offset 4
	sub	sp, sp, #12
.LCFI39:
	.cfi_def_cfa_offset 16
	str	r0, [sp, #4]
	.loc 2 179 0
	ldr	r3, [sp, #4]
	add	r3, r3, #8
	mov	r0, r3
	.cfi_offset 14, -4
	bl	_ZN6b2Vec2C1Ev
	ldr	r3, [sp, #4]
	add	r3, r3, #16
	mov	r0, r3
	bl	_ZN6b2Vec2C1Ev
	ldr	r3, [sp, #4]
	add	r3, r3, #24
	mov	r0, r3
	bl	_ZN6b2Vec2C1Ev
	ldr	r3, [sp, #4]
	add	r3, r3, #32
	mov	r0, r3
	bl	_ZN6b2Vec2C1Ev
	ldr	r3, [sp, #4]
	add	r3, r3, #44
	mov	r0, r3
	bl	_ZN6b2Vec2C1Ev
	ldr	r3, [sp, #4]
	mov	r0, r3
	add	sp, sp, #12
	ldmfd	sp!, {pc}
	.cfi_endproc
.LFE156:
	.size	_ZN15b2ReferenceFaceC1Ev, .-_ZN15b2ReferenceFaceC1Ev
	.section	.text._ZN12b2EPCollider7CollideEP10b2ManifoldPK11b2EdgeShapeRK11b2TransformPK14b2PolygonShapeS7_,"ax",%progbits
	.align	2
	.global	_ZN12b2EPCollider7CollideEP10b2ManifoldPK11b2EdgeShapeRK11b2TransformPK14b2PolygonShapeS7_
	.hidden	_ZN12b2EPCollider7CollideEP10b2ManifoldPK11b2EdgeShapeRK11b2TransformPK14b2PolygonShapeS7_
	.type	_ZN12b2EPCollider7CollideEP10b2ManifoldPK11b2EdgeShapeRK11b2TransformPK14b2PolygonShapeS7_, %function
_ZN12b2EPCollider7CollideEP10b2ManifoldPK11b2EdgeShapeRK11b2TransformPK14b2PolygonShapeS7_:
.LFB150:
	.loc 2 232 0
	.cfi_startproc
	@ args = 8, pretend = 0, frame = 328
	@ frame_needed = 0, uses_anonymous_args = 0
	stmfd	sp!, {r4, r5, lr}
.LCFI40:
	.cfi_def_cfa_offset 12
	sub	sp, sp, #340
.LCFI41:
	.cfi_def_cfa_offset 352
	str	r0, [sp, #36]
	str	r1, [sp, #32]
	str	r2, [sp, #28]
	str	r3, [sp, #24]
.LBB17:
	.loc 2 233 0
	ldr	r4, [sp, #36]
	.cfi_offset 14, -4
	.cfi_offset 5, -8
	.cfi_offset 4, -12
	add	r3, sp, #8
	mov	r0, r3
	ldr	r1, [sp, #24]
	ldr	r2, [sp, #356]
	bl	_Z6b2MulTRK11b2TransformS1_
	add	ip, r4, #132
	add	r3, sp, #8
	ldmia	r3, {r0, r1, r2, r3}
	stmia	ip, {r0, r1, r2, r3}
	.loc 2 235 0
	ldr	r3, [sp, #36]
	add	r2, r3, #132
	ldr	r3, [sp, #352]
	add	r3, r3, #12
	ldr	r4, [sp, #36]
	add	r1, sp, #8
	mov	r0, r1
	mov	r1, r2
	mov	r2, r3
	bl	_Z5b2MulRK11b2TransformRK6b2Vec2
	add	r3, r4, #148
	add	r2, sp, #8
	ldmia	r2, {r0, r1}
	stmia	r3, {r0, r1}
	.loc 2 237 0
	ldr	r3, [sp, #36]
	ldr	r2, [sp, #28]
	add	r3, r3, #156
	add	r2, r2, #28
	ldmia	r2, {r0, r1}
	stmia	r3, {r0, r1}
	.loc 2 238 0
	ldr	r3, [sp, #36]
	ldr	r2, [sp, #28]
	add	r3, r3, #164
	add	r2, r2, #12
	ldmia	r2, {r0, r1}
	stmia	r3, {r0, r1}
	.loc 2 239 0
	ldr	r3, [sp, #36]
	ldr	r2, [sp, #28]
	add	r3, r3, #172
	add	r2, r2, #20
	ldmia	r2, {r0, r1}
	stmia	r3, {r0, r1}
	.loc 2 240 0
	ldr	r3, [sp, #36]
	ldr	r2, [sp, #28]
	add	r3, r3, #180
	add	r2, r2, #36
	ldmia	r2, {r0, r1}
	stmia	r3, {r0, r1}
	.loc 2 242 0
	ldr	r3, [sp, #28]
	ldrb	r3, [r3, #44]
	strb	r3, [sp, #262]
	.loc 2 243 0
	ldr	r3, [sp, #28]
	ldrb	r3, [r3, #45]
	strb	r3, [sp, #263]
	.loc 2 245 0
	ldr	r3, [sp, #36]
	add	r2, r3, #172
	ldr	r3, [sp, #36]
	add	r3, r3, #164
	add	r1, sp, #220
	mov	r0, r1
	mov	r1, r2
	mov	r2, r3
	bl	_ZmiRK6b2Vec2S1_
	.loc 2 246 0
	add	r3, sp, #220
	mov	r0, r3
	bl	_ZN6b2Vec29NormalizeEv
	.loc 2 247 0
	ldr	r3, [sp, #36]
	add	r2, r3, #196
	ldr	r3, [sp, #224]	@ float
	flds	s15, [sp, #220]
	fnegs	s15, s15
	mov	r0, r2
	mov	r1, r3	@ float
	fmrs	r2, s15
	bl	_ZN6b2Vec23SetEff
	.loc 2 248 0
	ldr	r3, [sp, #36]
	add	r4, r3, #196
	ldr	r3, [sp, #36]
	add	r2, r3, #148
	ldr	r3, [sp, #36]
	add	r3, r3, #164
	add	r1, sp, #228
	mov	r0, r1
	mov	r1, r2
	mov	r2, r3
	bl	_ZmiRK6b2Vec2S1_
	add	r3, sp, #228
	mov	r0, r4
	mov	r1, r3
	bl	_Z5b2DotRK6b2Vec2S1_
	mov	r3, r0	@ float
	str	r3, [sp, #264]	@ float
	.loc 2 249 0
	flds	s15, .L169
	fsts	s15, [sp, #268]
	flds	s15, .L169
	fsts	s15, [sp, #272]
	.loc 2 250 0
	mov	r3, #0
	strb	r3, [sp, #278]
	mov	r3, #0
	strb	r3, [sp, #279]
	.loc 2 253 0
	ldrb	r3, [sp, #262]	@ zero_extendqisi2
	cmp	r3, #0
	beq	.L79
.LBB18:
	.loc 2 255 0
	ldr	r3, [sp, #36]
	add	r2, r3, #164
	ldr	r3, [sp, #36]
	add	r3, r3, #156
	add	r1, sp, #104
	mov	r0, r1
	mov	r1, r2
	mov	r2, r3
	bl	_ZmiRK6b2Vec2S1_
	.loc 2 256 0
	add	r3, sp, #104
	mov	r0, r3
	bl	_ZN6b2Vec29NormalizeEv
	.loc 2 257 0
	ldr	r3, [sp, #36]
	add	r2, r3, #188
	ldr	r3, [sp, #108]	@ float
	flds	s15, [sp, #104]
	fnegs	s15, s15
	mov	r0, r2
	mov	r1, r3	@ float
	fmrs	r2, s15
	bl	_ZN6b2Vec23SetEff
	.loc 2 258 0
	add	r2, sp, #104
	add	r3, sp, #220
	mov	r0, r2
	mov	r1, r3
	bl	_Z7b2CrossRK6b2Vec2S1_
	fmsr	s15, r0
	fcmpezs	s15
	fmstat
	movlt	r3, #0
	movge	r3, #1
	strb	r3, [sp, #278]
	.loc 2 259 0
	ldr	r3, [sp, #36]
	add	r4, r3, #188
	ldr	r3, [sp, #36]
	add	r2, r3, #148
	ldr	r3, [sp, #36]
	add	r3, r3, #156
	add	r1, sp, #236
	mov	r0, r1
	mov	r1, r2
	mov	r2, r3
	bl	_ZmiRK6b2Vec2S1_
	add	r3, sp, #236
	mov	r0, r4
	mov	r1, r3
	bl	_Z5b2DotRK6b2Vec2S1_
	mov	r3, r0	@ float
	str	r3, [sp, #268]	@ float
.L79:
.LBE18:
	.loc 2 263 0
	ldrb	r3, [sp, #263]	@ zero_extendqisi2
	cmp	r3, #0
	beq	.L80
.LBB19:
	.loc 2 265 0
	ldr	r3, [sp, #36]
	add	r2, r3, #180
	ldr	r3, [sp, #36]
	add	r3, r3, #172
	add	r1, sp, #96
	mov	r0, r1
	mov	r1, r2
	mov	r2, r3
	bl	_ZmiRK6b2Vec2S1_
	.loc 2 266 0
	add	r3, sp, #96
	mov	r0, r3
	bl	_ZN6b2Vec29NormalizeEv
	.loc 2 267 0
	ldr	r3, [sp, #36]
	add	r2, r3, #204
	ldr	r3, [sp, #100]	@ float
	flds	s15, [sp, #96]
	fnegs	s15, s15
	mov	r0, r2
	mov	r1, r3	@ float
	fmrs	r2, s15
	bl	_ZN6b2Vec23SetEff
	.loc 2 268 0
	add	r2, sp, #220
	add	r3, sp, #96
	mov	r0, r2
	mov	r1, r3
	bl	_Z7b2CrossRK6b2Vec2S1_
	fmsr	s15, r0
	fcmpezs	s15
	fmstat
	movle	r3, #0
	movgt	r3, #1
	strb	r3, [sp, #279]
	.loc 2 269 0
	ldr	r3, [sp, #36]
	add	r4, r3, #204
	ldr	r3, [sp, #36]
	add	r2, r3, #148
	ldr	r3, [sp, #36]
	add	r3, r3, #172
	add	r1, sp, #244
	mov	r0, r1
	mov	r1, r2
	mov	r2, r3
	bl	_ZmiRK6b2Vec2S1_
	add	r3, sp, #244
	mov	r0, r4
	mov	r1, r3
	bl	_Z5b2DotRK6b2Vec2S1_
	mov	r3, r0	@ float
	str	r3, [sp, #272]	@ float
.L80:
.LBE19:
	.loc 2 273 0
	ldrb	r3, [sp, #262]	@ zero_extendqisi2
	cmp	r3, #0
	beq	.L81
	ldrb	r3, [sp, #263]	@ zero_extendqisi2
	cmp	r3, #0
	beq	.L81
	.loc 2 275 0
	ldrb	r3, [sp, #278]	@ zero_extendqisi2
	cmp	r3, #0
	beq	.L82
	ldrb	r3, [sp, #279]	@ zero_extendqisi2
	cmp	r3, #0
	beq	.L82
	.loc 2 277 0
	flds	s15, [sp, #268]
	fcmpezs	s15
	fmstat
	movlt	r3, #0
	movge	r3, #1
	and	r3, r3, #255
	cmp	r3, #0
	bne	.L83
	flds	s15, [sp, #264]
	fcmpezs	s15
	fmstat
	movlt	r3, #0
	movge	r3, #1
	and	r3, r3, #255
	cmp	r3, #0
	bne	.L83
	flds	s15, [sp, #272]
	fcmpezs	s15
	fmstat
	movlt	r3, #0
	movge	r3, #1
	and	r3, r3, #255
	cmp	r3, #0
	beq	.L84
.L83:
	mov	r3, #1
	b	.L85
.L84:
	mov	r3, #0
.L85:
	ldr	r2, [sp, #36]
	strb	r3, [r2, #248]
	.loc 2 278 0
	ldr	r3, [sp, #36]
	ldrb	r3, [r3, #248]	@ zero_extendqisi2
	cmp	r3, #0
	beq	.L86
	.loc 2 280 0
	ldr	r3, [sp, #36]
	ldr	r2, [sp, #36]
	add	r3, r3, #212
	add	r2, r2, #196
	ldmia	r2, {r0, r1}
	stmia	r3, {r0, r1}
	.loc 2 281 0
	ldr	r3, [sp, #36]
	ldr	r2, [sp, #36]
	add	r3, r3, #228
	add	r2, r2, #188
	ldmia	r2, {r0, r1}
	stmia	r3, {r0, r1}
	.loc 2 282 0
	ldr	r3, [sp, #36]
	ldr	r2, [sp, #36]
	add	r3, r3, #236
	add	r2, r2, #204
	ldmia	r2, {r0, r1}
	stmia	r3, {r0, r1}
	b	.L87
.L86:
	.loc 2 286 0
	ldr	r3, [sp, #36]
	add	r3, r3, #196
	ldr	r4, [sp, #36]
	add	r2, sp, #8
	mov	r0, r2
	mov	r1, r3
	bl	_ZNK6b2Vec2ngEv
	add	r3, r4, #212
	add	r2, sp, #8
	ldmia	r2, {r0, r1}
	stmia	r3, {r0, r1}
	.loc 2 287 0
	ldr	r3, [sp, #36]
	add	r3, r3, #196
	ldr	r4, [sp, #36]
	add	r2, sp, #8
	mov	r0, r2
	mov	r1, r3
	bl	_ZNK6b2Vec2ngEv
	add	r3, r4, #228
	add	r2, sp, #8
	ldmia	r2, {r0, r1}
	stmia	r3, {r0, r1}
	.loc 2 288 0
	ldr	r3, [sp, #36]
	add	r3, r3, #196
	ldr	r4, [sp, #36]
	add	r2, sp, #8
	mov	r0, r2
	mov	r1, r3
	bl	_ZNK6b2Vec2ngEv
	add	r3, r4, #236
	add	r2, sp, #8
	ldmia	r2, {r0, r1}
	stmia	r3, {r0, r1}
.L87:
	.loc 2 275 0
	mov	r0, r0	@ nop
	.loc 2 273 0
	b	.L104
.L82:
	.loc 2 291 0
	ldrb	r3, [sp, #278]	@ zero_extendqisi2
	cmp	r3, #0
	beq	.L89
	.loc 2 293 0
	flds	s15, [sp, #268]
	fcmpezs	s15
	fmstat
	movlt	r3, #0
	movge	r3, #1
	and	r3, r3, #255
	cmp	r3, #0
	bne	.L90
	flds	s15, [sp, #264]
	fcmpezs	s15
	fmstat
	movlt	r3, #0
	movge	r3, #1
	and	r3, r3, #255
	cmp	r3, #0
	beq	.L91
	flds	s15, [sp, #272]
	fcmpezs	s15
	fmstat
	movlt	r3, #0
	movge	r3, #1
	and	r3, r3, #255
	cmp	r3, #0
	beq	.L91
.L90:
	mov	r3, #1
	b	.L92
.L170:
	.align	2
.L169:
	.word	0
.L91:
	mov	r3, #0
.L92:
	ldr	r2, [sp, #36]
	strb	r3, [r2, #248]
	.loc 2 294 0
	ldr	r3, [sp, #36]
	ldrb	r3, [r3, #248]	@ zero_extendqisi2
	cmp	r3, #0
	beq	.L93
	.loc 2 296 0
	ldr	r3, [sp, #36]
	ldr	r2, [sp, #36]
	add	r3, r3, #212
	add	r2, r2, #196
	ldmia	r2, {r0, r1}
	stmia	r3, {r0, r1}
	.loc 2 297 0
	ldr	r3, [sp, #36]
	ldr	r2, [sp, #36]
	add	r3, r3, #228
	add	r2, r2, #188
	ldmia	r2, {r0, r1}
	stmia	r3, {r0, r1}
	.loc 2 298 0
	ldr	r3, [sp, #36]
	ldr	r2, [sp, #36]
	add	r3, r3, #236
	add	r2, r2, #196
	ldmia	r2, {r0, r1}
	stmia	r3, {r0, r1}
	.loc 2 273 0
	b	.L104
.L93:
	.loc 2 302 0
	ldr	r3, [sp, #36]
	add	r3, r3, #196
	ldr	r4, [sp, #36]
	add	r2, sp, #8
	mov	r0, r2
	mov	r1, r3
	bl	_ZNK6b2Vec2ngEv
	add	r3, r4, #212
	add	r2, sp, #8
	ldmia	r2, {r0, r1}
	stmia	r3, {r0, r1}
	.loc 2 303 0
	ldr	r3, [sp, #36]
	add	r3, r3, #204
	ldr	r4, [sp, #36]
	add	r2, sp, #8
	mov	r0, r2
	mov	r1, r3
	bl	_ZNK6b2Vec2ngEv
	add	r3, r4, #228
	add	r2, sp, #8
	ldmia	r2, {r0, r1}
	stmia	r3, {r0, r1}
	.loc 2 304 0
	ldr	r3, [sp, #36]
	add	r3, r3, #196
	ldr	r4, [sp, #36]
	add	r2, sp, #8
	mov	r0, r2
	mov	r1, r3
	bl	_ZNK6b2Vec2ngEv
	add	r3, r4, #236
	add	r2, sp, #8
	ldmia	r2, {r0, r1}
	stmia	r3, {r0, r1}
	.loc 2 273 0
	b	.L104
.L89:
	.loc 2 307 0
	ldrb	r3, [sp, #279]	@ zero_extendqisi2
	cmp	r3, #0
	beq	.L95
	.loc 2 309 0
	flds	s15, [sp, #272]
	fcmpezs	s15
	fmstat
	movlt	r3, #0
	movge	r3, #1
	and	r3, r3, #255
	cmp	r3, #0
	bne	.L96
	flds	s15, [sp, #268]
	fcmpezs	s15
	fmstat
	movlt	r3, #0
	movge	r3, #1
	and	r3, r3, #255
	cmp	r3, #0
	beq	.L97
	flds	s15, [sp, #264]
	fcmpezs	s15
	fmstat
	movlt	r3, #0
	movge	r3, #1
	and	r3, r3, #255
	cmp	r3, #0
	beq	.L97
.L96:
	mov	r3, #1
	b	.L98
.L97:
	mov	r3, #0
.L98:
	ldr	r2, [sp, #36]
	strb	r3, [r2, #248]
	.loc 2 310 0
	ldr	r3, [sp, #36]
	ldrb	r3, [r3, #248]	@ zero_extendqisi2
	cmp	r3, #0
	beq	.L99
	.loc 2 312 0
	ldr	r3, [sp, #36]
	ldr	r2, [sp, #36]
	add	r3, r3, #212
	add	r2, r2, #196
	ldmia	r2, {r0, r1}
	stmia	r3, {r0, r1}
	.loc 2 313 0
	ldr	r3, [sp, #36]
	ldr	r2, [sp, #36]
	add	r3, r3, #228
	add	r2, r2, #196
	ldmia	r2, {r0, r1}
	stmia	r3, {r0, r1}
	.loc 2 314 0
	ldr	r3, [sp, #36]
	ldr	r2, [sp, #36]
	add	r3, r3, #236
	add	r2, r2, #204
	ldmia	r2, {r0, r1}
	stmia	r3, {r0, r1}
	.loc 2 273 0
	b	.L104
.L99:
	.loc 2 318 0
	ldr	r3, [sp, #36]
	add	r3, r3, #196
	ldr	r4, [sp, #36]
	add	r2, sp, #8
	mov	r0, r2
	mov	r1, r3
	bl	_ZNK6b2Vec2ngEv
	add	r3, r4, #212
	add	r2, sp, #8
	ldmia	r2, {r0, r1}
	stmia	r3, {r0, r1}
	.loc 2 319 0
	ldr	r3, [sp, #36]
	add	r3, r3, #196
	ldr	r4, [sp, #36]
	add	r2, sp, #8
	mov	r0, r2
	mov	r1, r3
	bl	_ZNK6b2Vec2ngEv
	add	r3, r4, #228
	add	r2, sp, #8
	ldmia	r2, {r0, r1}
	stmia	r3, {r0, r1}
	.loc 2 320 0
	ldr	r3, [sp, #36]
	add	r3, r3, #188
	ldr	r4, [sp, #36]
	add	r2, sp, #8
	mov	r0, r2
	mov	r1, r3
	bl	_ZNK6b2Vec2ngEv
	add	r3, r4, #236
	add	r2, sp, #8
	ldmia	r2, {r0, r1}
	stmia	r3, {r0, r1}
	.loc 2 273 0
	b	.L104
.L95:
	.loc 2 325 0
	flds	s15, [sp, #268]
	fcmpezs	s15
	fmstat
	movlt	r3, #0
	movge	r3, #1
	and	r3, r3, #255
	cmp	r3, #0
	beq	.L101
	flds	s15, [sp, #264]
	fcmpezs	s15
	fmstat
	movlt	r3, #0
	movge	r3, #1
	and	r3, r3, #255
	cmp	r3, #0
	beq	.L101
	flds	s15, [sp, #272]
	fcmpezs	s15
	fmstat
	movlt	r3, #0
	movge	r3, #1
	and	r3, r3, #255
	cmp	r3, #0
	beq	.L101
	mov	r3, #1
	b	.L102
.L101:
	mov	r3, #0
.L102:
	ldr	r2, [sp, #36]
	strb	r3, [r2, #248]
	.loc 2 326 0
	ldr	r3, [sp, #36]
	ldrb	r3, [r3, #248]	@ zero_extendqisi2
	cmp	r3, #0
	beq	.L103
	.loc 2 328 0
	ldr	r3, [sp, #36]
	ldr	r2, [sp, #36]
	add	r3, r3, #212
	add	r2, r2, #196
	ldmia	r2, {r0, r1}
	stmia	r3, {r0, r1}
	.loc 2 329 0
	ldr	r3, [sp, #36]
	ldr	r2, [sp, #36]
	add	r3, r3, #228
	add	r2, r2, #196
	ldmia	r2, {r0, r1}
	stmia	r3, {r0, r1}
	.loc 2 330 0
	ldr	r3, [sp, #36]
	ldr	r2, [sp, #36]
	add	r3, r3, #236
	add	r2, r2, #196
	ldmia	r2, {r0, r1}
	stmia	r3, {r0, r1}
	.loc 2 273 0
	b	.L104
.L103:
	.loc 2 334 0
	ldr	r3, [sp, #36]
	add	r3, r3, #196
	ldr	r4, [sp, #36]
	add	r2, sp, #8
	mov	r0, r2
	mov	r1, r3
	bl	_ZNK6b2Vec2ngEv
	add	r3, r4, #212
	add	r2, sp, #8
	ldmia	r2, {r0, r1}
	stmia	r3, {r0, r1}
	.loc 2 335 0
	ldr	r3, [sp, #36]
	add	r3, r3, #204
	ldr	r4, [sp, #36]
	add	r2, sp, #8
	mov	r0, r2
	mov	r1, r3
	bl	_ZNK6b2Vec2ngEv
	add	r3, r4, #228
	add	r2, sp, #8
	ldmia	r2, {r0, r1}
	stmia	r3, {r0, r1}
	.loc 2 336 0
	ldr	r3, [sp, #36]
	add	r3, r3, #188
	ldr	r4, [sp, #36]
	add	r2, sp, #8
	mov	r0, r2
	mov	r1, r3
	bl	_ZNK6b2Vec2ngEv
	add	r3, r4, #236
	add	r2, sp, #8
	ldmia	r2, {r0, r1}
	stmia	r3, {r0, r1}
	.loc 2 273 0
	b	.L104
.L81:
	.loc 2 340 0
	ldrb	r3, [sp, #262]	@ zero_extendqisi2
	cmp	r3, #0
	beq	.L105
	.loc 2 342 0
	ldrb	r3, [sp, #278]	@ zero_extendqisi2
	cmp	r3, #0
	beq	.L106
	.loc 2 344 0
	flds	s15, [sp, #268]
	fcmpezs	s15
	fmstat
	movlt	r3, #0
	movge	r3, #1
	and	r3, r3, #255
	cmp	r3, #0
	bne	.L107
	flds	s15, [sp, #264]
	fcmpezs	s15
	fmstat
	movlt	r3, #0
	movge	r3, #1
	and	r3, r3, #255
	cmp	r3, #0
	beq	.L108
.L107:
	mov	r3, #1
	b	.L109
.L108:
	mov	r3, #0
.L109:
	ldr	r2, [sp, #36]
	strb	r3, [r2, #248]
	.loc 2 345 0
	ldr	r3, [sp, #36]
	ldrb	r3, [r3, #248]	@ zero_extendqisi2
	cmp	r3, #0
	beq	.L110
	.loc 2 347 0
	ldr	r3, [sp, #36]
	ldr	r2, [sp, #36]
	add	r3, r3, #212
	add	r2, r2, #196
	ldmia	r2, {r0, r1}
	stmia	r3, {r0, r1}
	.loc 2 348 0
	ldr	r3, [sp, #36]
	ldr	r2, [sp, #36]
	add	r3, r3, #228
	add	r2, r2, #188
	ldmia	r2, {r0, r1}
	stmia	r3, {r0, r1}
	.loc 2 349 0
	ldr	r3, [sp, #36]
	add	r3, r3, #196
	ldr	r4, [sp, #36]
	add	r2, sp, #8
	mov	r0, r2
	mov	r1, r3
	bl	_ZNK6b2Vec2ngEv
	add	r3, r4, #236
	add	r2, sp, #8
	ldmia	r2, {r0, r1}
	stmia	r3, {r0, r1}
	.loc 2 371 0
	b	.L104
.L110:
	.loc 2 353 0
	ldr	r3, [sp, #36]
	add	r3, r3, #196
	ldr	r4, [sp, #36]
	add	r2, sp, #8
	mov	r0, r2
	mov	r1, r3
	bl	_ZNK6b2Vec2ngEv
	add	r3, r4, #212
	add	r2, sp, #8
	ldmia	r2, {r0, r1}
	stmia	r3, {r0, r1}
	.loc 2 354 0
	ldr	r3, [sp, #36]
	ldr	r2, [sp, #36]
	add	r3, r3, #228
	add	r2, r2, #196
	ldmia	r2, {r0, r1}
	stmia	r3, {r0, r1}
	.loc 2 355 0
	ldr	r3, [sp, #36]
	add	r3, r3, #196
	ldr	r4, [sp, #36]
	add	r2, sp, #8
	mov	r0, r2
	mov	r1, r3
	bl	_ZNK6b2Vec2ngEv
	add	r3, r4, #236
	add	r2, sp, #8
	ldmia	r2, {r0, r1}
	stmia	r3, {r0, r1}
	.loc 2 371 0
	b	.L104
.L106:
	.loc 2 360 0
	flds	s15, [sp, #268]
	fcmpezs	s15
	fmstat
	movlt	r3, #0
	movge	r3, #1
	and	r3, r3, #255
	cmp	r3, #0
	beq	.L113
	flds	s15, [sp, #264]
	fcmpezs	s15
	fmstat
	movlt	r3, #0
	movge	r3, #1
	and	r3, r3, #255
	cmp	r3, #0
	beq	.L113
	mov	r3, #1
	b	.L114
.L113:
	mov	r3, #0
.L114:
	ldr	r2, [sp, #36]
	strb	r3, [r2, #248]
	.loc 2 361 0
	ldr	r3, [sp, #36]
	ldrb	r3, [r3, #248]	@ zero_extendqisi2
	cmp	r3, #0
	beq	.L115
	.loc 2 363 0
	ldr	r3, [sp, #36]
	ldr	r2, [sp, #36]
	add	r3, r3, #212
	add	r2, r2, #196
	ldmia	r2, {r0, r1}
	stmia	r3, {r0, r1}
	.loc 2 364 0
	ldr	r3, [sp, #36]
	ldr	r2, [sp, #36]
	add	r3, r3, #228
	add	r2, r2, #196
	ldmia	r2, {r0, r1}
	stmia	r3, {r0, r1}
	.loc 2 365 0
	ldr	r3, [sp, #36]
	add	r3, r3, #196
	ldr	r4, [sp, #36]
	add	r2, sp, #8
	mov	r0, r2
	mov	r1, r3
	bl	_ZNK6b2Vec2ngEv
	add	r3, r4, #236
	add	r2, sp, #8
	ldmia	r2, {r0, r1}
	stmia	r3, {r0, r1}
	.loc 2 371 0
	b	.L104
.L115:
	.loc 2 369 0
	ldr	r3, [sp, #36]
	add	r3, r3, #196
	ldr	r4, [sp, #36]
	add	r2, sp, #8
	mov	r0, r2
	mov	r1, r3
	bl	_ZNK6b2Vec2ngEv
	add	r3, r4, #212
	add	r2, sp, #8
	ldmia	r2, {r0, r1}
	stmia	r3, {r0, r1}
	.loc 2 370 0
	ldr	r3, [sp, #36]
	ldr	r2, [sp, #36]
	add	r3, r3, #228
	add	r2, r2, #196
	ldmia	r2, {r0, r1}
	stmia	r3, {r0, r1}
	.loc 2 371 0
	ldr	r3, [sp, #36]
	add	r3, r3, #188
	ldr	r4, [sp, #36]
	add	r2, sp, #8
	mov	r0, r2
	mov	r1, r3
	bl	_ZNK6b2Vec2ngEv
	add	r3, r4, #236
	add	r2, sp, #8
	ldmia	r2, {r0, r1}
	stmia	r3, {r0, r1}
	b	.L104
.L105:
	.loc 2 375 0
	ldrb	r3, [sp, #263]	@ zero_extendqisi2
	cmp	r3, #0
	beq	.L116
	.loc 2 377 0
	ldrb	r3, [sp, #279]	@ zero_extendqisi2
	cmp	r3, #0
	beq	.L117
	.loc 2 379 0
	flds	s15, [sp, #264]
	fcmpezs	s15
	fmstat
	movlt	r3, #0
	movge	r3, #1
	and	r3, r3, #255
	cmp	r3, #0
	bne	.L118
	flds	s15, [sp, #272]
	fcmpezs	s15
	fmstat
	movlt	r3, #0
	movge	r3, #1
	and	r3, r3, #255
	cmp	r3, #0
	beq	.L119
.L118:
	mov	r3, #1
	b	.L120
.L119:
	mov	r3, #0
.L120:
	ldr	r2, [sp, #36]
	strb	r3, [r2, #248]
	.loc 2 380 0
	ldr	r3, [sp, #36]
	ldrb	r3, [r3, #248]	@ zero_extendqisi2
	cmp	r3, #0
	beq	.L121
	.loc 2 382 0
	ldr	r3, [sp, #36]
	ldr	r2, [sp, #36]
	add	r3, r3, #212
	add	r2, r2, #196
	ldmia	r2, {r0, r1}
	stmia	r3, {r0, r1}
	.loc 2 383 0
	ldr	r3, [sp, #36]
	add	r3, r3, #196
	ldr	r4, [sp, #36]
	add	r2, sp, #8
	mov	r0, r2
	mov	r1, r3
	bl	_ZNK6b2Vec2ngEv
	add	r3, r4, #228
	add	r2, sp, #8
	ldmia	r2, {r0, r1}
	stmia	r3, {r0, r1}
	.loc 2 384 0
	ldr	r3, [sp, #36]
	ldr	r2, [sp, #36]
	add	r3, r3, #236
	add	r2, r2, #204
	ldmia	r2, {r0, r1}
	stmia	r3, {r0, r1}
	.loc 2 406 0
	b	.L104
.L121:
	.loc 2 388 0
	ldr	r3, [sp, #36]
	add	r3, r3, #196
	ldr	r4, [sp, #36]
	add	r2, sp, #8
	mov	r0, r2
	mov	r1, r3
	bl	_ZNK6b2Vec2ngEv
	add	r3, r4, #212
	add	r2, sp, #8
	ldmia	r2, {r0, r1}
	stmia	r3, {r0, r1}
	.loc 2 389 0
	ldr	r3, [sp, #36]
	add	r3, r3, #196
	ldr	r4, [sp, #36]
	add	r2, sp, #8
	mov	r0, r2
	mov	r1, r3
	bl	_ZNK6b2Vec2ngEv
	add	r3, r4, #228
	add	r2, sp, #8
	ldmia	r2, {r0, r1}
	stmia	r3, {r0, r1}
	.loc 2 390 0
	ldr	r3, [sp, #36]
	ldr	r2, [sp, #36]
	add	r3, r3, #236
	add	r2, r2, #196
	ldmia	r2, {r0, r1}
	stmia	r3, {r0, r1}
	.loc 2 406 0
	b	.L104
.L117:
	.loc 2 395 0
	flds	s15, [sp, #264]
	fcmpezs	s15
	fmstat
	movlt	r3, #0
	movge	r3, #1
	and	r3, r3, #255
	cmp	r3, #0
	beq	.L124
	flds	s15, [sp, #272]
	fcmpezs	s15
	fmstat
	movlt	r3, #0
	movge	r3, #1
	and	r3, r3, #255
	cmp	r3, #0
	beq	.L124
	mov	r3, #1
	b	.L125
.L124:
	mov	r3, #0
.L125:
	ldr	r2, [sp, #36]
	strb	r3, [r2, #248]
	.loc 2 396 0
	ldr	r3, [sp, #36]
	ldrb	r3, [r3, #248]	@ zero_extendqisi2
	cmp	r3, #0
	beq	.L126
	.loc 2 398 0
	ldr	r3, [sp, #36]
	ldr	r2, [sp, #36]
	add	r3, r3, #212
	add	r2, r2, #196
	ldmia	r2, {r0, r1}
	stmia	r3, {r0, r1}
	.loc 2 399 0
	ldr	r3, [sp, #36]
	add	r3, r3, #196
	ldr	r4, [sp, #36]
	add	r2, sp, #8
	mov	r0, r2
	mov	r1, r3
	bl	_ZNK6b2Vec2ngEv
	add	r3, r4, #228
	add	r2, sp, #8
	ldmia	r2, {r0, r1}
	stmia	r3, {r0, r1}
	.loc 2 400 0
	ldr	r3, [sp, #36]
	ldr	r2, [sp, #36]
	add	r3, r3, #236
	add	r2, r2, #196
	ldmia	r2, {r0, r1}
	stmia	r3, {r0, r1}
	.loc 2 406 0
	b	.L104
.L126:
	.loc 2 404 0
	ldr	r3, [sp, #36]
	add	r3, r3, #196
	ldr	r4, [sp, #36]
	add	r2, sp, #8
	mov	r0, r2
	mov	r1, r3
	bl	_ZNK6b2Vec2ngEv
	add	r3, r4, #212
	add	r2, sp, #8
	ldmia	r2, {r0, r1}
	stmia	r3, {r0, r1}
	.loc 2 405 0
	ldr	r3, [sp, #36]
	add	r3, r3, #204
	ldr	r4, [sp, #36]
	add	r2, sp, #8
	mov	r0, r2
	mov	r1, r3
	bl	_ZNK6b2Vec2ngEv
	add	r3, r4, #228
	add	r2, sp, #8
	ldmia	r2, {r0, r1}
	stmia	r3, {r0, r1}
	.loc 2 406 0
	ldr	r3, [sp, #36]
	ldr	r2, [sp, #36]
	add	r3, r3, #236
	add	r2, r2, #196
	ldmia	r2, {r0, r1}
	stmia	r3, {r0, r1}
	b	.L104
.L116:
	.loc 2 412 0
	flds	s15, [sp, #264]
	fcmpezs	s15
	fmstat
	movlt	r3, #0
	movge	r3, #1
	and	r2, r3, #255
	ldr	r3, [sp, #36]
	strb	r2, [r3, #248]
	.loc 2 413 0
	ldr	r3, [sp, #36]
	ldrb	r3, [r3, #248]	@ zero_extendqisi2
	cmp	r3, #0
	beq	.L127
	.loc 2 415 0
	ldr	r3, [sp, #36]
	ldr	r2, [sp, #36]
	add	r3, r3, #212
	add	r2, r2, #196
	ldmia	r2, {r0, r1}
	stmia	r3, {r0, r1}
	.loc 2 416 0
	ldr	r3, [sp, #36]
	add	r3, r3, #196
	ldr	r4, [sp, #36]
	add	r2, sp, #8
	mov	r0, r2
	mov	r1, r3
	bl	_ZNK6b2Vec2ngEv
	add	r3, r4, #228
	add	r2, sp, #8
	ldmia	r2, {r0, r1}
	stmia	r3, {r0, r1}
	.loc 2 417 0
	ldr	r3, [sp, #36]
	add	r3, r3, #196
	ldr	r4, [sp, #36]
	add	r2, sp, #8
	mov	r0, r2
	mov	r1, r3
	bl	_ZNK6b2Vec2ngEv
	add	r3, r4, #236
	add	r2, sp, #8
	ldmia	r2, {r0, r1}
	stmia	r3, {r0, r1}
	b	.L104
.L127:
	.loc 2 421 0
	ldr	r3, [sp, #36]
	add	r3, r3, #196
	ldr	r4, [sp, #36]
	add	r2, sp, #8
	mov	r0, r2
	mov	r1, r3
	bl	_ZNK6b2Vec2ngEv
	add	r3, r4, #212
	add	r2, sp, #8
	ldmia	r2, {r0, r1}
	stmia	r3, {r0, r1}
	.loc 2 422 0
	ldr	r3, [sp, #36]
	ldr	r2, [sp, #36]
	add	r3, r3, #228
	add	r2, r2, #196
	ldmia	r2, {r0, r1}
	stmia	r3, {r0, r1}
	.loc 2 423 0
	ldr	r3, [sp, #36]
	ldr	r2, [sp, #36]
	add	r3, r3, #236
	add	r2, r2, #196
	ldmia	r2, {r0, r1}
	stmia	r3, {r0, r1}
.L104:
	.loc 2 428 0
	ldr	r3, [sp, #352]
	ldr	r2, [r3, #148]
	ldr	r3, [sp, #36]
	str	r2, [r3, #128]
.LBB20:
	.loc 2 429 0
	mov	r3, #0
	str	r3, [sp, #296]
	b	.L128
.L129:
	.loc 2 431 0
	ldr	r5, [sp, #296]
	ldr	r3, [sp, #36]
	add	r2, r3, #132
	ldr	r3, [sp, #296]
	add	r3, r3, #2
	mov	r1, r3, asl #3
	ldr	r3, [sp, #352]
	add	r3, r1, r3
	add	r3, r3, #4
	ldr	r4, [sp, #36]
	add	r1, sp, #8
	mov	r0, r1
	mov	r1, r2
	mov	r2, r3
	bl	_Z5b2MulRK11b2TransformRK6b2Vec2
	mov	r3, r5, asl #3
	add	r3, r3, r4
	add	r2, sp, #8
	ldmia	r2, {r0, r1}
	stmia	r3, {r0, r1}
	.loc 2 432 0
	ldr	r1, [sp, #296]
	ldr	r3, [sp, #36]
	add	r2, r3, #140
	ldr	r3, [sp, #296]
	add	r3, r3, #10
	mov	r0, r3, asl #3
	ldr	r3, [sp, #352]
	add	r3, r0, r3
	add	r3, r3, #4
	ldr	r4, [sp, #36]
	add	r5, r1, #8
	add	r1, sp, #8
	mov	r0, r1
	mov	r1, r2
	mov	r2, r3
	bl	_Z5b2MulRK5b2RotRK6b2Vec2
	mov	r3, r5, asl #3
	add	r3, r3, r4
	add	r2, sp, #8
	ldmia	r2, {r0, r1}
	stmia	r3, {r0, r1}
	.loc 2 429 0
	ldr	r3, [sp, #296]
	add	r3, r3, #1
	str	r3, [sp, #296]
.L128:
	ldr	r3, [sp, #352]
	ldr	r2, [r3, #148]
	ldr	r3, [sp, #296]
	cmp	r2, r3
	movle	r3, #0
	movgt	r3, #1
	and	r3, r3, #255
	cmp	r3, #0
	bne	.L129
.LBE20:
	.loc 2 435 0
	ldr	r3, [sp, #36]
	flds	s15, .L171
	fsts	s15, [r3, #244]
	.loc 2 437 0
	ldr	r3, [sp, #32]
	mov	r2, #0
	str	r2, [r3, #60]
	.loc 2 439 0
	add	r3, sp, #208
	mov	r0, r3
	ldr	r1, [sp, #36]
	bl	_ZN12b2EPCollider21ComputeEdgeSeparationEv
	.loc 2 442 0
	ldr	r3, [sp, #208]
	cmp	r3, #0
	beq	.L164
.L130:
	.loc 2 447 0
	flds	s14, [sp, #216]
	ldr	r3, [sp, #36]
	flds	s15, [r3, #244]
	fcmpes	s14, s15
	fmstat
	movle	r3, #0
	movgt	r3, #1
	and	r3, r3, #255
	cmp	r3, #0
	bne	.L165
.L132:
	.loc 2 452 0
	add	r3, sp, #196
	mov	r0, r3
	ldr	r1, [sp, #36]
	bl	_ZN12b2EPCollider24ComputePolygonSeparationEv
	.loc 2 453 0
	ldr	r3, [sp, #196]
	cmp	r3, #0
	beq	.L133
	flds	s14, [sp, #204]
	ldr	r3, [sp, #36]
	flds	s15, [r3, #244]
	fcmpes	s14, s15
	fmstat
	movle	r3, #0
	movgt	r3, #1
	and	r3, r3, #255
	cmp	r3, #0
	bne	.L166
.L133:
	.loc 2 459 0
	flds	s15, .L171+4
	fsts	s15, [sp, #280]
	.loc 2 460 0
	flds	s15, .L171+8
	fsts	s15, [sp, #284]
	.loc 2 463 0
	ldr	r3, [sp, #196]
	cmp	r3, #0
	bne	.L134
	.loc 2 465 0
	add	r3, sp, #184
	add	r2, sp, #208
	ldmia	r2, {r0, r1, r2}
	stmia	r3, {r0, r1, r2}
	b	.L135
.L134:
	.loc 2 467 0
	flds	s14, [sp, #204]
	flds	s13, [sp, #216]
	flds	s15, .L171+4
	fmuls	s15, s13, s15
	flds	s13, .L171+8
	fadds	s15, s15, s13
	fcmpes	s14, s15
	fmstat
	movle	r3, #0
	movgt	r3, #1
	and	r3, r3, #255
	cmp	r3, #0
	beq	.L136
	.loc 2 469 0
	add	r3, sp, #184
	add	r2, sp, #196
	ldmia	r2, {r0, r1, r2}
	stmia	r3, {r0, r1, r2}
	b	.L135
.L136:
	.loc 2 473 0
	add	r3, sp, #184
	add	r2, sp, #208
	ldmia	r2, {r0, r1, r2}
	stmia	r3, {r0, r1, r2}
.L135:
	.loc 2 476 0
	add	r3, sp, #160
	mov	r5, r3
	mov	r4, #1
	b	.L137
.L138:
	mov	r0, r5
	bl	_ZN12b2ClipVertexC1Ev
	add	r5, r5, #12
	sub	r4, r4, #1
.L137:
	cmn	r4, #1
	moveq	r3, #0
	movne	r3, #1
	and	r3, r3, #255
	cmp	r3, #0
	bne	.L138
	.loc 2 477 0
	add	r3, sp, #40
	mov	r0, r3
	bl	_ZN15b2ReferenceFaceC1Ev
	.loc 2 478 0
	ldr	r3, [sp, #184]
	cmp	r3, #1
	bne	.L139
.LBB21:
	.loc 2 480 0
	ldr	r3, [sp, #32]
	mov	r2, #1
	str	r2, [r3, #56]
	.loc 2 483 0
	mov	r3, #0
	str	r3, [sp, #300]
	.loc 2 484 0
	ldr	r3, [sp, #36]
	add	r2, r3, #212
	ldr	r3, [sp, #36]
	add	r3, r3, #64
	mov	r0, r2
	mov	r1, r3
	bl	_Z5b2DotRK6b2Vec2S1_
	mov	r3, r0	@ float
	str	r3, [sp, #304]	@ float
.LBB22:
	.loc 2 485 0
	mov	r3, #1
	str	r3, [sp, #316]
	b	.L140
.L142:
.LBB23:
	.loc 2 487 0
	ldr	r3, [sp, #36]
	add	r2, r3, #212
	ldr	r3, [sp, #316]
	add	r3, r3, #8
	mov	r1, r3, asl #3
	ldr	r3, [sp, #36]
	add	r3, r1, r3
	mov	r0, r2
	mov	r1, r3
	bl	_Z5b2DotRK6b2Vec2S1_
	mov	r3, r0	@ float
	str	r3, [sp, #320]	@ float
	.loc 2 488 0
	flds	s14, [sp, #320]
	flds	s15, [sp, #304]
	fcmpes	s14, s15
	fmstat
	movpl	r3, #0
	movmi	r3, #1
	and	r3, r3, #255
	cmp	r3, #0
	beq	.L141
	.loc 2 490 0
	flds	s15, [sp, #320]
	fsts	s15, [sp, #304]
	.loc 2 491 0
	ldr	r3, [sp, #316]
	str	r3, [sp, #300]
.L141:
.LBE23:
	.loc 2 485 0
	ldr	r3, [sp, #316]
	add	r3, r3, #1
	str	r3, [sp, #316]
.L140:
	ldr	r3, [sp, #36]
	ldr	r2, [r3, #128]
	ldr	r3, [sp, #316]
	cmp	r2, r3
	movle	r3, #0
	movgt	r3, #1
	and	r3, r3, #255
	cmp	r3, #0
	bne	.L142
.LBE22:
	.loc 2 495 0
	ldr	r3, [sp, #300]
	str	r3, [sp, #308]
	.loc 2 496 0
	ldr	r3, [sp, #308]
	add	r2, r3, #1
	ldr	r3, [sp, #36]
	ldr	r3, [r3, #128]
	cmp	r2, r3
	bge	.L143
	ldr	r3, [sp, #308]
	add	r3, r3, #1
	b	.L144
.L143:
	mov	r3, #0
.L144:
	str	r3, [sp, #312]
	.loc 2 498 0
	ldr	r3, [sp, #308]
	ldr	r1, [sp, #36]
	add	r2, sp, #160
	mov	r3, r3, asl #3
	add	r3, r3, r1
	ldmia	r3, {r0, r1}
	stmia	r2, {r0, r1}
	.loc 2 499 0
	mov	r3, #0
	strb	r3, [sp, #168]
	.loc 2 500 0
	ldr	r3, [sp, #308]
	and	r3, r3, #255
	strb	r3, [sp, #169]
	.loc 2 501 0
	mov	r3, #1
	strb	r3, [sp, #170]
	.loc 2 502 0
	mov	r3, #0
	strb	r3, [sp, #171]
	.loc 2 504 0
	ldr	r3, [sp, #312]
	ldr	r1, [sp, #36]
	add	r2, sp, #172
	mov	r3, r3, asl #3
	add	r3, r3, r1
	ldmia	r3, {r0, r1}
	stmia	r2, {r0, r1}
	.loc 2 505 0
	mov	r3, #0
	strb	r3, [sp, #180]
	.loc 2 506 0
	ldr	r3, [sp, #312]
	and	r3, r3, #255
	strb	r3, [sp, #181]
	.loc 2 507 0
	mov	r3, #1
	strb	r3, [sp, #182]
	.loc 2 508 0
	mov	r3, #0
	strb	r3, [sp, #183]
	.loc 2 510 0
	ldr	r3, [sp, #36]
	ldrb	r3, [r3, #248]	@ zero_extendqisi2
	cmp	r3, #0
	beq	.L145
	.loc 2 512 0
	mov	r3, #0
	str	r3, [sp, #40]
	.loc 2 513 0
	mov	r3, #1
	str	r3, [sp, #44]
	.loc 2 514 0
	ldr	r2, [sp, #36]
	add	r3, sp, #48
	add	r2, r2, #164
	ldmia	r2, {r0, r1}
	stmia	r3, {r0, r1}
	.loc 2 515 0
	ldr	r2, [sp, #36]
	add	r3, sp, #56
	add	r2, r2, #172
	ldmia	r2, {r0, r1}
	stmia	r3, {r0, r1}
	.loc 2 516 0
	ldr	r2, [sp, #36]
	add	r3, sp, #64
	add	r2, r2, #196
	ldmia	r2, {r0, r1}
	stmia	r3, {r0, r1}
	.loc 2 524 0
	b	.L147
.L172:
	.align	2
.L171:
	.word	1017370378
	.word	1065017672
	.word	981668463
.L145:
	.loc 2 520 0
	mov	r3, #1
	str	r3, [sp, #40]
	.loc 2 521 0
	mov	r3, #0
	str	r3, [sp, #44]
	.loc 2 522 0
	ldr	r2, [sp, #36]
	add	r3, sp, #48
	add	r2, r2, #172
	ldmia	r2, {r0, r1}
	stmia	r3, {r0, r1}
	.loc 2 523 0
	ldr	r2, [sp, #36]
	add	r3, sp, #56
	add	r2, r2, #164
	ldmia	r2, {r0, r1}
	stmia	r3, {r0, r1}
	.loc 2 524 0
	ldr	r3, [sp, #36]
	add	r3, r3, #196
	add	r2, sp, #8
	mov	r0, r2
	mov	r1, r3
	bl	_ZNK6b2Vec2ngEv
	add	r3, sp, #64
	add	r2, sp, #8
	ldmia	r2, {r0, r1}
	stmia	r3, {r0, r1}
	b	.L147
.L139:
.LBE21:
	.loc 2 529 0
	ldr	r3, [sp, #32]
	mov	r2, #2
	str	r2, [r3, #56]
	.loc 2 531 0
	ldr	r2, [sp, #36]
	add	r3, sp, #160
	add	r2, r2, #164
	ldmia	r2, {r0, r1}
	stmia	r3, {r0, r1}
	.loc 2 532 0
	mov	r3, #0
	strb	r3, [sp, #168]
	.loc 2 533 0
	ldr	r3, [sp, #188]
	and	r3, r3, #255
	strb	r3, [sp, #169]
	.loc 2 534 0
	mov	r3, #0
	strb	r3, [sp, #170]
	.loc 2 535 0
	mov	r3, #1
	strb	r3, [sp, #171]
	.loc 2 537 0
	ldr	r2, [sp, #36]
	add	r3, sp, #172
	add	r2, r2, #172
	ldmia	r2, {r0, r1}
	stmia	r3, {r0, r1}
	.loc 2 538 0
	mov	r3, #0
	strb	r3, [sp, #180]
	.loc 2 539 0
	ldr	r3, [sp, #188]
	and	r3, r3, #255
	strb	r3, [sp, #181]
	.loc 2 540 0
	mov	r3, #0
	strb	r3, [sp, #182]
	.loc 2 541 0
	mov	r3, #1
	strb	r3, [sp, #183]
	.loc 2 543 0
	ldr	r3, [sp, #188]
	str	r3, [sp, #40]
	.loc 2 544 0
	ldr	r3, [sp, #40]
	add	r2, r3, #1
	ldr	r3, [sp, #36]
	ldr	r3, [r3, #128]
	cmp	r2, r3
	bge	.L148
	ldr	r3, [sp, #40]
	add	r3, r3, #1
	b	.L149
.L148:
	mov	r3, #0
.L149:
	str	r3, [sp, #44]
	.loc 2 545 0
	ldr	r3, [sp, #40]
	ldr	r1, [sp, #36]
	add	r2, sp, #48
	mov	r3, r3, asl #3
	add	r3, r3, r1
	ldmia	r3, {r0, r1}
	stmia	r2, {r0, r1}
	.loc 2 546 0
	ldr	r3, [sp, #44]
	ldr	r1, [sp, #36]
	add	r2, sp, #56
	mov	r3, r3, asl #3
	add	r3, r3, r1
	ldmia	r3, {r0, r1}
	stmia	r2, {r0, r1}
	.loc 2 547 0
	ldr	r3, [sp, #40]
	ldr	r1, [sp, #36]
	add	r3, r3, #8
	add	r2, sp, #64
	mov	r3, r3, asl #3
	add	r3, r3, r1
	ldmia	r3, {r0, r1}
	stmia	r2, {r0, r1}
.L147:
	.loc 2 550 0
	ldr	r3, [sp, #68]	@ float
	flds	s15, [sp, #64]
	fnegs	s15, s15
	add	r2, sp, #40
	add	r2, r2, #32
	mov	r0, r2
	mov	r1, r3	@ float
	fmrs	r2, s15
	bl	_ZN6b2Vec23SetEff
	.loc 2 551 0
	add	r2, sp, #8
	add	r3, sp, #40
	add	r3, r3, #32
	mov	r0, r2
	mov	r1, r3
	bl	_ZNK6b2Vec2ngEv
	add	r3, sp, #84
	add	r2, sp, #8
	ldmia	r2, {r0, r1}
	stmia	r3, {r0, r1}
	.loc 2 552 0
	add	r3, sp, #40
	add	r2, r3, #32
	add	r3, sp, #40
	add	r3, r3, #8
	mov	r0, r2
	mov	r1, r3
	bl	_Z5b2DotRK6b2Vec2S1_
	mov	r3, r0	@ float
	str	r3, [sp, #80]	@ float
	.loc 2 553 0
	add	r3, sp, #40
	add	r2, r3, #44
	add	r3, sp, #40
	add	r3, r3, #16
	mov	r0, r2
	mov	r1, r3
	bl	_Z5b2DotRK6b2Vec2S1_
	mov	r3, r0	@ float
	str	r3, [sp, #92]	@ float
	.loc 2 556 0
	add	r3, sp, #136
	mov	r5, r3
	mov	r4, #1
	b	.L150
.L151:
	mov	r0, r5
	bl	_ZN12b2ClipVertexC1Ev
	add	r5, r5, #12
	sub	r4, r4, #1
.L150:
	cmn	r4, #1
	moveq	r3, #0
	movne	r3, #1
	and	r3, r3, #255
	cmp	r3, #0
	bne	.L151
	.loc 2 557 0
	add	r3, sp, #112
	mov	r5, r3
	mov	r4, #1
	b	.L152
.L153:
	mov	r0, r5
	bl	_ZN12b2ClipVertexC1Ev
	add	r5, r5, #12
	sub	r4, r4, #1
.L152:
	cmn	r4, #1
	moveq	r3, #0
	movne	r3, #1
	and	r3, r3, #255
	cmp	r3, #0
	bne	.L153
	.loc 2 561 0
	ldr	r3, [sp, #80]	@ float
	ldr	ip, [sp, #40]
	add	r0, sp, #136
	add	r1, sp, #160
	add	r2, sp, #40
	add	r2, r2, #32
	str	ip, [sp, #0]
	bl	_Z19b2ClipSegmentToLineP12b2ClipVertexPKS_RK6b2Vec2fi
	mov	r3, r0
	str	r3, [sp, #288]
	.loc 2 563 0
	ldr	r3, [sp, #288]
	cmp	r3, #1
	ble	.L167
.L154:
	.loc 2 569 0
	ldr	r3, [sp, #92]	@ float
	ldr	ip, [sp, #44]
	add	r0, sp, #112
	add	r1, sp, #136
	add	r2, sp, #40
	add	r2, r2, #44
	str	ip, [sp, #0]
	bl	_Z19b2ClipSegmentToLineP12b2ClipVertexPKS_RK6b2Vec2fi
	mov	r3, r0
	str	r3, [sp, #288]
	.loc 2 571 0
	ldr	r3, [sp, #288]
	cmp	r3, #1
	ble	.L168
.L155:
	.loc 2 577 0
	ldr	r3, [sp, #184]
	cmp	r3, #1
	bne	.L156
	.loc 2 579 0
	ldr	r3, [sp, #32]
	add	r3, r3, #40
	add	r2, sp, #64
	ldmia	r2, {r0, r1}
	stmia	r3, {r0, r1}
	.loc 2 580 0
	ldr	r3, [sp, #32]
	add	r3, r3, #48
	add	r2, sp, #48
	ldmia	r2, {r0, r1}
	stmia	r3, {r0, r1}
	b	.L157
.L156:
	.loc 2 584 0
	ldr	r2, [sp, #40]
	ldr	r3, [sp, #32]
	ldr	r1, [sp, #352]
	add	r0, r2, #10
	mov	r2, #4
	mov	r0, r0, asl #3
	add	r1, r0, r1
	add	r2, r1, r2
	add	r3, r3, #40
	ldmia	r2, {r0, r1}
	stmia	r3, {r0, r1}
	.loc 2 585 0
	ldr	r2, [sp, #40]
	ldr	r3, [sp, #32]
	ldr	r1, [sp, #352]
	add	r0, r2, #2
	mov	r2, #4
	mov	r0, r0, asl #3
	add	r1, r0, r1
	add	r2, r1, r2
	add	r3, r3, #48
	ldmia	r2, {r0, r1}
	stmia	r3, {r0, r1}
.L157:
	.loc 2 588 0
	mov	r3, #0
	str	r3, [sp, #292]
.LBB24:
	.loc 2 589 0
	mov	r3, #0
	str	r3, [sp, #324]
	b	.L158
.L162:
.LBB25:
	.loc 2 593 0
	ldr	r2, [sp, #324]
	add	r1, sp, #112
	mov	r3, r2
	mov	r3, r3, asl #1
	add	r3, r3, r2
	mov	r3, r3, asl #2
	add	r2, r1, r3
	add	r1, sp, #252
	add	r3, sp, #40
	add	r3, r3, #8
	mov	r0, r1
	mov	r1, r2
	mov	r2, r3
	bl	_ZmiRK6b2Vec2S1_
	add	r3, sp, #40
	add	r2, r3, #24
	add	r3, sp, #252
	mov	r0, r2
	mov	r1, r3
	bl	_Z5b2DotRK6b2Vec2S1_
	mov	r3, r0	@ float
	str	r3, [sp, #328]	@ float
	.loc 2 595 0
	ldr	r3, [sp, #36]
	flds	s14, [r3, #244]
	flds	s15, [sp, #328]
	fcmpes	s14, s15
	fmstat
	movlt	r3, #0
	movge	r3, #1
	and	r3, r3, #255
	cmp	r3, #0
	beq	.L159
.LBB26:
	.loc 2 597 0
	ldr	r1, [sp, #32]
	ldr	r2, [sp, #292]
	mov	r3, r2
	mov	r3, r3, asl #2
	add	r3, r3, r2
	mov	r3, r3, asl #2
	add	r3, r1, r3
	str	r3, [sp, #332]
	.loc 2 599 0
	ldr	r3, [sp, #184]
	cmp	r3, #1
	bne	.L160
	.loc 2 601 0
	ldr	r3, [sp, #36]
	add	r1, r3, #132
	ldr	r2, [sp, #324]
	add	r0, sp, #112
	mov	r3, r2
	mov	r3, r3, asl #1
	add	r3, r3, r2
	mov	r3, r3, asl #2
	add	r3, r0, r3
	ldr	r4, [sp, #332]
	add	r2, sp, #8
	mov	r0, r2
	mov	r2, r3
	bl	_Z6b2MulTRK11b2TransformRK6b2Vec2
	mov	r3, r4
	add	r2, sp, #8
	ldmia	r2, {r0, r1}
	stmia	r3, {r0, r1}
	.loc 2 602 0
	ldr	r2, [sp, #324]
	ldr	r1, [sp, #332]
	mvn	r0, #215
	mov	r3, r2
	mov	r3, r3, asl #1
	add	r3, r3, r2
	mov	r3, r3, asl #2
	add	r2, sp, #336
	add	r3, r3, r2
	add	r3, r3, r0
	ldr	r3, [r3, #0]
	str	r3, [r1, #16]
	b	.L161
.L160:
	.loc 2 606 0
	ldr	r2, [sp, #324]
	ldr	r1, [sp, #332]
	mvn	r0, #223
	mov	r3, r2
	mov	r3, r3, asl #1
	add	r3, r3, r2
	mov	r3, r3, asl #2
	add	r2, sp, #336
	add	r3, r3, r2
	add	r2, r3, r0
	mov	r3, r1
	ldmia	r2, {r0, r1}
	stmia	r3, {r0, r1}
	.loc 2 607 0
	ldr	r2, [sp, #324]
	mvn	r1, #215
	mov	r3, r2
	mov	r3, r3, asl #1
	add	r3, r3, r2
	mov	r3, r3, asl #2
	add	r2, sp, #336
	add	r3, r3, r2
	add	r3, r3, r1
	ldrb	r2, [r3, #3]	@ zero_extendqisi2
	ldr	r3, [sp, #332]
	strb	r2, [r3, #18]
	.loc 2 608 0
	ldr	r2, [sp, #324]
	mvn	r1, #215
	mov	r3, r2
	mov	r3, r3, asl #1
	add	r3, r3, r2
	mov	r3, r3, asl #2
	add	r2, sp, #336
	add	r3, r3, r2
	add	r3, r3, r1
	ldrb	r2, [r3, #2]	@ zero_extendqisi2
	ldr	r3, [sp, #332]
	strb	r2, [r3, #19]
	.loc 2 609 0
	ldr	r2, [sp, #324]
	mvn	r1, #215
	mov	r3, r2
	mov	r3, r3, asl #1
	add	r3, r3, r2
	mov	r3, r3, asl #2
	add	r2, sp, #336
	add	r3, r3, r2
	add	r3, r3, r1
	ldrb	r2, [r3, #1]	@ zero_extendqisi2
	ldr	r3, [sp, #332]
	strb	r2, [r3, #16]
	.loc 2 610 0
	ldr	r2, [sp, #324]
	mvn	r1, #215
	mov	r3, r2
	mov	r3, r3, asl #1
	add	r3, r3, r2
	mov	r3, r3, asl #2
	add	r2, sp, #336
	add	r3, r3, r2
	add	r3, r3, r1
	ldrb	r2, [r3, #0]	@ zero_extendqisi2
	ldr	r3, [sp, #332]
	strb	r2, [r3, #17]
.L161:
	.loc 2 613 0
	ldr	r3, [sp, #292]
	add	r3, r3, #1
	str	r3, [sp, #292]
.L159:
.LBE26:
.LBE25:
	.loc 2 589 0
	ldr	r3, [sp, #324]
	add	r3, r3, #1
	str	r3, [sp, #324]
.L158:
	ldr	r3, [sp, #324]
	cmp	r3, #1
	movgt	r3, #0
	movle	r3, #1
	and	r3, r3, #255
	cmp	r3, #0
	bne	.L162
.LBE24:
	.loc 2 617 0
	ldr	r3, [sp, #32]
	ldr	r2, [sp, #292]
	str	r2, [r3, #60]
	b	.L163
.L164:
	.loc 2 444 0
	mov	r0, r0	@ nop
	b	.L163
.L165:
	.loc 2 449 0
	mov	r0, r0	@ nop
	b	.L163
.L166:
	.loc 2 455 0
	mov	r0, r0	@ nop
	b	.L163
.L167:
	.loc 2 565 0
	mov	r0, r0	@ nop
	b	.L163
.L168:
	.loc 2 573 0
	mov	r0, r0	@ nop
.L163:
.LBE17:
	.loc 2 618 0
	add	sp, sp, #340
	ldmfd	sp!, {r4, r5, pc}
	.cfi_endproc
.LFE150:
	.size	_ZN12b2EPCollider7CollideEP10b2ManifoldPK11b2EdgeShapeRK11b2TransformPK14b2PolygonShapeS7_, .-_ZN12b2EPCollider7CollideEP10b2ManifoldPK11b2EdgeShapeRK11b2TransformPK14b2PolygonShapeS7_
	.section	.text._ZN12b2EPCollider21ComputeEdgeSeparationEv,"ax",%progbits
	.align	2
	.global	_ZN12b2EPCollider21ComputeEdgeSeparationEv
	.hidden	_ZN12b2EPCollider21ComputeEdgeSeparationEv
	.type	_ZN12b2EPCollider21ComputeEdgeSeparationEv, %function
_ZN12b2EPCollider21ComputeEdgeSeparationEv:
.LFB157:
	.loc 2 621 0
	.cfi_startproc
	@ args = 0, pretend = 0, frame = 40
	@ frame_needed = 0, uses_anonymous_args = 0
	stmfd	sp!, {r4, r5, lr}
.LCFI42:
	.cfi_def_cfa_offset 12
	sub	sp, sp, #44
.LCFI43:
	.cfi_def_cfa_offset 56
	mov	r4, r0
	.cfi_offset 14, -4
	.cfi_offset 5, -8
	.cfi_offset 4, -12
	str	r1, [sp, #4]
.LBB27:
	.loc 2 623 0
	mov	r3, #1
	str	r3, [r4, #0]
	.loc 2 624 0
	ldr	r3, [sp, #4]
	ldrb	r3, [r3, #248]	@ zero_extendqisi2
	cmp	r3, #0
	beq	.L174
	mov	r3, #0
	b	.L175
.L174:
	mov	r3, #1
.L175:
	str	r3, [r4, #4]
	.loc 2 625 0
	flds	s15, .L180
	fsts	s15, [r4, #8]
.LBB28:
	.loc 2 627 0
	mov	r3, #0
	str	r3, [sp, #32]
	b	.L176
.L178:
.LBB29:
	.loc 2 629 0
	ldr	r3, [sp, #4]
	add	r5, r3, #212
	ldr	r3, [sp, #32]
	mov	r2, r3, asl #3
	ldr	r3, [sp, #4]
	add	r2, r2, r3
	ldr	r3, [sp, #4]
	add	r3, r3, #164
	add	r1, sp, #24
	mov	r0, r1
	mov	r1, r2
	mov	r2, r3
	bl	_ZmiRK6b2Vec2S1_
	add	r3, sp, #24
	mov	r0, r5
	mov	r1, r3
	bl	_Z5b2DotRK6b2Vec2S1_
	mov	r3, r0	@ float
	str	r3, [sp, #36]	@ float
	.loc 2 630 0
	flds	s14, [r4, #8]
	flds	s15, [sp, #36]
	fcmpes	s14, s15
	fmstat
	movle	r3, #0
	movgt	r3, #1
	and	r3, r3, #255
	cmp	r3, #0
	beq	.L177
	.loc 2 632 0
	flds	s15, [sp, #36]
	fsts	s15, [r4, #8]
.L177:
.LBE29:
	.loc 2 627 0
	ldr	r3, [sp, #32]
	add	r3, r3, #1
	str	r3, [sp, #32]
.L176:
	ldr	r3, [sp, #4]
	ldr	r2, [r3, #128]
	ldr	r3, [sp, #32]
	cmp	r2, r3
	movle	r3, #0
	movgt	r3, #1
	and	r3, r3, #255
	cmp	r3, #0
	bne	.L178
.LBE28:
.LBE27:
	.loc 2 637 0
	mov	r0, r4
	add	sp, sp, #44
	ldmfd	sp!, {r4, r5, pc}
.L181:
	.align	2
.L180:
	.word	2139095039
	.cfi_endproc
.LFE157:
	.size	_ZN12b2EPCollider21ComputeEdgeSeparationEv, .-_ZN12b2EPCollider21ComputeEdgeSeparationEv
	.section	.text._ZN12b2EPCollider24ComputePolygonSeparationEv,"ax",%progbits
	.align	2
	.global	_ZN12b2EPCollider24ComputePolygonSeparationEv
	.hidden	_ZN12b2EPCollider24ComputePolygonSeparationEv
	.type	_ZN12b2EPCollider24ComputePolygonSeparationEv, %function
_ZN12b2EPCollider24ComputePolygonSeparationEv:
.LFB158:
	.loc 2 640 0
	.cfi_startproc
	@ args = 0, pretend = 0, frame = 88
	@ frame_needed = 0, uses_anonymous_args = 0
	stmfd	sp!, {r4, lr}
.LCFI44:
	.cfi_def_cfa_offset 8
	sub	sp, sp, #88
.LCFI45:
	.cfi_def_cfa_offset 96
	mov	r4, r0
	.cfi_offset 14, -4
	.cfi_offset 4, -8
	str	r1, [sp, #4]
.LBB30:
	.loc 2 642 0
	mov	r3, #0
	str	r3, [r4, #0]
	.loc 2 643 0
	mvn	r3, #0
	str	r3, [r4, #4]
	.loc 2 644 0
	flds	s15, .L194
	fsts	s15, [r4, #8]
	.loc 2 646 0
	ldr	r3, [sp, #4]
	flds	s15, [r3, #216]
	fnegs	s15, s15
	ldr	r3, [sp, #4]
	ldr	r3, [r3, #212]	@ float
	add	r2, sp, #20
	mov	r0, r2
	fmrs	r1, s15
	mov	r2, r3	@ float
	bl	_ZN6b2Vec2C1Eff
.LBB31:
	.loc 2 648 0
	mov	r3, #0
	str	r3, [sp, #72]
	b	.L183
.L190:
.LBB32:
	.loc 2 650 0
	ldr	r3, [sp, #72]
	add	r3, r3, #8
	mov	r2, r3, asl #3
	ldr	r3, [sp, #4]
	add	r3, r2, r3
	add	r2, sp, #12
	mov	r0, r2
	mov	r1, r3
	bl	_ZNK6b2Vec2ngEv
	.loc 2 652 0
	ldr	r3, [sp, #72]
	mov	r2, r3, asl #3
	ldr	r3, [sp, #4]
	add	r2, r2, r3
	ldr	r3, [sp, #4]
	add	r3, r3, #164
	add	r1, sp, #40
	mov	r0, r1
	mov	r1, r2
	mov	r2, r3
	bl	_ZmiRK6b2Vec2S1_
	add	r2, sp, #12
	add	r3, sp, #40
	mov	r0, r2
	mov	r1, r3
	bl	_Z5b2DotRK6b2Vec2S1_
	mov	r3, r0	@ float
	str	r3, [sp, #76]	@ float
	.loc 2 653 0
	ldr	r3, [sp, #72]
	mov	r2, r3, asl #3
	ldr	r3, [sp, #4]
	add	r2, r2, r3
	ldr	r3, [sp, #4]
	add	r3, r3, #172
	add	r1, sp, #48
	mov	r0, r1
	mov	r1, r2
	mov	r2, r3
	bl	_ZmiRK6b2Vec2S1_
	add	r2, sp, #12
	add	r3, sp, #48
	mov	r0, r2
	mov	r1, r3
	bl	_Z5b2DotRK6b2Vec2S1_
	mov	r3, r0	@ float
	str	r3, [sp, #80]	@ float
	.loc 2 654 0
	ldr	r0, [sp, #76]	@ float
	ldr	r1, [sp, #80]	@ float
	bl	_Z5b2MinIfET_S0_S0_
	mov	r3, r0	@ float
	str	r3, [sp, #84]	@ float
	.loc 2 656 0
	ldr	r3, [sp, #4]
	flds	s14, [r3, #244]
	flds	s15, [sp, #84]
	fcmpes	s14, s15
	fmstat
	movpl	r3, #0
	movmi	r3, #1
	and	r3, r3, #255
	cmp	r3, #0
	beq	.L184
	.loc 2 659 0
	mov	r3, #2
	str	r3, [r4, #0]
	.loc 2 660 0
	ldr	r3, [sp, #72]
	str	r3, [r4, #4]
	.loc 2 661 0
	flds	s15, [sp, #84]
	fsts	s15, [r4, #8]
	.loc 2 662 0
	b	.L182
.L184:
	.loc 2 666 0
	add	r2, sp, #12
	add	r3, sp, #20
	mov	r0, r2
	mov	r1, r3
	bl	_Z5b2DotRK6b2Vec2S1_
	fmsr	s15, r0
	fcmpezs	s15
	fmstat
	movlt	r3, #0
	movge	r3, #1
	and	r3, r3, #255
	cmp	r3, #0
	beq	.L186
	.loc 2 668 0
	ldr	r3, [sp, #4]
	add	r3, r3, #236
	add	r1, sp, #56
	add	r2, sp, #12
	mov	r0, r1
	mov	r1, r2
	mov	r2, r3
	bl	_ZmiRK6b2Vec2S1_
	ldr	r3, [sp, #4]
	add	r3, r3, #212
	add	r2, sp, #56
	mov	r0, r2
	mov	r1, r3
	bl	_Z5b2DotRK6b2Vec2S1_
	fmsr	s14, r0
	flds	s15, .L194+4
	fcmpes	s14, s15
	fmstat
	movpl	r3, #0
	movmi	r3, #1
	and	r3, r3, #255
	cmp	r3, #0
	beq	.L192
	.loc 2 670 0
	b	.L188
.L186:
	.loc 2 675 0
	ldr	r3, [sp, #4]
	add	r3, r3, #228
	add	r1, sp, #64
	add	r2, sp, #12
	mov	r0, r1
	mov	r1, r2
	mov	r2, r3
	bl	_ZmiRK6b2Vec2S1_
	ldr	r3, [sp, #4]
	add	r3, r3, #212
	add	r2, sp, #64
	mov	r0, r2
	mov	r1, r3
	bl	_Z5b2DotRK6b2Vec2S1_
	fmsr	s14, r0
	flds	s15, .L194+4
	fcmpes	s14, s15
	fmstat
	movpl	r3, #0
	movmi	r3, #1
	and	r3, r3, #255
	cmp	r3, #0
	bne	.L193
	b	.L189
.L192:
	.loc 2 670 0
	mov	r0, r0	@ nop
.L189:
	.loc 2 681 0
	flds	s14, [r4, #8]
	flds	s15, [sp, #84]
	fcmpes	s14, s15
	fmstat
	movpl	r3, #0
	movmi	r3, #1
	and	r3, r3, #255
	cmp	r3, #0
	beq	.L188
	.loc 2 683 0
	mov	r3, #2
	str	r3, [r4, #0]
	.loc 2 684 0
	ldr	r3, [sp, #72]
	str	r3, [r4, #4]
	.loc 2 685 0
	flds	s15, [sp, #84]
	fsts	s15, [r4, #8]
	b	.L188
.L193:
	.loc 2 677 0
	mov	r0, r0	@ nop
.L188:
.LBE32:
	.loc 2 648 0
	ldr	r3, [sp, #72]
	add	r3, r3, #1
	str	r3, [sp, #72]
.L183:
	ldr	r3, [sp, #4]
	ldr	r2, [r3, #128]
	ldr	r3, [sp, #72]
	cmp	r2, r3
	movle	r3, #0
	movgt	r3, #1
	and	r3, r3, #255
	cmp	r3, #0
	bne	.L190
.LBE31:
	.loc 2 689 0
	mov	r0, r0	@ nop
.L182:
.LBE30:
	.loc 2 690 0
	mov	r0, r4
	add	sp, sp, #88
	ldmfd	sp!, {r4, pc}
.L195:
	.align	2
.L194:
	.word	-8388609
	.word	-1123091914
	.cfi_endproc
.LFE158:
	.size	_ZN12b2EPCollider24ComputePolygonSeparationEv, .-_ZN12b2EPCollider24ComputePolygonSeparationEv
	.section	.text._ZN13b2TempPolygonC1Ev,"axG",%progbits,_ZN13b2TempPolygonC1Ev,comdat
	.align	2
	.weak	_ZN13b2TempPolygonC1Ev
	.hidden	_ZN13b2TempPolygonC1Ev
	.type	_ZN13b2TempPolygonC1Ev, %function
_ZN13b2TempPolygonC1Ev:
.LFB163:
	.loc 2 171 0
	.cfi_startproc
	@ args = 0, pretend = 0, frame = 8
	@ frame_needed = 0, uses_anonymous_args = 0
	stmfd	sp!, {r4, r5, lr}
.LCFI46:
	.cfi_def_cfa_offset 12
	sub	sp, sp, #12
.LCFI47:
	.cfi_def_cfa_offset 24
	str	r0, [sp, #4]
	.loc 2 171 0
	ldr	r3, [sp, #4]
	mov	r5, r3
	.cfi_offset 14, -4
	.cfi_offset 5, -8
	.cfi_offset 4, -12
	mov	r4, #7
	b	.L197
.L198:
	mov	r0, r5
	bl	_ZN6b2Vec2C1Ev
	add	r5, r5, #8
	sub	r4, r4, #1
.L197:
	cmn	r4, #1
	moveq	r3, #0
	movne	r3, #1
	and	r3, r3, #255
	cmp	r3, #0
	bne	.L198
	ldr	r3, [sp, #4]
	add	r3, r3, #64
	mov	r5, r3
	mov	r4, #7
	b	.L199
.L200:
	mov	r0, r5
	bl	_ZN6b2Vec2C1Ev
	add	r5, r5, #8
	sub	r4, r4, #1
.L199:
	cmn	r4, #1
	moveq	r3, #0
	movne	r3, #1
	and	r3, r3, #255
	cmp	r3, #0
	bne	.L200
	ldr	r3, [sp, #4]
	mov	r0, r3
	add	sp, sp, #12
	ldmfd	sp!, {r4, r5, pc}
	.cfi_endproc
.LFE163:
	.size	_ZN13b2TempPolygonC1Ev, .-_ZN13b2TempPolygonC1Ev
	.section	.text._ZN12b2EPColliderC1Ev,"axG",%progbits,_ZN12b2EPColliderC1Ev,comdat
	.align	2
	.weak	_ZN12b2EPColliderC1Ev
	.hidden	_ZN12b2EPColliderC1Ev
	.type	_ZN12b2EPColliderC1Ev, %function
_ZN12b2EPColliderC1Ev:
.LFB165:
	.loc 2 195 0
	.cfi_startproc
	@ args = 0, pretend = 0, frame = 8
	@ frame_needed = 0, uses_anonymous_args = 0
	str	lr, [sp, #-4]!
.LCFI48:
	.cfi_def_cfa_offset 4
	sub	sp, sp, #12
.LCFI49:
	.cfi_def_cfa_offset 16
	str	r0, [sp, #4]
	.loc 2 195 0
	ldr	r3, [sp, #4]
	mov	r0, r3
	.cfi_offset 14, -4
	bl	_ZN13b2TempPolygonC1Ev
	ldr	r3, [sp, #4]
	add	r3, r3, #132
	mov	r0, r3
	bl	_ZN11b2TransformC1Ev
	ldr	r3, [sp, #4]
	add	r3, r3, #148
	mov	r0, r3
	bl	_ZN6b2Vec2C1Ev
	ldr	r3, [sp, #4]
	add	r3, r3, #156
	mov	r0, r3
	bl	_ZN6b2Vec2C1Ev
	ldr	r3, [sp, #4]
	add	r3, r3, #164
	mov	r0, r3
	bl	_ZN6b2Vec2C1Ev
	ldr	r3, [sp, #4]
	add	r3, r3, #172
	mov	r0, r3
	bl	_ZN6b2Vec2C1Ev
	ldr	r3, [sp, #4]
	add	r3, r3, #180
	mov	r0, r3
	bl	_ZN6b2Vec2C1Ev
	ldr	r3, [sp, #4]
	add	r3, r3, #188
	mov	r0, r3
	bl	_ZN6b2Vec2C1Ev
	ldr	r3, [sp, #4]
	add	r3, r3, #196
	mov	r0, r3
	bl	_ZN6b2Vec2C1Ev
	ldr	r3, [sp, #4]
	add	r3, r3, #204
	mov	r0, r3
	bl	_ZN6b2Vec2C1Ev
	ldr	r3, [sp, #4]
	add	r3, r3, #212
	mov	r0, r3
	bl	_ZN6b2Vec2C1Ev
	ldr	r3, [sp, #4]
	add	r3, r3, #228
	mov	r0, r3
	bl	_ZN6b2Vec2C1Ev
	ldr	r3, [sp, #4]
	add	r3, r3, #236
	mov	r0, r3
	bl	_ZN6b2Vec2C1Ev
	ldr	r3, [sp, #4]
	mov	r0, r3
	add	sp, sp, #12
	ldmfd	sp!, {pc}
	.cfi_endproc
.LFE165:
	.size	_ZN12b2EPColliderC1Ev, .-_ZN12b2EPColliderC1Ev
	.section	.text._Z23b2CollideEdgeAndPolygonP10b2ManifoldPK11b2EdgeShapeRK11b2TransformPK14b2PolygonShapeS6_,"ax",%progbits
	.align	2
	.global	_Z23b2CollideEdgeAndPolygonP10b2ManifoldPK11b2EdgeShapeRK11b2TransformPK14b2PolygonShapeS6_
	.hidden	_Z23b2CollideEdgeAndPolygonP10b2ManifoldPK11b2EdgeShapeRK11b2TransformPK14b2PolygonShapeS6_
	.type	_Z23b2CollideEdgeAndPolygonP10b2ManifoldPK11b2EdgeShapeRK11b2TransformPK14b2PolygonShapeS6_, %function
_Z23b2CollideEdgeAndPolygonP10b2ManifoldPK11b2EdgeShapeRK11b2TransformPK14b2PolygonShapeS6_:
.LFB159:
	.loc 2 695 0
	.cfi_startproc
	@ args = 4, pretend = 0, frame = 272
	@ frame_needed = 0, uses_anonymous_args = 0
	str	lr, [sp, #-4]!
.LCFI50:
	.cfi_def_cfa_offset 4
	sub	sp, sp, #284
.LCFI51:
	.cfi_def_cfa_offset 288
	str	r0, [sp, #20]
	str	r1, [sp, #16]
	str	r2, [sp, #12]
	str	r3, [sp, #8]
.LBB33:
	.loc 2 696 0
	add	r3, sp, #28
	mov	r0, r3
	.cfi_offset 14, -4
	bl	_ZN12b2EPColliderC1Ev
	.loc 2 697 0
	add	r3, sp, #28
	ldr	r2, [sp, #8]
	str	r2, [sp, #0]
	ldr	r2, [sp, #288]
	str	r2, [sp, #4]
	mov	r0, r3
	ldr	r1, [sp, #20]
	ldr	r2, [sp, #16]
	ldr	r3, [sp, #12]
	bl	_ZN12b2EPCollider7CollideEP10b2ManifoldPK11b2EdgeShapeRK11b2TransformPK14b2PolygonShapeS7_
.LBE33:
	.loc 2 698 0
	add	sp, sp, #284
	ldmfd	sp!, {pc}
	.cfi_endproc
.LFE159:
	.size	_Z23b2CollideEdgeAndPolygonP10b2ManifoldPK11b2EdgeShapeRK11b2TransformPK14b2PolygonShapeS6_, .-_Z23b2CollideEdgeAndPolygonP10b2ManifoldPK11b2EdgeShapeRK11b2TransformPK14b2PolygonShapeS6_
	.section	.text._Z5b2MinIfET_S0_S0_,"axG",%progbits,_Z5b2MinIfET_S0_S0_,comdat
	.align	2
	.weak	_Z5b2MinIfET_S0_S0_
	.hidden	_Z5b2MinIfET_S0_S0_
	.type	_Z5b2MinIfET_S0_S0_, %function
_Z5b2MinIfET_S0_S0_:
.LFB167:
	.loc 1 632 0
	.cfi_startproc
	@ args = 0, pretend = 0, frame = 8
	@ frame_needed = 0, uses_anonymous_args = 0
	@ link register save eliminated.
	sub	sp, sp, #8
.LCFI52:
	.cfi_def_cfa_offset 8
	str	r0, [sp, #4]	@ float
	str	r1, [sp, #0]	@ float
	.loc 1 634 0
	flds	s14, [sp, #4]
	flds	s15, [sp, #0]
	fcmpes	s14, s15
	fmstat
	movpl	r3, #0
	movmi	r3, #1
	and	r3, r3, #255
	cmp	r3, #0
	beq	.L209
	flds	s15, [sp, #4]
	b	.L210
.L209:
	flds	s15, [sp, #0]
.L210:
	fmrs	r3, s15
	.loc 1 635 0
	mov	r0, r3	@ float
	add	sp, sp, #8
	bx	lr
	.cfi_endproc
.LFE167:
	.size	_Z5b2MinIfET_S0_S0_, .-_Z5b2MinIfET_S0_S0_
	.section	.rodata
	.type	_ZL14b2_nullFeature, %object
	.size	_ZL14b2_nullFeature, 1
_ZL14b2_nullFeature:
	.byte	-1
	.align	2
	.type	_ZL12b2_chunkSize, %object
	.size	_ZL12b2_chunkSize, 4
_ZL12b2_chunkSize:
	.word	16384
	.align	2
	.type	_ZL15b2_maxBlockSize, %object
	.size	_ZL15b2_maxBlockSize, 4
_ZL15b2_maxBlockSize:
	.word	640
	.align	2
	.type	_ZL13b2_blockSizes, %object
	.size	_ZL13b2_blockSizes, 4
_ZL13b2_blockSizes:
	.word	14
	.align	2
	.type	_ZL22b2_chunkArrayIncrement, %object
	.size	_ZL22b2_chunkArrayIncrement, 4
_ZL22b2_chunkArrayIncrement:
	.word	128
	.text
.Letext0: