	.arch armv5te
	.eabi_attribute 27, 3
	.fpu vfp
	.eabi_attribute 20, 1
	.eabi_attribute 21, 1
	.eabi_attribute 23, 3
	.eabi_attribute 24, 1
	.eabi_attribute 25, 1
	.eabi_attribute 26, 2
	.eabi_attribute 30, 6
	.eabi_attribute 18, 2
	.file	"b2Distance.cpp"
	.text
.Ltext0:
	.cfi_sections	.debug_frame
	.section	.text._ZN6b2Vec2C1Ev,"axG",%progbits,_ZN6b2Vec2C1Ev,comdat
	.align	2
	.weak	_ZN6b2Vec2C1Ev
	.hidden	_ZN6b2Vec2C1Ev
	.type	_ZN6b2Vec2C1Ev, %function
_ZN6b2Vec2C1Ev:
.LFB4:
	.file 1 "v:/gigglingbits/box2d/Box2D/Common/b2Math.h"
	.loc 1 56 0
	.cfi_startproc
	@ args = 0, pretend = 0, frame = 8
	@ frame_needed = 0, uses_anonymous_args = 0
	@ link register save eliminated.
	sub	sp, sp, #8
.LCFI0:
	.cfi_def_cfa_offset 8
	str	r0, [sp, #4]
	.loc 1 56 0
	ldr	r3, [sp, #4]
	mov	r0, r3
	add	sp, sp, #8
	bx	lr
	.cfi_endproc
.LFE4:
	.size	_ZN6b2Vec2C1Ev, .-_ZN6b2Vec2C1Ev
	.section	.text._ZN6b2Vec2C1Eff,"axG",%progbits,_ZN6b2Vec2C1Eff,comdat
	.align	2
	.weak	_ZN6b2Vec2C1Eff
	.hidden	_ZN6b2Vec2C1Eff
	.type	_ZN6b2Vec2C1Eff, %function
_ZN6b2Vec2C1Eff:
.LFB7:
	.loc 1 59 0
	.cfi_startproc
	@ args = 0, pretend = 0, frame = 16
	@ frame_needed = 0, uses_anonymous_args = 0
	@ link register save eliminated.
	sub	sp, sp, #16
.LCFI1:
	.cfi_def_cfa_offset 16
	str	r0, [sp, #12]
	str	r1, [sp, #8]	@ float
	str	r2, [sp, #4]	@ float
	.loc 1 59 0
	ldr	r3, [sp, #12]
	flds	s15, [sp, #8]
	fsts	s15, [r3, #0]
	ldr	r3, [sp, #12]
	flds	s15, [sp, #4]
	fsts	s15, [r3, #4]
	ldr	r3, [sp, #12]
	mov	r0, r3
	add	sp, sp, #16
	bx	lr
	.cfi_endproc
.LFE7:
	.size	_ZN6b2Vec2C1Eff, .-_ZN6b2Vec2C1Eff
	.section	.text._ZN6b2Vec23SetEff,"axG",%progbits,_ZN6b2Vec23SetEff,comdat
	.align	2
	.weak	_ZN6b2Vec23SetEff
	.hidden	_ZN6b2Vec23SetEff
	.type	_ZN6b2Vec23SetEff, %function
_ZN6b2Vec23SetEff:
.LFB9:
	.loc 1 65 0
	.cfi_startproc
	@ args = 0, pretend = 0, frame = 16
	@ frame_needed = 0, uses_anonymous_args = 0
	@ link register save eliminated.
	sub	sp, sp, #16
.LCFI2:
	.cfi_def_cfa_offset 16
	str	r0, [sp, #12]
	str	r1, [sp, #8]	@ float
	str	r2, [sp, #4]	@ float
	.loc 1 65 0
	ldr	r3, [sp, #12]
	flds	s15, [sp, #8]
	fsts	s15, [r3, #0]
	ldr	r3, [sp, #12]
	flds	s15, [sp, #4]
	fsts	s15, [r3, #4]
	add	sp, sp, #16
	bx	lr
	.cfi_endproc
.LFE9:
	.size	_ZN6b2Vec23SetEff, .-_ZN6b2Vec23SetEff
	.section	.text._ZNK6b2Vec2ngEv,"axG",%progbits,_ZNK6b2Vec2ngEv,comdat
	.align	2
	.weak	_ZNK6b2Vec2ngEv
	.hidden	_ZNK6b2Vec2ngEv
	.type	_ZNK6b2Vec2ngEv, %function
_ZNK6b2Vec2ngEv:
.LFB10:
	.loc 1 68 0
	.cfi_startproc
	@ args = 0, pretend = 0, frame = 16
	@ frame_needed = 0, uses_anonymous_args = 0
	stmfd	sp!, {r4, lr}
.LCFI3:
	.cfi_def_cfa_offset 8
	sub	sp, sp, #16
.LCFI4:
	.cfi_def_cfa_offset 24
	mov	r4, r0
	.cfi_offset 14, -4
	.cfi_offset 4, -8
	str	r1, [sp, #4]
.LBB2:
	.loc 1 68 0
	mov	r0, r4
	bl	_ZN6b2Vec2C1Ev
	ldr	r3, [sp, #4]
	flds	s15, [r3, #0]
	fnegs	s14, s15
	ldr	r3, [sp, #4]
	flds	s15, [r3, #4]
	fnegs	s15, s15
	mov	r0, r4
	fmrs	r1, s14
	fmrs	r2, s15
	bl	_ZN6b2Vec23SetEff
.LBE2:
	mov	r0, r4
	add	sp, sp, #16
	ldmfd	sp!, {r4, pc}
	.cfi_endproc
.LFE10:
	.size	_ZNK6b2Vec2ngEv, .-_ZNK6b2Vec2ngEv
	.section	.text._ZN6b2Vec2pLERKS_,"axG",%progbits,_ZN6b2Vec2pLERKS_,comdat
	.align	2
	.weak	_ZN6b2Vec2pLERKS_
	.hidden	_ZN6b2Vec2pLERKS_
	.type	_ZN6b2Vec2pLERKS_, %function
_ZN6b2Vec2pLERKS_:
.LFB13:
	.loc 1 83 0
	.cfi_startproc
	@ args = 0, pretend = 0, frame = 8
	@ frame_needed = 0, uses_anonymous_args = 0
	@ link register save eliminated.
	sub	sp, sp, #8
.LCFI5:
	.cfi_def_cfa_offset 8
	str	r0, [sp, #4]
	str	r1, [sp, #0]
	.loc 1 85 0
	ldr	r3, [sp, #4]
	flds	s14, [r3, #0]
	ldr	r3, [sp, #0]
	flds	s15, [r3, #0]
	fadds	s15, s14, s15
	ldr	r3, [sp, #4]
	fsts	s15, [r3, #0]
	ldr	r3, [sp, #4]
	flds	s14, [r3, #4]
	ldr	r3, [sp, #0]
	flds	s15, [r3, #4]
	fadds	s15, s14, s15
	ldr	r3, [sp, #4]
	fsts	s15, [r3, #4]
	.loc 1 86 0
	add	sp, sp, #8
	bx	lr
	.cfi_endproc
.LFE13:
	.size	_ZN6b2Vec2pLERKS_, .-_ZN6b2Vec2pLERKS_
	.section	.text._ZN6b2Vec2mIERKS_,"axG",%progbits,_ZN6b2Vec2mIERKS_,comdat
	.align	2
	.weak	_ZN6b2Vec2mIERKS_
	.hidden	_ZN6b2Vec2mIERKS_
	.type	_ZN6b2Vec2mIERKS_, %function
_ZN6b2Vec2mIERKS_:
.LFB14:
	.loc 1 89 0
	.cfi_startproc
	@ args = 0, pretend = 0, frame = 8
	@ frame_needed = 0, uses_anonymous_args = 0
	@ link register save eliminated.
	sub	sp, sp, #8
.LCFI6:
	.cfi_def_cfa_offset 8
	str	r0, [sp, #4]
	str	r1, [sp, #0]
	.loc 1 91 0
	ldr	r3, [sp, #4]
	flds	s14, [r3, #0]
	ldr	r3, [sp, #0]
	flds	s15, [r3, #0]
	fsubs	s15, s14, s15
	ldr	r3, [sp, #4]
	fsts	s15, [r3, #0]
	ldr	r3, [sp, #4]
	flds	s14, [r3, #4]
	ldr	r3, [sp, #0]
	flds	s15, [r3, #4]
	fsubs	s15, s14, s15
	ldr	r3, [sp, #4]
	fsts	s15, [r3, #4]
	.loc 1 92 0
	add	sp, sp, #8
	bx	lr
	.cfi_endproc
.LFE14:
	.size	_ZN6b2Vec2mIERKS_, .-_ZN6b2Vec2mIERKS_
	.section	.text._ZNK6b2Vec26LengthEv,"axG",%progbits,_ZNK6b2Vec26LengthEv,comdat
	.align	2
	.weak	_ZNK6b2Vec26LengthEv
	.hidden	_ZNK6b2Vec26LengthEv
	.type	_ZNK6b2Vec26LengthEv, %function
_ZNK6b2Vec26LengthEv:
.LFB16:
	.loc 1 101 0
	.cfi_startproc
	@ args = 0, pretend = 0, frame = 8
	@ frame_needed = 0, uses_anonymous_args = 0
	str	lr, [sp, #-4]!
.LCFI7:
	.cfi_def_cfa_offset 4
	sub	sp, sp, #12
.LCFI8:
	.cfi_def_cfa_offset 16
	str	r0, [sp, #4]
	.loc 1 103 0
	ldr	r3, [sp, #4]
	flds	s14, [r3, #0]
	ldr	r3, [sp, #4]
	flds	s15, [r3, #0]
	fmuls	s14, s14, s15
	ldr	r3, [sp, #4]
	flds	s13, [r3, #4]
	ldr	r3, [sp, #4]
	flds	s15, [r3, #4]
	fmuls	s15, s13, s15
	fadds	s14, s14, s15
	fsqrts	s15, s14
	fcmps	s15, s15
	fmstat
	beq	.L16
	.cfi_offset 14, -4
	fmrs	r0, s14
	bl	sqrtf
	fmsr	s15, r0
.L16:
	fmrs	r3, s15
	.loc 1 104 0
	mov	r0, r3	@ float
	add	sp, sp, #12
	ldmfd	sp!, {pc}
	.cfi_endproc
.LFE16:
	.size	_ZNK6b2Vec26LengthEv, .-_ZNK6b2Vec26LengthEv
	.section	.text._ZNK6b2Vec213LengthSquaredEv,"axG",%progbits,_ZNK6b2Vec213LengthSquaredEv,comdat
	.align	2
	.weak	_ZNK6b2Vec213LengthSquaredEv
	.hidden	_ZNK6b2Vec213LengthSquaredEv
	.type	_ZNK6b2Vec213LengthSquaredEv, %function
_ZNK6b2Vec213LengthSquaredEv:
.LFB17:
	.loc 1 108 0
	.cfi_startproc
	@ args = 0, pretend = 0, frame = 8
	@ frame_needed = 0, uses_anonymous_args = 0
	@ link register save eliminated.
	sub	sp, sp, #8
.LCFI9:
	.cfi_def_cfa_offset 8
	str	r0, [sp, #4]
	.loc 1 110 0
	ldr	r3, [sp, #4]
	flds	s14, [r3, #0]
	ldr	r3, [sp, #4]
	flds	s15, [r3, #0]
	fmuls	s14, s14, s15
	ldr	r3, [sp, #4]
	flds	s13, [r3, #4]
	ldr	r3, [sp, #4]
	flds	s15, [r3, #4]
	fmuls	s15, s13, s15
	fadds	s15, s14, s15
	fmrs	r3, s15
	.loc 1 111 0
	mov	r0, r3	@ float
	add	sp, sp, #8
	bx	lr
	.cfi_endproc
.LFE17:
	.size	_ZNK6b2Vec213LengthSquaredEv, .-_ZNK6b2Vec213LengthSquaredEv
	.section	.text._ZN6b2Vec29NormalizeEv,"axG",%progbits,_ZN6b2Vec29NormalizeEv,comdat
	.align	2
	.weak	_ZN6b2Vec29NormalizeEv
	.hidden	_ZN6b2Vec29NormalizeEv
	.type	_ZN6b2Vec29NormalizeEv, %function
_ZN6b2Vec29NormalizeEv:
.LFB18:
	.loc 1 114 0
	.cfi_startproc
	@ args = 0, pretend = 0, frame = 16
	@ frame_needed = 0, uses_anonymous_args = 0
	str	lr, [sp, #-4]!
.LCFI10:
	.cfi_def_cfa_offset 4
	sub	sp, sp, #20
.LCFI11:
	.cfi_def_cfa_offset 24
	str	r0, [sp, #4]
.LBB3:
	.loc 1 116 0
	ldr	r0, [sp, #4]
	.cfi_offset 14, -4
	bl	_ZNK6b2Vec26LengthEv
	mov	r3, r0	@ float
	str	r3, [sp, #8]	@ float
	.loc 1 117 0
	flds	s14, [sp, #8]
	flds	s15, .L24
	fcmpes	s14, s15
	fmstat
	movpl	r3, #0
	movmi	r3, #1
	and	r3, r3, #255
	cmp	r3, #0
	beq	.L21
	.loc 1 119 0
	flds	s15, .L24+4
	b	.L22
.L21:
	.loc 1 121 0
	flds	s14, .L24+8
	flds	s15, [sp, #8]
	fdivs	s15, s14, s15
	fsts	s15, [sp, #12]
	.loc 1 122 0
	ldr	r3, [sp, #4]
	flds	s14, [r3, #0]
	flds	s15, [sp, #12]
	fmuls	s15, s14, s15
	ldr	r3, [sp, #4]
	fsts	s15, [r3, #0]
	.loc 1 123 0
	ldr	r3, [sp, #4]
	flds	s14, [r3, #4]
	flds	s15, [sp, #12]
	fmuls	s15, s14, s15
	ldr	r3, [sp, #4]
	fsts	s15, [r3, #4]
	.loc 1 125 0
	flds	s15, [sp, #8]
.L22:
	fmrs	r3, s15
.LBE3:
	.loc 1 126 0
	mov	r0, r3	@ float
	add	sp, sp, #20
	ldmfd	sp!, {pc}
.L25:
	.align	2
.L24:
	.word	872415232
	.word	0
	.word	1065353216
	.cfi_endproc
.LFE18:
	.size	_ZN6b2Vec29NormalizeEv, .-_ZN6b2Vec29NormalizeEv
	.section	.text._Z5b2DotRK6b2Vec2S1_,"axG",%progbits,_Z5b2DotRK6b2Vec2S1_,comdat
	.align	2
	.weak	_Z5b2DotRK6b2Vec2S1_
	.hidden	_Z5b2DotRK6b2Vec2S1_
	.type	_Z5b2DotRK6b2Vec2S1_, %function
_Z5b2DotRK6b2Vec2S1_:
.LFB73:
	.loc 1 407 0
	.cfi_startproc
	@ args = 0, pretend = 0, frame = 8
	@ frame_needed = 0, uses_anonymous_args = 0
	@ link register save eliminated.
	sub	sp, sp, #8
.LCFI12:
	.cfi_def_cfa_offset 8
	str	r0, [sp, #4]
	str	r1, [sp, #0]
	.loc 1 408 0
	ldr	r3, [sp, #4]
	flds	s14, [r3, #0]
	ldr	r3, [sp, #0]
	flds	s15, [r3, #0]
	fmuls	s14, s14, s15
	ldr	r3, [sp, #4]
	flds	s13, [r3, #4]
	ldr	r3, [sp, #0]
	flds	s15, [r3, #4]
	fmuls	s15, s13, s15
	fadds	s15, s14, s15
	fmrs	r3, s15
	.loc 1 409 0
	mov	r0, r3	@ float
	add	sp, sp, #8
	bx	lr
	.cfi_endproc
.LFE73:
	.size	_Z5b2DotRK6b2Vec2S1_, .-_Z5b2DotRK6b2Vec2S1_
	.section	.text._Z7b2CrossRK6b2Vec2S1_,"axG",%progbits,_Z7b2CrossRK6b2Vec2S1_,comdat
	.align	2
	.weak	_Z7b2CrossRK6b2Vec2S1_
	.hidden	_Z7b2CrossRK6b2Vec2S1_
	.type	_Z7b2CrossRK6b2Vec2S1_, %function
_Z7b2CrossRK6b2Vec2S1_:
.LFB74:
	.loc 1 413 0
	.cfi_startproc
	@ args = 0, pretend = 0, frame = 8
	@ frame_needed = 0, uses_anonymous_args = 0
	@ link register save eliminated.
	sub	sp, sp, #8
.LCFI13:
	.cfi_def_cfa_offset 8
	str	r0, [sp, #4]
	str	r1, [sp, #0]
	.loc 1 414 0
	ldr	r3, [sp, #4]
	flds	s14, [r3, #0]
	ldr	r3, [sp, #0]
	flds	s15, [r3, #4]
	fmuls	s14, s14, s15
	ldr	r3, [sp, #4]
	flds	s13, [r3, #4]
	ldr	r3, [sp, #0]
	flds	s15, [r3, #0]
	fmuls	s15, s13, s15
	fsubs	s15, s14, s15
	fmrs	r3, s15
	.loc 1 415 0
	mov	r0, r3	@ float
	add	sp, sp, #8
	bx	lr
	.cfi_endproc
.LFE74:
	.size	_Z7b2CrossRK6b2Vec2S1_, .-_Z7b2CrossRK6b2Vec2S1_
	.section	.text._Z7b2CrossRK6b2Vec2f,"axG",%progbits,_Z7b2CrossRK6b2Vec2f,comdat
	.align	2
	.weak	_Z7b2CrossRK6b2Vec2f
	.hidden	_Z7b2CrossRK6b2Vec2f
	.type	_Z7b2CrossRK6b2Vec2f, %function
_Z7b2CrossRK6b2Vec2f:
.LFB75:
	.loc 1 420 0
	.cfi_startproc
	@ args = 0, pretend = 0, frame = 8
	@ frame_needed = 0, uses_anonymous_args = 0
	stmfd	sp!, {r4, lr}
.LCFI14:
	.cfi_def_cfa_offset 8
	sub	sp, sp, #8
.LCFI15:
	.cfi_def_cfa_offset 16
	mov	r4, r0
	.cfi_offset 14, -4
	.cfi_offset 4, -8
	str	r1, [sp, #4]
	str	r2, [sp, #0]	@ float
	.loc 1 421 0
	ldr	r3, [sp, #4]
	flds	s14, [r3, #4]
	flds	s15, [sp, #0]
	fmuls	s14, s14, s15
	flds	s15, [sp, #0]
	fnegs	s13, s15
	ldr	r3, [sp, #4]
	flds	s15, [r3, #0]
	fmuls	s15, s13, s15
	mov	r0, r4
	fmrs	r1, s14
	fmrs	r2, s15
	bl	_ZN6b2Vec2C1Eff
	.loc 1 422 0
	mov	r0, r4
	add	sp, sp, #8
	ldmfd	sp!, {r4, pc}
	.cfi_endproc
.LFE75:
	.size	_Z7b2CrossRK6b2Vec2f, .-_Z7b2CrossRK6b2Vec2f
	.section	.text._Z7b2CrossfRK6b2Vec2,"axG",%progbits,_Z7b2CrossfRK6b2Vec2,comdat
	.align	2
	.weak	_Z7b2CrossfRK6b2Vec2
	.hidden	_Z7b2CrossfRK6b2Vec2
	.type	_Z7b2CrossfRK6b2Vec2, %function
_Z7b2CrossfRK6b2Vec2:
.LFB76:
	.loc 1 427 0
	.cfi_startproc
	@ args = 0, pretend = 0, frame = 8
	@ frame_needed = 0, uses_anonymous_args = 0
	stmfd	sp!, {r4, lr}
.LCFI16:
	.cfi_def_cfa_offset 8
	sub	sp, sp, #8
.LCFI17:
	.cfi_def_cfa_offset 16
	mov	r4, r0
	.cfi_offset 14, -4
	.cfi_offset 4, -8
	str	r1, [sp, #4]	@ float
	str	r2, [sp, #0]
	.loc 1 428 0
	flds	s15, [sp, #4]
	fnegs	s14, s15
	ldr	r3, [sp, #0]
	flds	s15, [r3, #4]
	fmuls	s14, s14, s15
	ldr	r3, [sp, #0]
	flds	s13, [r3, #0]
	flds	s15, [sp, #4]
	fmuls	s15, s13, s15
	mov	r0, r4
	fmrs	r1, s14
	fmrs	r2, s15
	bl	_ZN6b2Vec2C1Eff
	.loc 1 429 0
	mov	r0, r4
	add	sp, sp, #8
	ldmfd	sp!, {r4, pc}
	.cfi_endproc
.LFE76:
	.size	_Z7b2CrossfRK6b2Vec2, .-_Z7b2CrossfRK6b2Vec2
	.section	.text._ZplRK6b2Vec2S1_,"axG",%progbits,_ZplRK6b2Vec2S1_,comdat
	.align	2
	.weak	_ZplRK6b2Vec2S1_
	.hidden	_ZplRK6b2Vec2S1_
	.type	_ZplRK6b2Vec2S1_, %function
_ZplRK6b2Vec2S1_:
.LFB79:
	.loc 1 447 0
	.cfi_startproc
	@ args = 0, pretend = 0, frame = 8
	@ frame_needed = 0, uses_anonymous_args = 0
	stmfd	sp!, {r4, lr}
.LCFI18:
	.cfi_def_cfa_offset 8
	sub	sp, sp, #8
.LCFI19:
	.cfi_def_cfa_offset 16
	mov	r4, r0
	.cfi_offset 14, -4
	.cfi_offset 4, -8
	str	r1, [sp, #4]
	str	r2, [sp, #0]
	.loc 1 448 0
	ldr	r3, [sp, #4]
	flds	s14, [r3, #0]
	ldr	r3, [sp, #0]
	flds	s15, [r3, #0]
	fadds	s13, s14, s15
	ldr	r3, [sp, #4]
	flds	s14, [r3, #4]
	ldr	r3, [sp, #0]
	flds	s15, [r3, #4]
	fadds	s15, s14, s15
	mov	r0, r4
	fmrs	r1, s13
	fmrs	r2, s15
	bl	_ZN6b2Vec2C1Eff
	.loc 1 449 0
	mov	r0, r4
	add	sp, sp, #8
	ldmfd	sp!, {r4, pc}
	.cfi_endproc
.LFE79:
	.size	_ZplRK6b2Vec2S1_, .-_ZplRK6b2Vec2S1_
	.section	.text._ZmiRK6b2Vec2S1_,"axG",%progbits,_ZmiRK6b2Vec2S1_,comdat
	.align	2
	.weak	_ZmiRK6b2Vec2S1_
	.hidden	_ZmiRK6b2Vec2S1_
	.type	_ZmiRK6b2Vec2S1_, %function
_ZmiRK6b2Vec2S1_:
.LFB80:
	.loc 1 453 0
	.cfi_startproc
	@ args = 0, pretend = 0, frame = 8
	@ frame_needed = 0, uses_anonymous_args = 0
	stmfd	sp!, {r4, lr}
.LCFI20:
	.cfi_def_cfa_offset 8
	sub	sp, sp, #8
.LCFI21:
	.cfi_def_cfa_offset 16
	mov	r4, r0
	.cfi_offset 14, -4
	.cfi_offset 4, -8
	str	r1, [sp, #4]
	str	r2, [sp, #0]
	.loc 1 454 0
	ldr	r3, [sp, #4]
	flds	s14, [r3, #0]
	ldr	r3, [sp, #0]
	flds	s15, [r3, #0]
	fsubs	s13, s14, s15
	ldr	r3, [sp, #4]
	flds	s14, [r3, #4]
	ldr	r3, [sp, #0]
	flds	s15, [r3, #4]
	fsubs	s15, s14, s15
	mov	r0, r4
	fmrs	r1, s13
	fmrs	r2, s15
	bl	_ZN6b2Vec2C1Eff
	.loc 1 455 0
	mov	r0, r4
	add	sp, sp, #8
	ldmfd	sp!, {r4, pc}
	.cfi_endproc
.LFE80:
	.size	_ZmiRK6b2Vec2S1_, .-_ZmiRK6b2Vec2S1_
	.section	.text._ZmlfRK6b2Vec2,"axG",%progbits,_ZmlfRK6b2Vec2,comdat
	.align	2
	.weak	_ZmlfRK6b2Vec2
	.hidden	_ZmlfRK6b2Vec2
	.type	_ZmlfRK6b2Vec2, %function
_ZmlfRK6b2Vec2:
.LFB81:
	.loc 1 458 0
	.cfi_startproc
	@ args = 0, pretend = 0, frame = 8
	@ frame_needed = 0, uses_anonymous_args = 0
	stmfd	sp!, {r4, lr}
.LCFI22:
	.cfi_def_cfa_offset 8
	sub	sp, sp, #8
.LCFI23:
	.cfi_def_cfa_offset 16
	mov	r4, r0
	.cfi_offset 14, -4
	.cfi_offset 4, -8
	str	r1, [sp, #4]	@ float
	str	r2, [sp, #0]
	.loc 1 459 0
	ldr	r3, [sp, #0]
	flds	s14, [r3, #0]
	flds	s15, [sp, #4]
	fmuls	s14, s14, s15
	ldr	r3, [sp, #0]
	flds	s13, [r3, #4]
	flds	s15, [sp, #4]
	fmuls	s15, s13, s15
	mov	r0, r4
	fmrs	r1, s14
	fmrs	r2, s15
	bl	_ZN6b2Vec2C1Eff
	.loc 1 460 0
	mov	r0, r4
	add	sp, sp, #8
	ldmfd	sp!, {r4, pc}
	.cfi_endproc
.LFE81:
	.size	_ZmlfRK6b2Vec2, .-_ZmlfRK6b2Vec2
	.section	.text._Z10b2DistanceRK6b2Vec2S1_,"axG",%progbits,_Z10b2DistanceRK6b2Vec2S1_,comdat
	.align	2
	.weak	_Z10b2DistanceRK6b2Vec2S1_
	.hidden	_Z10b2DistanceRK6b2Vec2S1_
	.type	_Z10b2DistanceRK6b2Vec2S1_, %function
_Z10b2DistanceRK6b2Vec2S1_:
.LFB83:
	.loc 1 468 0
	.cfi_startproc
	@ args = 0, pretend = 0, frame = 16
	@ frame_needed = 0, uses_anonymous_args = 0
	str	lr, [sp, #-4]!
.LCFI24:
	.cfi_def_cfa_offset 4
	sub	sp, sp, #20
.LCFI25:
	.cfi_def_cfa_offset 24
	str	r0, [sp, #4]
	str	r1, [sp, #0]
.LBB4:
	.loc 1 469 0
	add	r3, sp, #8
	mov	r0, r3
	ldr	r1, [sp, #4]
	ldr	r2, [sp, #0]
	.cfi_offset 14, -4
	bl	_ZmiRK6b2Vec2S1_
	.loc 1 470 0
	add	r3, sp, #8
	mov	r0, r3
	bl	_ZNK6b2Vec26LengthEv
	mov	r3, r0	@ float
	fmsr	s15, r3
	fmrs	r3, s15
.LBE4:
	.loc 1 471 0
	mov	r0, r3	@ float
	add	sp, sp, #20
	ldmfd	sp!, {pc}
	.cfi_endproc
.LFE83:
	.size	_Z10b2DistanceRK6b2Vec2S1_, .-_Z10b2DistanceRK6b2Vec2S1_
	.section	.text._Z6b2MulTRK5b2RotRK6b2Vec2,"axG",%progbits,_Z6b2MulTRK5b2RotRK6b2Vec2,comdat
	.align	2
	.weak	_Z6b2MulTRK5b2RotRK6b2Vec2
	.hidden	_Z6b2MulTRK5b2RotRK6b2Vec2
	.type	_Z6b2MulTRK5b2RotRK6b2Vec2, %function
_Z6b2MulTRK5b2RotRK6b2Vec2:
.LFB98:
	.loc 1 573 0
	.cfi_startproc
	@ args = 0, pretend = 0, frame = 8
	@ frame_needed = 0, uses_anonymous_args = 0
	stmfd	sp!, {r4, lr}
.LCFI26:
	.cfi_def_cfa_offset 8
	sub	sp, sp, #8
.LCFI27:
	.cfi_def_cfa_offset 16
	mov	r4, r0
	.cfi_offset 14, -4
	.cfi_offset 4, -8
	str	r1, [sp, #4]
	str	r2, [sp, #0]
	.loc 1 574 0
	ldr	r3, [sp, #4]
	flds	s14, [r3, #4]
	ldr	r3, [sp, #0]
	flds	s15, [r3, #0]
	fmuls	s14, s14, s15
	ldr	r3, [sp, #4]
	flds	s13, [r3, #0]
	ldr	r3, [sp, #0]
	flds	s15, [r3, #4]
	fmuls	s15, s13, s15
	fadds	s12, s14, s15
	ldr	r3, [sp, #4]
	flds	s15, [r3, #0]
	fnegs	s14, s15
	ldr	r3, [sp, #0]
	flds	s15, [r3, #0]
	fmuls	s14, s14, s15
	ldr	r3, [sp, #4]
	flds	s13, [r3, #4]
	ldr	r3, [sp, #0]
	flds	s15, [r3, #4]
	fmuls	s15, s13, s15
	fadds	s15, s14, s15
	mov	r0, r4
	fmrs	r1, s12
	fmrs	r2, s15
	bl	_ZN6b2Vec2C1Eff
	.loc 1 575 0
	mov	r0, r4
	add	sp, sp, #8
	ldmfd	sp!, {r4, pc}
	.cfi_endproc
.LFE98:
	.size	_Z6b2MulTRK5b2RotRK6b2Vec2, .-_Z6b2MulTRK5b2RotRK6b2Vec2
	.section	.text._Z5b2MulRK11b2TransformRK6b2Vec2,"axG",%progbits,_Z5b2MulRK11b2TransformRK6b2Vec2,comdat
	.align	2
	.weak	_Z5b2MulRK11b2TransformRK6b2Vec2
	.hidden	_Z5b2MulRK11b2TransformRK6b2Vec2
	.type	_Z5b2MulRK11b2TransformRK6b2Vec2, %function
_Z5b2MulRK11b2TransformRK6b2Vec2:
.LFB99:
	.loc 1 578 0
	.cfi_startproc
	@ args = 0, pretend = 0, frame = 16
	@ frame_needed = 0, uses_anonymous_args = 0
	stmfd	sp!, {r4, lr}
.LCFI28:
	.cfi_def_cfa_offset 8
	sub	sp, sp, #16
.LCFI29:
	.cfi_def_cfa_offset 24
	mov	r4, r0
	.cfi_offset 14, -4
	.cfi_offset 4, -8
	str	r1, [sp, #4]
	str	r2, [sp, #0]
.LBB5:
	.loc 1 579 0
	ldr	r3, [sp, #4]
	flds	s14, [r3, #12]
	ldr	r3, [sp, #0]
	flds	s15, [r3, #0]
	fmuls	s14, s14, s15
	ldr	r3, [sp, #4]
	flds	s13, [r3, #8]
	ldr	r3, [sp, #0]
	flds	s15, [r3, #4]
	fmuls	s15, s13, s15
	fsubs	s14, s14, s15
	ldr	r3, [sp, #4]
	flds	s15, [r3, #0]
	fadds	s15, s14, s15
	fsts	s15, [sp, #8]
	.loc 1 580 0
	ldr	r3, [sp, #4]
	flds	s14, [r3, #8]
	ldr	r3, [sp, #0]
	flds	s15, [r3, #0]
	fmuls	s14, s14, s15
	ldr	r3, [sp, #4]
	flds	s13, [r3, #12]
	ldr	r3, [sp, #0]
	flds	s15, [r3, #4]
	fmuls	s15, s13, s15
	fadds	s14, s14, s15
	ldr	r3, [sp, #4]
	flds	s15, [r3, #4]
	fadds	s15, s14, s15
	fsts	s15, [sp, #12]
	.loc 1 582 0
	mov	r0, r4
	ldr	r1, [sp, #8]	@ float
	ldr	r2, [sp, #12]	@ float
	bl	_ZN6b2Vec2C1Eff
.LBE5:
	.loc 1 583 0
	mov	r0, r4
	add	sp, sp, #16
	ldmfd	sp!, {r4, pc}
	.cfi_endproc
.LFE99:
	.size	_Z5b2MulRK11b2TransformRK6b2Vec2, .-_Z5b2MulRK11b2TransformRK6b2Vec2
	.section	.rodata
	.align	2
.LC0:
	.ascii	"v:/gigglingbits/box2d/Box2D/Collision/b2Distance.h\000"
	.align	2
.LC1:
	.ascii	"0 <= index && index < m_count\000"
	.section	.text._ZNK15b2DistanceProxy9GetVertexEi,"axG",%progbits,_ZNK15b2DistanceProxy9GetVertexEi,comdat
	.align	2
	.weak	_ZNK15b2DistanceProxy9GetVertexEi
	.hidden	_ZNK15b2DistanceProxy9GetVertexEi
	.type	_ZNK15b2DistanceProxy9GetVertexEi, %function
_ZNK15b2DistanceProxy9GetVertexEi:
.LFB122:
	.file 2 "v:/gigglingbits/box2d/Box2D/Collision/b2Distance.h"
	.loc 2 102 0
	.cfi_startproc
	@ args = 0, pretend = 0, frame = 8
	@ frame_needed = 0, uses_anonymous_args = 0
	str	lr, [sp, #-4]!
.LCFI30:
	.cfi_def_cfa_offset 4
	sub	sp, sp, #12
.LCFI31:
	.cfi_def_cfa_offset 16
	str	r0, [sp, #4]
	str	r1, [sp, #0]
	.loc 2 103 0
	ldr	r3, [sp, #0]
	cmp	r3, #0
	blt	.L47
	.cfi_offset 14, -4
	ldr	r3, [sp, #4]
	ldr	r2, [r3, #20]
	ldr	r3, [sp, #0]
	cmp	r2, r3
	bgt	.L48
.L47:
	ldr	r0, .L50
	mov	r1, #103
	ldr	r2, .L50+4
	bl	__assert
.L48:
	.loc 2 104 0
	ldr	r3, [sp, #4]
	ldr	r2, [r3, #16]
	ldr	r3, [sp, #0]
	mov	r3, r3, asl #3
	add	r3, r2, r3
	.loc 2 105 0
	mov	r0, r3
	add	sp, sp, #12
	ldmfd	sp!, {pc}
.L51:
	.align	2
.L50:
	.word	.LC0
	.word	.LC1
	.cfi_endproc
.LFE122:
	.size	_ZNK15b2DistanceProxy9GetVertexEi, .-_ZNK15b2DistanceProxy9GetVertexEi
	.section	.text._ZNK15b2DistanceProxy10GetSupportERK6b2Vec2,"axG",%progbits,_ZNK15b2DistanceProxy10GetSupportERK6b2Vec2,comdat
	.align	2
	.weak	_ZNK15b2DistanceProxy10GetSupportERK6b2Vec2
	.hidden	_ZNK15b2DistanceProxy10GetSupportERK6b2Vec2
	.type	_ZNK15b2DistanceProxy10GetSupportERK6b2Vec2, %function
_ZNK15b2DistanceProxy10GetSupportERK6b2Vec2:
.LFB123:
	.loc 2 108 0
	.cfi_startproc
	@ args = 0, pretend = 0, frame = 24
	@ frame_needed = 0, uses_anonymous_args = 0
	str	lr, [sp, #-4]!
.LCFI32:
	.cfi_def_cfa_offset 4
	sub	sp, sp, #28
.LCFI33:
	.cfi_def_cfa_offset 32
	str	r0, [sp, #4]
	str	r1, [sp, #0]
.LBB6:
	.loc 2 109 0
	mov	r3, #0
	str	r3, [sp, #8]
	.loc 2 110 0
	ldr	r3, [sp, #4]
	ldr	r3, [r3, #16]
	mov	r0, r3
	ldr	r1, [sp, #0]
	.cfi_offset 14, -4
	bl	_Z5b2DotRK6b2Vec2S1_
	mov	r3, r0	@ float
	str	r3, [sp, #12]	@ float
.LBB7:
	.loc 2 111 0
	mov	r3, #1
	str	r3, [sp, #16]
	b	.L53
.L55:
.LBB8:
	.loc 2 113 0
	ldr	r3, [sp, #4]
	ldr	r2, [r3, #16]
	ldr	r3, [sp, #16]
	mov	r3, r3, asl #3
	add	r3, r2, r3
	mov	r0, r3
	ldr	r1, [sp, #0]
	bl	_Z5b2DotRK6b2Vec2S1_
	mov	r3, r0	@ float
	str	r3, [sp, #20]	@ float
	.loc 2 114 0
	flds	s14, [sp, #20]
	flds	s15, [sp, #12]
	fcmpes	s14, s15
	fmstat
	movle	r3, #0
	movgt	r3, #1
	and	r3, r3, #255
	cmp	r3, #0
	beq	.L54
	.loc 2 116 0
	ldr	r3, [sp, #16]
	str	r3, [sp, #8]
	.loc 2 117 0
	flds	s15, [sp, #20]
	fsts	s15, [sp, #12]
.L54:
.LBE8:
	.loc 2 111 0
	ldr	r3, [sp, #16]
	add	r3, r3, #1
	str	r3, [sp, #16]
.L53:
	ldr	r3, [sp, #4]
	ldr	r2, [r3, #20]
	ldr	r3, [sp, #16]
	cmp	r2, r3
	movle	r3, #0
	movgt	r3, #1
	and	r3, r3, #255
	cmp	r3, #0
	bne	.L55
.LBE7:
	.loc 2 121 0
	ldr	r3, [sp, #8]
.LBE6:
	.loc 2 122 0
	mov	r0, r3
	add	sp, sp, #28
	ldmfd	sp!, {pc}
	.cfi_endproc
.LFE123:
	.size	_ZNK15b2DistanceProxy10GetSupportERK6b2Vec2, .-_ZNK15b2DistanceProxy10GetSupportERK6b2Vec2
	.section	.text._ZNK7b2Shape7GetTypeEv,"axG",%progbits,_ZNK7b2Shape7GetTypeEv,comdat
	.align	2
	.weak	_ZNK7b2Shape7GetTypeEv
	.hidden	_ZNK7b2Shape7GetTypeEv
	.type	_ZNK7b2Shape7GetTypeEv, %function
_ZNK7b2Shape7GetTypeEv:
.LFB137:
	.file 3 "v:/gigglingbits/box2d/Box2D/Collision/Shapes/b2Shape.h"
	.loc 3 97 0
	.cfi_startproc
	@ args = 0, pretend = 0, frame = 8
	@ frame_needed = 0, uses_anonymous_args = 0
	@ link register save eliminated.
	sub	sp, sp, #8
.LCFI34:
	.cfi_def_cfa_offset 8
	str	r0, [sp, #4]
	.loc 3 98 0
	ldr	r3, [sp, #4]
	ldr	r3, [r3, #4]
	.loc 3 99 0
	mov	r0, r3
	add	sp, sp, #8
	bx	lr
	.cfi_endproc
.LFE137:
	.size	_ZNK7b2Shape7GetTypeEv, .-_ZNK7b2Shape7GetTypeEv
	.hidden	b2_gjkCalls
	.global	b2_gjkCalls
	.bss
	.align	2
	.type	b2_gjkCalls, %object
	.size	b2_gjkCalls, 4
b2_gjkCalls:
	.space	4
	.hidden	b2_gjkIters
	.global	b2_gjkIters
	.align	2
	.type	b2_gjkIters, %object
	.size	b2_gjkIters, 4
b2_gjkIters:
	.space	4
	.hidden	b2_gjkMaxIters
	.global	b2_gjkMaxIters
	.align	2
	.type	b2_gjkMaxIters, %object
	.size	b2_gjkMaxIters, 4
b2_gjkMaxIters:
	.space	4
	.section	.rodata
	.align	2
.LC2:
	.ascii	"v:/gigglingbits/box2d/Box2D/Collision/b2Distance.cp"
	.ascii	"p\000"
	.align	2
.LC3:
	.ascii	"0 <= index && index < chain->m_count\000"
	.align	2
.LC4:
	.ascii	"false\000"
	.section	.text._ZN15b2DistanceProxy3SetEPK7b2Shapei,"ax",%progbits
	.align	2
	.global	_ZN15b2DistanceProxy3SetEPK7b2Shapei
	.hidden	_ZN15b2DistanceProxy3SetEPK7b2Shapei
	.type	_ZN15b2DistanceProxy3SetEPK7b2Shapei, %function
_ZN15b2DistanceProxy3SetEPK7b2Shapei:
.LFB159:
	.file 4 "v:/gigglingbits/box2d/Box2D/Collision/b2Distance.cpp"
	.loc 4 29 0
	.cfi_startproc
	@ args = 0, pretend = 0, frame = 32
	@ frame_needed = 0, uses_anonymous_args = 0
	str	lr, [sp, #-4]!
.LCFI35:
	.cfi_def_cfa_offset 4
	sub	sp, sp, #36
.LCFI36:
	.cfi_def_cfa_offset 40
	str	r0, [sp, #12]
	str	r1, [sp, #8]
	str	r2, [sp, #4]
.LBB9:
	.loc 4 30 0
	ldr	r0, [sp, #8]
	.cfi_offset 14, -4
	bl	_ZNK7b2Shape7GetTypeEv
	mov	r3, r0
	cmp	r3, #3
	ldrls	pc, [pc, r3, asl #2]
	b	.L60
.L65:
	.word	.L61
	.word	.L62
	.word	.L63
	.word	.L64
.L61:
.LBB10:
	.loc 4 34 0
	ldr	r3, [sp, #8]
	str	r3, [sp, #16]
	.loc 4 35 0
	ldr	r3, [sp, #16]
	add	r2, r3, #12
	ldr	r3, [sp, #12]
	str	r2, [r3, #16]
	.loc 4 36 0
	ldr	r3, [sp, #12]
	mov	r2, #1
	str	r2, [r3, #20]
	.loc 4 37 0
	ldr	r3, [sp, #16]
	flds	s15, [r3, #8]
	ldr	r3, [sp, #12]
	fsts	s15, [r3, #24]
.LBE10:
	.loc 4 39 0
	b	.L71
.L63:
.LBB11:
	.loc 4 43 0
	ldr	r3, [sp, #8]
	str	r3, [sp, #20]
	.loc 4 44 0
	ldr	r3, [sp, #20]
	add	r2, r3, #20
	ldr	r3, [sp, #12]
	str	r2, [r3, #16]
	.loc 4 45 0
	ldr	r3, [sp, #20]
	ldr	r2, [r3, #148]
	ldr	r3, [sp, #12]
	str	r2, [r3, #20]
	.loc 4 46 0
	ldr	r3, [sp, #20]
	flds	s15, [r3, #8]
	ldr	r3, [sp, #12]
	fsts	s15, [r3, #24]
.LBE11:
	.loc 4 48 0
	b	.L71
.L64:
.LBB12:
	.loc 4 52 0
	ldr	r3, [sp, #8]
	str	r3, [sp, #24]
	.loc 4 53 0
	ldr	r3, [sp, #4]
	cmp	r3, #0
	blt	.L67
	ldr	r3, [sp, #24]
	ldr	r2, [r3, #16]
	ldr	r3, [sp, #4]
	cmp	r2, r3
	bgt	.L68
.L67:
	ldr	r0, .L72
	mov	r1, #53
	ldr	r2, .L72+4
	bl	__assert
.L68:
	.loc 4 55 0
	ldr	r3, [sp, #24]
	ldr	r2, [r3, #12]
	ldr	r3, [sp, #4]
	mov	r3, r3, asl #3
	add	r2, r2, r3
	ldr	r3, [sp, #12]
	ldmia	r2, {r0, r1}
	stmia	r3, {r0, r1}
	.loc 4 56 0
	ldr	r3, [sp, #4]
	add	r2, r3, #1
	ldr	r3, [sp, #24]
	ldr	r3, [r3, #16]
	cmp	r2, r3
	bge	.L69
	.loc 4 58 0
	ldr	r3, [sp, #24]
	ldr	r2, [r3, #12]
	ldr	r3, [sp, #4]
	add	r3, r3, #1
	mov	r3, r3, asl #3
	add	r2, r2, r3
	ldr	r3, [sp, #12]
	add	r3, r3, #8
	ldmia	r2, {r0, r1}
	stmia	r3, {r0, r1}
	b	.L70
.L69:
	.loc 4 62 0
	ldr	r3, [sp, #24]
	ldr	r2, [r3, #12]
	ldr	r3, [sp, #12]
	add	r3, r3, #8
	ldmia	r2, {r0, r1}
	stmia	r3, {r0, r1}
.L70:
	.loc 4 65 0
	ldr	r2, [sp, #12]
	ldr	r3, [sp, #12]
	str	r2, [r3, #16]
	.loc 4 66 0
	ldr	r3, [sp, #12]
	mov	r2, #2
	str	r2, [r3, #20]
	.loc 4 67 0
	ldr	r3, [sp, #24]
	flds	s15, [r3, #8]
	ldr	r3, [sp, #12]
	fsts	s15, [r3, #24]
.LBE12:
	.loc 4 69 0
	b	.L71
.L62:
.LBB13:
	.loc 4 73 0
	ldr	r3, [sp, #8]
	str	r3, [sp, #28]
	.loc 4 74 0
	ldr	r3, [sp, #28]
	add	r2, r3, #12
	ldr	r3, [sp, #12]
	str	r2, [r3, #16]
	.loc 4 75 0
	ldr	r3, [sp, #12]
	mov	r2, #2
	str	r2, [r3, #20]
	.loc 4 76 0
	ldr	r3, [sp, #28]
	flds	s15, [r3, #8]
	ldr	r3, [sp, #12]
	fsts	s15, [r3, #24]
.LBE13:
	.loc 4 78 0
	b	.L71
.L60:
	.loc 4 81 0
	ldr	r0, .L72
	mov	r1, #81
	ldr	r2, .L72+8
	bl	__assert
.L71:
.LBE9:
	.loc 4 83 0
	add	sp, sp, #36
	ldmfd	sp!, {pc}
.L73:
	.align	2
.L72:
	.word	.LC2
	.word	.LC3
	.word	.LC4
	.cfi_endproc
.LFE159:
	.size	_ZN15b2DistanceProxy3SetEPK7b2Shapei, .-_ZN15b2DistanceProxy3SetEPK7b2Shapei
	.section	.rodata
	.align	2
.LC5:
	.ascii	"cache->count <= 3\000"
	.section	.text._ZN9b2Simplex9ReadCacheEPK14b2SimplexCachePK15b2DistanceProxyRK11b2TransformS5_S8_,"axG",%progbits,_ZN9b2Simplex9ReadCacheEPK14b2SimplexCachePK15b2DistanceProxyRK11b2TransformS5_S8_,comdat
	.align	2
	.weak	_ZN9b2Simplex9ReadCacheEPK14b2SimplexCachePK15b2DistanceProxyRK11b2TransformS5_S8_
	.hidden	_ZN9b2Simplex9ReadCacheEPK14b2SimplexCachePK15b2DistanceProxyRK11b2TransformS5_S8_
	.type	_ZN9b2Simplex9ReadCacheEPK14b2SimplexCachePK15b2DistanceProxyRK11b2TransformS5_S8_, %function
_ZN9b2Simplex9ReadCacheEPK14b2SimplexCachePK15b2DistanceProxyRK11b2TransformS5_S8_:
.LFB160:
	.loc 4 98 0
	.cfi_startproc
	@ args = 8, pretend = 0, frame = 80
	@ frame_needed = 0, uses_anonymous_args = 0
	stmfd	sp!, {r4, lr}
.LCFI37:
	.cfi_def_cfa_offset 8
	sub	sp, sp, #80
.LCFI38:
	.cfi_def_cfa_offset 88
	str	r0, [sp, #20]
	str	r1, [sp, #16]
	str	r2, [sp, #12]
	str	r3, [sp, #8]
.LBB14:
	.loc 4 102 0
	ldr	r3, [sp, #16]
	ldrh	r3, [r3, #4]
	cmp	r3, #3
	bls	.L75
	.cfi_offset 14, -4
	.cfi_offset 4, -8
	ldr	r0, .L82+16
	mov	r1, #102
	ldr	r2, .L82+20
	bl	__assert
.L75:
	.loc 4 105 0
	ldr	r3, [sp, #16]
	ldrh	r3, [r3, #4]
	mov	r2, r3
	ldr	r3, [sp, #20]
	str	r2, [r3, #108]
	.loc 4 106 0
	ldr	r3, [sp, #20]
	str	r3, [sp, #56]
.LBB15:
	.loc 4 107 0
	mov	r3, #0
	str	r3, [sp, #60]
	b	.L76
.L77:
.LBB16:
	.loc 4 109 0
	ldr	r2, [sp, #60]
	mov	r3, r2
	mov	r3, r3, asl #3
	add	r3, r3, r2
	mov	r3, r3, asl #2
	ldr	r2, [sp, #56]
	add	r3, r2, r3
	str	r3, [sp, #64]
	.loc 4 110 0
	ldr	r2, [sp, #60]
	ldr	r1, [sp, #16]
	mov	r3, #6
	add	r2, r1, r2
	add	r3, r2, r3
	ldrb	r3, [r3, #0]	@ zero_extendqisi2
	mov	r2, r3
	ldr	r3, [sp, #64]
	str	r2, [r3, #28]
	.loc 4 111 0
	ldr	r1, [sp, #60]
	ldr	r2, [sp, #16]
	mov	r3, #8
	add	r2, r1, r2
	add	r3, r2, r3
	ldrb	r3, [r3, #1]	@ zero_extendqisi2
	mov	r2, r3
	ldr	r3, [sp, #64]
	str	r2, [r3, #32]
	.loc 4 112 0
	ldr	r3, [sp, #64]
	ldr	r3, [r3, #28]
	ldr	r0, [sp, #12]
	mov	r1, r3
	bl	_ZNK15b2DistanceProxy9GetVertexEi
	mov	r2, r0
	add	r3, sp, #48
	ldmia	r2, {r0, r1}
	stmia	r3, {r0, r1}
	.loc 4 113 0
	ldr	r3, [sp, #64]
	ldr	r3, [r3, #32]
	ldr	r0, [sp, #88]
	mov	r1, r3
	bl	_ZNK15b2DistanceProxy9GetVertexEi
	mov	r2, r0
	add	r3, sp, #40
	ldmia	r2, {r0, r1}
	stmia	r3, {r0, r1}
	.loc 4 114 0
	ldr	r4, [sp, #64]
	mov	r2, sp
	add	r3, sp, #48
	mov	r0, r2
	ldr	r1, [sp, #8]
	mov	r2, r3
	bl	_Z5b2MulRK11b2TransformRK6b2Vec2
	mov	r3, r4
	mov	r2, sp
	ldmia	r2, {r0, r1}
	stmia	r3, {r0, r1}
	.loc 4 115 0
	ldr	r4, [sp, #64]
	mov	r2, sp
	add	r3, sp, #40
	mov	r0, r2
	ldr	r1, [sp, #92]
	mov	r2, r3
	bl	_Z5b2MulRK11b2TransformRK6b2Vec2
	add	r3, r4, #8
	mov	r2, sp
	ldmia	r2, {r0, r1}
	stmia	r3, {r0, r1}
	.loc 4 116 0
	ldr	r3, [sp, #64]
	add	r2, r3, #8
	ldr	r3, [sp, #64]
	ldr	r4, [sp, #64]
	mov	r1, sp
	mov	r0, r1
	mov	r1, r2
	mov	r2, r3
	bl	_ZmiRK6b2Vec2S1_
	add	r3, r4, #16
	mov	r2, sp
	ldmia	r2, {r0, r1}
	stmia	r3, {r0, r1}
	.loc 4 117 0
	ldr	r3, [sp, #64]
	flds	s15, .L82
	fsts	s15, [r3, #24]
.LBE16:
	.loc 4 107 0
	ldr	r3, [sp, #60]
	add	r3, r3, #1
	str	r3, [sp, #60]
.L76:
	ldr	r3, [sp, #20]
	ldr	r2, [r3, #108]
	ldr	r3, [sp, #60]
	cmp	r2, r3
	movle	r3, #0
	movgt	r3, #1
	and	r3, r3, #255
	cmp	r3, #0
	bne	.L77
.LBE15:
	.loc 4 122 0
	ldr	r3, [sp, #20]
	ldr	r3, [r3, #108]
	cmp	r3, #1
	ble	.L78
.LBB17:
	.loc 4 124 0
	ldr	r3, [sp, #16]
	flds	s15, [r3, #0]
	fsts	s15, [sp, #68]
	.loc 4 125 0
	ldr	r0, [sp, #20]
	bl	_ZNK9b2Simplex9GetMetricEv
	mov	r3, r0	@ float
	str	r3, [sp, #72]	@ float
	.loc 4 126 0
	flds	s14, [sp, #68]
	flds	s15, .L82+4
	fmuls	s15, s14, s15
	flds	s14, [sp, #72]
	fcmpes	s15, s14
	fmstat
	movle	r3, #0
	movgt	r3, #1
	and	r3, r3, #255
	cmp	r3, #0
	bne	.L79
	flds	s15, [sp, #68]
	fadds	s14, s15, s15
	flds	s15, [sp, #72]
	fcmpes	s14, s15
	fmstat
	movpl	r3, #0
	movmi	r3, #1
	and	r3, r3, #255
	cmp	r3, #0
	bne	.L79
	flds	s14, [sp, #72]
	flds	s15, .L82+8
	fcmpes	s14, s15
	fmstat
	movpl	r3, #0
	movmi	r3, #1
	and	r3, r3, #255
	cmp	r3, #0
	beq	.L78
.L79:
	.loc 4 129 0
	ldr	r3, [sp, #20]
	mov	r2, #0
	str	r2, [r3, #108]
.L78:
.LBE17:
	.loc 4 134 0
	ldr	r3, [sp, #20]
	ldr	r3, [r3, #108]
	cmp	r3, #0
	bne	.L81
.LBB18:
	.loc 4 136 0
	ldr	r3, [sp, #56]
	str	r3, [sp, #76]
	.loc 4 137 0
	ldr	r3, [sp, #76]
	mov	r2, #0
	str	r2, [r3, #28]
	.loc 4 138 0
	ldr	r3, [sp, #76]
	mov	r2, #0
	str	r2, [r3, #32]
	.loc 4 139 0
	ldr	r0, [sp, #12]
	mov	r1, #0
	bl	_ZNK15b2DistanceProxy9GetVertexEi
	mov	r2, r0
	add	r3, sp, #32
	ldmia	r2, {r0, r1}
	stmia	r3, {r0, r1}
	.loc 4 140 0
	ldr	r0, [sp, #88]
	mov	r1, #0
	bl	_ZNK15b2DistanceProxy9GetVertexEi
	mov	r2, r0
	add	r3, sp, #24
	ldmia	r2, {r0, r1}
	stmia	r3, {r0, r1}
	.loc 4 141 0
	ldr	r4, [sp, #76]
	mov	r2, sp
	add	r3, sp, #32
	mov	r0, r2
	ldr	r1, [sp, #8]
	mov	r2, r3
	bl	_Z5b2MulRK11b2TransformRK6b2Vec2
	mov	r3, r4
	mov	r2, sp
	ldmia	r2, {r0, r1}
	stmia	r3, {r0, r1}
	.loc 4 142 0
	ldr	r4, [sp, #76]
	mov	r2, sp
	add	r3, sp, #24
	mov	r0, r2
	ldr	r1, [sp, #92]
	mov	r2, r3
	bl	_Z5b2MulRK11b2TransformRK6b2Vec2
	add	r3, r4, #8
	mov	r2, sp
	ldmia	r2, {r0, r1}
	stmia	r3, {r0, r1}
	.loc 4 143 0
	ldr	r3, [sp, #76]
	add	r2, r3, #8
	ldr	r3, [sp, #76]
	ldr	r4, [sp, #76]
	mov	r1, sp
	mov	r0, r1
	mov	r1, r2
	mov	r2, r3
	bl	_ZmiRK6b2Vec2S1_
	add	r3, r4, #16
	mov	r2, sp
	ldmia	r2, {r0, r1}
	stmia	r3, {r0, r1}
	.loc 4 144 0
	ldr	r3, [sp, #76]
	flds	s15, .L82+12
	fsts	s15, [r3, #24]
	.loc 4 145 0
	ldr	r3, [sp, #20]
	mov	r2, #1
	str	r2, [r3, #108]
.L81:
.LBE18:
.LBE14:
	.loc 4 147 0
	add	sp, sp, #80
	ldmfd	sp!, {r4, pc}
.L83:
	.align	2
.L82:
	.word	0
	.word	1056964608
	.word	872415232
	.word	1065353216
	.word	.LC2
	.word	.LC5
	.cfi_endproc
.LFE160:
	.size	_ZN9b2Simplex9ReadCacheEPK14b2SimplexCachePK15b2DistanceProxyRK11b2TransformS5_S8_, .-_ZN9b2Simplex9ReadCacheEPK14b2SimplexCachePK15b2DistanceProxyRK11b2TransformS5_S8_
	.section	.text._ZNK9b2Simplex10WriteCacheEP14b2SimplexCache,"axG",%progbits,_ZNK9b2Simplex10WriteCacheEP14b2SimplexCache,comdat
	.align	2
	.weak	_ZNK9b2Simplex10WriteCacheEP14b2SimplexCache
	.hidden	_ZNK9b2Simplex10WriteCacheEP14b2SimplexCache
	.type	_ZNK9b2Simplex10WriteCacheEP14b2SimplexCache, %function
_ZNK9b2Simplex10WriteCacheEP14b2SimplexCache:
.LFB161:
	.loc 4 149 0
	.cfi_startproc
	@ args = 0, pretend = 0, frame = 16
	@ frame_needed = 0, uses_anonymous_args = 0
	str	lr, [sp, #-4]!
.LCFI39:
	.cfi_def_cfa_offset 4
	sub	sp, sp, #20
.LCFI40:
	.cfi_def_cfa_offset 24
	str	r0, [sp, #4]
	str	r1, [sp, #0]
.LBB19:
	.loc 4 151 0
	ldr	r0, [sp, #4]
	.cfi_offset 14, -4
	bl	_ZNK9b2Simplex9GetMetricEv
	mov	r2, r0	@ float
	ldr	r3, [sp, #0]
	str	r2, [r3, #0]	@ float
	.loc 4 152 0
	ldr	r3, [sp, #4]
	ldr	r3, [r3, #108]
	mov	r3, r3, asl #16
	mov	r2, r3, lsr #16
	ldr	r3, [sp, #0]
	strh	r2, [r3, #4]	@ movhi
	.loc 4 153 0
	ldr	r3, [sp, #4]
	str	r3, [sp, #8]
.LBB20:
	.loc 4 154 0
	mov	r3, #0
	str	r3, [sp, #12]
	b	.L85
.L86:
	.loc 4 156 0
	ldr	r1, [sp, #12]
	ldr	r2, [sp, #12]
	mov	r3, r2
	mov	r3, r3, asl #3
	add	r3, r3, r2
	mov	r3, r3, asl #2
	mov	r2, r3
	ldr	r3, [sp, #8]
	add	r3, r2, r3
	ldr	r3, [r3, #28]
	and	r2, r3, #255
	ldr	r0, [sp, #0]
	mov	r3, #6
	add	r1, r0, r1
	add	r3, r1, r3
	strb	r2, [r3, #0]
	.loc 4 157 0
	ldr	r0, [sp, #12]
	ldr	r2, [sp, #12]
	mov	r3, r2
	mov	r3, r3, asl #3
	add	r3, r3, r2
	mov	r3, r3, asl #2
	mov	r2, r3
	ldr	r3, [sp, #8]
	add	r3, r2, r3
	ldr	r3, [r3, #32]
	and	r2, r3, #255
	ldr	r1, [sp, #0]
	mov	r3, #8
	add	r1, r0, r1
	add	r3, r1, r3
	strb	r2, [r3, #1]
	.loc 4 154 0
	ldr	r3, [sp, #12]
	add	r3, r3, #1
	str	r3, [sp, #12]
.L85:
	ldr	r3, [sp, #4]
	ldr	r2, [r3, #108]
	ldr	r3, [sp, #12]
	cmp	r2, r3
	movle	r3, #0
	movgt	r3, #1
	and	r3, r3, #255
	cmp	r3, #0
	bne	.L86
.LBE20:
.LBE19:
	.loc 4 159 0
	add	sp, sp, #20
	ldmfd	sp!, {pc}
	.cfi_endproc
.LFE161:
	.size	_ZNK9b2Simplex10WriteCacheEP14b2SimplexCache, .-_ZNK9b2Simplex10WriteCacheEP14b2SimplexCache
	.section	.text._ZNK9b2Simplex18GetSearchDirectionEv,"axG",%progbits,_ZNK9b2Simplex18GetSearchDirectionEv,comdat
	.align	2
	.weak	_ZNK9b2Simplex18GetSearchDirectionEv
	.hidden	_ZNK9b2Simplex18GetSearchDirectionEv
	.type	_ZNK9b2Simplex18GetSearchDirectionEv, %function
_ZNK9b2Simplex18GetSearchDirectionEv:
.LFB162:
	.loc 4 161 0
	.cfi_startproc
	@ args = 0, pretend = 0, frame = 32
	@ frame_needed = 0, uses_anonymous_args = 0
	stmfd	sp!, {r4, lr}
.LCFI41:
	.cfi_def_cfa_offset 8
	sub	sp, sp, #32
.LCFI42:
	.cfi_def_cfa_offset 40
	mov	r4, r0
	.cfi_offset 14, -4
	.cfi_offset 4, -8
	str	r1, [sp, #4]
.LBB21:
	.loc 4 163 0
	ldr	r3, [sp, #4]
	ldr	r3, [r3, #108]
	cmp	r3, #1
	beq	.L90
	cmp	r3, #2
	beq	.L91
	b	.L95
.L90:
	.loc 4 166 0
	ldr	r3, [sp, #4]
	add	r3, r3, #16
	mov	r0, r4
	mov	r1, r3
	bl	_ZNK6b2Vec2ngEv
	b	.L88
.L91:
.LBB22:
	.loc 4 170 0
	ldr	r3, [sp, #4]
	add	r2, r3, #52
	ldr	r3, [sp, #4]
	add	r3, r3, #16
	add	r1, sp, #12
	mov	r0, r1
	mov	r1, r2
	mov	r2, r3
	bl	_ZmiRK6b2Vec2S1_
	.loc 4 171 0
	ldr	r3, [sp, #4]
	add	r3, r3, #16
	add	r2, sp, #20
	mov	r0, r2
	mov	r1, r3
	bl	_ZNK6b2Vec2ngEv
	add	r2, sp, #12
	add	r3, sp, #20
	mov	r0, r2
	mov	r1, r3
	bl	_Z7b2CrossRK6b2Vec2S1_
	mov	r3, r0	@ float
	str	r3, [sp, #28]	@ float
	.loc 4 172 0
	flds	s15, [sp, #28]
	fcmpezs	s15
	fmstat
	movle	r3, #0
	movgt	r3, #1
	and	r3, r3, #255
	cmp	r3, #0
	beq	.L93
	.loc 4 175 0
	add	r3, sp, #12
	mov	r0, r4
	ldr	r1, .L96	@ float
	mov	r2, r3
	bl	_Z7b2CrossfRK6b2Vec2
	b	.L88
.L93:
	.loc 4 180 0
	add	r3, sp, #12
	mov	r0, r4
	mov	r1, r3
	ldr	r2, .L96	@ float
	bl	_Z7b2CrossRK6b2Vec2f
	b	.L88
.L95:
.LBE22:
	.loc 4 185 0
	ldr	r0, .L96+4
	mov	r1, #185
	ldr	r2, .L96+8
	bl	__assert
	.loc 4 186 0
	ldr	r2, .L96+12
	mov	r3, r4
	ldmia	r2, {r0, r1}
	stmia	r3, {r0, r1}
.L88:
.LBE21:
	.loc 4 188 0
	mov	r0, r4
	add	sp, sp, #32
	ldmfd	sp!, {r4, pc}
.L97:
	.align	2
.L96:
	.word	1065353216
	.word	.LC2
	.word	.LC4
	.word	b2Vec2_zero
	.cfi_endproc
.LFE162:
	.size	_ZNK9b2Simplex18GetSearchDirectionEv, .-_ZNK9b2Simplex18GetSearchDirectionEv
	.section	.text._ZNK9b2Simplex15GetClosestPointEv,"axG",%progbits,_ZNK9b2Simplex15GetClosestPointEv,comdat
	.align	2
	.weak	_ZNK9b2Simplex15GetClosestPointEv
	.hidden	_ZNK9b2Simplex15GetClosestPointEv
	.type	_ZNK9b2Simplex15GetClosestPointEv, %function
_ZNK9b2Simplex15GetClosestPointEv:
.LFB163:
	.loc 4 190 0
	.cfi_startproc
	@ args = 0, pretend = 0, frame = 24
	@ frame_needed = 0, uses_anonymous_args = 0
	stmfd	sp!, {r4, lr}
.LCFI43:
	.cfi_def_cfa_offset 8
	sub	sp, sp, #24
.LCFI44:
	.cfi_def_cfa_offset 32
	mov	r4, r0
	.cfi_offset 14, -4
	.cfi_offset 4, -8
	str	r1, [sp, #4]
	.loc 4 192 0
	ldr	r3, [sp, #4]
	ldr	r3, [r3, #108]
	cmp	r3, #3
	ldrls	pc, [pc, r3, asl #2]
	b	.L99
.L104:
	.word	.L100
	.word	.L101
	.word	.L102
	.word	.L103
.L100:
	.loc 4 195 0
	ldr	r0, .L107
	mov	r1, #195
	ldr	r2, .L107+4
	bl	__assert
	.loc 4 196 0
	ldr	r2, .L107+8
	mov	r3, r4
	ldmia	r2, {r0, r1}
	stmia	r3, {r0, r1}
	b	.L98
.L101:
	.loc 4 199 0
	ldr	r2, [sp, #4]
	mov	r3, r4
	add	r2, r2, #16
	ldmia	r2, {r0, r1}
	stmia	r3, {r0, r1}
	b	.L98
.L102:
	.loc 4 202 0
	ldr	r3, [sp, #4]
	ldr	r2, [r3, #24]	@ float
	ldr	r3, [sp, #4]
	add	r3, r3, #16
	add	r1, sp, #8
	mov	r0, r1
	mov	r1, r2	@ float
	mov	r2, r3
	bl	_ZmlfRK6b2Vec2
	ldr	r3, [sp, #4]
	ldr	r2, [r3, #60]	@ float
	ldr	r3, [sp, #4]
	add	r3, r3, #52
	add	r1, sp, #16
	mov	r0, r1
	mov	r1, r2	@ float
	mov	r2, r3
	bl	_ZmlfRK6b2Vec2
	add	r2, sp, #8
	add	r3, sp, #16
	mov	r0, r4
	mov	r1, r2
	mov	r2, r3
	bl	_ZplRK6b2Vec2S1_
	b	.L98
.L103:
	.loc 4 205 0
	ldr	r2, .L107+8
	mov	r3, r4
	ldmia	r2, {r0, r1}
	stmia	r3, {r0, r1}
	b	.L98
.L99:
	.loc 4 208 0
	ldr	r0, .L107
	mov	r1, #208
	ldr	r2, .L107+4
	bl	__assert
	.loc 4 209 0
	ldr	r2, .L107+8
	mov	r3, r4
	ldmia	r2, {r0, r1}
	stmia	r3, {r0, r1}
.L98:
	.loc 4 211 0
	mov	r0, r4
	add	sp, sp, #24
	ldmfd	sp!, {r4, pc}
.L108:
	.align	2
.L107:
	.word	.LC2
	.word	.LC4
	.word	b2Vec2_zero
	.cfi_endproc
.LFE163:
	.size	_ZNK9b2Simplex15GetClosestPointEv, .-_ZNK9b2Simplex15GetClosestPointEv
	.section	.text._ZNK9b2Simplex16GetWitnessPointsEP6b2Vec2S1_,"axG",%progbits,_ZNK9b2Simplex16GetWitnessPointsEP6b2Vec2S1_,comdat
	.align	2
	.weak	_ZNK9b2Simplex16GetWitnessPointsEP6b2Vec2S1_
	.hidden	_ZNK9b2Simplex16GetWitnessPointsEP6b2Vec2S1_
	.type	_ZNK9b2Simplex16GetWitnessPointsEP6b2Vec2S1_, %function
_ZNK9b2Simplex16GetWitnessPointsEP6b2Vec2S1_:
.LFB164:
	.loc 4 213 0
	.cfi_startproc
	@ args = 0, pretend = 0, frame = 88
	@ frame_needed = 0, uses_anonymous_args = 0
	stmfd	sp!, {r4, lr}
.LCFI45:
	.cfi_def_cfa_offset 8
	sub	sp, sp, #88
.LCFI46:
	.cfi_def_cfa_offset 96
	str	r0, [sp, #20]
	str	r1, [sp, #16]
	str	r2, [sp, #12]
	.loc 4 215 0
	ldr	r3, [sp, #20]
	ldr	r3, [r3, #108]
	cmp	r3, #3
	ldrls	pc, [pc, r3, asl #2]
	b	.L110
	.cfi_offset 14, -4
	.cfi_offset 4, -8
.L115:
	.word	.L111
	.word	.L112
	.word	.L113
	.word	.L114
.L111:
	.loc 4 218 0
	ldr	r0, .L118
	mov	r1, #218
	ldr	r2, .L118+4
	bl	__assert
	.loc 4 219 0
	b	.L117
.L112:
	.loc 4 222 0
	ldr	r3, [sp, #16]
	ldr	r2, [sp, #20]
	ldmia	r2, {r0, r1}
	stmia	r3, {r0, r1}
	.loc 4 223 0
	ldr	r3, [sp, #12]
	ldr	r2, [sp, #20]
	add	r2, r2, #8
	ldmia	r2, {r0, r1}
	stmia	r3, {r0, r1}
	.loc 4 224 0
	b	.L117
.L113:
	.loc 4 227 0
	ldr	r3, [sp, #20]
	ldr	r2, [r3, #24]	@ float
	ldr	r3, [sp, #20]
	add	r1, sp, #24
	mov	r0, r1
	mov	r1, r2	@ float
	mov	r2, r3
	bl	_ZmlfRK6b2Vec2
	ldr	r3, [sp, #20]
	ldr	r2, [r3, #60]	@ float
	ldr	r3, [sp, #20]
	add	r3, r3, #36
	add	r1, sp, #32
	mov	r0, r1
	mov	r1, r2	@ float
	mov	r2, r3
	bl	_ZmlfRK6b2Vec2
	ldr	r4, [sp, #16]
	mov	r1, sp
	add	r2, sp, #24
	add	r3, sp, #32
	mov	r0, r1
	mov	r1, r2
	mov	r2, r3
	bl	_ZplRK6b2Vec2S1_
	mov	r3, r4
	mov	r2, sp
	ldmia	r2, {r0, r1}
	stmia	r3, {r0, r1}
	.loc 4 228 0
	ldr	r3, [sp, #20]
	ldr	r2, [r3, #24]	@ float
	ldr	r3, [sp, #20]
	add	r3, r3, #8
	add	r1, sp, #40
	mov	r0, r1
	mov	r1, r2	@ float
	mov	r2, r3
	bl	_ZmlfRK6b2Vec2
	ldr	r3, [sp, #20]
	ldr	r2, [r3, #60]	@ float
	ldr	r3, [sp, #20]
	add	r3, r3, #44
	add	r1, sp, #48
	mov	r0, r1
	mov	r1, r2	@ float
	mov	r2, r3
	bl	_ZmlfRK6b2Vec2
	ldr	r4, [sp, #12]
	mov	r1, sp
	add	r2, sp, #40
	add	r3, sp, #48
	mov	r0, r1
	mov	r1, r2
	mov	r2, r3
	bl	_ZplRK6b2Vec2S1_
	mov	r3, r4
	mov	r2, sp
	ldmia	r2, {r0, r1}
	stmia	r3, {r0, r1}
	.loc 4 229 0
	b	.L117
.L114:
	.loc 4 232 0
	ldr	r3, [sp, #20]
	ldr	r2, [r3, #24]	@ float
	ldr	r3, [sp, #20]
	add	r1, sp, #64
	mov	r0, r1
	mov	r1, r2	@ float
	mov	r2, r3
	bl	_ZmlfRK6b2Vec2
	ldr	r3, [sp, #20]
	ldr	r2, [r3, #60]	@ float
	ldr	r3, [sp, #20]
	add	r3, r3, #36
	add	r1, sp, #72
	mov	r0, r1
	mov	r1, r2	@ float
	mov	r2, r3
	bl	_ZmlfRK6b2Vec2
	add	r1, sp, #56
	add	r2, sp, #64
	add	r3, sp, #72
	mov	r0, r1
	mov	r1, r2
	mov	r2, r3
	bl	_ZplRK6b2Vec2S1_
	ldr	r3, [sp, #20]
	ldr	r2, [r3, #96]	@ float
	ldr	r3, [sp, #20]
	add	r3, r3, #72
	add	r1, sp, #80
	mov	r0, r1
	mov	r1, r2	@ float
	mov	r2, r3
	bl	_ZmlfRK6b2Vec2
	ldr	r4, [sp, #16]
	mov	r1, sp
	add	r2, sp, #56
	add	r3, sp, #80
	mov	r0, r1
	mov	r1, r2
	mov	r2, r3
	bl	_ZplRK6b2Vec2S1_
	mov	r3, r4
	mov	r2, sp
	ldmia	r2, {r0, r1}
	stmia	r3, {r0, r1}
	.loc 4 233 0
	ldr	r3, [sp, #12]
	ldr	r2, [sp, #16]
	ldmia	r2, {r0, r1}
	stmia	r3, {r0, r1}
	.loc 4 234 0
	b	.L117
.L110:
	.loc 4 237 0
	ldr	r0, .L118
	mov	r1, #237
	ldr	r2, .L118+4
	bl	__assert
.L117:
	.loc 4 240 0
	add	sp, sp, #88
	ldmfd	sp!, {r4, pc}
.L119:
	.align	2
.L118:
	.word	.LC2
	.word	.LC4
	.cfi_endproc
.LFE164:
	.size	_ZNK9b2Simplex16GetWitnessPointsEP6b2Vec2S1_, .-_ZNK9b2Simplex16GetWitnessPointsEP6b2Vec2S1_
	.section	.text._ZNK9b2Simplex9GetMetricEv,"axG",%progbits,_ZNK9b2Simplex9GetMetricEv,comdat
	.align	2
	.weak	_ZNK9b2Simplex9GetMetricEv
	.hidden	_ZNK9b2Simplex9GetMetricEv
	.type	_ZNK9b2Simplex9GetMetricEv, %function
_ZNK9b2Simplex9GetMetricEv:
.LFB165:
	.loc 4 242 0
	.cfi_startproc
	@ args = 0, pretend = 0, frame = 24
	@ frame_needed = 0, uses_anonymous_args = 0
	str	lr, [sp, #-4]!
.LCFI47:
	.cfi_def_cfa_offset 4
	sub	sp, sp, #28
.LCFI48:
	.cfi_def_cfa_offset 32
	str	r0, [sp, #4]
	.loc 4 244 0
	ldr	r3, [sp, #4]
	ldr	r3, [r3, #108]
	cmp	r3, #3
	ldrls	pc, [pc, r3, asl #2]
	b	.L121
	.cfi_offset 14, -4
.L126:
	.word	.L122
	.word	.L123
	.word	.L124
	.word	.L125
.L122:
	.loc 4 247 0
	ldr	r0, .L129+4
	mov	r1, #247
	ldr	r2, .L129+8
	bl	__assert
	.loc 4 248 0
	flds	s15, .L129
	b	.L127
.L123:
	.loc 4 251 0
	flds	s15, .L129
	b	.L127
.L124:
	.loc 4 254 0
	ldr	r3, [sp, #4]
	add	r2, r3, #16
	ldr	r3, [sp, #4]
	add	r3, r3, #52
	mov	r0, r2
	mov	r1, r3
	bl	_Z10b2DistanceRK6b2Vec2S1_
	mov	r3, r0	@ float
	fmsr	s15, r3
	b	.L127
.L125:
	.loc 4 257 0
	ldr	r3, [sp, #4]
	add	r2, r3, #52
	ldr	r3, [sp, #4]
	add	r3, r3, #16
	add	r1, sp, #8
	mov	r0, r1
	mov	r1, r2
	mov	r2, r3
	bl	_ZmiRK6b2Vec2S1_
	ldr	r3, [sp, #4]
	add	r2, r3, #88
	ldr	r3, [sp, #4]
	add	r3, r3, #16
	add	r1, sp, #16
	mov	r0, r1
	mov	r1, r2
	mov	r2, r3
	bl	_ZmiRK6b2Vec2S1_
	add	r2, sp, #8
	add	r3, sp, #16
	mov	r0, r2
	mov	r1, r3
	bl	_Z7b2CrossRK6b2Vec2S1_
	mov	r3, r0	@ float
	fmsr	s15, r3
	b	.L127
.L121:
	.loc 4 260 0
	ldr	r0, .L129+4
	mov	r1, #260
	ldr	r2, .L129+8
	bl	__assert
	.loc 4 261 0
	flds	s15, .L129
.L127:
	fmrs	r3, s15
	.loc 4 263 0
	mov	r0, r3	@ float
	add	sp, sp, #28
	ldmfd	sp!, {pc}
.L130:
	.align	2
.L129:
	.word	0
	.word	.LC2
	.word	.LC4
	.cfi_endproc
.LFE165:
	.size	_ZNK9b2Simplex9GetMetricEv, .-_ZNK9b2Simplex9GetMetricEv
	.section	.text._ZN9b2Simplex6Solve2Ev,"ax",%progbits
	.align	2
	.global	_ZN9b2Simplex6Solve2Ev
	.hidden	_ZN9b2Simplex6Solve2Ev
	.type	_ZN9b2Simplex6Solve2Ev, %function
_ZN9b2Simplex6Solve2Ev:
.LFB166:
	.loc 4 297 0
	.cfi_startproc
	@ args = 0, pretend = 0, frame = 48
	@ frame_needed = 0, uses_anonymous_args = 0
	stmfd	sp!, {r4, lr}
.LCFI49:
	.cfi_def_cfa_offset 8
	sub	sp, sp, #48
.LCFI50:
	.cfi_def_cfa_offset 56
	str	r0, [sp, #4]
.LBB23:
	.loc 4 298 0
	ldr	r2, [sp, #4]
	add	r3, sp, #28
	add	r2, r2, #16
	ldmia	r2, {r0, r1}
	stmia	r3, {r0, r1}
	.loc 4 299 0
	ldr	r2, [sp, #4]
	add	r3, sp, #20
	add	r2, r2, #52
	ldmia	r2, {r0, r1}
	stmia	r3, {r0, r1}
	.loc 4 300 0
	add	r1, sp, #12
	add	r2, sp, #20
	add	r3, sp, #28
	mov	r0, r1
	mov	r1, r2
	mov	r2, r3
	.cfi_offset 14, -4
	.cfi_offset 4, -8
	bl	_ZmiRK6b2Vec2S1_
	.loc 4 303 0
	add	r2, sp, #28
	add	r3, sp, #12
	mov	r0, r2
	mov	r1, r3
	bl	_Z5b2DotRK6b2Vec2S1_
	fmsr	s15, r0
	fnegs	s15, s15
	fsts	s15, [sp, #36]
	.loc 4 304 0
	flds	s15, [sp, #36]
	fcmpezs	s15
	fmstat
	movhi	r3, #0
	movls	r3, #1
	and	r3, r3, #255
	cmp	r3, #0
	beq	.L132
	.loc 4 307 0
	ldr	r3, [sp, #4]
	flds	s15, .L136
	fsts	s15, [r3, #24]
	.loc 4 308 0
	ldr	r3, [sp, #4]
	mov	r2, #1
	str	r2, [r3, #108]
	.loc 4 309 0
	b	.L135
.L132:
	.loc 4 313 0
	add	r2, sp, #20
	add	r3, sp, #12
	mov	r0, r2
	mov	r1, r3
	bl	_Z5b2DotRK6b2Vec2S1_
	mov	r3, r0	@ float
	str	r3, [sp, #40]	@ float
	.loc 4 314 0
	flds	s15, [sp, #40]
	fcmpezs	s15
	fmstat
	movhi	r3, #0
	movls	r3, #1
	and	r3, r3, #255
	cmp	r3, #0
	beq	.L134
	.loc 4 317 0
	ldr	r3, [sp, #4]
	flds	s15, .L136
	fsts	s15, [r3, #60]
	.loc 4 318 0
	ldr	r3, [sp, #4]
	mov	r2, #1
	str	r2, [r3, #108]
	.loc 4 319 0
	ldr	r2, [sp, #4]
	ldr	r3, [sp, #4]
	mov	ip, r2
	add	r4, r3, #36
	ldmia	r4!, {r0, r1, r2, r3}
	stmia	ip!, {r0, r1, r2, r3}
	ldmia	r4!, {r0, r1, r2, r3}
	stmia	ip!, {r0, r1, r2, r3}
	ldr	r3, [r4, #0]
	str	r3, [ip, #0]
	.loc 4 320 0
	b	.L135
.L134:
	.loc 4 324 0
	flds	s14, [sp, #40]
	flds	s15, [sp, #36]
	fadds	s15, s14, s15
	flds	s14, .L136
	fdivs	s15, s14, s15
	fsts	s15, [sp, #44]
	.loc 4 325 0
	flds	s14, [sp, #40]
	flds	s15, [sp, #44]
	fmuls	s15, s14, s15
	ldr	r3, [sp, #4]
	fsts	s15, [r3, #24]
	.loc 4 326 0
	flds	s14, [sp, #36]
	flds	s15, [sp, #44]
	fmuls	s15, s14, s15
	ldr	r3, [sp, #4]
	fsts	s15, [r3, #60]
	.loc 4 327 0
	ldr	r3, [sp, #4]
	mov	r2, #2
	str	r2, [r3, #108]
.L135:
.LBE23:
	.loc 4 328 0
	add	sp, sp, #48
	ldmfd	sp!, {r4, pc}
.L137:
	.align	2
.L136:
	.word	1065353216
	.cfi_endproc
.LFE166:
	.size	_ZN9b2Simplex6Solve2Ev, .-_ZN9b2Simplex6Solve2Ev
	.section	.text._ZN9b2Simplex6Solve3Ev,"ax",%progbits
	.align	2
	.global	_ZN9b2Simplex6Solve3Ev
	.hidden	_ZN9b2Simplex6Solve3Ev
	.type	_ZN9b2Simplex6Solve3Ev, %function
_ZN9b2Simplex6Solve3Ev:
.LFB167:
	.loc 4 336 0
	.cfi_startproc
	@ args = 0, pretend = 0, frame = 136
	@ frame_needed = 0, uses_anonymous_args = 0
	stmfd	sp!, {r4, lr}
.LCFI51:
	.cfi_def_cfa_offset 8
	sub	sp, sp, #136
.LCFI52:
	.cfi_def_cfa_offset 144
	str	r0, [sp, #4]
.LBB24:
	.loc 4 337 0
	ldr	r2, [sp, #4]
	add	r3, sp, #48
	add	r2, r2, #16
	ldmia	r2, {r0, r1}
	stmia	r3, {r0, r1}
	.loc 4 338 0
	ldr	r2, [sp, #4]
	add	r3, sp, #40
	add	r2, r2, #52
	ldmia	r2, {r0, r1}
	stmia	r3, {r0, r1}
	.loc 4 339 0
	ldr	r2, [sp, #4]
	add	r3, sp, #32
	add	r2, r2, #88
	ldmia	r2, {r0, r1}
	stmia	r3, {r0, r1}
	.loc 4 345 0
	add	r1, sp, #24
	add	r2, sp, #40
	add	r3, sp, #48
	mov	r0, r1
	mov	r1, r2
	mov	r2, r3
	.cfi_offset 14, -4
	.cfi_offset 4, -8
	bl	_ZmiRK6b2Vec2S1_
	.loc 4 346 0
	add	r2, sp, #48
	add	r3, sp, #24
	mov	r0, r2
	mov	r1, r3
	bl	_Z5b2DotRK6b2Vec2S1_
	mov	r3, r0	@ float
	str	r3, [sp, #56]	@ float
	.loc 4 347 0
	add	r2, sp, #40
	add	r3, sp, #24
	mov	r0, r2
	mov	r1, r3
	bl	_Z5b2DotRK6b2Vec2S1_
	mov	r3, r0	@ float
	str	r3, [sp, #60]	@ float
	.loc 4 348 0
	flds	s15, [sp, #60]
	fsts	s15, [sp, #64]
	.loc 4 349 0
	flds	s15, [sp, #56]
	fnegs	s15, s15
	fsts	s15, [sp, #68]
	.loc 4 355 0
	add	r1, sp, #16
	add	r2, sp, #32
	add	r3, sp, #48
	mov	r0, r1
	mov	r1, r2
	mov	r2, r3
	bl	_ZmiRK6b2Vec2S1_
	.loc 4 356 0
	add	r2, sp, #48
	add	r3, sp, #16
	mov	r0, r2
	mov	r1, r3
	bl	_Z5b2DotRK6b2Vec2S1_
	mov	r3, r0	@ float
	str	r3, [sp, #72]	@ float
	.loc 4 357 0
	add	r2, sp, #32
	add	r3, sp, #16
	mov	r0, r2
	mov	r1, r3
	bl	_Z5b2DotRK6b2Vec2S1_
	mov	r3, r0	@ float
	str	r3, [sp, #76]	@ float
	.loc 4 358 0
	flds	s15, [sp, #76]
	fsts	s15, [sp, #80]
	.loc 4 359 0
	flds	s15, [sp, #72]
	fnegs	s15, s15
	fsts	s15, [sp, #84]
	.loc 4 365 0
	add	r1, sp, #8
	add	r2, sp, #32
	add	r3, sp, #40
	mov	r0, r1
	mov	r1, r2
	mov	r2, r3
	bl	_ZmiRK6b2Vec2S1_
	.loc 4 366 0
	add	r2, sp, #40
	add	r3, sp, #8
	mov	r0, r2
	mov	r1, r3
	bl	_Z5b2DotRK6b2Vec2S1_
	mov	r3, r0	@ float
	str	r3, [sp, #88]	@ float
	.loc 4 367 0
	add	r2, sp, #32
	add	r3, sp, #8
	mov	r0, r2
	mov	r1, r3
	bl	_Z5b2DotRK6b2Vec2S1_
	mov	r3, r0	@ float
	str	r3, [sp, #92]	@ float
	.loc 4 368 0
	flds	s15, [sp, #92]
	fsts	s15, [sp, #96]
	.loc 4 369 0
	flds	s15, [sp, #88]
	fnegs	s15, s15
	fsts	s15, [sp, #100]
	.loc 4 372 0
	add	r2, sp, #24
	add	r3, sp, #16
	mov	r0, r2
	mov	r1, r3
	bl	_Z7b2CrossRK6b2Vec2S1_
	mov	r3, r0	@ float
	str	r3, [sp, #104]	@ float
	.loc 4 374 0
	add	r2, sp, #40
	add	r3, sp, #32
	mov	r0, r2
	mov	r1, r3
	bl	_Z7b2CrossRK6b2Vec2S1_
	fmsr	s14, r0
	flds	s15, [sp, #104]
	fmuls	s15, s14, s15
	fsts	s15, [sp, #108]
	.loc 4 375 0
	add	r2, sp, #32
	add	r3, sp, #48
	mov	r0, r2
	mov	r1, r3
	bl	_Z7b2CrossRK6b2Vec2S1_
	fmsr	s14, r0
	flds	s15, [sp, #104]
	fmuls	s15, s14, s15
	fsts	s15, [sp, #112]
	.loc 4 376 0
	add	r2, sp, #48
	add	r3, sp, #40
	mov	r0, r2
	mov	r1, r3
	bl	_Z7b2CrossRK6b2Vec2S1_
	fmsr	s14, r0
	flds	s15, [sp, #104]
	fmuls	s15, s14, s15
	fsts	s15, [sp, #116]
	.loc 4 379 0
	flds	s15, [sp, #68]
	fcmpezs	s15
	fmstat
	movhi	r3, #0
	movls	r3, #1
	and	r3, r3, #255
	cmp	r3, #0
	beq	.L139
	flds	s15, [sp, #84]
	fcmpezs	s15
	fmstat
	movhi	r3, #0
	movls	r3, #1
	and	r3, r3, #255
	cmp	r3, #0
	beq	.L139
	.loc 4 381 0
	ldr	r3, [sp, #4]
	flds	s15, .L147
	fsts	s15, [r3, #24]
	.loc 4 382 0
	ldr	r3, [sp, #4]
	mov	r2, #1
	str	r2, [r3, #108]
	.loc 4 383 0
	b	.L146
.L139:
	.loc 4 387 0
	flds	s15, [sp, #64]
	fcmpezs	s15
	fmstat
	movle	r3, #0
	movgt	r3, #1
	and	r3, r3, #255
	cmp	r3, #0
	beq	.L141
	flds	s15, [sp, #68]
	fcmpezs	s15
	fmstat
	movle	r3, #0
	movgt	r3, #1
	and	r3, r3, #255
	cmp	r3, #0
	beq	.L141
	flds	s15, [sp, #116]
	fcmpezs	s15
	fmstat
	movhi	r3, #0
	movls	r3, #1
	and	r3, r3, #255
	cmp	r3, #0
	beq	.L141
.LBB25:
	.loc 4 389 0
	flds	s14, [sp, #64]
	flds	s15, [sp, #68]
	fadds	s15, s14, s15
	flds	s14, .L147
	fdivs	s15, s14, s15
	fsts	s15, [sp, #124]
	.loc 4 390 0
	flds	s14, [sp, #64]
	flds	s15, [sp, #124]
	fmuls	s15, s14, s15
	ldr	r3, [sp, #4]
	fsts	s15, [r3, #24]
	.loc 4 391 0
	flds	s14, [sp, #68]
	flds	s15, [sp, #124]
	fmuls	s15, s14, s15
	ldr	r3, [sp, #4]
	fsts	s15, [r3, #60]
	.loc 4 392 0
	ldr	r3, [sp, #4]
	mov	r2, #2
	str	r2, [r3, #108]
	.loc 4 393 0
	b	.L146
.L141:
.LBE25:
	.loc 4 397 0
	flds	s15, [sp, #80]
	fcmpezs	s15
	fmstat
	movle	r3, #0
	movgt	r3, #1
	and	r3, r3, #255
	cmp	r3, #0
	beq	.L142
	flds	s15, [sp, #84]
	fcmpezs	s15
	fmstat
	movle	r3, #0
	movgt	r3, #1
	and	r3, r3, #255
	cmp	r3, #0
	beq	.L142
	flds	s15, [sp, #112]
	fcmpezs	s15
	fmstat
	movhi	r3, #0
	movls	r3, #1
	and	r3, r3, #255
	cmp	r3, #0
	beq	.L142
.LBB26:
	.loc 4 399 0
	flds	s14, [sp, #80]
	flds	s15, [sp, #84]
	fadds	s15, s14, s15
	flds	s14, .L147
	fdivs	s15, s14, s15
	fsts	s15, [sp, #128]
	.loc 4 400 0
	flds	s14, [sp, #80]
	flds	s15, [sp, #128]
	fmuls	s15, s14, s15
	ldr	r3, [sp, #4]
	fsts	s15, [r3, #24]
	.loc 4 401 0
	flds	s14, [sp, #84]
	flds	s15, [sp, #128]
	fmuls	s15, s14, s15
	ldr	r3, [sp, #4]
	fsts	s15, [r3, #96]
	.loc 4 402 0
	ldr	r3, [sp, #4]
	mov	r2, #2
	str	r2, [r3, #108]
	.loc 4 403 0
	ldr	r2, [sp, #4]
	ldr	r3, [sp, #4]
	add	ip, r2, #36
	add	r4, r3, #72
	ldmia	r4!, {r0, r1, r2, r3}
	stmia	ip!, {r0, r1, r2, r3}
	ldmia	r4!, {r0, r1, r2, r3}
	stmia	ip!, {r0, r1, r2, r3}
	ldr	r3, [r4, #0]
	str	r3, [ip, #0]
	.loc 4 404 0
	b	.L146
.L142:
.LBE26:
	.loc 4 408 0
	flds	s15, [sp, #64]
	fcmpezs	s15
	fmstat
	movhi	r3, #0
	movls	r3, #1
	and	r3, r3, #255
	cmp	r3, #0
	beq	.L143
	flds	s15, [sp, #100]
	fcmpezs	s15
	fmstat
	movhi	r3, #0
	movls	r3, #1
	and	r3, r3, #255
	cmp	r3, #0
	beq	.L143
	.loc 4 410 0
	ldr	r3, [sp, #4]
	flds	s15, .L147
	fsts	s15, [r3, #60]
	.loc 4 411 0
	ldr	r3, [sp, #4]
	mov	r2, #1
	str	r2, [r3, #108]
	.loc 4 412 0
	ldr	r2, [sp, #4]
	ldr	r3, [sp, #4]
	mov	ip, r2
	add	r4, r3, #36
	ldmia	r4!, {r0, r1, r2, r3}
	stmia	ip!, {r0, r1, r2, r3}
	ldmia	r4!, {r0, r1, r2, r3}
	stmia	ip!, {r0, r1, r2, r3}
	ldr	r3, [r4, #0]
	str	r3, [ip, #0]
	.loc 4 413 0
	b	.L146
.L143:
	.loc 4 417 0
	flds	s15, [sp, #80]
	fcmpezs	s15
	fmstat
	movhi	r3, #0
	movls	r3, #1
	and	r3, r3, #255
	cmp	r3, #0
	beq	.L144
	flds	s15, [sp, #96]
	fcmpezs	s15
	fmstat
	movhi	r3, #0
	movls	r3, #1
	and	r3, r3, #255
	cmp	r3, #0
	beq	.L144
	.loc 4 419 0
	ldr	r3, [sp, #4]
	flds	s15, .L147
	fsts	s15, [r3, #96]
	.loc 4 420 0
	ldr	r3, [sp, #4]
	mov	r2, #1
	str	r2, [r3, #108]
	.loc 4 421 0
	ldr	r2, [sp, #4]
	ldr	r3, [sp, #4]
	mov	ip, r2
	add	r4, r3, #72
	ldmia	r4!, {r0, r1, r2, r3}
	stmia	ip!, {r0, r1, r2, r3}
	ldmia	r4!, {r0, r1, r2, r3}
	stmia	ip!, {r0, r1, r2, r3}
	ldr	r3, [r4, #0]
	str	r3, [ip, #0]
	.loc 4 422 0
	b	.L146
.L144:
	.loc 4 426 0
	flds	s15, [sp, #96]
	fcmpezs	s15
	fmstat
	movle	r3, #0
	movgt	r3, #1
	and	r3, r3, #255
	cmp	r3, #0
	beq	.L145
	flds	s15, [sp, #100]
	fcmpezs	s15
	fmstat
	movle	r3, #0
	movgt	r3, #1
	and	r3, r3, #255
	cmp	r3, #0
	beq	.L145
	flds	s15, [sp, #108]
	fcmpezs	s15
	fmstat
	movhi	r3, #0
	movls	r3, #1
	and	r3, r3, #255
	cmp	r3, #0
	beq	.L145
.LBB27:
	.loc 4 428 0
	flds	s14, [sp, #96]
	flds	s15, [sp, #100]
	fadds	s15, s14, s15
	flds	s14, .L147
	fdivs	s15, s14, s15
	fsts	s15, [sp, #132]
	.loc 4 429 0
	flds	s14, [sp, #96]
	flds	s15, [sp, #132]
	fmuls	s15, s14, s15
	ldr	r3, [sp, #4]
	fsts	s15, [r3, #60]
	.loc 4 430 0
	flds	s14, [sp, #100]
	flds	s15, [sp, #132]
	fmuls	s15, s14, s15
	ldr	r3, [sp, #4]
	fsts	s15, [r3, #96]
	.loc 4 431 0
	ldr	r3, [sp, #4]
	mov	r2, #2
	str	r2, [r3, #108]
	.loc 4 432 0
	ldr	r2, [sp, #4]
	ldr	r3, [sp, #4]
	mov	ip, r2
	add	r4, r3, #72
	ldmia	r4!, {r0, r1, r2, r3}
	stmia	ip!, {r0, r1, r2, r3}
	ldmia	r4!, {r0, r1, r2, r3}
	stmia	ip!, {r0, r1, r2, r3}
	ldr	r3, [r4, #0]
	str	r3, [ip, #0]
	.loc 4 433 0
	b	.L146
.L148:
	.align	2
.L147:
	.word	1065353216
.L145:
.LBE27:
	.loc 4 437 0
	flds	s14, [sp, #108]
	flds	s15, [sp, #112]
	fadds	s14, s14, s15
	flds	s15, [sp, #116]
	fadds	s15, s14, s15
	flds	s14, .L147
	fdivs	s15, s14, s15
	fsts	s15, [sp, #120]
	.loc 4 438 0
	flds	s14, [sp, #108]
	flds	s15, [sp, #120]
	fmuls	s15, s14, s15
	ldr	r3, [sp, #4]
	fsts	s15, [r3, #24]
	.loc 4 439 0
	flds	s14, [sp, #112]
	flds	s15, [sp, #120]
	fmuls	s15, s14, s15
	ldr	r3, [sp, #4]
	fsts	s15, [r3, #60]
	.loc 4 440 0
	flds	s14, [sp, #116]
	flds	s15, [sp, #120]
	fmuls	s15, s14, s15
	ldr	r3, [sp, #4]
	fsts	s15, [r3, #96]
	.loc 4 441 0
	ldr	r3, [sp, #4]
	mov	r2, #3
	str	r2, [r3, #108]
.L146:
.LBE24:
	.loc 4 442 0
	add	sp, sp, #136
	ldmfd	sp!, {r4, pc}
	.cfi_endproc
.LFE167:
	.size	_ZN9b2Simplex6Solve3Ev, .-_ZN9b2Simplex6Solve3Ev
	.section	.text._ZN15b2SimplexVertexC1Ev,"axG",%progbits,_ZN15b2SimplexVertexC1Ev,comdat
	.align	2
	.weak	_ZN15b2SimplexVertexC1Ev
	.hidden	_ZN15b2SimplexVertexC1Ev
	.type	_ZN15b2SimplexVertexC1Ev, %function
_ZN15b2SimplexVertexC1Ev:
.LFB172:
	.loc 4 87 0
	.cfi_startproc
	@ args = 0, pretend = 0, frame = 8
	@ frame_needed = 0, uses_anonymous_args = 0
	str	lr, [sp, #-4]!
.LCFI53:
	.cfi_def_cfa_offset 4
	sub	sp, sp, #12
.LCFI54:
	.cfi_def_cfa_offset 16
	str	r0, [sp, #4]
	.loc 4 87 0
	ldr	r3, [sp, #4]
	mov	r0, r3
	.cfi_offset 14, -4
	bl	_ZN6b2Vec2C1Ev
	ldr	r3, [sp, #4]
	add	r3, r3, #8
	mov	r0, r3
	bl	_ZN6b2Vec2C1Ev
	ldr	r3, [sp, #4]
	add	r3, r3, #16
	mov	r0, r3
	bl	_ZN6b2Vec2C1Ev
	ldr	r3, [sp, #4]
	mov	r0, r3
	add	sp, sp, #12
	ldmfd	sp!, {pc}
	.cfi_endproc
.LFE172:
	.size	_ZN15b2SimplexVertexC1Ev, .-_ZN15b2SimplexVertexC1Ev
	.section	.text._ZN9b2SimplexC1Ev,"axG",%progbits,_ZN9b2SimplexC1Ev,comdat
	.align	2
	.weak	_ZN9b2SimplexC1Ev
	.hidden	_ZN9b2SimplexC1Ev
	.type	_ZN9b2SimplexC1Ev, %function
_ZN9b2SimplexC1Ev:
.LFB174:
	.loc 4 97 0
	.cfi_startproc
	@ args = 0, pretend = 0, frame = 8
	@ frame_needed = 0, uses_anonymous_args = 0
	str	lr, [sp, #-4]!
.LCFI55:
	.cfi_def_cfa_offset 4
	sub	sp, sp, #12
.LCFI56:
	.cfi_def_cfa_offset 16
	str	r0, [sp, #4]
	.loc 4 97 0
	ldr	r3, [sp, #4]
	mov	r0, r3
	.cfi_offset 14, -4
	bl	_ZN15b2SimplexVertexC1Ev
	ldr	r3, [sp, #4]
	add	r3, r3, #36
	mov	r0, r3
	bl	_ZN15b2SimplexVertexC1Ev
	ldr	r3, [sp, #4]
	add	r3, r3, #72
	mov	r0, r3
	bl	_ZN15b2SimplexVertexC1Ev
	ldr	r3, [sp, #4]
	mov	r0, r3
	add	sp, sp, #12
	ldmfd	sp!, {pc}
	.cfi_endproc
.LFE174:
	.size	_ZN9b2SimplexC1Ev, .-_ZN9b2SimplexC1Ev
	.section	.text._Z10b2DistanceP16b2DistanceOutputP14b2SimplexCachePK15b2DistanceInput,"ax",%progbits
	.align	2
	.global	_Z10b2DistanceP16b2DistanceOutputP14b2SimplexCachePK15b2DistanceInput
	.hidden	_Z10b2DistanceP16b2DistanceOutputP14b2SimplexCachePK15b2DistanceInput
	.type	_Z10b2DistanceP16b2DistanceOutputP14b2SimplexCachePK15b2DistanceInput, %function
_Z10b2DistanceP16b2DistanceOutputP14b2SimplexCachePK15b2DistanceInput:
.LFB168:
	.loc 4 447 0
	.cfi_startproc
	@ args = 0, pretend = 0, frame = 336
	@ frame_needed = 0, uses_anonymous_args = 0
	stmfd	sp!, {r4, lr}
.LCFI57:
	.cfi_def_cfa_offset 8
	sub	sp, sp, #344
.LCFI58:
	.cfi_def_cfa_offset 352
	str	r0, [sp, #28]
	str	r1, [sp, #24]
	str	r2, [sp, #20]
.LBB28:
	.loc 4 448 0
	ldr	r3, .L181+8
	ldr	r3, [r3, #0]
	add	r2, r3, #1
	ldr	r3, .L181+8
	str	r2, [r3, #0]
	.loc 4 450 0
	ldr	r3, [sp, #20]
	str	r3, [sp, #288]
	.loc 4 451 0
	ldr	r3, [sp, #20]
	add	r3, r3, #28
	str	r3, [sp, #292]
	.loc 4 453 0
	ldr	r3, [sp, #20]
	add	ip, sp, #224
	add	r3, r3, #56
	ldmia	r3, {r0, r1, r2, r3}
	stmia	ip, {r0, r1, r2, r3}
	.loc 4 454 0
	ldr	r3, [sp, #20]
	add	ip, sp, #208
	add	r3, r3, #72
	ldmia	r3, {r0, r1, r2, r3}
	stmia	ip, {r0, r1, r2, r3}
	.loc 4 457 0
	add	r3, sp, #32
	mov	r0, r3
	.cfi_offset 14, -4
	.cfi_offset 4, -8
	bl	_ZN9b2SimplexC1Ev
	.loc 4 458 0
	add	r2, sp, #32
	add	r3, sp, #224
	ldr	r1, [sp, #292]
	str	r1, [sp, #0]
	add	r1, sp, #208
	str	r1, [sp, #4]
	mov	r0, r2
	ldr	r1, [sp, #24]
	ldr	r2, [sp, #288]
	bl	_ZN9b2Simplex9ReadCacheEPK14b2SimplexCachePK15b2DistanceProxyRK11b2TransformS5_S8_
	.loc 4 461 0
	add	r3, sp, #32
	str	r3, [sp, #296]
	.loc 4 462 0
	mov	r3, #20
	str	r3, [sp, #300]
	.loc 4 467 0
	mov	r3, #0
	str	r3, [sp, #304]
	.loc 4 469 0
	flds	s15, .L181
	fsts	s15, [sp, #308]
	.loc 4 470 0
	flds	s15, [sp, #308]
	fsts	s15, [sp, #312]
	.loc 4 473 0
	mov	r3, #0
	str	r3, [sp, #316]
	.loc 4 474 0
	b	.L156
.L172:
.LBB29:
	.loc 4 477 0
	ldr	r3, [sp, #140]
	str	r3, [sp, #304]
.LBB31:
	.loc 4 478 0
	mov	r3, #0
	str	r3, [sp, #328]
	b	.L157
.L158:
	.loc 4 480 0
	ldr	r1, [sp, #328]
	ldr	r2, [sp, #328]
	mov	r3, r2
	mov	r3, r3, asl #3
	add	r3, r3, r2
	mov	r3, r3, asl #2
	mov	r2, r3
	ldr	r3, [sp, #296]
	add	r3, r2, r3
	ldr	r2, [r3, #28]
	mvn	r3, #147
	mov	r1, r1, asl #2
	add	r0, sp, #344
	add	r1, r1, r0
	add	r3, r1, r3
	str	r2, [r3, #0]
	.loc 4 481 0
	ldr	r1, [sp, #328]
	ldr	r2, [sp, #328]
	mov	r3, r2
	mov	r3, r3, asl #3
	add	r3, r3, r2
	mov	r3, r3, asl #2
	mov	r2, r3
	ldr	r3, [sp, #296]
	add	r3, r2, r3
	ldr	r2, [r3, #32]
	mvn	r3, #159
	mov	r1, r1, asl #2
	add	r0, sp, #344
	add	r1, r1, r0
	add	r3, r1, r3
	str	r2, [r3, #0]
	.loc 4 478 0
	ldr	r3, [sp, #328]
	add	r3, r3, #1
	str	r3, [sp, #328]
.L157:
	ldr	r2, [sp, #328]
	ldr	r3, [sp, #304]
	cmp	r2, r3
	movge	r3, #0
	movlt	r3, #1
	and	r3, r3, #255
	cmp	r3, #0
	bne	.L158
.LBE31:
	.loc 4 484 0
	ldr	r3, [sp, #140]
	cmp	r3, #2
	beq	.L161
	cmp	r3, #3
	beq	.L162
	cmp	r3, #1
	beq	.L177
	b	.L176
.L161:
	.loc 4 490 0
	add	r3, sp, #32
	mov	r0, r3
	bl	_ZN9b2Simplex6Solve2Ev
	.loc 4 491 0
	b	.L163
.L162:
	.loc 4 494 0
	add	r3, sp, #32
	mov	r0, r3
	bl	_ZN9b2Simplex6Solve3Ev
	.loc 4 495 0
	b	.L163
.L176:
	.loc 4 498 0
	ldr	r0, .L181+12
	ldr	r1, .L181+16
	ldr	r2, .L181+20
	bl	__assert
	b	.L163
.L177:
	.loc 4 487 0
	mov	r0, r0	@ nop
.L163:
	.loc 4 502 0
	ldr	r3, [sp, #140]
	cmp	r3, #3
	beq	.L178
.L164:
	.loc 4 508 0
	add	r2, sp, #176
	add	r3, sp, #32
	mov	r0, r2
	mov	r1, r3
	bl	_ZNK9b2Simplex15GetClosestPointEv
	.loc 4 509 0
	add	r3, sp, #176
	mov	r0, r3
	bl	_ZNK6b2Vec213LengthSquaredEv
	mov	r3, r0	@ float
	str	r3, [sp, #312]	@ float
	.loc 4 512 0
	flds	s14, [sp, #312]
	flds	s15, [sp, #308]
	fcmpes	s14, s15
	fmstat
	.loc 4 516 0
	flds	s15, [sp, #312]
	fsts	s15, [sp, #308]
	.loc 4 519 0
	add	r2, sp, #168
	add	r3, sp, #32
	mov	r0, r2
	mov	r1, r3
	bl	_ZNK9b2Simplex18GetSearchDirectionEv
	.loc 4 522 0
	add	r3, sp, #168
	mov	r0, r3
	bl	_ZNK6b2Vec213LengthSquaredEv
	fmsr	s14, r0
	flds	s15, .L181+4
	fcmpes	s14, s15
	fmstat
	movpl	r3, #0
	movmi	r3, #1
	and	r3, r3, #255
	cmp	r3, #0
	bne	.L179
.L166:
	.loc 4 534 0
	ldr	r3, [sp, #140]
	mov	r2, r3
	mov	r3, r2
	mov	r3, r3, asl #3
	add	r3, r3, r2
	mov	r3, r3, asl #2
	ldr	r2, [sp, #296]
	add	r3, r2, r3
	str	r3, [sp, #320]
	.loc 4 535 0
	add	r2, sp, #248
	add	r3, sp, #168
	mov	r0, r2
	mov	r1, r3
	bl	_ZNK6b2Vec2ngEv
	add	r1, sp, #240
	add	r3, sp, #224
	add	r2, r3, #8
	add	r3, sp, #248
	mov	r0, r1
	mov	r1, r2
	mov	r2, r3
	bl	_Z6b2MulTRK5b2RotRK6b2Vec2
	add	r3, sp, #240
	ldr	r0, [sp, #288]
	mov	r1, r3
	bl	_ZNK15b2DistanceProxy10GetSupportERK6b2Vec2
	mov	r2, r0
	ldr	r3, [sp, #320]
	str	r2, [r3, #28]
	.loc 4 536 0
	ldr	r3, [sp, #320]
	ldr	r3, [r3, #28]
	ldr	r0, [sp, #288]
	mov	r1, r3
	bl	_ZNK15b2DistanceProxy9GetVertexEi
	mov	r3, r0
	ldr	r4, [sp, #320]
	add	r1, sp, #8
	add	r2, sp, #224
	mov	r0, r1
	mov	r1, r2
	mov	r2, r3
	bl	_Z5b2MulRK11b2TransformRK6b2Vec2
	mov	r3, r4
	add	r2, sp, #8
	ldmia	r2, {r0, r1}
	stmia	r3, {r0, r1}
	.loc 4 537 0
	add	r3, sp, #160
	mov	r0, r3
	bl	_ZN6b2Vec2C1Ev
	.loc 4 538 0
	add	r1, sp, #256
	add	r3, sp, #208
	add	r2, r3, #8
	add	r3, sp, #168
	mov	r0, r1
	mov	r1, r2
	mov	r2, r3
	bl	_Z6b2MulTRK5b2RotRK6b2Vec2
	add	r3, sp, #256
	ldr	r0, [sp, #292]
	mov	r1, r3
	bl	_ZNK15b2DistanceProxy10GetSupportERK6b2Vec2
	mov	r2, r0
	ldr	r3, [sp, #320]
	str	r2, [r3, #32]
	.loc 4 539 0
	ldr	r3, [sp, #320]
	ldr	r3, [r3, #32]
	ldr	r0, [sp, #292]
	mov	r1, r3
	bl	_ZNK15b2DistanceProxy9GetVertexEi
	mov	r3, r0
	ldr	r4, [sp, #320]
	add	r1, sp, #8
	add	r2, sp, #208
	mov	r0, r1
	mov	r1, r2
	mov	r2, r3
	bl	_Z5b2MulRK11b2TransformRK6b2Vec2
	add	r3, r4, #8
	add	r2, sp, #8
	ldmia	r2, {r0, r1}
	stmia	r3, {r0, r1}
	.loc 4 540 0
	ldr	r3, [sp, #320]
	add	r2, r3, #8
	ldr	r3, [sp, #320]
	ldr	r4, [sp, #320]
	add	r1, sp, #8
	mov	r0, r1
	mov	r1, r2
	mov	r2, r3
	bl	_ZmiRK6b2Vec2S1_
	add	r3, r4, #16
	add	r2, sp, #8
	ldmia	r2, {r0, r1}
	stmia	r3, {r0, r1}
	.loc 4 543 0
	ldr	r3, [sp, #316]
	add	r3, r3, #1
	str	r3, [sp, #316]
	.loc 4 544 0
	ldr	r3, .L181+24
	ldr	r3, [r3, #0]
	add	r2, r3, #1
	ldr	r3, .L181+24
	str	r2, [r3, #0]
	.loc 4 547 0
	mov	r3, #0
	strb	r3, [sp, #327]
.LBB30:
	.loc 4 548 0
	mov	r3, #0
	str	r3, [sp, #332]
	b	.L167
.L170:
	.loc 4 550 0
	ldr	r3, [sp, #320]
	ldr	r2, [r3, #28]
	ldr	r1, [sp, #332]
	mvn	r3, #147
	mov	r1, r1, asl #2
	add	r0, sp, #344
	add	r1, r1, r0
	add	r3, r1, r3
	ldr	r3, [r3, #0]
	cmp	r2, r3
	bne	.L168
	ldr	r3, [sp, #320]
	ldr	r2, [r3, #32]
	ldr	r1, [sp, #332]
	mvn	r3, #159
	mov	r1, r1, asl #2
	add	r0, sp, #344
	add	r1, r1, r0
	add	r3, r1, r3
	ldr	r3, [r3, #0]
	cmp	r2, r3
	bne	.L168
	.loc 4 552 0
	mov	r3, #1
	strb	r3, [sp, #327]
	.loc 4 553 0
	b	.L169
.L182:
	.align	2
.L181:
	.word	2139095039
	.word	679477248
	.word	b2_gjkCalls
	.word	.LC2
	.word	498
	.word	.LC4
	.word	b2_gjkIters
	.word	b2_gjkMaxIters
	.word	1056964608
	.word	872415232
	.word	0
.L168:
	.loc 4 548 0
	ldr	r3, [sp, #332]
	add	r3, r3, #1
	str	r3, [sp, #332]
.L167:
	ldr	r2, [sp, #332]
	ldr	r3, [sp, #304]
	cmp	r2, r3
	movge	r3, #0
	movlt	r3, #1
	and	r3, r3, #255
	cmp	r3, #0
	bne	.L170
.L169:
.LBE30:
	.loc 4 558 0
	ldrb	r3, [sp, #327]	@ zero_extendqisi2
	cmp	r3, #0
	bne	.L180
.L171:
	.loc 4 564 0
	ldr	r3, [sp, #140]
	add	r3, r3, #1
	str	r3, [sp, #140]
.L156:
.LBE29:
	.loc 4 474 0
	ldr	r3, [sp, #316]
	cmp	r3, #19
	movgt	r3, #0
	movle	r3, #1
	and	r3, r3, #255
	cmp	r3, #0
	bne	.L172
	b	.L165
.L178:
.LBB32:
	.loc 4 504 0
	mov	r0, r0	@ nop
	b	.L165
.L179:
	.loc 4 530 0
	mov	r0, r0	@ nop
	b	.L165
.L180:
	.loc 4 560 0
	mov	r0, r0	@ nop
.L165:
.LBE32:
	.loc 4 567 0
	ldr	r3, .L181+28
	ldr	r3, [r3, #0]
	mov	r0, r3
	ldr	r1, [sp, #316]
	bl	_Z5b2MaxIiET_S0_S0_
	mov	r2, r0
	ldr	r3, .L181+28
	str	r2, [r3, #0]
	.loc 4 570 0
	ldr	r2, [sp, #28]
	ldr	r3, [sp, #28]
	add	r3, r3, #8
	add	r1, sp, #32
	mov	r0, r1
	mov	r1, r2
	mov	r2, r3
	bl	_ZNK9b2Simplex16GetWitnessPointsEP6b2Vec2S1_
	.loc 4 571 0
	ldr	r2, [sp, #28]
	ldr	r3, [sp, #28]
	add	r3, r3, #8
	mov	r0, r2
	mov	r1, r3
	bl	_Z10b2DistanceRK6b2Vec2S1_
	mov	r2, r0	@ float
	ldr	r3, [sp, #28]
	str	r2, [r3, #16]	@ float
	.loc 4 572 0
	ldr	r3, [sp, #28]
	ldr	r2, [sp, #316]
	str	r2, [r3, #20]
	.loc 4 575 0
	add	r3, sp, #32
	mov	r0, r3
	ldr	r1, [sp, #24]
	bl	_ZNK9b2Simplex10WriteCacheEP14b2SimplexCache
	.loc 4 578 0
	ldr	r3, [sp, #20]
	ldrb	r3, [r3, #88]	@ zero_extendqisi2
	cmp	r3, #0
	beq	.L175
.LBB33:
	.loc 4 580 0
	ldr	r3, [sp, #288]
	flds	s15, [r3, #24]
	fsts	s15, [sp, #336]
	.loc 4 581 0
	ldr	r3, [sp, #292]
	flds	s15, [r3, #24]
	fsts	s15, [sp, #340]
	.loc 4 583 0
	ldr	r3, [sp, #28]
	flds	s14, [r3, #16]
	flds	s13, [sp, #336]
	flds	s15, [sp, #340]
	fadds	s15, s13, s15
	fcmpes	s14, s15
	fmstat
	movle	r3, #0
	movgt	r3, #1
	and	r3, r3, #255
	cmp	r3, #0
	beq	.L174
	ldr	r3, [sp, #28]
	flds	s14, [r3, #16]
	flds	s15, .L181+36
	fcmpes	s14, s15
	fmstat
	movle	r3, #0
	movgt	r3, #1
	and	r3, r3, #255
	cmp	r3, #0
	beq	.L174
.LBB34:
	.loc 4 587 0
	ldr	r3, [sp, #28]
	flds	s14, [r3, #16]
	flds	s13, [sp, #336]
	flds	s15, [sp, #340]
	fadds	s15, s13, s15
	fsubs	s15, s14, s15
	ldr	r3, [sp, #28]
	fsts	s15, [r3, #16]
	.loc 4 588 0
	ldr	r3, [sp, #28]
	add	r2, r3, #8
	ldr	r3, [sp, #28]
	add	r1, sp, #152
	mov	r0, r1
	mov	r1, r2
	mov	r2, r3
	bl	_ZmiRK6b2Vec2S1_
	.loc 4 589 0
	add	r3, sp, #152
	mov	r0, r3
	bl	_ZN6b2Vec29NormalizeEv
	.loc 4 590 0
	ldr	r4, [sp, #28]
	add	r2, sp, #264
	add	r3, sp, #152
	mov	r0, r2
	ldr	r1, [sp, #336]	@ float
	mov	r2, r3
	bl	_ZmlfRK6b2Vec2
	add	r3, sp, #264
	mov	r0, r4
	mov	r1, r3
	bl	_ZN6b2Vec2pLERKS_
	.loc 4 591 0
	ldr	r3, [sp, #28]
	add	r4, r3, #8
	add	r2, sp, #272
	add	r3, sp, #152
	mov	r0, r2
	ldr	r1, [sp, #340]	@ float
	mov	r2, r3
	bl	_ZmlfRK6b2Vec2
	add	r3, sp, #272
	mov	r0, r4
	mov	r1, r3
	bl	_ZN6b2Vec2mIERKS_
.LBE34:
	.loc 4 583 0
	b	.L175
.L174:
.LBB35:
	.loc 4 597 0
	ldr	r2, [sp, #28]
	ldr	r3, [sp, #28]
	add	r3, r3, #8
	add	r1, sp, #280
	mov	r0, r1
	mov	r1, r2
	mov	r2, r3
	bl	_ZplRK6b2Vec2S1_
	add	r2, sp, #144
	add	r3, sp, #280
	mov	r0, r2
	ldr	r1, .L181+32	@ float
	mov	r2, r3
	bl	_ZmlfRK6b2Vec2
	.loc 4 598 0
	ldr	r3, [sp, #28]
	add	r2, sp, #144
	ldmia	r2, {r0, r1}
	stmia	r3, {r0, r1}
	.loc 4 599 0
	ldr	r3, [sp, #28]
	add	r3, r3, #8
	add	r2, sp, #144
	ldmia	r2, {r0, r1}
	stmia	r3, {r0, r1}
	.loc 4 600 0
	ldr	r3, [sp, #28]
	flds	s15, .L181+40
	fsts	s15, [r3, #16]
.L175:
.LBE35:
.LBE33:
.LBE28:
	.loc 4 603 0
	add	sp, sp, #344
	ldmfd	sp!, {r4, pc}
	.cfi_endproc
.LFE168:
	.size	_Z10b2DistanceP16b2DistanceOutputP14b2SimplexCachePK15b2DistanceInput, .-_Z10b2DistanceP16b2DistanceOutputP14b2SimplexCachePK15b2DistanceInput
	.section	.text._Z5b2MaxIiET_S0_S0_,"axG",%progbits,_Z5b2MaxIiET_S0_S0_,comdat
	.align	2
	.weak	_Z5b2MaxIiET_S0_S0_
	.hidden	_Z5b2MaxIiET_S0_S0_
	.type	_Z5b2MaxIiET_S0_S0_, %function
_Z5b2MaxIiET_S0_S0_:
.LFB178:
	.loc 1 643 0
	.cfi_startproc
	@ args = 0, pretend = 0, frame = 8
	@ frame_needed = 0, uses_anonymous_args = 0
	@ link register save eliminated.
	sub	sp, sp, #8
.LCFI59:
	.cfi_def_cfa_offset 8
	str	r0, [sp, #4]
	str	r1, [sp, #0]
	.loc 1 645 0
	ldr	r2, [sp, #4]
	ldr	r3, [sp, #0]
	cmp	r2, r3
	ble	.L184
	ldr	r3, [sp, #4]
	b	.L185
.L184:
	ldr	r3, [sp, #0]
.L185:
	.loc 1 646 0
	mov	r0, r3
	add	sp, sp, #8
	bx	lr
	.cfi_endproc
.LFE178:
	.size	_Z5b2MaxIiET_S0_S0_, .-_Z5b2MaxIiET_S0_S0_
	.section	.rodata
	.align	2
	.type	_ZL12b2_chunkSize, %object
	.size	_ZL12b2_chunkSize, 4
_ZL12b2_chunkSize:
	.word	16384
	.align	2
	.type	_ZL15b2_maxBlockSize, %object
	.size	_ZL15b2_maxBlockSize, 4
_ZL15b2_maxBlockSize:
	.word	640
	.align	2
	.type	_ZL13b2_blockSizes, %object
	.size	_ZL13b2_blockSizes, 4
_ZL13b2_blockSizes:
	.word	14
	.align	2
	.type	_ZL22b2_chunkArrayIncrement, %object
	.size	_ZL22b2_chunkArrayIncrement, 4
_ZL22b2_chunkArrayIncrement:
	.word	128
	.type	_ZL14b2_nullFeature, %object
	.size	_ZL14b2_nullFeature, 1
_ZL14b2_nullFeature:
	.byte	-1
	.text
.Letext0: