	.arch armv5te
	.eabi_attribute 27, 3
	.fpu vfp
	.eabi_attribute 20, 1
	.eabi_attribute 21, 1
	.eabi_attribute 23, 3
	.eabi_attribute 24, 1
	.eabi_attribute 25, 1
	.eabi_attribute 26, 2
	.eabi_attribute 30, 6
	.eabi_attribute 18, 2
	.file	"b2Draw.cpp"
	.text
.Ltext0:
	.cfi_sections	.debug_frame
	.section	.text._ZN6b2DrawD1Ev,"axG",%progbits,_ZN6b2DrawD1Ev,comdat
	.align	2
	.weak	_ZN6b2DrawD1Ev
	.hidden	_ZN6b2DrawD1Ev
	.type	_ZN6b2DrawD1Ev, %function
_ZN6b2DrawD1Ev:
.LFB127:
	.file 1 "v:/gigglingbits/box2d/Box2D/Common/b2Draw.h"
	.loc 1 40 0
	.cfi_startproc
	@ args = 0, pretend = 0, frame = 8
	@ frame_needed = 0, uses_anonymous_args = 0
	str	lr, [sp, #-4]!
.LCFI0:
	.cfi_def_cfa_offset 4
	sub	sp, sp, #12
.LCFI1:
	.cfi_def_cfa_offset 16
	str	r0, [sp, #4]
	.loc 1 40 0
	ldr	r3, [sp, #4]
	ldr	r2, .L5
	str	r2, [r3, #0]
	mov	r3, #0
	and	r3, r3, #255
	cmp	r3, #0
	beq	.L3
	.cfi_offset 14, -4
	ldr	r0, [sp, #4]
	bl	_ZdlPv
.L3:
	ldr	r3, [sp, #4]
	mov	r0, r3
	add	sp, sp, #12
	ldmfd	sp!, {pc}
.L6:
	.align	2
.L5:
	.word	_ZTV6b2Draw+8
	.cfi_endproc
.LFE127:
	.size	_ZN6b2DrawD1Ev, .-_ZN6b2DrawD1Ev
	.section	.text._ZN6b2DrawD0Ev,"axG",%progbits,_ZN6b2DrawD0Ev,comdat
	.align	2
	.weak	_ZN6b2DrawD0Ev
	.hidden	_ZN6b2DrawD0Ev
	.type	_ZN6b2DrawD0Ev, %function
_ZN6b2DrawD0Ev:
.LFB128:
	.loc 1 40 0
	.cfi_startproc
	@ args = 0, pretend = 0, frame = 8
	@ frame_needed = 0, uses_anonymous_args = 0
	str	lr, [sp, #-4]!
.LCFI2:
	.cfi_def_cfa_offset 4
	sub	sp, sp, #12
.LCFI3:
	.cfi_def_cfa_offset 16
	str	r0, [sp, #4]
	.loc 1 40 0
	ldr	r3, [sp, #4]
	ldr	r2, .L11
	str	r2, [r3, #0]
	mov	r3, #1
	and	r3, r3, #255
	cmp	r3, #0
	beq	.L9
	.cfi_offset 14, -4
	ldr	r0, [sp, #4]
	bl	_ZdlPv
.L9:
	ldr	r3, [sp, #4]
	mov	r0, r3
	add	sp, sp, #12
	ldmfd	sp!, {pc}
.L12:
	.align	2
.L11:
	.word	_ZTV6b2Draw+8
	.cfi_endproc
.LFE128:
	.size	_ZN6b2DrawD0Ev, .-_ZN6b2DrawD0Ev
	.section	.text._ZN6b2DrawC2Ev,"ax",%progbits
	.align	2
	.global	_ZN6b2DrawC2Ev
	.hidden	_ZN6b2DrawC2Ev
	.type	_ZN6b2DrawC2Ev, %function
_ZN6b2DrawC2Ev:
.LFB130:
	.file 2 "v:/gigglingbits/box2d/Box2D/Common/b2Draw.cpp"
	.loc 2 21 0
	.cfi_startproc
	@ args = 0, pretend = 0, frame = 8
	@ frame_needed = 0, uses_anonymous_args = 0
	@ link register save eliminated.
	sub	sp, sp, #8
.LCFI4:
	.cfi_def_cfa_offset 8
	str	r0, [sp, #4]
	.loc 2 21 0
	ldr	r3, [sp, #4]
	ldr	r2, .L16
	str	r2, [r3, #0]
	.loc 2 23 0
	ldr	r3, [sp, #4]
	mov	r2, #0
	str	r2, [r3, #4]
	.loc 2 24 0
	ldr	r3, [sp, #4]
	mov	r0, r3
	add	sp, sp, #8
	bx	lr
.L17:
	.align	2
.L16:
	.word	_ZTV6b2Draw+8
	.cfi_endproc
.LFE130:
	.size	_ZN6b2DrawC2Ev, .-_ZN6b2DrawC2Ev
	.section	.text._ZN6b2DrawC1Ev,"ax",%progbits
	.align	2
	.global	_ZN6b2DrawC1Ev
	.hidden	_ZN6b2DrawC1Ev
	.type	_ZN6b2DrawC1Ev, %function
_ZN6b2DrawC1Ev:
.LFB131:
	.loc 2 21 0
	.cfi_startproc
	@ args = 0, pretend = 0, frame = 8
	@ frame_needed = 0, uses_anonymous_args = 0
	@ link register save eliminated.
	sub	sp, sp, #8
.LCFI5:
	.cfi_def_cfa_offset 8
	str	r0, [sp, #4]
	.loc 2 21 0
	ldr	r3, [sp, #4]
	ldr	r2, .L21
	str	r2, [r3, #0]
	.loc 2 23 0
	ldr	r3, [sp, #4]
	mov	r2, #0
	str	r2, [r3, #4]
	.loc 2 24 0
	ldr	r3, [sp, #4]
	mov	r0, r3
	add	sp, sp, #8
	bx	lr
.L22:
	.align	2
.L21:
	.word	_ZTV6b2Draw+8
	.cfi_endproc
.LFE131:
	.size	_ZN6b2DrawC1Ev, .-_ZN6b2DrawC1Ev
	.section	.text._ZN6b2Draw8SetFlagsEj,"ax",%progbits
	.align	2
	.global	_ZN6b2Draw8SetFlagsEj
	.hidden	_ZN6b2Draw8SetFlagsEj
	.type	_ZN6b2Draw8SetFlagsEj, %function
_ZN6b2Draw8SetFlagsEj:
.LFB132:
	.loc 2 27 0
	.cfi_startproc
	@ args = 0, pretend = 0, frame = 8
	@ frame_needed = 0, uses_anonymous_args = 0
	@ link register save eliminated.
	sub	sp, sp, #8
.LCFI6:
	.cfi_def_cfa_offset 8
	str	r0, [sp, #4]
	str	r1, [sp, #0]
	.loc 2 28 0
	ldr	r3, [sp, #4]
	ldr	r2, [sp, #0]
	str	r2, [r3, #4]
	.loc 2 29 0
	add	sp, sp, #8
	bx	lr
	.cfi_endproc
.LFE132:
	.size	_ZN6b2Draw8SetFlagsEj, .-_ZN6b2Draw8SetFlagsEj
	.section	.text._ZNK6b2Draw8GetFlagsEv,"ax",%progbits
	.align	2
	.global	_ZNK6b2Draw8GetFlagsEv
	.hidden	_ZNK6b2Draw8GetFlagsEv
	.type	_ZNK6b2Draw8GetFlagsEv, %function
_ZNK6b2Draw8GetFlagsEv:
.LFB133:
	.loc 2 32 0
	.cfi_startproc
	@ args = 0, pretend = 0, frame = 8
	@ frame_needed = 0, uses_anonymous_args = 0
	@ link register save eliminated.
	sub	sp, sp, #8
.LCFI7:
	.cfi_def_cfa_offset 8
	str	r0, [sp, #4]
	.loc 2 33 0
	ldr	r3, [sp, #4]
	ldr	r3, [r3, #4]
	.loc 2 34 0
	mov	r0, r3
	add	sp, sp, #8
	bx	lr
	.cfi_endproc
.LFE133:
	.size	_ZNK6b2Draw8GetFlagsEv, .-_ZNK6b2Draw8GetFlagsEv
	.section	.text._ZN6b2Draw11AppendFlagsEj,"ax",%progbits
	.align	2
	.global	_ZN6b2Draw11AppendFlagsEj
	.hidden	_ZN6b2Draw11AppendFlagsEj
	.type	_ZN6b2Draw11AppendFlagsEj, %function
_ZN6b2Draw11AppendFlagsEj:
.LFB134:
	.loc 2 37 0
	.cfi_startproc
	@ args = 0, pretend = 0, frame = 8
	@ frame_needed = 0, uses_anonymous_args = 0
	@ link register save eliminated.
	sub	sp, sp, #8
.LCFI8:
	.cfi_def_cfa_offset 8
	str	r0, [sp, #4]
	str	r1, [sp, #0]
	.loc 2 38 0
	ldr	r3, [sp, #4]
	ldr	r2, [r3, #4]
	ldr	r3, [sp, #0]
	orr	r2, r2, r3
	ldr	r3, [sp, #4]
	str	r2, [r3, #4]
	.loc 2 39 0
	add	sp, sp, #8
	bx	lr
	.cfi_endproc
.LFE134:
	.size	_ZN6b2Draw11AppendFlagsEj, .-_ZN6b2Draw11AppendFlagsEj
	.section	.text._ZN6b2Draw10ClearFlagsEj,"ax",%progbits
	.align	2
	.global	_ZN6b2Draw10ClearFlagsEj
	.hidden	_ZN6b2Draw10ClearFlagsEj
	.type	_ZN6b2Draw10ClearFlagsEj, %function
_ZN6b2Draw10ClearFlagsEj:
.LFB135:
	.loc 2 42 0
	.cfi_startproc
	@ args = 0, pretend = 0, frame = 8
	@ frame_needed = 0, uses_anonymous_args = 0
	@ link register save eliminated.
	sub	sp, sp, #8
.LCFI9:
	.cfi_def_cfa_offset 8
	str	r0, [sp, #4]
	str	r1, [sp, #0]
	.loc 2 43 0
	ldr	r3, [sp, #4]
	ldr	r2, [r3, #4]
	ldr	r3, [sp, #0]
	mvn	r3, r3
	and	r2, r2, r3
	ldr	r3, [sp, #4]
	str	r2, [r3, #4]
	.loc 2 44 0
	add	sp, sp, #8
	bx	lr
	.cfi_endproc
.LFE135:
	.size	_ZN6b2Draw10ClearFlagsEj, .-_ZN6b2Draw10ClearFlagsEj
	.hidden	_ZTV6b2Draw
	.weak	_ZTV6b2Draw
	.section	.rodata._ZTV6b2Draw,"aG",%progbits,_ZTV6b2Draw,comdat
	.align	3
	.type	_ZTV6b2Draw, %object
	.size	_ZTV6b2Draw, 40
_ZTV6b2Draw:
	.word	0
	.word	_ZTI6b2Draw
	.word	_ZN6b2DrawD1Ev
	.word	_ZN6b2DrawD0Ev
	.word	__cxa_pure_virtual
	.word	__cxa_pure_virtual
	.word	__cxa_pure_virtual
	.word	__cxa_pure_virtual
	.word	__cxa_pure_virtual
	.word	__cxa_pure_virtual
	.hidden	_ZTS6b2Draw
	.weak	_ZTS6b2Draw
	.section	.rodata._ZTS6b2Draw,"aG",%progbits,_ZTS6b2Draw,comdat
	.align	2
	.type	_ZTS6b2Draw, %object
	.size	_ZTS6b2Draw, 8
_ZTS6b2Draw:
	.ascii	"6b2Draw\000"
	.hidden	_ZTI6b2Draw
	.weak	_ZTI6b2Draw
	.section	.rodata._ZTI6b2Draw,"aG",%progbits,_ZTI6b2Draw,comdat
	.align	2
	.type	_ZTI6b2Draw, %object
	.size	_ZTI6b2Draw, 8
_ZTI6b2Draw:
	.word	_ZTVN10__cxxabiv117__class_type_infoE+8
	.word	_ZTS6b2Draw
	.text
.Letext0: