	.arch armv5te
	.eabi_attribute 27, 3
	.fpu vfp
	.eabi_attribute 20, 1
	.eabi_attribute 21, 1
	.eabi_attribute 23, 3
	.eabi_attribute 24, 1
	.eabi_attribute 25, 1
	.eabi_attribute 26, 2
	.eabi_attribute 30, 6
	.eabi_attribute 18, 2
	.file	"b2EdgeShape.cpp"
	.text
.Ltext0:
	.cfi_sections	.debug_frame
	.section	.text._ZN6b2Vec2C1Ev,"axG",%progbits,_ZN6b2Vec2C1Ev,comdat
	.align	2
	.weak	_ZN6b2Vec2C1Ev
	.hidden	_ZN6b2Vec2C1Ev
	.type	_ZN6b2Vec2C1Ev, %function
_ZN6b2Vec2C1Ev:
.LFB4:
	.file 1 "v:/gigglingbits/box2d/Box2D/Common/b2Math.h"
	.loc 1 56 0
	.cfi_startproc
	@ args = 0, pretend = 0, frame = 8
	@ frame_needed = 0, uses_anonymous_args = 0
	@ link register save eliminated.
	sub	sp, sp, #8
.LCFI0:
	.cfi_def_cfa_offset 8
	str	r0, [sp, #4]
	.loc 1 56 0
	ldr	r3, [sp, #4]
	mov	r0, r3
	add	sp, sp, #8
	bx	lr
	.cfi_endproc
.LFE4:
	.size	_ZN6b2Vec2C1Ev, .-_ZN6b2Vec2C1Ev
	.section	.text._ZN6b2Vec2C1Eff,"axG",%progbits,_ZN6b2Vec2C1Eff,comdat
	.align	2
	.weak	_ZN6b2Vec2C1Eff
	.hidden	_ZN6b2Vec2C1Eff
	.type	_ZN6b2Vec2C1Eff, %function
_ZN6b2Vec2C1Eff:
.LFB7:
	.loc 1 59 0
	.cfi_startproc
	@ args = 0, pretend = 0, frame = 16
	@ frame_needed = 0, uses_anonymous_args = 0
	@ link register save eliminated.
	sub	sp, sp, #16
.LCFI1:
	.cfi_def_cfa_offset 16
	str	r0, [sp, #12]
	str	r1, [sp, #8]	@ float
	str	r2, [sp, #4]	@ float
	.loc 1 59 0
	ldr	r3, [sp, #12]
	flds	s15, [sp, #8]
	fsts	s15, [r3, #0]
	ldr	r3, [sp, #12]
	flds	s15, [sp, #4]
	fsts	s15, [r3, #4]
	ldr	r3, [sp, #12]
	mov	r0, r3
	add	sp, sp, #16
	bx	lr
	.cfi_endproc
.LFE7:
	.size	_ZN6b2Vec2C1Eff, .-_ZN6b2Vec2C1Eff
	.section	.text._ZN6b2Vec23SetEff,"axG",%progbits,_ZN6b2Vec23SetEff,comdat
	.align	2
	.weak	_ZN6b2Vec23SetEff
	.hidden	_ZN6b2Vec23SetEff
	.type	_ZN6b2Vec23SetEff, %function
_ZN6b2Vec23SetEff:
.LFB9:
	.loc 1 65 0
	.cfi_startproc
	@ args = 0, pretend = 0, frame = 16
	@ frame_needed = 0, uses_anonymous_args = 0
	@ link register save eliminated.
	sub	sp, sp, #16
.LCFI2:
	.cfi_def_cfa_offset 16
	str	r0, [sp, #12]
	str	r1, [sp, #8]	@ float
	str	r2, [sp, #4]	@ float
	.loc 1 65 0
	ldr	r3, [sp, #12]
	flds	s15, [sp, #8]
	fsts	s15, [r3, #0]
	ldr	r3, [sp, #12]
	flds	s15, [sp, #4]
	fsts	s15, [r3, #4]
	add	sp, sp, #16
	bx	lr
	.cfi_endproc
.LFE9:
	.size	_ZN6b2Vec23SetEff, .-_ZN6b2Vec23SetEff
	.section	.text._ZNK6b2Vec2ngEv,"axG",%progbits,_ZNK6b2Vec2ngEv,comdat
	.align	2
	.weak	_ZNK6b2Vec2ngEv
	.hidden	_ZNK6b2Vec2ngEv
	.type	_ZNK6b2Vec2ngEv, %function
_ZNK6b2Vec2ngEv:
.LFB10:
	.loc 1 68 0
	.cfi_startproc
	@ args = 0, pretend = 0, frame = 16
	@ frame_needed = 0, uses_anonymous_args = 0
	stmfd	sp!, {r4, lr}
.LCFI3:
	.cfi_def_cfa_offset 8
	sub	sp, sp, #16
.LCFI4:
	.cfi_def_cfa_offset 24
	mov	r4, r0
	.cfi_offset 14, -4
	.cfi_offset 4, -8
	str	r1, [sp, #4]
.LBB2:
	.loc 1 68 0
	mov	r0, r4
	bl	_ZN6b2Vec2C1Ev
	ldr	r3, [sp, #4]
	flds	s15, [r3, #0]
	fnegs	s14, s15
	ldr	r3, [sp, #4]
	flds	s15, [r3, #4]
	fnegs	s15, s15
	mov	r0, r4
	fmrs	r1, s14
	fmrs	r2, s15
	bl	_ZN6b2Vec23SetEff
.LBE2:
	mov	r0, r4
	add	sp, sp, #16
	ldmfd	sp!, {r4, pc}
	.cfi_endproc
.LFE10:
	.size	_ZNK6b2Vec2ngEv, .-_ZNK6b2Vec2ngEv
	.section	.text._ZNK6b2Vec26LengthEv,"axG",%progbits,_ZNK6b2Vec26LengthEv,comdat
	.align	2
	.weak	_ZNK6b2Vec26LengthEv
	.hidden	_ZNK6b2Vec26LengthEv
	.type	_ZNK6b2Vec26LengthEv, %function
_ZNK6b2Vec26LengthEv:
.LFB16:
	.loc 1 101 0
	.cfi_startproc
	@ args = 0, pretend = 0, frame = 8
	@ frame_needed = 0, uses_anonymous_args = 0
	str	lr, [sp, #-4]!
.LCFI5:
	.cfi_def_cfa_offset 4
	sub	sp, sp, #12
.LCFI6:
	.cfi_def_cfa_offset 16
	str	r0, [sp, #4]
	.loc 1 103 0
	ldr	r3, [sp, #4]
	flds	s14, [r3, #0]
	ldr	r3, [sp, #4]
	flds	s15, [r3, #0]
	fmuls	s14, s14, s15
	ldr	r3, [sp, #4]
	flds	s13, [r3, #4]
	ldr	r3, [sp, #4]
	flds	s15, [r3, #4]
	fmuls	s15, s13, s15
	fadds	s14, s14, s15
	fsqrts	s15, s14
	fcmps	s15, s15
	fmstat
	beq	.L12
	.cfi_offset 14, -4
	fmrs	r0, s14
	bl	sqrtf
	fmsr	s15, r0
.L12:
	fmrs	r3, s15
	.loc 1 104 0
	mov	r0, r3	@ float
	add	sp, sp, #12
	ldmfd	sp!, {pc}
	.cfi_endproc
.LFE16:
	.size	_ZNK6b2Vec26LengthEv, .-_ZNK6b2Vec26LengthEv
	.section	.text._ZN6b2Vec29NormalizeEv,"axG",%progbits,_ZN6b2Vec29NormalizeEv,comdat
	.align	2
	.weak	_ZN6b2Vec29NormalizeEv
	.hidden	_ZN6b2Vec29NormalizeEv
	.type	_ZN6b2Vec29NormalizeEv, %function
_ZN6b2Vec29NormalizeEv:
.LFB18:
	.loc 1 114 0
	.cfi_startproc
	@ args = 0, pretend = 0, frame = 16
	@ frame_needed = 0, uses_anonymous_args = 0
	str	lr, [sp, #-4]!
.LCFI7:
	.cfi_def_cfa_offset 4
	sub	sp, sp, #20
.LCFI8:
	.cfi_def_cfa_offset 24
	str	r0, [sp, #4]
.LBB3:
	.loc 1 116 0
	ldr	r0, [sp, #4]
	.cfi_offset 14, -4
	bl	_ZNK6b2Vec26LengthEv
	mov	r3, r0	@ float
	str	r3, [sp, #8]	@ float
	.loc 1 117 0
	flds	s14, [sp, #8]
	flds	s15, .L18
	fcmpes	s14, s15
	fmstat
	movpl	r3, #0
	movmi	r3, #1
	and	r3, r3, #255
	cmp	r3, #0
	beq	.L15
	.loc 1 119 0
	flds	s15, .L18+4
	b	.L16
.L15:
	.loc 1 121 0
	flds	s14, .L18+8
	flds	s15, [sp, #8]
	fdivs	s15, s14, s15
	fsts	s15, [sp, #12]
	.loc 1 122 0
	ldr	r3, [sp, #4]
	flds	s14, [r3, #0]
	flds	s15, [sp, #12]
	fmuls	s15, s14, s15
	ldr	r3, [sp, #4]
	fsts	s15, [r3, #0]
	.loc 1 123 0
	ldr	r3, [sp, #4]
	flds	s14, [r3, #4]
	flds	s15, [sp, #12]
	fmuls	s15, s14, s15
	ldr	r3, [sp, #4]
	fsts	s15, [r3, #4]
	.loc 1 125 0
	flds	s15, [sp, #8]
.L16:
	fmrs	r3, s15
.LBE3:
	.loc 1 126 0
	mov	r0, r3	@ float
	add	sp, sp, #20
	ldmfd	sp!, {pc}
.L19:
	.align	2
.L18:
	.word	872415232
	.word	0
	.word	1065353216
	.cfi_endproc
.LFE18:
	.size	_ZN6b2Vec29NormalizeEv, .-_ZN6b2Vec29NormalizeEv
	.section	.text._Z5b2DotRK6b2Vec2S1_,"axG",%progbits,_Z5b2DotRK6b2Vec2S1_,comdat
	.align	2
	.weak	_Z5b2DotRK6b2Vec2S1_
	.hidden	_Z5b2DotRK6b2Vec2S1_
	.type	_Z5b2DotRK6b2Vec2S1_, %function
_Z5b2DotRK6b2Vec2S1_:
.LFB73:
	.loc 1 407 0
	.cfi_startproc
	@ args = 0, pretend = 0, frame = 8
	@ frame_needed = 0, uses_anonymous_args = 0
	@ link register save eliminated.
	sub	sp, sp, #8
.LCFI9:
	.cfi_def_cfa_offset 8
	str	r0, [sp, #4]
	str	r1, [sp, #0]
	.loc 1 408 0
	ldr	r3, [sp, #4]
	flds	s14, [r3, #0]
	ldr	r3, [sp, #0]
	flds	s15, [r3, #0]
	fmuls	s14, s14, s15
	ldr	r3, [sp, #4]
	flds	s13, [r3, #4]
	ldr	r3, [sp, #0]
	flds	s15, [r3, #4]
	fmuls	s15, s13, s15
	fadds	s15, s14, s15
	fmrs	r3, s15
	.loc 1 409 0
	mov	r0, r3	@ float
	add	sp, sp, #8
	bx	lr
	.cfi_endproc
.LFE73:
	.size	_Z5b2DotRK6b2Vec2S1_, .-_Z5b2DotRK6b2Vec2S1_
	.section	.text._ZplRK6b2Vec2S1_,"axG",%progbits,_ZplRK6b2Vec2S1_,comdat
	.align	2
	.weak	_ZplRK6b2Vec2S1_
	.hidden	_ZplRK6b2Vec2S1_
	.type	_ZplRK6b2Vec2S1_, %function
_ZplRK6b2Vec2S1_:
.LFB79:
	.loc 1 447 0
	.cfi_startproc
	@ args = 0, pretend = 0, frame = 8
	@ frame_needed = 0, uses_anonymous_args = 0
	stmfd	sp!, {r4, lr}
.LCFI10:
	.cfi_def_cfa_offset 8
	sub	sp, sp, #8
.LCFI11:
	.cfi_def_cfa_offset 16
	mov	r4, r0
	.cfi_offset 14, -4
	.cfi_offset 4, -8
	str	r1, [sp, #4]
	str	r2, [sp, #0]
	.loc 1 448 0
	ldr	r3, [sp, #4]
	flds	s14, [r3, #0]
	ldr	r3, [sp, #0]
	flds	s15, [r3, #0]
	fadds	s13, s14, s15
	ldr	r3, [sp, #4]
	flds	s14, [r3, #4]
	ldr	r3, [sp, #0]
	flds	s15, [r3, #4]
	fadds	s15, s14, s15
	mov	r0, r4
	fmrs	r1, s13
	fmrs	r2, s15
	bl	_ZN6b2Vec2C1Eff
	.loc 1 449 0
	mov	r0, r4
	add	sp, sp, #8
	ldmfd	sp!, {r4, pc}
	.cfi_endproc
.LFE79:
	.size	_ZplRK6b2Vec2S1_, .-_ZplRK6b2Vec2S1_
	.section	.text._ZmiRK6b2Vec2S1_,"axG",%progbits,_ZmiRK6b2Vec2S1_,comdat
	.align	2
	.weak	_ZmiRK6b2Vec2S1_
	.hidden	_ZmiRK6b2Vec2S1_
	.type	_ZmiRK6b2Vec2S1_, %function
_ZmiRK6b2Vec2S1_:
.LFB80:
	.loc 1 453 0
	.cfi_startproc
	@ args = 0, pretend = 0, frame = 8
	@ frame_needed = 0, uses_anonymous_args = 0
	stmfd	sp!, {r4, lr}
.LCFI12:
	.cfi_def_cfa_offset 8
	sub	sp, sp, #8
.LCFI13:
	.cfi_def_cfa_offset 16
	mov	r4, r0
	.cfi_offset 14, -4
	.cfi_offset 4, -8
	str	r1, [sp, #4]
	str	r2, [sp, #0]
	.loc 1 454 0
	ldr	r3, [sp, #4]
	flds	s14, [r3, #0]
	ldr	r3, [sp, #0]
	flds	s15, [r3, #0]
	fsubs	s13, s14, s15
	ldr	r3, [sp, #4]
	flds	s14, [r3, #4]
	ldr	r3, [sp, #0]
	flds	s15, [r3, #4]
	fsubs	s15, s14, s15
	mov	r0, r4
	fmrs	r1, s13
	fmrs	r2, s15
	bl	_ZN6b2Vec2C1Eff
	.loc 1 455 0
	mov	r0, r4
	add	sp, sp, #8
	ldmfd	sp!, {r4, pc}
	.cfi_endproc
.LFE80:
	.size	_ZmiRK6b2Vec2S1_, .-_ZmiRK6b2Vec2S1_
	.section	.text._ZmlfRK6b2Vec2,"axG",%progbits,_ZmlfRK6b2Vec2,comdat
	.align	2
	.weak	_ZmlfRK6b2Vec2
	.hidden	_ZmlfRK6b2Vec2
	.type	_ZmlfRK6b2Vec2, %function
_ZmlfRK6b2Vec2:
.LFB81:
	.loc 1 458 0
	.cfi_startproc
	@ args = 0, pretend = 0, frame = 8
	@ frame_needed = 0, uses_anonymous_args = 0
	stmfd	sp!, {r4, lr}
.LCFI14:
	.cfi_def_cfa_offset 8
	sub	sp, sp, #8
.LCFI15:
	.cfi_def_cfa_offset 16
	mov	r4, r0
	.cfi_offset 14, -4
	.cfi_offset 4, -8
	str	r1, [sp, #4]	@ float
	str	r2, [sp, #0]
	.loc 1 459 0
	ldr	r3, [sp, #0]
	flds	s14, [r3, #0]
	flds	s15, [sp, #4]
	fmuls	s14, s14, s15
	ldr	r3, [sp, #0]
	flds	s13, [r3, #4]
	flds	s15, [sp, #4]
	fmuls	s15, s13, s15
	mov	r0, r4
	fmrs	r1, s14
	fmrs	r2, s15
	bl	_ZN6b2Vec2C1Eff
	.loc 1 460 0
	mov	r0, r4
	add	sp, sp, #8
	ldmfd	sp!, {r4, pc}
	.cfi_endproc
.LFE81:
	.size	_ZmlfRK6b2Vec2, .-_ZmlfRK6b2Vec2
	.section	.text._Z5b2MulRK5b2RotRK6b2Vec2,"axG",%progbits,_Z5b2MulRK5b2RotRK6b2Vec2,comdat
	.align	2
	.weak	_Z5b2MulRK5b2RotRK6b2Vec2
	.hidden	_Z5b2MulRK5b2RotRK6b2Vec2
	.type	_Z5b2MulRK5b2RotRK6b2Vec2, %function
_Z5b2MulRK5b2RotRK6b2Vec2:
.LFB97:
	.loc 1 567 0
	.cfi_startproc
	@ args = 0, pretend = 0, frame = 8
	@ frame_needed = 0, uses_anonymous_args = 0
	stmfd	sp!, {r4, lr}
.LCFI16:
	.cfi_def_cfa_offset 8
	sub	sp, sp, #8
.LCFI17:
	.cfi_def_cfa_offset 16
	mov	r4, r0
	.cfi_offset 14, -4
	.cfi_offset 4, -8
	str	r1, [sp, #4]
	str	r2, [sp, #0]
	.loc 1 568 0
	ldr	r3, [sp, #4]
	flds	s14, [r3, #4]
	ldr	r3, [sp, #0]
	flds	s15, [r3, #0]
	fmuls	s14, s14, s15
	ldr	r3, [sp, #4]
	flds	s13, [r3, #0]
	ldr	r3, [sp, #0]
	flds	s15, [r3, #4]
	fmuls	s15, s13, s15
	fsubs	s12, s14, s15
	ldr	r3, [sp, #4]
	flds	s14, [r3, #0]
	ldr	r3, [sp, #0]
	flds	s15, [r3, #0]
	fmuls	s14, s14, s15
	ldr	r3, [sp, #4]
	flds	s13, [r3, #4]
	ldr	r3, [sp, #0]
	flds	s15, [r3, #4]
	fmuls	s15, s13, s15
	fadds	s15, s14, s15
	mov	r0, r4
	fmrs	r1, s12
	fmrs	r2, s15
	bl	_ZN6b2Vec2C1Eff
	.loc 1 569 0
	mov	r0, r4
	add	sp, sp, #8
	ldmfd	sp!, {r4, pc}
	.cfi_endproc
.LFE97:
	.size	_Z5b2MulRK5b2RotRK6b2Vec2, .-_Z5b2MulRK5b2RotRK6b2Vec2
	.section	.text._Z6b2MulTRK5b2RotRK6b2Vec2,"axG",%progbits,_Z6b2MulTRK5b2RotRK6b2Vec2,comdat
	.align	2
	.weak	_Z6b2MulTRK5b2RotRK6b2Vec2
	.hidden	_Z6b2MulTRK5b2RotRK6b2Vec2
	.type	_Z6b2MulTRK5b2RotRK6b2Vec2, %function
_Z6b2MulTRK5b2RotRK6b2Vec2:
.LFB98:
	.loc 1 573 0
	.cfi_startproc
	@ args = 0, pretend = 0, frame = 8
	@ frame_needed = 0, uses_anonymous_args = 0
	stmfd	sp!, {r4, lr}
.LCFI18:
	.cfi_def_cfa_offset 8
	sub	sp, sp, #8
.LCFI19:
	.cfi_def_cfa_offset 16
	mov	r4, r0
	.cfi_offset 14, -4
	.cfi_offset 4, -8
	str	r1, [sp, #4]
	str	r2, [sp, #0]
	.loc 1 574 0
	ldr	r3, [sp, #4]
	flds	s14, [r3, #4]
	ldr	r3, [sp, #0]
	flds	s15, [r3, #0]
	fmuls	s14, s14, s15
	ldr	r3, [sp, #4]
	flds	s13, [r3, #0]
	ldr	r3, [sp, #0]
	flds	s15, [r3, #4]
	fmuls	s15, s13, s15
	fadds	s12, s14, s15
	ldr	r3, [sp, #4]
	flds	s15, [r3, #0]
	fnegs	s14, s15
	ldr	r3, [sp, #0]
	flds	s15, [r3, #0]
	fmuls	s14, s14, s15
	ldr	r3, [sp, #4]
	flds	s13, [r3, #4]
	ldr	r3, [sp, #0]
	flds	s15, [r3, #4]
	fmuls	s15, s13, s15
	fadds	s15, s14, s15
	mov	r0, r4
	fmrs	r1, s12
	fmrs	r2, s15
	bl	_ZN6b2Vec2C1Eff
	.loc 1 575 0
	mov	r0, r4
	add	sp, sp, #8
	ldmfd	sp!, {r4, pc}
	.cfi_endproc
.LFE98:
	.size	_Z6b2MulTRK5b2RotRK6b2Vec2, .-_Z6b2MulTRK5b2RotRK6b2Vec2
	.section	.text._Z5b2MulRK11b2TransformRK6b2Vec2,"axG",%progbits,_Z5b2MulRK11b2TransformRK6b2Vec2,comdat
	.align	2
	.weak	_Z5b2MulRK11b2TransformRK6b2Vec2
	.hidden	_Z5b2MulRK11b2TransformRK6b2Vec2
	.type	_Z5b2MulRK11b2TransformRK6b2Vec2, %function
_Z5b2MulRK11b2TransformRK6b2Vec2:
.LFB99:
	.loc 1 578 0
	.cfi_startproc
	@ args = 0, pretend = 0, frame = 16
	@ frame_needed = 0, uses_anonymous_args = 0
	stmfd	sp!, {r4, lr}
.LCFI20:
	.cfi_def_cfa_offset 8
	sub	sp, sp, #16
.LCFI21:
	.cfi_def_cfa_offset 24
	mov	r4, r0
	.cfi_offset 14, -4
	.cfi_offset 4, -8
	str	r1, [sp, #4]
	str	r2, [sp, #0]
.LBB4:
	.loc 1 579 0
	ldr	r3, [sp, #4]
	flds	s14, [r3, #12]
	ldr	r3, [sp, #0]
	flds	s15, [r3, #0]
	fmuls	s14, s14, s15
	ldr	r3, [sp, #4]
	flds	s13, [r3, #8]
	ldr	r3, [sp, #0]
	flds	s15, [r3, #4]
	fmuls	s15, s13, s15
	fsubs	s14, s14, s15
	ldr	r3, [sp, #4]
	flds	s15, [r3, #0]
	fadds	s15, s14, s15
	fsts	s15, [sp, #8]
	.loc 1 580 0
	ldr	r3, [sp, #4]
	flds	s14, [r3, #8]
	ldr	r3, [sp, #0]
	flds	s15, [r3, #0]
	fmuls	s14, s14, s15
	ldr	r3, [sp, #4]
	flds	s13, [r3, #12]
	ldr	r3, [sp, #0]
	flds	s15, [r3, #4]
	fmuls	s15, s13, s15
	fadds	s14, s14, s15
	ldr	r3, [sp, #4]
	flds	s15, [r3, #4]
	fadds	s15, s14, s15
	fsts	s15, [sp, #12]
	.loc 1 582 0
	mov	r0, r4
	ldr	r1, [sp, #8]	@ float
	ldr	r2, [sp, #12]	@ float
	bl	_ZN6b2Vec2C1Eff
.LBE4:
	.loc 1 583 0
	mov	r0, r4
	add	sp, sp, #16
	ldmfd	sp!, {r4, pc}
	.cfi_endproc
.LFE99:
	.size	_Z5b2MulRK11b2TransformRK6b2Vec2, .-_Z5b2MulRK11b2TransformRK6b2Vec2
	.section	.text._Z5b2MinRK6b2Vec2S1_,"axG",%progbits,_Z5b2MinRK6b2Vec2S1_,comdat
	.align	2
	.weak	_Z5b2MinRK6b2Vec2S1_
	.hidden	_Z5b2MinRK6b2Vec2S1_
	.type	_Z5b2MinRK6b2Vec2S1_, %function
_Z5b2MinRK6b2Vec2S1_:
.LFB107:
	.loc 1 638 0
	.cfi_startproc
	@ args = 0, pretend = 0, frame = 8
	@ frame_needed = 0, uses_anonymous_args = 0
	stmfd	sp!, {r4, r5, lr}
.LCFI22:
	.cfi_def_cfa_offset 12
	sub	sp, sp, #12
.LCFI23:
	.cfi_def_cfa_offset 24
	mov	r4, r0
	.cfi_offset 14, -4
	.cfi_offset 5, -8
	.cfi_offset 4, -12
	str	r1, [sp, #4]
	str	r2, [sp, #0]
	.loc 1 639 0
	ldr	r3, [sp, #4]
	ldr	r2, [r3, #0]	@ float
	ldr	r3, [sp, #0]
	ldr	r3, [r3, #0]	@ float
	mov	r0, r2	@ float
	mov	r1, r3	@ float
	bl	_Z5b2MinIfET_S0_S0_
	mov	r5, r0	@ float
	ldr	r3, [sp, #4]
	ldr	r2, [r3, #4]	@ float
	ldr	r3, [sp, #0]
	ldr	r3, [r3, #4]	@ float
	mov	r0, r2	@ float
	mov	r1, r3	@ float
	bl	_Z5b2MinIfET_S0_S0_
	mov	r3, r0	@ float
	mov	r0, r4
	mov	r1, r5	@ float
	mov	r2, r3	@ float
	bl	_ZN6b2Vec2C1Eff
	.loc 1 640 0
	mov	r0, r4
	add	sp, sp, #12
	ldmfd	sp!, {r4, r5, pc}
	.cfi_endproc
.LFE107:
	.size	_Z5b2MinRK6b2Vec2S1_, .-_Z5b2MinRK6b2Vec2S1_
	.section	.text._Z5b2MaxRK6b2Vec2S1_,"axG",%progbits,_Z5b2MaxRK6b2Vec2S1_,comdat
	.align	2
	.weak	_Z5b2MaxRK6b2Vec2S1_
	.hidden	_Z5b2MaxRK6b2Vec2S1_
	.type	_Z5b2MaxRK6b2Vec2S1_, %function
_Z5b2MaxRK6b2Vec2S1_:
.LFB109:
	.loc 1 649 0
	.cfi_startproc
	@ args = 0, pretend = 0, frame = 8
	@ frame_needed = 0, uses_anonymous_args = 0
	stmfd	sp!, {r4, r5, lr}
.LCFI24:
	.cfi_def_cfa_offset 12
	sub	sp, sp, #12
.LCFI25:
	.cfi_def_cfa_offset 24
	mov	r4, r0
	.cfi_offset 14, -4
	.cfi_offset 5, -8
	.cfi_offset 4, -12
	str	r1, [sp, #4]
	str	r2, [sp, #0]
	.loc 1 650 0
	ldr	r3, [sp, #4]
	ldr	r2, [r3, #0]	@ float
	ldr	r3, [sp, #0]
	ldr	r3, [r3, #0]	@ float
	mov	r0, r2	@ float
	mov	r1, r3	@ float
	bl	_Z5b2MaxIfET_S0_S0_
	mov	r5, r0	@ float
	ldr	r3, [sp, #4]
	ldr	r2, [r3, #4]	@ float
	ldr	r3, [sp, #0]
	ldr	r3, [r3, #4]	@ float
	mov	r0, r2	@ float
	mov	r1, r3	@ float
	bl	_Z5b2MaxIfET_S0_S0_
	mov	r3, r0	@ float
	mov	r0, r4
	mov	r1, r5	@ float
	mov	r2, r3	@ float
	bl	_ZN6b2Vec2C1Eff
	.loc 1 651 0
	mov	r0, r4
	add	sp, sp, #12
	ldmfd	sp!, {r4, r5, pc}
	.cfi_endproc
.LFE109:
	.size	_Z5b2MaxRK6b2Vec2S1_, .-_Z5b2MaxRK6b2Vec2S1_
	.section	.text._ZN7b2ShapeD2Ev,"axG",%progbits,_ZN7b2ShapeD2Ev,comdat
	.align	2
	.weak	_ZN7b2ShapeD2Ev
	.hidden	_ZN7b2ShapeD2Ev
	.type	_ZN7b2ShapeD2Ev, %function
_ZN7b2ShapeD2Ev:
.LFB127:
	.file 2 "v:/gigglingbits/box2d/Box2D/Collision/Shapes/b2Shape.h"
	.loc 2 55 0
	.cfi_startproc
	@ args = 0, pretend = 0, frame = 8
	@ frame_needed = 0, uses_anonymous_args = 0
	str	lr, [sp, #-4]!
.LCFI26:
	.cfi_def_cfa_offset 4
	sub	sp, sp, #12
.LCFI27:
	.cfi_def_cfa_offset 16
	str	r0, [sp, #4]
	.loc 2 55 0
	ldr	r3, [sp, #4]
	ldr	r2, .L42
	str	r2, [r3, #0]
	mov	r3, #0
	and	r3, r3, #255
	cmp	r3, #0
	beq	.L40
	.cfi_offset 14, -4
	ldr	r0, [sp, #4]
	bl	_ZdlPv
.L40:
	ldr	r3, [sp, #4]
	mov	r0, r3
	add	sp, sp, #12
	ldmfd	sp!, {pc}
.L43:
	.align	2
.L42:
	.word	_ZTV7b2Shape+8
	.cfi_endproc
.LFE127:
	.size	_ZN7b2ShapeD2Ev, .-_ZN7b2ShapeD2Ev
	.section	.text._ZN7b2ShapeD1Ev,"axG",%progbits,_ZN7b2ShapeD1Ev,comdat
	.align	2
	.weak	_ZN7b2ShapeD1Ev
	.hidden	_ZN7b2ShapeD1Ev
	.type	_ZN7b2ShapeD1Ev, %function
_ZN7b2ShapeD1Ev:
.LFB128:
	.loc 2 55 0
	.cfi_startproc
	@ args = 0, pretend = 0, frame = 8
	@ frame_needed = 0, uses_anonymous_args = 0
	str	lr, [sp, #-4]!
.LCFI28:
	.cfi_def_cfa_offset 4
	sub	sp, sp, #12
.LCFI29:
	.cfi_def_cfa_offset 16
	str	r0, [sp, #4]
	.loc 2 55 0
	ldr	r3, [sp, #4]
	ldr	r2, .L48
	str	r2, [r3, #0]
	mov	r3, #0
	and	r3, r3, #255
	cmp	r3, #0
	beq	.L46
	.cfi_offset 14, -4
	ldr	r0, [sp, #4]
	bl	_ZdlPv
.L46:
	ldr	r3, [sp, #4]
	mov	r0, r3
	add	sp, sp, #12
	ldmfd	sp!, {pc}
.L49:
	.align	2
.L48:
	.word	_ZTV7b2Shape+8
	.cfi_endproc
.LFE128:
	.size	_ZN7b2ShapeD1Ev, .-_ZN7b2ShapeD1Ev
	.section	.text._ZN7b2ShapeD0Ev,"axG",%progbits,_ZN7b2ShapeD0Ev,comdat
	.align	2
	.weak	_ZN7b2ShapeD0Ev
	.hidden	_ZN7b2ShapeD0Ev
	.type	_ZN7b2ShapeD0Ev, %function
_ZN7b2ShapeD0Ev:
.LFB129:
	.loc 2 55 0
	.cfi_startproc
	@ args = 0, pretend = 0, frame = 8
	@ frame_needed = 0, uses_anonymous_args = 0
	str	lr, [sp, #-4]!
.LCFI30:
	.cfi_def_cfa_offset 4
	sub	sp, sp, #12
.LCFI31:
	.cfi_def_cfa_offset 16
	str	r0, [sp, #4]
	.loc 2 55 0
	ldr	r3, [sp, #4]
	ldr	r2, .L54
	str	r2, [r3, #0]
	mov	r3, #1
	and	r3, r3, #255
	cmp	r3, #0
	beq	.L52
	.cfi_offset 14, -4
	ldr	r0, [sp, #4]
	bl	_ZdlPv
.L52:
	ldr	r3, [sp, #4]
	mov	r0, r3
	add	sp, sp, #12
	ldmfd	sp!, {pc}
.L55:
	.align	2
.L54:
	.word	_ZTV7b2Shape+8
	.cfi_endproc
.LFE129:
	.size	_ZN7b2ShapeD0Ev, .-_ZN7b2ShapeD0Ev
	.section	.text._ZN7b2ShapeC2Ev,"axG",%progbits,_ZN7b2ShapeC2Ev,comdat
	.align	2
	.weak	_ZN7b2ShapeC2Ev
	.hidden	_ZN7b2ShapeC2Ev
	.type	_ZN7b2ShapeC2Ev, %function
_ZN7b2ShapeC2Ev:
.LFB133:
	.loc 2 43 0
	.cfi_startproc
	@ args = 0, pretend = 0, frame = 8
	@ frame_needed = 0, uses_anonymous_args = 0
	@ link register save eliminated.
	sub	sp, sp, #8
.LCFI32:
	.cfi_def_cfa_offset 8
	str	r0, [sp, #4]
	.loc 2 43 0
	ldr	r3, [sp, #4]
	ldr	r2, .L59
	str	r2, [r3, #0]
	ldr	r3, [sp, #4]
	mov	r0, r3
	add	sp, sp, #8
	bx	lr
.L60:
	.align	2
.L59:
	.word	_ZTV7b2Shape+8
	.cfi_endproc
.LFE133:
	.size	_ZN7b2ShapeC2Ev, .-_ZN7b2ShapeC2Ev
	.section	.text._ZN11b2EdgeShapeC1Ev,"axG",%progbits,_ZN11b2EdgeShapeC1Ev,comdat
	.align	2
	.weak	_ZN11b2EdgeShapeC1Ev
	.hidden	_ZN11b2EdgeShapeC1Ev
	.type	_ZN11b2EdgeShapeC1Ev, %function
_ZN11b2EdgeShapeC1Ev:
.LFB136:
	.file 3 "v:/gigglingbits/box2d/Box2D/Collision/Shapes/b2EdgeShape.h"
	.loc 3 62 0
	.cfi_startproc
	@ args = 0, pretend = 0, frame = 8
	@ frame_needed = 0, uses_anonymous_args = 0
	str	lr, [sp, #-4]!
.LCFI33:
	.cfi_def_cfa_offset 4
	sub	sp, sp, #12
.LCFI34:
	.cfi_def_cfa_offset 16
	str	r0, [sp, #4]
	.loc 3 62 0
	ldr	r3, [sp, #4]
	mov	r0, r3
	.cfi_offset 14, -4
	bl	_ZN7b2ShapeC2Ev
	ldr	r3, [sp, #4]
	ldr	r2, .L64+8
	str	r2, [r3, #0]
	ldr	r3, [sp, #4]
	add	r3, r3, #12
	mov	r0, r3
	bl	_ZN6b2Vec2C1Ev
	ldr	r3, [sp, #4]
	add	r3, r3, #20
	mov	r0, r3
	bl	_ZN6b2Vec2C1Ev
	ldr	r3, [sp, #4]
	add	r3, r3, #28
	mov	r0, r3
	bl	_ZN6b2Vec2C1Ev
	ldr	r3, [sp, #4]
	add	r3, r3, #36
	mov	r0, r3
	bl	_ZN6b2Vec2C1Ev
	.loc 3 64 0
	ldr	r3, [sp, #4]
	mov	r2, #1
	str	r2, [r3, #4]
	.loc 3 65 0
	ldr	r3, [sp, #4]
	flds	s15, .L64
	fsts	s15, [r3, #8]
	.loc 3 66 0
	ldr	r3, [sp, #4]
	flds	s15, .L64+4
	fsts	s15, [r3, #28]
	.loc 3 67 0
	ldr	r3, [sp, #4]
	flds	s15, .L64+4
	fsts	s15, [r3, #32]
	.loc 3 68 0
	ldr	r3, [sp, #4]
	flds	s15, .L64+4
	fsts	s15, [r3, #36]
	.loc 3 69 0
	ldr	r3, [sp, #4]
	flds	s15, .L64+4
	fsts	s15, [r3, #40]
	.loc 3 70 0
	ldr	r3, [sp, #4]
	mov	r2, #0
	strb	r2, [r3, #44]
	.loc 3 71 0
	ldr	r3, [sp, #4]
	mov	r2, #0
	strb	r2, [r3, #45]
	.loc 3 72 0
	ldr	r3, [sp, #4]
	mov	r0, r3
	add	sp, sp, #12
	ldmfd	sp!, {pc}
.L65:
	.align	2
.L64:
	.word	1008981770
	.word	0
	.word	_ZTV11b2EdgeShape+8
	.cfi_endproc
.LFE136:
	.size	_ZN11b2EdgeShapeC1Ev, .-_ZN11b2EdgeShapeC1Ev
	.section	.text._ZnwjPv,"axG",%progbits,_ZnwjPv,comdat
	.align	2
	.weak	_ZnwjPv
	.hidden	_ZnwjPv
	.type	_ZnwjPv, %function
_ZnwjPv:
.LFB137:
	.file 4 "c:/marmalade/6.3/s3e/h/std/c++/new.h"
	.loc 4 52 0
	.cfi_startproc
	@ args = 0, pretend = 0, frame = 8
	@ frame_needed = 0, uses_anonymous_args = 0
	@ link register save eliminated.
	sub	sp, sp, #8
.LCFI35:
	.cfi_def_cfa_offset 8
	str	r0, [sp, #4]
	str	r1, [sp, #0]
	.loc 4 52 0
	ldr	r3, [sp, #0]
	mov	r0, r3
	add	sp, sp, #8
	bx	lr
	.cfi_endproc
.LFE137:
	.size	_ZnwjPv, .-_ZnwjPv
	.section	.text._ZN11b2EdgeShape3SetERK6b2Vec2S2_,"ax",%progbits
	.align	2
	.global	_ZN11b2EdgeShape3SetERK6b2Vec2S2_
	.hidden	_ZN11b2EdgeShape3SetERK6b2Vec2S2_
	.type	_ZN11b2EdgeShape3SetERK6b2Vec2S2_, %function
_ZN11b2EdgeShape3SetERK6b2Vec2S2_:
.LFB161:
	.file 5 "v:/gigglingbits/box2d/Box2D/Collision/Shapes/b2EdgeShape.cpp"
	.loc 5 23 0
	.cfi_startproc
	@ args = 0, pretend = 0, frame = 16
	@ frame_needed = 0, uses_anonymous_args = 0
	@ link register save eliminated.
	sub	sp, sp, #16
.LCFI36:
	.cfi_def_cfa_offset 16
	str	r0, [sp, #12]
	str	r1, [sp, #8]
	str	r2, [sp, #4]
	.loc 5 24 0
	ldr	r3, [sp, #12]
	ldr	r2, [sp, #8]
	add	r3, r3, #12
	ldmia	r2, {r0, r1}
	stmia	r3, {r0, r1}
	.loc 5 25 0
	ldr	r3, [sp, #12]
	ldr	r2, [sp, #4]
	add	r3, r3, #20
	ldmia	r2, {r0, r1}
	stmia	r3, {r0, r1}
	.loc 5 26 0
	ldr	r3, [sp, #12]
	mov	r2, #0
	strb	r2, [r3, #44]
	.loc 5 27 0
	ldr	r3, [sp, #12]
	mov	r2, #0
	strb	r2, [r3, #45]
	.loc 5 28 0
	add	sp, sp, #16
	bx	lr
	.cfi_endproc
.LFE161:
	.size	_ZN11b2EdgeShape3SetERK6b2Vec2S2_, .-_ZN11b2EdgeShape3SetERK6b2Vec2S2_
	.section	.text._ZN7b2ShapeaSERKS_,"axG",%progbits,_ZN7b2ShapeaSERKS_,comdat
	.align	2
	.weak	_ZN7b2ShapeaSERKS_
	.hidden	_ZN7b2ShapeaSERKS_
	.type	_ZN7b2ShapeaSERKS_, %function
_ZN7b2ShapeaSERKS_:
.LFB164:
	.loc 2 43 0
	.cfi_startproc
	@ args = 0, pretend = 0, frame = 8
	@ frame_needed = 0, uses_anonymous_args = 0
	@ link register save eliminated.
	sub	sp, sp, #8
.LCFI37:
	.cfi_def_cfa_offset 8
	str	r0, [sp, #4]
	str	r1, [sp, #0]
	.loc 2 43 0
	ldr	r3, [sp, #0]
	ldr	r2, [r3, #4]
	ldr	r3, [sp, #4]
	str	r2, [r3, #4]
	ldr	r3, [sp, #0]
	flds	s15, [r3, #8]
	ldr	r3, [sp, #4]
	fsts	s15, [r3, #8]
	ldr	r3, [sp, #4]
	mov	r0, r3
	add	sp, sp, #8
	bx	lr
	.cfi_endproc
.LFE164:
	.size	_ZN7b2ShapeaSERKS_, .-_ZN7b2ShapeaSERKS_
	.section	.text._ZN11b2EdgeShapeaSERKS_,"axG",%progbits,_ZN11b2EdgeShapeaSERKS_,comdat
	.align	2
	.weak	_ZN11b2EdgeShapeaSERKS_
	.hidden	_ZN11b2EdgeShapeaSERKS_
	.type	_ZN11b2EdgeShapeaSERKS_, %function
_ZN11b2EdgeShapeaSERKS_:
.LFB163:
	.loc 3 28 0
	.cfi_startproc
	@ args = 0, pretend = 0, frame = 8
	@ frame_needed = 0, uses_anonymous_args = 0
	str	lr, [sp, #-4]!
.LCFI38:
	.cfi_def_cfa_offset 4
	sub	sp, sp, #12
.LCFI39:
	.cfi_def_cfa_offset 16
	str	r0, [sp, #4]
	str	r1, [sp, #0]
	.loc 3 28 0
	ldr	r2, [sp, #4]
	ldr	r3, [sp, #0]
	mov	r0, r2
	mov	r1, r3
	.cfi_offset 14, -4
	bl	_ZN7b2ShapeaSERKS_
	ldr	r3, [sp, #4]
	ldr	r2, [sp, #0]
	add	r3, r3, #12
	add	r2, r2, #12
	ldmia	r2, {r0, r1}
	stmia	r3, {r0, r1}
	ldr	r3, [sp, #4]
	ldr	r2, [sp, #0]
	add	r3, r3, #20
	add	r2, r2, #20
	ldmia	r2, {r0, r1}
	stmia	r3, {r0, r1}
	ldr	r3, [sp, #4]
	ldr	r2, [sp, #0]
	add	r3, r3, #28
	add	r2, r2, #28
	ldmia	r2, {r0, r1}
	stmia	r3, {r0, r1}
	ldr	r3, [sp, #4]
	ldr	r2, [sp, #0]
	add	r3, r3, #36
	add	r2, r2, #36
	ldmia	r2, {r0, r1}
	stmia	r3, {r0, r1}
	ldr	r3, [sp, #0]
	ldrb	r2, [r3, #44]	@ zero_extendqisi2
	ldr	r3, [sp, #4]
	strb	r2, [r3, #44]
	ldr	r3, [sp, #0]
	ldrb	r2, [r3, #45]	@ zero_extendqisi2
	ldr	r3, [sp, #4]
	strb	r2, [r3, #45]
	ldr	r3, [sp, #4]
	mov	r0, r3
	add	sp, sp, #12
	ldmfd	sp!, {pc}
	.cfi_endproc
.LFE163:
	.size	_ZN11b2EdgeShapeaSERKS_, .-_ZN11b2EdgeShapeaSERKS_
	.section	.text._ZNK11b2EdgeShape5CloneEP16b2BlockAllocator,"ax",%progbits
	.align	2
	.global	_ZNK11b2EdgeShape5CloneEP16b2BlockAllocator
	.hidden	_ZNK11b2EdgeShape5CloneEP16b2BlockAllocator
	.type	_ZNK11b2EdgeShape5CloneEP16b2BlockAllocator, %function
_ZNK11b2EdgeShape5CloneEP16b2BlockAllocator:
.LFB162:
	.loc 5 31 0
	.cfi_startproc
	@ args = 0, pretend = 0, frame = 16
	@ frame_needed = 0, uses_anonymous_args = 0
	stmfd	sp!, {r4, lr}
.LCFI40:
	.cfi_def_cfa_offset 8
	sub	sp, sp, #16
.LCFI41:
	.cfi_def_cfa_offset 24
	str	r0, [sp, #4]
	str	r1, [sp, #0]
.LBB5:
	.loc 5 32 0
	ldr	r0, [sp, #0]
	mov	r1, #48
	.cfi_offset 14, -4
	.cfi_offset 4, -8
	bl	_ZN16b2BlockAllocator8AllocateEi
	mov	r3, r0
	str	r3, [sp, #8]
	.loc 5 33 0
	ldr	r3, [sp, #8]
	mov	r0, #48
	mov	r1, r3
	bl	_ZnwjPv
	mov	r3, r0
	mov	r4, r3
	mov	r3, r4
	mov	r0, r3
	bl	_ZN11b2EdgeShapeC1Ev
	str	r4, [sp, #12]
	.loc 5 34 0
	ldr	r0, [sp, #12]
	ldr	r1, [sp, #4]
	bl	_ZN11b2EdgeShapeaSERKS_
	.loc 5 35 0
	ldr	r3, [sp, #12]
.LBE5:
	.loc 5 36 0
	mov	r0, r3
	add	sp, sp, #16
	ldmfd	sp!, {r4, pc}
	.cfi_endproc
.LFE162:
	.size	_ZNK11b2EdgeShape5CloneEP16b2BlockAllocator, .-_ZNK11b2EdgeShape5CloneEP16b2BlockAllocator
	.section	.text._ZNK11b2EdgeShape13GetChildCountEv,"ax",%progbits
	.align	2
	.global	_ZNK11b2EdgeShape13GetChildCountEv
	.hidden	_ZNK11b2EdgeShape13GetChildCountEv
	.type	_ZNK11b2EdgeShape13GetChildCountEv, %function
_ZNK11b2EdgeShape13GetChildCountEv:
.LFB165:
	.loc 5 39 0
	.cfi_startproc
	@ args = 0, pretend = 0, frame = 8
	@ frame_needed = 0, uses_anonymous_args = 0
	@ link register save eliminated.
	sub	sp, sp, #8
.LCFI42:
	.cfi_def_cfa_offset 8
	str	r0, [sp, #4]
	.loc 5 40 0
	mov	r3, #1
	.loc 5 41 0
	mov	r0, r3
	add	sp, sp, #8
	bx	lr
	.cfi_endproc
.LFE165:
	.size	_ZNK11b2EdgeShape13GetChildCountEv, .-_ZNK11b2EdgeShape13GetChildCountEv
	.section	.text._ZNK11b2EdgeShape9TestPointERK11b2TransformRK6b2Vec2,"ax",%progbits
	.align	2
	.global	_ZNK11b2EdgeShape9TestPointERK11b2TransformRK6b2Vec2
	.hidden	_ZNK11b2EdgeShape9TestPointERK11b2TransformRK6b2Vec2
	.type	_ZNK11b2EdgeShape9TestPointERK11b2TransformRK6b2Vec2, %function
_ZNK11b2EdgeShape9TestPointERK11b2TransformRK6b2Vec2:
.LFB166:
	.loc 5 44 0
	.cfi_startproc
	@ args = 0, pretend = 0, frame = 16
	@ frame_needed = 0, uses_anonymous_args = 0
	@ link register save eliminated.
	sub	sp, sp, #16
.LCFI43:
	.cfi_def_cfa_offset 16
	str	r0, [sp, #12]
	str	r1, [sp, #8]
	str	r2, [sp, #4]
	.loc 5 47 0
	mov	r3, #0
	.loc 5 48 0
	mov	r0, r3
	add	sp, sp, #16
	bx	lr
	.cfi_endproc
.LFE166:
	.size	_ZNK11b2EdgeShape9TestPointERK11b2TransformRK6b2Vec2, .-_ZNK11b2EdgeShape9TestPointERK11b2TransformRK6b2Vec2
	.section	.text._ZNK11b2EdgeShape7RayCastEP15b2RayCastOutputRK14b2RayCastInputRK11b2Transformi,"ax",%progbits
	.align	2
	.global	_ZNK11b2EdgeShape7RayCastEP15b2RayCastOutputRK14b2RayCastInputRK11b2Transformi
	.hidden	_ZNK11b2EdgeShape7RayCastEP15b2RayCastOutputRK14b2RayCastInputRK11b2Transformi
	.type	_ZNK11b2EdgeShape7RayCastEP15b2RayCastOutputRK14b2RayCastInputRK11b2Transformi, %function
_ZNK11b2EdgeShape7RayCastEP15b2RayCastOutputRK14b2RayCastInputRK11b2Transformi:
.LFB167:
	.loc 5 56 0
	.cfi_startproc
	@ args = 4, pretend = 0, frame = 168
	@ frame_needed = 0, uses_anonymous_args = 0
	stmfd	sp!, {r4, lr}
.LCFI44:
	.cfi_def_cfa_offset 8
	sub	sp, sp, #168
.LCFI45:
	.cfi_def_cfa_offset 176
	str	r0, [sp, #20]
	str	r1, [sp, #16]
	str	r2, [sp, #12]
	str	r3, [sp, #8]
.LBB6:
	.loc 5 60 0
	ldr	r3, [sp, #8]
	add	r4, r3, #8
	.cfi_offset 14, -4
	.cfi_offset 4, -8
	ldr	r2, [sp, #12]
	ldr	r3, [sp, #8]
	add	r1, sp, #100
	mov	r0, r1
	mov	r1, r2
	mov	r2, r3
	bl	_ZmiRK6b2Vec2S1_
	add	r2, sp, #92
	add	r3, sp, #100
	mov	r0, r2
	mov	r1, r4
	mov	r2, r3
	bl	_Z6b2MulTRK5b2RotRK6b2Vec2
	.loc 5 61 0
	ldr	r3, [sp, #8]
	add	r4, r3, #8
	ldr	r3, [sp, #12]
	add	r2, r3, #8
	ldr	r3, [sp, #8]
	add	r1, sp, #108
	mov	r0, r1
	mov	r1, r2
	mov	r2, r3
	bl	_ZmiRK6b2Vec2S1_
	add	r2, sp, #84
	add	r3, sp, #108
	mov	r0, r2
	mov	r1, r4
	mov	r2, r3
	bl	_Z6b2MulTRK5b2RotRK6b2Vec2
	.loc 5 62 0
	add	r1, sp, #76
	add	r2, sp, #84
	add	r3, sp, #92
	mov	r0, r1
	mov	r1, r2
	mov	r2, r3
	bl	_ZmiRK6b2Vec2S1_
	.loc 5 64 0
	ldr	r2, [sp, #20]
	add	r3, sp, #68
	add	r2, r2, #12
	ldmia	r2, {r0, r1}
	stmia	r3, {r0, r1}
	.loc 5 65 0
	ldr	r2, [sp, #20]
	add	r3, sp, #60
	add	r2, r2, #20
	ldmia	r2, {r0, r1}
	stmia	r3, {r0, r1}
	.loc 5 66 0
	add	r1, sp, #52
	add	r2, sp, #60
	add	r3, sp, #68
	mov	r0, r1
	mov	r1, r2
	mov	r2, r3
	bl	_ZmiRK6b2Vec2S1_
	.loc 5 67 0
	ldr	r3, [sp, #56]	@ float
	flds	s15, [sp, #52]
	fnegs	s15, s15
	add	r2, sp, #44
	mov	r0, r2
	mov	r1, r3	@ float
	fmrs	r2, s15
	bl	_ZN6b2Vec2C1Eff
	.loc 5 68 0
	add	r3, sp, #44
	mov	r0, r3
	bl	_ZN6b2Vec29NormalizeEv
	.loc 5 73 0
	add	r1, sp, #116
	add	r2, sp, #68
	add	r3, sp, #92
	mov	r0, r1
	mov	r1, r2
	mov	r2, r3
	bl	_ZmiRK6b2Vec2S1_
	add	r2, sp, #44
	add	r3, sp, #116
	mov	r0, r2
	mov	r1, r3
	bl	_Z5b2DotRK6b2Vec2S1_
	mov	r3, r0	@ float
	str	r3, [sp, #148]	@ float
	.loc 5 74 0
	add	r2, sp, #44
	add	r3, sp, #76
	mov	r0, r2
	mov	r1, r3
	bl	_Z5b2DotRK6b2Vec2S1_
	mov	r3, r0	@ float
	str	r3, [sp, #152]	@ float
	.loc 5 76 0
	flds	s15, [sp, #152]
	fcmpzs	s15
	fmstat
	bne	.L95
.L93:
	.loc 5 78 0
	mov	r3, #0
	b	.L83
.L95:
	.loc 5 81 0
	flds	s14, [sp, #148]
	flds	s15, [sp, #152]
	fdivs	s15, s14, s15
	fsts	s15, [sp, #156]
	.loc 5 82 0
	flds	s15, [sp, #156]
	fcmpezs	s15
	fmstat
	movpl	r3, #0
	movmi	r3, #1
	and	r3, r3, #255
	cmp	r3, #0
	bne	.L84
	ldr	r3, [sp, #12]
	flds	s14, [r3, #16]
	flds	s15, [sp, #156]
	fcmpes	s14, s15
	fmstat
	movpl	r3, #0
	movmi	r3, #1
	and	r3, r3, #255
	cmp	r3, #0
	beq	.L85
.L84:
	.loc 5 84 0
	mov	r3, #0
	b	.L83
.L85:
	.loc 5 87 0
	add	r2, sp, #124
	add	r3, sp, #76
	mov	r0, r2
	ldr	r1, [sp, #156]	@ float
	mov	r2, r3
	bl	_ZmlfRK6b2Vec2
	add	r1, sp, #36
	add	r2, sp, #92
	add	r3, sp, #124
	mov	r0, r1
	mov	r1, r2
	mov	r2, r3
	bl	_ZplRK6b2Vec2S1_
	.loc 5 91 0
	add	r1, sp, #28
	add	r2, sp, #60
	add	r3, sp, #68
	mov	r0, r1
	mov	r1, r2
	mov	r2, r3
	bl	_ZmiRK6b2Vec2S1_
	.loc 5 92 0
	add	r2, sp, #28
	add	r3, sp, #28
	mov	r0, r2
	mov	r1, r3
	bl	_Z5b2DotRK6b2Vec2S1_
	mov	r3, r0	@ float
	str	r3, [sp, #160]	@ float
	.loc 5 93 0
	flds	s15, [sp, #160]
	fcmpzs	s15
	fmstat
	bne	.L96
.L94:
	.loc 5 95 0
	mov	r3, #0
	b	.L83
.L96:
	.loc 5 98 0
	add	r1, sp, #132
	add	r2, sp, #36
	add	r3, sp, #68
	mov	r0, r1
	mov	r1, r2
	mov	r2, r3
	bl	_ZmiRK6b2Vec2S1_
	add	r2, sp, #132
	add	r3, sp, #28
	mov	r0, r2
	mov	r1, r3
	bl	_Z5b2DotRK6b2Vec2S1_
	fmsr	s14, r0
	flds	s15, [sp, #160]
	fdivs	s15, s14, s15
	fsts	s15, [sp, #164]
	.loc 5 99 0
	flds	s15, [sp, #164]
	fcmpezs	s15
	fmstat
	movpl	r3, #0
	movmi	r3, #1
	and	r3, r3, #255
	cmp	r3, #0
	bne	.L88
	flds	s14, [sp, #164]
	flds	s15, .L97
	fcmpes	s14, s15
	fmstat
	movle	r3, #0
	movgt	r3, #1
	and	r3, r3, #255
	cmp	r3, #0
	beq	.L89
.L88:
	.loc 5 101 0
	mov	r3, #0
	b	.L83
.L89:
	.loc 5 104 0
	ldr	r3, [sp, #16]
	flds	s15, [sp, #156]
	fsts	s15, [r3, #8]
	.loc 5 105 0
	flds	s15, [sp, #148]
	fcmpezs	s15
	fmstat
	movle	r3, #0
	movgt	r3, #1
	and	r3, r3, #255
	cmp	r3, #0
	beq	.L90
	.loc 5 107 0
	ldr	r3, [sp, #8]
	add	r2, r3, #8
	add	r1, sp, #140
	add	r3, sp, #44
	mov	r0, r1
	mov	r1, r2
	mov	r2, r3
	bl	_Z5b2MulRK5b2RotRK6b2Vec2
	ldr	r4, [sp, #16]
	mov	r2, sp
	add	r3, sp, #140
	mov	r0, r2
	mov	r1, r3
	bl	_ZNK6b2Vec2ngEv
	mov	r3, r4
	mov	r2, sp
	ldmia	r2, {r0, r1}
	stmia	r3, {r0, r1}
	b	.L91
.L90:
	.loc 5 111 0
	ldr	r3, [sp, #8]
	add	r2, r3, #8
	ldr	r4, [sp, #16]
	mov	r1, sp
	add	r3, sp, #44
	mov	r0, r1
	mov	r1, r2
	mov	r2, r3
	bl	_Z5b2MulRK5b2RotRK6b2Vec2
	mov	r3, r4
	mov	r2, sp
	ldmia	r2, {r0, r1}
	stmia	r3, {r0, r1}
.L91:
	.loc 5 113 0
	mov	r3, #1
.L83:
.LBE6:
	.loc 5 114 0
	mov	r0, r3
	add	sp, sp, #168
	ldmfd	sp!, {r4, pc}
.L98:
	.align	2
.L97:
	.word	1065353216
	.cfi_endproc
.LFE167:
	.size	_ZNK11b2EdgeShape7RayCastEP15b2RayCastOutputRK14b2RayCastInputRK11b2Transformi, .-_ZNK11b2EdgeShape7RayCastEP15b2RayCastOutputRK14b2RayCastInputRK11b2Transformi
	.section	.text._ZNK11b2EdgeShape11ComputeAABBEP6b2AABBRK11b2Transformi,"ax",%progbits
	.align	2
	.global	_ZNK11b2EdgeShape11ComputeAABBEP6b2AABBRK11b2Transformi
	.hidden	_ZNK11b2EdgeShape11ComputeAABBEP6b2AABBRK11b2Transformi
	.type	_ZNK11b2EdgeShape11ComputeAABBEP6b2AABBRK11b2Transformi, %function
_ZNK11b2EdgeShape11ComputeAABBEP6b2AABBRK11b2Transformi:
.LFB168:
	.loc 5 117 0
	.cfi_startproc
	@ args = 0, pretend = 0, frame = 64
	@ frame_needed = 0, uses_anonymous_args = 0
	stmfd	sp!, {r4, lr}
.LCFI46:
	.cfi_def_cfa_offset 8
	sub	sp, sp, #64
.LCFI47:
	.cfi_def_cfa_offset 72
	str	r0, [sp, #20]
	str	r1, [sp, #16]
	str	r2, [sp, #12]
	str	r3, [sp, #8]
.LBB7:
	.loc 5 120 0
	ldr	r3, [sp, #20]
	add	r3, r3, #12
	add	r2, sp, #56
	mov	r0, r2
	ldr	r1, [sp, #12]
	mov	r2, r3
	.cfi_offset 14, -4
	.cfi_offset 4, -8
	bl	_Z5b2MulRK11b2TransformRK6b2Vec2
	.loc 5 121 0
	ldr	r3, [sp, #20]
	add	r3, r3, #20
	add	r2, sp, #48
	mov	r0, r2
	ldr	r1, [sp, #12]
	mov	r2, r3
	bl	_Z5b2MulRK11b2TransformRK6b2Vec2
	.loc 5 123 0
	add	r1, sp, #40
	add	r2, sp, #56
	add	r3, sp, #48
	mov	r0, r1
	mov	r1, r2
	mov	r2, r3
	bl	_Z5b2MinRK6b2Vec2S1_
	.loc 5 124 0
	add	r1, sp, #32
	add	r2, sp, #56
	add	r3, sp, #48
	mov	r0, r1
	mov	r1, r2
	mov	r2, r3
	bl	_Z5b2MaxRK6b2Vec2S1_
	.loc 5 126 0
	ldr	r3, [sp, #20]
	ldr	r2, [r3, #8]	@ float
	ldr	r3, [sp, #20]
	ldr	r3, [r3, #8]	@ float
	add	r1, sp, #24
	mov	r0, r1
	mov	r1, r2	@ float
	mov	r2, r3	@ float
	bl	_ZN6b2Vec2C1Eff
	.loc 5 127 0
	ldr	r4, [sp, #16]
	mov	r1, sp
	add	r2, sp, #40
	add	r3, sp, #24
	mov	r0, r1
	mov	r1, r2
	mov	r2, r3
	bl	_ZmiRK6b2Vec2S1_
	mov	r3, r4
	mov	r2, sp
	ldmia	r2, {r0, r1}
	stmia	r3, {r0, r1}
	.loc 5 128 0
	ldr	r4, [sp, #16]
	mov	r1, sp
	add	r2, sp, #32
	add	r3, sp, #24
	mov	r0, r1
	mov	r1, r2
	mov	r2, r3
	bl	_ZplRK6b2Vec2S1_
	add	r3, r4, #8
	mov	r2, sp
	ldmia	r2, {r0, r1}
	stmia	r3, {r0, r1}
.LBE7:
	.loc 5 129 0
	add	sp, sp, #64
	ldmfd	sp!, {r4, pc}
	.cfi_endproc
.LFE168:
	.size	_ZNK11b2EdgeShape11ComputeAABBEP6b2AABBRK11b2Transformi, .-_ZNK11b2EdgeShape11ComputeAABBEP6b2AABBRK11b2Transformi
	.section	.text._ZNK11b2EdgeShape11ComputeMassEP10b2MassDataf,"ax",%progbits
	.align	2
	.global	_ZNK11b2EdgeShape11ComputeMassEP10b2MassDataf
	.hidden	_ZNK11b2EdgeShape11ComputeMassEP10b2MassDataf
	.type	_ZNK11b2EdgeShape11ComputeMassEP10b2MassDataf, %function
_ZNK11b2EdgeShape11ComputeMassEP10b2MassDataf:
.LFB169:
	.loc 5 132 0
	.cfi_startproc
	@ args = 0, pretend = 0, frame = 32
	@ frame_needed = 0, uses_anonymous_args = 0
	stmfd	sp!, {r4, lr}
.LCFI48:
	.cfi_def_cfa_offset 8
	sub	sp, sp, #32
.LCFI49:
	.cfi_def_cfa_offset 40
	str	r0, [sp, #20]
	str	r1, [sp, #16]
	str	r2, [sp, #12]	@ float
	.loc 5 135 0
	ldr	r3, [sp, #16]
	flds	s15, .L103
	fsts	s15, [r3, #0]
	.loc 5 136 0
	ldr	r3, [sp, #20]
	add	r2, r3, #12
	ldr	r3, [sp, #20]
	add	r3, r3, #20
	add	r1, sp, #24
	mov	r0, r1
	mov	r1, r2
	mov	r2, r3
	.cfi_offset 14, -4
	.cfi_offset 4, -8
	bl	_ZplRK6b2Vec2S1_
	ldr	r4, [sp, #16]
	mov	r2, sp
	add	r3, sp, #24
	mov	r0, r2
	ldr	r1, .L103+4	@ float
	mov	r2, r3
	bl	_ZmlfRK6b2Vec2
	add	r3, r4, #4
	mov	r2, sp
	ldmia	r2, {r0, r1}
	stmia	r3, {r0, r1}
	.loc 5 137 0
	ldr	r3, [sp, #16]
	flds	s15, .L103
	fsts	s15, [r3, #12]
	.loc 5 138 0
	add	sp, sp, #32
	ldmfd	sp!, {r4, pc}
.L104:
	.align	2
.L103:
	.word	0
	.word	1056964608
	.cfi_endproc
.LFE169:
	.size	_ZNK11b2EdgeShape11ComputeMassEP10b2MassDataf, .-_ZNK11b2EdgeShape11ComputeMassEP10b2MassDataf
	.section	.text._Z5b2MinIfET_S0_S0_,"axG",%progbits,_Z5b2MinIfET_S0_S0_,comdat
	.align	2
	.weak	_Z5b2MinIfET_S0_S0_
	.hidden	_Z5b2MinIfET_S0_S0_
	.type	_Z5b2MinIfET_S0_S0_, %function
_Z5b2MinIfET_S0_S0_:
.LFB171:
	.loc 1 632 0
	.cfi_startproc
	@ args = 0, pretend = 0, frame = 8
	@ frame_needed = 0, uses_anonymous_args = 0
	@ link register save eliminated.
	sub	sp, sp, #8
.LCFI50:
	.cfi_def_cfa_offset 8
	str	r0, [sp, #4]	@ float
	str	r1, [sp, #0]	@ float
	.loc 1 634 0
	flds	s14, [sp, #4]
	flds	s15, [sp, #0]
	fcmpes	s14, s15
	fmstat
	movpl	r3, #0
	movmi	r3, #1
	and	r3, r3, #255
	cmp	r3, #0
	beq	.L106
	flds	s15, [sp, #4]
	b	.L107
.L106:
	flds	s15, [sp, #0]
.L107:
	fmrs	r3, s15
	.loc 1 635 0
	mov	r0, r3	@ float
	add	sp, sp, #8
	bx	lr
	.cfi_endproc
.LFE171:
	.size	_Z5b2MinIfET_S0_S0_, .-_Z5b2MinIfET_S0_S0_
	.section	.text._Z5b2MaxIfET_S0_S0_,"axG",%progbits,_Z5b2MaxIfET_S0_S0_,comdat
	.align	2
	.weak	_Z5b2MaxIfET_S0_S0_
	.hidden	_Z5b2MaxIfET_S0_S0_
	.type	_Z5b2MaxIfET_S0_S0_, %function
_Z5b2MaxIfET_S0_S0_:
.LFB172:
	.loc 1 643 0
	.cfi_startproc
	@ args = 0, pretend = 0, frame = 8
	@ frame_needed = 0, uses_anonymous_args = 0
	@ link register save eliminated.
	sub	sp, sp, #8
.LCFI51:
	.cfi_def_cfa_offset 8
	str	r0, [sp, #4]	@ float
	str	r1, [sp, #0]	@ float
	.loc 1 645 0
	flds	s14, [sp, #4]
	flds	s15, [sp, #0]
	fcmpes	s14, s15
	fmstat
	movle	r3, #0
	movgt	r3, #1
	and	r3, r3, #255
	cmp	r3, #0
	beq	.L110
	flds	s15, [sp, #4]
	b	.L111
.L110:
	flds	s15, [sp, #0]
.L111:
	fmrs	r3, s15
	.loc 1 646 0
	mov	r0, r3	@ float
	add	sp, sp, #8
	bx	lr
	.cfi_endproc
.LFE172:
	.size	_Z5b2MaxIfET_S0_S0_, .-_Z5b2MaxIfET_S0_S0_
	.hidden	_ZTV11b2EdgeShape
	.global	_ZTV11b2EdgeShape
	.section	.rodata
	.align	3
	.type	_ZTV11b2EdgeShape, %object
	.size	_ZTV11b2EdgeShape, 40
_ZTV11b2EdgeShape:
	.word	0
	.word	_ZTI11b2EdgeShape
	.word	_ZN11b2EdgeShapeD1Ev
	.word	_ZN11b2EdgeShapeD0Ev
	.word	_ZNK11b2EdgeShape5CloneEP16b2BlockAllocator
	.word	_ZNK11b2EdgeShape13GetChildCountEv
	.word	_ZNK11b2EdgeShape9TestPointERK11b2TransformRK6b2Vec2
	.word	_ZNK11b2EdgeShape7RayCastEP15b2RayCastOutputRK14b2RayCastInputRK11b2Transformi
	.word	_ZNK11b2EdgeShape11ComputeAABBEP6b2AABBRK11b2Transformi
	.word	_ZNK11b2EdgeShape11ComputeMassEP10b2MassDataf
	.hidden	_ZTV7b2Shape
	.weak	_ZTV7b2Shape
	.section	.rodata._ZTV7b2Shape,"aG",%progbits,_ZTV7b2Shape,comdat
	.align	3
	.type	_ZTV7b2Shape, %object
	.size	_ZTV7b2Shape, 40
_ZTV7b2Shape:
	.word	0
	.word	_ZTI7b2Shape
	.word	_ZN7b2ShapeD1Ev
	.word	_ZN7b2ShapeD0Ev
	.word	__cxa_pure_virtual
	.word	__cxa_pure_virtual
	.word	__cxa_pure_virtual
	.word	__cxa_pure_virtual
	.word	__cxa_pure_virtual
	.word	__cxa_pure_virtual
	.hidden	_ZTI11b2EdgeShape
	.global	_ZTI11b2EdgeShape
	.section	.rodata
	.align	2
	.type	_ZTI11b2EdgeShape, %object
	.size	_ZTI11b2EdgeShape, 12
_ZTI11b2EdgeShape:
	.word	_ZTVN10__cxxabiv120__si_class_type_infoE+8
	.word	_ZTS11b2EdgeShape
	.word	_ZTI7b2Shape
	.hidden	_ZTS11b2EdgeShape
	.global	_ZTS11b2EdgeShape
	.align	2
	.type	_ZTS11b2EdgeShape, %object
	.size	_ZTS11b2EdgeShape, 14
_ZTS11b2EdgeShape:
	.ascii	"11b2EdgeShape\000"
	.hidden	_ZTS7b2Shape
	.weak	_ZTS7b2Shape
	.section	.rodata._ZTS7b2Shape,"aG",%progbits,_ZTS7b2Shape,comdat
	.align	2
	.type	_ZTS7b2Shape, %object
	.size	_ZTS7b2Shape, 9
_ZTS7b2Shape:
	.ascii	"7b2Shape\000"
	.hidden	_ZTI7b2Shape
	.weak	_ZTI7b2Shape
	.section	.rodata._ZTI7b2Shape,"aG",%progbits,_ZTI7b2Shape,comdat
	.align	2
	.type	_ZTI7b2Shape, %object
	.size	_ZTI7b2Shape, 8
_ZTI7b2Shape:
	.word	_ZTVN10__cxxabiv117__class_type_infoE+8
	.word	_ZTS7b2Shape
	.section	.text._ZN11b2EdgeShapeD1Ev,"axG",%progbits,_ZN11b2EdgeShapeD1Ev,comdat
	.align	2
	.weak	_ZN11b2EdgeShapeD1Ev
	.hidden	_ZN11b2EdgeShapeD1Ev
	.type	_ZN11b2EdgeShapeD1Ev, %function
_ZN11b2EdgeShapeD1Ev:
.LFB175:
	.loc 3 28 0
	.cfi_startproc
	@ args = 0, pretend = 0, frame = 8
	@ frame_needed = 0, uses_anonymous_args = 0
	str	lr, [sp, #-4]!
.LCFI52:
	.cfi_def_cfa_offset 4
	sub	sp, sp, #12
.LCFI53:
	.cfi_def_cfa_offset 16
	str	r0, [sp, #4]
	.loc 3 28 0
	ldr	r3, [sp, #4]
	ldr	r2, .L117
	str	r2, [r3, #0]
	ldr	r3, [sp, #4]
	mov	r0, r3
	.cfi_offset 14, -4
	bl	_ZN7b2ShapeD2Ev
	mov	r3, #0
	and	r3, r3, #255
	cmp	r3, #0
	beq	.L115
	ldr	r0, [sp, #4]
	bl	_ZdlPv
.L115:
	ldr	r3, [sp, #4]
	mov	r0, r3
	add	sp, sp, #12
	ldmfd	sp!, {pc}
.L118:
	.align	2
.L117:
	.word	_ZTV11b2EdgeShape+8
	.cfi_endproc
.LFE175:
	.size	_ZN11b2EdgeShapeD1Ev, .-_ZN11b2EdgeShapeD1Ev
	.section	.text._ZN11b2EdgeShapeD0Ev,"axG",%progbits,_ZN11b2EdgeShapeD0Ev,comdat
	.align	2
	.weak	_ZN11b2EdgeShapeD0Ev
	.hidden	_ZN11b2EdgeShapeD0Ev
	.type	_ZN11b2EdgeShapeD0Ev, %function
_ZN11b2EdgeShapeD0Ev:
.LFB176:
	.loc 3 28 0
	.cfi_startproc
	@ args = 0, pretend = 0, frame = 8
	@ frame_needed = 0, uses_anonymous_args = 0
	str	lr, [sp, #-4]!
.LCFI54:
	.cfi_def_cfa_offset 4
	sub	sp, sp, #12
.LCFI55:
	.cfi_def_cfa_offset 16
	str	r0, [sp, #4]
	.loc 3 28 0
	ldr	r3, [sp, #4]
	ldr	r2, .L123
	str	r2, [r3, #0]
	ldr	r3, [sp, #4]
	mov	r0, r3
	.cfi_offset 14, -4
	bl	_ZN7b2ShapeD2Ev
	mov	r3, #1
	and	r3, r3, #255
	cmp	r3, #0
	beq	.L121
	ldr	r0, [sp, #4]
	bl	_ZdlPv
.L121:
	ldr	r3, [sp, #4]
	mov	r0, r3
	add	sp, sp, #12
	ldmfd	sp!, {pc}
.L124:
	.align	2
.L123:
	.word	_ZTV11b2EdgeShape+8
	.cfi_endproc
.LFE176:
	.size	_ZN11b2EdgeShapeD0Ev, .-_ZN11b2EdgeShapeD0Ev
	.section	.rodata
	.align	2
	.type	_ZL12b2_chunkSize, %object
	.size	_ZL12b2_chunkSize, 4
_ZL12b2_chunkSize:
	.word	16384
	.align	2
	.type	_ZL15b2_maxBlockSize, %object
	.size	_ZL15b2_maxBlockSize, 4
_ZL15b2_maxBlockSize:
	.word	640
	.align	2
	.type	_ZL13b2_blockSizes, %object
	.size	_ZL13b2_blockSizes, 4
_ZL13b2_blockSizes:
	.word	14
	.align	2
	.type	_ZL22b2_chunkArrayIncrement, %object
	.size	_ZL22b2_chunkArrayIncrement, 4
_ZL22b2_chunkArrayIncrement:
	.word	128
	.type	_ZL14b2_nullFeature, %object
	.size	_ZL14b2_nullFeature, 1
_ZL14b2_nullFeature:
	.byte	-1
	.text
.Letext0: