	.arch armv5te
	.eabi_attribute 27, 3
	.fpu vfp
	.eabi_attribute 20, 1
	.eabi_attribute 21, 1
	.eabi_attribute 23, 3
	.eabi_attribute 24, 1
	.eabi_attribute 25, 1
	.eabi_attribute 26, 2
	.eabi_attribute 30, 6
	.eabi_attribute 18, 2
	.file	"b2Fixture.cpp"
	.text
.Ltext0:
	.cfi_sections	.debug_frame
	.section	.text._ZN6b2Vec2C1Ev,"axG",%progbits,_ZN6b2Vec2C1Ev,comdat
	.align	2
	.weak	_ZN6b2Vec2C1Ev
	.hidden	_ZN6b2Vec2C1Ev
	.type	_ZN6b2Vec2C1Ev, %function
_ZN6b2Vec2C1Ev:
.LFB4:
	.file 1 "v:/gigglingbits/box2d/Box2D/Common/b2Math.h"
	.loc 1 56 0
	.cfi_startproc
	@ args = 0, pretend = 0, frame = 8
	@ frame_needed = 0, uses_anonymous_args = 0
	@ link register save eliminated.
	sub	sp, sp, #8
.LCFI0:
	.cfi_def_cfa_offset 8
	str	r0, [sp, #4]
	.loc 1 56 0
	ldr	r3, [sp, #4]
	mov	r0, r3
	add	sp, sp, #8
	bx	lr
	.cfi_endproc
.LFE4:
	.size	_ZN6b2Vec2C1Ev, .-_ZN6b2Vec2C1Ev
	.section	.text._ZN6b2Vec2C1Eff,"axG",%progbits,_ZN6b2Vec2C1Eff,comdat
	.align	2
	.weak	_ZN6b2Vec2C1Eff
	.hidden	_ZN6b2Vec2C1Eff
	.type	_ZN6b2Vec2C1Eff, %function
_ZN6b2Vec2C1Eff:
.LFB7:
	.loc 1 59 0
	.cfi_startproc
	@ args = 0, pretend = 0, frame = 16
	@ frame_needed = 0, uses_anonymous_args = 0
	@ link register save eliminated.
	sub	sp, sp, #16
.LCFI1:
	.cfi_def_cfa_offset 16
	str	r0, [sp, #12]
	str	r1, [sp, #8]	@ float
	str	r2, [sp, #4]	@ float
	.loc 1 59 0
	ldr	r3, [sp, #12]
	flds	s15, [sp, #8]
	fsts	s15, [r3, #0]
	ldr	r3, [sp, #12]
	flds	s15, [sp, #4]
	fsts	s15, [r3, #4]
	ldr	r3, [sp, #12]
	mov	r0, r3
	add	sp, sp, #16
	bx	lr
	.cfi_endproc
.LFE7:
	.size	_ZN6b2Vec2C1Eff, .-_ZN6b2Vec2C1Eff
	.section	.text._ZN6b2Vec27SetZeroEv,"axG",%progbits,_ZN6b2Vec27SetZeroEv,comdat
	.align	2
	.weak	_ZN6b2Vec27SetZeroEv
	.hidden	_ZN6b2Vec27SetZeroEv
	.type	_ZN6b2Vec27SetZeroEv, %function
_ZN6b2Vec27SetZeroEv:
.LFB8:
	.loc 1 62 0
	.cfi_startproc
	@ args = 0, pretend = 0, frame = 8
	@ frame_needed = 0, uses_anonymous_args = 0
	@ link register save eliminated.
	sub	sp, sp, #8
.LCFI2:
	.cfi_def_cfa_offset 8
	str	r0, [sp, #4]
	.loc 1 62 0
	ldr	r3, [sp, #4]
	flds	s15, .L9
	fsts	s15, [r3, #0]
	ldr	r3, [sp, #4]
	flds	s15, .L9
	fsts	s15, [r3, #4]
	add	sp, sp, #8
	bx	lr
.L10:
	.align	2
.L9:
	.word	0
	.cfi_endproc
.LFE8:
	.size	_ZN6b2Vec27SetZeroEv, .-_ZN6b2Vec27SetZeroEv
	.section	.text._ZmiRK6b2Vec2S1_,"axG",%progbits,_ZmiRK6b2Vec2S1_,comdat
	.align	2
	.weak	_ZmiRK6b2Vec2S1_
	.hidden	_ZmiRK6b2Vec2S1_
	.type	_ZmiRK6b2Vec2S1_, %function
_ZmiRK6b2Vec2S1_:
.LFB80:
	.loc 1 453 0
	.cfi_startproc
	@ args = 0, pretend = 0, frame = 8
	@ frame_needed = 0, uses_anonymous_args = 0
	stmfd	sp!, {r4, lr}
.LCFI3:
	.cfi_def_cfa_offset 8
	sub	sp, sp, #8
.LCFI4:
	.cfi_def_cfa_offset 16
	mov	r4, r0
	.cfi_offset 14, -4
	.cfi_offset 4, -8
	str	r1, [sp, #4]
	str	r2, [sp, #0]
	.loc 1 454 0
	ldr	r3, [sp, #4]
	flds	s14, [r3, #0]
	ldr	r3, [sp, #0]
	flds	s15, [r3, #0]
	fsubs	s13, s14, s15
	ldr	r3, [sp, #4]
	flds	s14, [r3, #4]
	ldr	r3, [sp, #0]
	flds	s15, [r3, #4]
	fsubs	s15, s14, s15
	mov	r0, r4
	fmrs	r1, s13
	fmrs	r2, s15
	bl	_ZN6b2Vec2C1Eff
	.loc 1 455 0
	mov	r0, r4
	add	sp, sp, #8
	ldmfd	sp!, {r4, pc}
	.cfi_endproc
.LFE80:
	.size	_ZmiRK6b2Vec2S1_, .-_ZmiRK6b2Vec2S1_
	.section	.text._Z5b2MinRK6b2Vec2S1_,"axG",%progbits,_Z5b2MinRK6b2Vec2S1_,comdat
	.align	2
	.weak	_Z5b2MinRK6b2Vec2S1_
	.hidden	_Z5b2MinRK6b2Vec2S1_
	.type	_Z5b2MinRK6b2Vec2S1_, %function
_Z5b2MinRK6b2Vec2S1_:
.LFB107:
	.loc 1 638 0
	.cfi_startproc
	@ args = 0, pretend = 0, frame = 8
	@ frame_needed = 0, uses_anonymous_args = 0
	stmfd	sp!, {r4, r5, lr}
.LCFI5:
	.cfi_def_cfa_offset 12
	sub	sp, sp, #12
.LCFI6:
	.cfi_def_cfa_offset 24
	mov	r4, r0
	.cfi_offset 14, -4
	.cfi_offset 5, -8
	.cfi_offset 4, -12
	str	r1, [sp, #4]
	str	r2, [sp, #0]
	.loc 1 639 0
	ldr	r3, [sp, #4]
	ldr	r2, [r3, #0]	@ float
	ldr	r3, [sp, #0]
	ldr	r3, [r3, #0]	@ float
	mov	r0, r2	@ float
	mov	r1, r3	@ float
	bl	_Z5b2MinIfET_S0_S0_
	mov	r5, r0	@ float
	ldr	r3, [sp, #4]
	ldr	r2, [r3, #4]	@ float
	ldr	r3, [sp, #0]
	ldr	r3, [r3, #4]	@ float
	mov	r0, r2	@ float
	mov	r1, r3	@ float
	bl	_Z5b2MinIfET_S0_S0_
	mov	r3, r0	@ float
	mov	r0, r4
	mov	r1, r5	@ float
	mov	r2, r3	@ float
	bl	_ZN6b2Vec2C1Eff
	.loc 1 640 0
	mov	r0, r4
	add	sp, sp, #12
	ldmfd	sp!, {r4, r5, pc}
	.cfi_endproc
.LFE107:
	.size	_Z5b2MinRK6b2Vec2S1_, .-_Z5b2MinRK6b2Vec2S1_
	.section	.text._Z5b2MaxRK6b2Vec2S1_,"axG",%progbits,_Z5b2MaxRK6b2Vec2S1_,comdat
	.align	2
	.weak	_Z5b2MaxRK6b2Vec2S1_
	.hidden	_Z5b2MaxRK6b2Vec2S1_
	.type	_Z5b2MaxRK6b2Vec2S1_, %function
_Z5b2MaxRK6b2Vec2S1_:
.LFB109:
	.loc 1 649 0
	.cfi_startproc
	@ args = 0, pretend = 0, frame = 8
	@ frame_needed = 0, uses_anonymous_args = 0
	stmfd	sp!, {r4, r5, lr}
.LCFI7:
	.cfi_def_cfa_offset 12
	sub	sp, sp, #12
.LCFI8:
	.cfi_def_cfa_offset 24
	mov	r4, r0
	.cfi_offset 14, -4
	.cfi_offset 5, -8
	.cfi_offset 4, -12
	str	r1, [sp, #4]
	str	r2, [sp, #0]
	.loc 1 650 0
	ldr	r3, [sp, #4]
	ldr	r2, [r3, #0]	@ float
	ldr	r3, [sp, #0]
	ldr	r3, [r3, #0]	@ float
	mov	r0, r2	@ float
	mov	r1, r3	@ float
	bl	_Z5b2MaxIfET_S0_S0_
	mov	r5, r0	@ float
	ldr	r3, [sp, #4]
	ldr	r2, [r3, #4]	@ float
	ldr	r3, [sp, #0]
	ldr	r3, [r3, #4]	@ float
	mov	r0, r2	@ float
	mov	r1, r3	@ float
	bl	_Z5b2MaxIfET_S0_S0_
	mov	r3, r0	@ float
	mov	r0, r4
	mov	r1, r5	@ float
	mov	r2, r3	@ float
	bl	_ZN6b2Vec2C1Eff
	.loc 1 651 0
	mov	r0, r4
	add	sp, sp, #12
	ldmfd	sp!, {r4, r5, pc}
	.cfi_endproc
.LFE109:
	.size	_Z5b2MaxRK6b2Vec2S1_, .-_Z5b2MaxRK6b2Vec2S1_
	.section	.text._ZN6b2AABB7CombineERKS_S1_,"axG",%progbits,_ZN6b2AABB7CombineERKS_S1_,comdat
	.align	2
	.weak	_ZN6b2AABB7CombineERKS_S1_
	.hidden	_ZN6b2AABB7CombineERKS_S1_
	.type	_ZN6b2AABB7CombineERKS_S1_, %function
_ZN6b2AABB7CombineERKS_S1_:
.LFB122:
	.file 2 "v:/gigglingbits/box2d/Box2D/Collision/b2Collision.h"
	.loc 2 195 0
	.cfi_startproc
	@ args = 0, pretend = 0, frame = 24
	@ frame_needed = 0, uses_anonymous_args = 0
	stmfd	sp!, {r4, lr}
.LCFI9:
	.cfi_def_cfa_offset 8
	sub	sp, sp, #24
.LCFI10:
	.cfi_def_cfa_offset 32
	str	r0, [sp, #20]
	str	r1, [sp, #16]
	str	r2, [sp, #12]
	.loc 2 197 0
	ldr	r2, [sp, #16]
	ldr	r3, [sp, #12]
	ldr	r4, [sp, #20]
	.cfi_offset 14, -4
	.cfi_offset 4, -8
	mov	r1, sp
	mov	r0, r1
	mov	r1, r2
	mov	r2, r3
	bl	_Z5b2MinRK6b2Vec2S1_
	mov	r3, r4
	mov	r2, sp
	ldmia	r2, {r0, r1}
	stmia	r3, {r0, r1}
	.loc 2 198 0
	ldr	r3, [sp, #16]
	add	r2, r3, #8
	ldr	r3, [sp, #12]
	add	r3, r3, #8
	ldr	r4, [sp, #20]
	mov	r1, sp
	mov	r0, r1
	mov	r1, r2
	mov	r2, r3
	bl	_Z5b2MaxRK6b2Vec2S1_
	add	r3, r4, #8
	mov	r2, sp
	ldmia	r2, {r0, r1}
	stmia	r3, {r0, r1}
	.loc 2 199 0
	add	sp, sp, #24
	ldmfd	sp!, {r4, pc}
	.cfi_endproc
.LFE122:
	.size	_ZN6b2AABB7CombineERKS_S1_, .-_ZN6b2AABB7CombineERKS_S1_
	.section	.text._ZN6b2Body8SetAwakeEb,"axG",%progbits,_ZN6b2Body8SetAwakeEb,comdat
	.align	2
	.weak	_ZN6b2Body8SetAwakeEb
	.hidden	_ZN6b2Body8SetAwakeEb
	.type	_ZN6b2Body8SetAwakeEb, %function
_ZN6b2Body8SetAwakeEb:
.LFB459:
	.file 3 "v:/gigglingbits/box2d/Box2D/Dynamics/b2Body.h"
	.loc 3 634 0
	.cfi_startproc
	@ args = 0, pretend = 0, frame = 8
	@ frame_needed = 0, uses_anonymous_args = 0
	str	lr, [sp, #-4]!
.LCFI11:
	.cfi_def_cfa_offset 4
	sub	sp, sp, #12
.LCFI12:
	.cfi_def_cfa_offset 16
	str	r0, [sp, #4]
	mov	r3, r1
	strb	r3, [sp, #3]
	.loc 3 635 0
	ldrb	r3, [sp, #3]	@ zero_extendqisi2
	cmp	r3, #0
	beq	.L20
	.cfi_offset 14, -4
	.loc 3 637 0
	ldr	r3, [sp, #4]
	ldrh	r3, [r3, #4]
	and	r3, r3, #2
	cmp	r3, #0
	bne	.L24
	.loc 3 639 0
	ldr	r3, [sp, #4]
	ldrh	r3, [r3, #4]
	orr	r3, r3, #2
	mov	r3, r3, asl #16
	mov	r2, r3, lsr #16
	ldr	r3, [sp, #4]
	strh	r2, [r3, #4]	@ movhi
	.loc 3 640 0
	ldr	r3, [sp, #4]
	flds	s15, .L25
	fsts	s15, [r3, #144]
	b	.L23
.L20:
	.loc 3 645 0
	ldr	r3, [sp, #4]
	ldrh	r3, [r3, #4]
	ldr	r2, .L25+4
	and	r2, r3, r2
	mov	r3, r2
	ldr	r2, [sp, #4]
	strh	r3, [r2, #4]	@ movhi
	.loc 3 646 0
	ldr	r3, [sp, #4]
	flds	s15, .L25
	fsts	s15, [r3, #144]
	.loc 3 647 0
	ldr	r3, [sp, #4]
	add	r3, r3, #64
	mov	r0, r3
	bl	_ZN6b2Vec27SetZeroEv
	.loc 3 648 0
	ldr	r3, [sp, #4]
	flds	s15, .L25
	fsts	s15, [r3, #72]
	.loc 3 649 0
	ldr	r3, [sp, #4]
	add	r3, r3, #76
	mov	r0, r3
	bl	_ZN6b2Vec27SetZeroEv
	.loc 3 650 0
	ldr	r3, [sp, #4]
	flds	s15, .L25
	fsts	s15, [r3, #84]
	b	.L23
.L24:
	.loc 3 640 0
	mov	r0, r0	@ nop
.L23:
	.loc 3 652 0
	add	sp, sp, #12
	ldmfd	sp!, {pc}
.L26:
	.align	2
.L25:
	.word	0
	.word	65533
	.cfi_endproc
.LFE459:
	.size	_ZN6b2Body8SetAwakeEb, .-_ZN6b2Body8SetAwakeEb
	.section	.text._ZN6b2Body14GetContactListEv,"axG",%progbits,_ZN6b2Body14GetContactListEv,comdat
	.align	2
	.weak	_ZN6b2Body14GetContactListEv
	.hidden	_ZN6b2Body14GetContactListEv
	.type	_ZN6b2Body14GetContactListEv, %function
_ZN6b2Body14GetContactListEv:
.LFB469:
	.loc 3 708 0
	.cfi_startproc
	@ args = 0, pretend = 0, frame = 8
	@ frame_needed = 0, uses_anonymous_args = 0
	@ link register save eliminated.
	sub	sp, sp, #8
.LCFI13:
	.cfi_def_cfa_offset 8
	str	r0, [sp, #4]
	.loc 3 709 0
	ldr	r3, [sp, #4]
	ldr	r3, [r3, #112]
	.loc 3 710 0
	mov	r0, r3
	add	sp, sp, #8
	bx	lr
	.cfi_endproc
.LFE469:
	.size	_ZN6b2Body14GetContactListEv, .-_ZN6b2Body14GetContactListEv
	.section	.text._ZN6b2Body8GetWorldEv,"axG",%progbits,_ZN6b2Body8GetWorldEv,comdat
	.align	2
	.weak	_ZN6b2Body8GetWorldEv
	.hidden	_ZN6b2Body8GetWorldEv
	.type	_ZN6b2Body8GetWorldEv, %function
_ZN6b2Body8GetWorldEv:
.LFB482:
	.loc 3 851 0
	.cfi_startproc
	@ args = 0, pretend = 0, frame = 8
	@ frame_needed = 0, uses_anonymous_args = 0
	@ link register save eliminated.
	sub	sp, sp, #8
.LCFI14:
	.cfi_def_cfa_offset 8
	str	r0, [sp, #4]
	.loc 3 852 0
	ldr	r3, [sp, #4]
	ldr	r3, [r3, #88]
	.loc 3 853 0
	mov	r0, r3
	add	sp, sp, #8
	bx	lr
	.cfi_endproc
.LFE482:
	.size	_ZN6b2Body8GetWorldEv, .-_ZN6b2Body8GetWorldEv
	.section	.text._ZN8b2FilterC1Ev,"axG",%progbits,_ZN8b2FilterC1Ev,comdat
	.align	2
	.weak	_ZN8b2FilterC1Ev
	.hidden	_ZN8b2FilterC1Ev
	.type	_ZN8b2FilterC1Ev, %function
_ZN8b2FilterC1Ev:
.LFB486:
	.file 4 "v:/gigglingbits/box2d/Box2D/Dynamics/b2Fixture.h"
	.loc 4 34 0
	.cfi_startproc
	@ args = 0, pretend = 0, frame = 8
	@ frame_needed = 0, uses_anonymous_args = 0
	@ link register save eliminated.
	sub	sp, sp, #8
.LCFI15:
	.cfi_def_cfa_offset 8
	str	r0, [sp, #4]
	.loc 4 36 0
	ldr	r3, [sp, #4]
	mov	r2, #1
	strh	r2, [r3, #0]	@ movhi
	.loc 4 37 0
	ldr	r3, [sp, #4]
	mvn	r2, #0
	strh	r2, [r3, #2]	@ movhi
	.loc 4 38 0
	ldr	r3, [sp, #4]
	mov	r2, #0
	strh	r2, [r3, #4]	@ movhi
	.loc 4 39 0
	ldr	r3, [sp, #4]
	mov	r0, r3
	add	sp, sp, #8
	bx	lr
	.cfi_endproc
.LFE486:
	.size	_ZN8b2FilterC1Ev, .-_ZN8b2FilterC1Ev
	.section	.text._ZN9b2Contact11GetFixtureAEv,"axG",%progbits,_ZN9b2Contact11GetFixtureAEv,comdat
	.align	2
	.weak	_ZN9b2Contact11GetFixtureAEv
	.hidden	_ZN9b2Contact11GetFixtureAEv
	.type	_ZN9b2Contact11GetFixtureAEv, %function
_ZN9b2Contact11GetFixtureAEv:
.LFB534:
	.file 5 "v:/gigglingbits/box2d/Box2D/Dynamics/Contacts/b2Contact.h"
	.loc 5 275 0
	.cfi_startproc
	@ args = 0, pretend = 0, frame = 8
	@ frame_needed = 0, uses_anonymous_args = 0
	@ link register save eliminated.
	sub	sp, sp, #8
.LCFI16:
	.cfi_def_cfa_offset 8
	str	r0, [sp, #4]
	.loc 5 276 0
	ldr	r3, [sp, #4]
	ldr	r3, [r3, #48]
	.loc 5 277 0
	mov	r0, r3
	add	sp, sp, #8
	bx	lr
	.cfi_endproc
.LFE534:
	.size	_ZN9b2Contact11GetFixtureAEv, .-_ZN9b2Contact11GetFixtureAEv
	.section	.text._ZN9b2Contact11GetFixtureBEv,"axG",%progbits,_ZN9b2Contact11GetFixtureBEv,comdat
	.align	2
	.weak	_ZN9b2Contact11GetFixtureBEv
	.hidden	_ZN9b2Contact11GetFixtureBEv
	.type	_ZN9b2Contact11GetFixtureBEv, %function
_ZN9b2Contact11GetFixtureBEv:
.LFB536:
	.loc 5 285 0
	.cfi_startproc
	@ args = 0, pretend = 0, frame = 8
	@ frame_needed = 0, uses_anonymous_args = 0
	@ link register save eliminated.
	sub	sp, sp, #8
.LCFI17:
	.cfi_def_cfa_offset 8
	str	r0, [sp, #4]
	.loc 5 286 0
	ldr	r3, [sp, #4]
	ldr	r3, [r3, #52]
	.loc 5 287 0
	mov	r0, r3
	add	sp, sp, #8
	bx	lr
	.cfi_endproc
.LFE536:
	.size	_ZN9b2Contact11GetFixtureBEv, .-_ZN9b2Contact11GetFixtureBEv
	.section	.text._ZN9b2Contact16FlagForFilteringEv,"axG",%progbits,_ZN9b2Contact16FlagForFilteringEv,comdat
	.align	2
	.weak	_ZN9b2Contact16FlagForFilteringEv
	.hidden	_ZN9b2Contact16FlagForFilteringEv
	.type	_ZN9b2Contact16FlagForFilteringEv, %function
_ZN9b2Contact16FlagForFilteringEv:
.LFB540:
	.loc 5 305 0
	.cfi_startproc
	@ args = 0, pretend = 0, frame = 8
	@ frame_needed = 0, uses_anonymous_args = 0
	@ link register save eliminated.
	sub	sp, sp, #8
.LCFI18:
	.cfi_def_cfa_offset 8
	str	r0, [sp, #4]
	.loc 5 306 0
	ldr	r3, [sp, #4]
	ldr	r3, [r3, #4]
	orr	r2, r3, #8
	ldr	r3, [sp, #4]
	str	r2, [r3, #4]
	.loc 5 307 0
	add	sp, sp, #8
	bx	lr
	.cfi_endproc
.LFE540:
	.size	_ZN9b2Contact16FlagForFilteringEv, .-_ZN9b2Contact16FlagForFilteringEv
	.section	.text._ZN9b2FixtureC2Ev,"ax",%progbits
	.align	2
	.global	_ZN9b2FixtureC2Ev
	.hidden	_ZN9b2FixtureC2Ev
	.type	_ZN9b2FixtureC2Ev, %function
_ZN9b2FixtureC2Ev:
.LFB830:
	.file 6 "v:/gigglingbits/box2d/Box2D/Dynamics/b2Fixture.cpp"
	.loc 6 30 0
	.cfi_startproc
	@ args = 0, pretend = 0, frame = 8
	@ frame_needed = 0, uses_anonymous_args = 0
	str	lr, [sp, #-4]!
.LCFI19:
	.cfi_def_cfa_offset 4
	sub	sp, sp, #12
.LCFI20:
	.cfi_def_cfa_offset 16
	str	r0, [sp, #4]
	.loc 6 30 0
	ldr	r3, [sp, #4]
	add	r3, r3, #32
	mov	r0, r3
	.cfi_offset 14, -4
	bl	_ZN8b2FilterC1Ev
	.loc 6 32 0
	ldr	r3, [sp, #4]
	mov	r2, #0
	str	r2, [r3, #40]
	.loc 6 33 0
	ldr	r3, [sp, #4]
	mov	r2, #0
	str	r2, [r3, #8]
	.loc 6 34 0
	ldr	r3, [sp, #4]
	mov	r2, #0
	str	r2, [r3, #4]
	.loc 6 35 0
	ldr	r3, [sp, #4]
	mov	r2, #0
	str	r2, [r3, #24]
	.loc 6 36 0
	ldr	r3, [sp, #4]
	mov	r2, #0
	str	r2, [r3, #28]
	.loc 6 37 0
	ldr	r3, [sp, #4]
	mov	r2, #0
	str	r2, [r3, #12]
	.loc 6 38 0
	ldr	r3, [sp, #4]
	flds	s15, .L43
	fsts	s15, [r3, #0]
	.loc 6 39 0
	ldr	r3, [sp, #4]
	mov	r0, r3
	add	sp, sp, #12
	ldmfd	sp!, {pc}
.L44:
	.align	2
.L43:
	.word	0
	.cfi_endproc
.LFE830:
	.size	_ZN9b2FixtureC2Ev, .-_ZN9b2FixtureC2Ev
	.section	.text._ZN9b2FixtureC1Ev,"ax",%progbits
	.align	2
	.global	_ZN9b2FixtureC1Ev
	.hidden	_ZN9b2FixtureC1Ev
	.type	_ZN9b2FixtureC1Ev, %function
_ZN9b2FixtureC1Ev:
.LFB831:
	.loc 6 30 0
	.cfi_startproc
	@ args = 0, pretend = 0, frame = 8
	@ frame_needed = 0, uses_anonymous_args = 0
	str	lr, [sp, #-4]!
.LCFI21:
	.cfi_def_cfa_offset 4
	sub	sp, sp, #12
.LCFI22:
	.cfi_def_cfa_offset 16
	str	r0, [sp, #4]
	.loc 6 30 0
	ldr	r3, [sp, #4]
	add	r3, r3, #32
	mov	r0, r3
	.cfi_offset 14, -4
	bl	_ZN8b2FilterC1Ev
	.loc 6 32 0
	ldr	r3, [sp, #4]
	mov	r2, #0
	str	r2, [r3, #40]
	.loc 6 33 0
	ldr	r3, [sp, #4]
	mov	r2, #0
	str	r2, [r3, #8]
	.loc 6 34 0
	ldr	r3, [sp, #4]
	mov	r2, #0
	str	r2, [r3, #4]
	.loc 6 35 0
	ldr	r3, [sp, #4]
	mov	r2, #0
	str	r2, [r3, #24]
	.loc 6 36 0
	ldr	r3, [sp, #4]
	mov	r2, #0
	str	r2, [r3, #28]
	.loc 6 37 0
	ldr	r3, [sp, #4]
	mov	r2, #0
	str	r2, [r3, #12]
	.loc 6 38 0
	ldr	r3, [sp, #4]
	flds	s15, .L48
	fsts	s15, [r3, #0]
	.loc 6 39 0
	ldr	r3, [sp, #4]
	mov	r0, r3
	add	sp, sp, #12
	ldmfd	sp!, {pc}
.L49:
	.align	2
.L48:
	.word	0
	.cfi_endproc
.LFE831:
	.size	_ZN9b2FixtureC1Ev, .-_ZN9b2FixtureC1Ev
	.section	.text._ZN9b2Fixture6CreateEP16b2BlockAllocatorP6b2BodyPK12b2FixtureDef,"ax",%progbits
	.align	2
	.global	_ZN9b2Fixture6CreateEP16b2BlockAllocatorP6b2BodyPK12b2FixtureDef
	.hidden	_ZN9b2Fixture6CreateEP16b2BlockAllocatorP6b2BodyPK12b2FixtureDef
	.type	_ZN9b2Fixture6CreateEP16b2BlockAllocatorP6b2BodyPK12b2FixtureDef, %function
_ZN9b2Fixture6CreateEP16b2BlockAllocatorP6b2BodyPK12b2FixtureDef:
.LFB832:
	.loc 6 42 0
	.cfi_startproc
	@ args = 0, pretend = 0, frame = 24
	@ frame_needed = 0, uses_anonymous_args = 0
	str	lr, [sp, #-4]!
.LCFI23:
	.cfi_def_cfa_offset 4
	sub	sp, sp, #28
.LCFI24:
	.cfi_def_cfa_offset 32
	str	r0, [sp, #12]
	str	r1, [sp, #8]
	str	r2, [sp, #4]
	str	r3, [sp, #0]
.LBB2:
	.loc 6 43 0
	ldr	r3, [sp, #0]
	ldr	r2, [r3, #4]
	ldr	r3, [sp, #12]
	str	r2, [r3, #40]
	.loc 6 44 0
	ldr	r3, [sp, #0]
	flds	s15, [r3, #8]
	ldr	r3, [sp, #12]
	fsts	s15, [r3, #16]
	.loc 6 45 0
	ldr	r3, [sp, #0]
	flds	s15, [r3, #12]
	ldr	r3, [sp, #12]
	fsts	s15, [r3, #20]
	.loc 6 47 0
	ldr	r3, [sp, #12]
	ldr	r2, [sp, #4]
	str	r2, [r3, #8]
	.loc 6 48 0
	ldr	r3, [sp, #12]
	mov	r2, #0
	str	r2, [r3, #4]
	.loc 6 50 0
	ldr	r2, [sp, #12]
	ldr	r3, [sp, #0]
	add	r1, r2, #32
	add	r2, r3, #22
	mov	r3, #6
	mov	r0, r1
	mov	r1, r2
	mov	r2, r3
	.cfi_offset 14, -4
	bl	memcpy
	.loc 6 52 0
	ldr	r3, [sp, #0]
	ldrb	r2, [r3, #20]	@ zero_extendqisi2
	ldr	r3, [sp, #12]
	strb	r2, [r3, #38]
	.loc 6 54 0
	ldr	r3, [sp, #0]
	ldr	r3, [r3, #0]
	ldr	r3, [r3, #0]
	add	r3, r3, #8
	ldr	r3, [r3, #0]
	ldr	r2, [sp, #0]
	ldr	r2, [r2, #0]
	mov	r0, r2
	ldr	r1, [sp, #8]
	blx	r3
	mov	r2, r0
	ldr	r3, [sp, #12]
	str	r2, [r3, #12]
	.loc 6 57 0
	ldr	r3, [sp, #12]
	ldr	r3, [r3, #12]
	ldr	r3, [r3, #0]
	add	r3, r3, #12
	ldr	r3, [r3, #0]
	ldr	r2, [sp, #12]
	ldr	r2, [r2, #12]
	mov	r0, r2
	blx	r3
	mov	r3, r0
	str	r3, [sp, #16]
	.loc 6 58 0
	ldr	r2, [sp, #16]
	mov	r3, r2
	mov	r3, r3, asl #3
	rsb	r3, r2, r3
	mov	r3, r3, asl #2
	ldr	r0, [sp, #8]
	mov	r1, r3
	bl	_ZN16b2BlockAllocator8AllocateEi
	mov	r3, r0
	mov	r2, r3
	ldr	r3, [sp, #12]
	str	r2, [r3, #24]
.LBB3:
	.loc 6 59 0
	mov	r3, #0
	str	r3, [sp, #20]
	b	.L51
.L52:
	.loc 6 61 0
	ldr	r3, [sp, #12]
	ldr	r1, [r3, #24]
	ldr	r2, [sp, #20]
	mov	r3, r2
	mov	r3, r3, asl #3
	rsb	r3, r2, r3
	mov	r3, r3, asl #2
	add	r3, r1, r3
	mov	r2, #0
	str	r2, [r3, #16]
	.loc 6 62 0
	ldr	r3, [sp, #12]
	ldr	r1, [r3, #24]
	ldr	r2, [sp, #20]
	mov	r3, r2
	mov	r3, r3, asl #3
	rsb	r3, r2, r3
	mov	r3, r3, asl #2
	add	r3, r1, r3
	mvn	r2, #0
	str	r2, [r3, #24]
	.loc 6 59 0
	ldr	r3, [sp, #20]
	add	r3, r3, #1
	str	r3, [sp, #20]
.L51:
	ldr	r2, [sp, #20]
	ldr	r3, [sp, #16]
	cmp	r2, r3
	movge	r3, #0
	movlt	r3, #1
	and	r3, r3, #255
	cmp	r3, #0
	bne	.L52
.LBE3:
	.loc 6 64 0
	ldr	r3, [sp, #12]
	mov	r2, #0
	str	r2, [r3, #28]
	.loc 6 66 0
	ldr	r3, [sp, #0]
	flds	s15, [r3, #16]
	ldr	r3, [sp, #12]
	fsts	s15, [r3, #0]
.LBE2:
	.loc 6 67 0
	add	sp, sp, #28
	ldmfd	sp!, {pc}
	.cfi_endproc
.LFE832:
	.size	_ZN9b2Fixture6CreateEP16b2BlockAllocatorP6b2BodyPK12b2FixtureDef, .-_ZN9b2Fixture6CreateEP16b2BlockAllocatorP6b2BodyPK12b2FixtureDef
	.section	.rodata
	.align	2
.LC0:
	.ascii	"v:/gigglingbits/box2d/Box2D/Dynamics/b2Fixture.cpp\000"
	.align	2
.LC1:
	.ascii	"m_proxyCount == 0\000"
	.align	2
.LC2:
	.ascii	"false\000"
	.section	.text._ZN9b2Fixture7DestroyEP16b2BlockAllocator,"ax",%progbits
	.align	2
	.global	_ZN9b2Fixture7DestroyEP16b2BlockAllocator
	.hidden	_ZN9b2Fixture7DestroyEP16b2BlockAllocator
	.type	_ZN9b2Fixture7DestroyEP16b2BlockAllocator, %function
_ZN9b2Fixture7DestroyEP16b2BlockAllocator:
.LFB833:
	.loc 6 70 0
	.cfi_startproc
	@ args = 0, pretend = 0, frame = 32
	@ frame_needed = 0, uses_anonymous_args = 0
	str	lr, [sp, #-4]!
.LCFI25:
	.cfi_def_cfa_offset 4
	sub	sp, sp, #36
.LCFI26:
	.cfi_def_cfa_offset 40
	str	r0, [sp, #4]
	str	r1, [sp, #0]
.LBB4:
	.loc 6 72 0
	ldr	r3, [sp, #4]
	ldr	r3, [r3, #28]
	cmp	r3, #0
	beq	.L55
	.cfi_offset 14, -4
	ldr	r0, .L64
	mov	r1, #72
	ldr	r2, .L64+4
	bl	__assert
.L55:
	.loc 6 75 0
	ldr	r3, [sp, #4]
	ldr	r3, [r3, #12]
	ldr	r3, [r3, #0]
	add	r3, r3, #12
	ldr	r3, [r3, #0]
	ldr	r2, [sp, #4]
	ldr	r2, [r2, #12]
	mov	r0, r2
	blx	r3
	mov	r3, r0
	str	r3, [sp, #12]
	.loc 6 76 0
	ldr	r3, [sp, #4]
	ldr	r1, [r3, #24]
	ldr	r2, [sp, #12]
	mov	r3, r2
	mov	r3, r3, asl #3
	rsb	r3, r2, r3
	mov	r3, r3, asl #2
	ldr	r0, [sp, #0]
	mov	r2, r3
	bl	_ZN16b2BlockAllocator4FreeEPvi
	.loc 6 77 0
	ldr	r3, [sp, #4]
	mov	r2, #0
	str	r2, [r3, #24]
	.loc 6 80 0
	ldr	r3, [sp, #4]
	ldr	r3, [r3, #12]
	ldr	r3, [r3, #4]
	cmp	r3, #3
	ldrls	pc, [pc, r3, asl #2]
	b	.L56
.L61:
	.word	.L57
	.word	.L58
	.word	.L59
	.word	.L60
.L57:
.LBB5:
	.loc 6 84 0
	ldr	r3, [sp, #4]
	ldr	r3, [r3, #12]
	str	r3, [sp, #16]
	.loc 6 85 0
	ldr	r3, [sp, #16]
	ldr	r3, [r3, #0]
	ldr	r3, [r3, #0]
	ldr	r0, [sp, #16]
	blx	r3
	.loc 6 86 0
	ldr	r0, [sp, #0]
	ldr	r1, [sp, #16]
	mov	r2, #20
	bl	_ZN16b2BlockAllocator4FreeEPvi
.LBE5:
	.loc 6 88 0
	b	.L62
.L58:
.LBB6:
	.loc 6 92 0
	ldr	r3, [sp, #4]
	ldr	r3, [r3, #12]
	str	r3, [sp, #20]
	.loc 6 93 0
	ldr	r3, [sp, #20]
	ldr	r3, [r3, #0]
	ldr	r3, [r3, #0]
	ldr	r0, [sp, #20]
	blx	r3
	.loc 6 94 0
	ldr	r0, [sp, #0]
	ldr	r1, [sp, #20]
	mov	r2, #48
	bl	_ZN16b2BlockAllocator4FreeEPvi
.LBE6:
	.loc 6 96 0
	b	.L62
.L59:
.LBB7:
	.loc 6 100 0
	ldr	r3, [sp, #4]
	ldr	r3, [r3, #12]
	str	r3, [sp, #24]
	.loc 6 101 0
	ldr	r3, [sp, #24]
	ldr	r3, [r3, #0]
	ldr	r3, [r3, #0]
	ldr	r0, [sp, #24]
	blx	r3
	.loc 6 102 0
	ldr	r0, [sp, #0]
	ldr	r1, [sp, #24]
	mov	r2, #152
	bl	_ZN16b2BlockAllocator4FreeEPvi
.LBE7:
	.loc 6 104 0
	b	.L62
.L60:
.LBB8:
	.loc 6 108 0
	ldr	r3, [sp, #4]
	ldr	r3, [r3, #12]
	str	r3, [sp, #28]
	.loc 6 109 0
	ldr	r3, [sp, #28]
	ldr	r3, [r3, #0]
	ldr	r3, [r3, #0]
	ldr	r0, [sp, #28]
	blx	r3
	.loc 6 110 0
	ldr	r0, [sp, #0]
	ldr	r1, [sp, #28]
	mov	r2, #40
	bl	_ZN16b2BlockAllocator4FreeEPvi
.LBE8:
	.loc 6 112 0
	b	.L62
.L56:
	.loc 6 115 0
	ldr	r0, .L64
	mov	r1, #115
	ldr	r2, .L64+8
	bl	__assert
.L62:
	.loc 6 119 0
	ldr	r3, [sp, #4]
	mov	r2, #0
	str	r2, [r3, #12]
.LBE4:
	.loc 6 120 0
	add	sp, sp, #36
	ldmfd	sp!, {pc}
.L65:
	.align	2
.L64:
	.word	.LC0
	.word	.LC1
	.word	.LC2
	.cfi_endproc
.LFE833:
	.size	_ZN9b2Fixture7DestroyEP16b2BlockAllocator, .-_ZN9b2Fixture7DestroyEP16b2BlockAllocator
	.section	.text._ZN9b2Fixture13CreateProxiesEP12b2BroadPhaseRK11b2Transform,"ax",%progbits
	.align	2
	.global	_ZN9b2Fixture13CreateProxiesEP12b2BroadPhaseRK11b2Transform
	.hidden	_ZN9b2Fixture13CreateProxiesEP12b2BroadPhaseRK11b2Transform
	.type	_ZN9b2Fixture13CreateProxiesEP12b2BroadPhaseRK11b2Transform, %function
_ZN9b2Fixture13CreateProxiesEP12b2BroadPhaseRK11b2Transform:
.LFB846:
	.loc 6 123 0
	.cfi_startproc
	@ args = 0, pretend = 0, frame = 24
	@ frame_needed = 0, uses_anonymous_args = 0
	str	lr, [sp, #-4]!
.LCFI27:
	.cfi_def_cfa_offset 4
	sub	sp, sp, #28
.LCFI28:
	.cfi_def_cfa_offset 32
	str	r0, [sp, #12]
	str	r1, [sp, #8]
	str	r2, [sp, #4]
.LBB9:
	.loc 6 124 0
	ldr	r3, [sp, #12]
	ldr	r3, [r3, #28]
	cmp	r3, #0
	beq	.L67
	.cfi_offset 14, -4
	ldr	r0, .L71
	mov	r1, #124
	ldr	r2, .L71+4
	bl	__assert
.L67:
	.loc 6 127 0
	ldr	r3, [sp, #12]
	ldr	r3, [r3, #12]
	ldr	r3, [r3, #0]
	add	r3, r3, #12
	ldr	r3, [r3, #0]
	ldr	r2, [sp, #12]
	ldr	r2, [r2, #12]
	mov	r0, r2
	blx	r3
	mov	r2, r0
	ldr	r3, [sp, #12]
	str	r2, [r3, #28]
.LBB10:
	.loc 6 129 0
	mov	r3, #0
	str	r3, [sp, #16]
	b	.L68
.L69:
.LBB11:
	.loc 6 131 0
	ldr	r3, [sp, #12]
	ldr	r1, [r3, #24]
	ldr	r2, [sp, #16]
	mov	r3, r2
	mov	r3, r3, asl #3
	rsb	r3, r2, r3
	mov	r3, r3, asl #2
	add	r3, r1, r3
	str	r3, [sp, #20]
	.loc 6 132 0
	ldr	r3, [sp, #12]
	ldr	r3, [r3, #12]
	ldr	r3, [r3, #0]
	add	r3, r3, #24
	ldr	ip, [r3, #0]
	ldr	r3, [sp, #12]
	ldr	r2, [r3, #12]
	ldr	r3, [sp, #20]
	mov	r0, r2
	mov	r1, r3
	ldr	r2, [sp, #4]
	ldr	r3, [sp, #16]
	blx	ip
	.loc 6 133 0
	ldr	r3, [sp, #20]
	ldr	r0, [sp, #8]
	mov	r1, r3
	ldr	r2, [sp, #20]
	bl	_ZN12b2BroadPhase11CreateProxyERK6b2AABBPv
	mov	r2, r0
	ldr	r3, [sp, #20]
	str	r2, [r3, #24]
	.loc 6 134 0
	ldr	r3, [sp, #20]
	ldr	r2, [sp, #12]
	str	r2, [r3, #16]
	.loc 6 135 0
	ldr	r3, [sp, #20]
	ldr	r2, [sp, #16]
	str	r2, [r3, #20]
.LBE11:
	.loc 6 129 0
	ldr	r3, [sp, #16]
	add	r3, r3, #1
	str	r3, [sp, #16]
.L68:
	ldr	r3, [sp, #12]
	ldr	r2, [r3, #28]
	ldr	r3, [sp, #16]
	cmp	r2, r3
	movle	r3, #0
	movgt	r3, #1
	and	r3, r3, #255
	cmp	r3, #0
	bne	.L69
.LBE10:
.LBE9:
	.loc 6 137 0
	add	sp, sp, #28
	ldmfd	sp!, {pc}
.L72:
	.align	2
.L71:
	.word	.LC0
	.word	.LC1
	.cfi_endproc
.LFE846:
	.size	_ZN9b2Fixture13CreateProxiesEP12b2BroadPhaseRK11b2Transform, .-_ZN9b2Fixture13CreateProxiesEP12b2BroadPhaseRK11b2Transform
	.section	.text._ZN9b2Fixture14DestroyProxiesEP12b2BroadPhase,"ax",%progbits
	.align	2
	.global	_ZN9b2Fixture14DestroyProxiesEP12b2BroadPhase
	.hidden	_ZN9b2Fixture14DestroyProxiesEP12b2BroadPhase
	.type	_ZN9b2Fixture14DestroyProxiesEP12b2BroadPhase, %function
_ZN9b2Fixture14DestroyProxiesEP12b2BroadPhase:
.LFB847:
	.loc 6 140 0
	.cfi_startproc
	@ args = 0, pretend = 0, frame = 16
	@ frame_needed = 0, uses_anonymous_args = 0
	str	lr, [sp, #-4]!
.LCFI29:
	.cfi_def_cfa_offset 4
	sub	sp, sp, #20
.LCFI30:
	.cfi_def_cfa_offset 24
	str	r0, [sp, #4]
	str	r1, [sp, #0]
.LBB12:
.LBB13:
	.loc 6 142 0
	mov	r3, #0
	str	r3, [sp, #8]
	b	.L74
	.cfi_offset 14, -4
.L75:
.LBB14:
	.loc 6 144 0
	ldr	r3, [sp, #4]
	ldr	r1, [r3, #24]
	ldr	r2, [sp, #8]
	mov	r3, r2
	mov	r3, r3, asl #3
	rsb	r3, r2, r3
	mov	r3, r3, asl #2
	add	r3, r1, r3
	str	r3, [sp, #12]
	.loc 6 145 0
	ldr	r3, [sp, #12]
	ldr	r3, [r3, #24]
	ldr	r0, [sp, #0]
	mov	r1, r3
	bl	_ZN12b2BroadPhase12DestroyProxyEi
	.loc 6 146 0
	ldr	r3, [sp, #12]
	mvn	r2, #0
	str	r2, [r3, #24]
.LBE14:
	.loc 6 142 0
	ldr	r3, [sp, #8]
	add	r3, r3, #1
	str	r3, [sp, #8]
.L74:
	ldr	r3, [sp, #4]
	ldr	r2, [r3, #28]
	ldr	r3, [sp, #8]
	cmp	r2, r3
	movle	r3, #0
	movgt	r3, #1
	and	r3, r3, #255
	cmp	r3, #0
	bne	.L75
.LBE13:
	.loc 6 149 0
	ldr	r3, [sp, #4]
	mov	r2, #0
	str	r2, [r3, #28]
.LBE12:
	.loc 6 150 0
	add	sp, sp, #20
	ldmfd	sp!, {pc}
	.cfi_endproc
.LFE847:
	.size	_ZN9b2Fixture14DestroyProxiesEP12b2BroadPhase, .-_ZN9b2Fixture14DestroyProxiesEP12b2BroadPhase
	.section	.text._ZN6b2AABBC1Ev,"axG",%progbits,_ZN6b2AABBC1Ev,comdat
	.align	2
	.weak	_ZN6b2AABBC1Ev
	.hidden	_ZN6b2AABBC1Ev
	.type	_ZN6b2AABBC1Ev, %function
_ZN6b2AABBC1Ev:
.LFB851:
	.loc 2 163 0
	.cfi_startproc
	@ args = 0, pretend = 0, frame = 8
	@ frame_needed = 0, uses_anonymous_args = 0
	str	lr, [sp, #-4]!
.LCFI31:
	.cfi_def_cfa_offset 4
	sub	sp, sp, #12
.LCFI32:
	.cfi_def_cfa_offset 16
	str	r0, [sp, #4]
	.loc 2 163 0
	ldr	r3, [sp, #4]
	mov	r0, r3
	.cfi_offset 14, -4
	bl	_ZN6b2Vec2C1Ev
	ldr	r3, [sp, #4]
	add	r3, r3, #8
	mov	r0, r3
	bl	_ZN6b2Vec2C1Ev
	ldr	r3, [sp, #4]
	mov	r0, r3
	add	sp, sp, #12
	ldmfd	sp!, {pc}
	.cfi_endproc
.LFE851:
	.size	_ZN6b2AABBC1Ev, .-_ZN6b2AABBC1Ev
	.section	.text._ZN9b2Fixture11SynchronizeEP12b2BroadPhaseRK11b2TransformS4_,"ax",%progbits
	.align	2
	.global	_ZN9b2Fixture11SynchronizeEP12b2BroadPhaseRK11b2TransformS4_
	.hidden	_ZN9b2Fixture11SynchronizeEP12b2BroadPhaseRK11b2TransformS4_
	.type	_ZN9b2Fixture11SynchronizeEP12b2BroadPhaseRK11b2TransformS4_, %function
_ZN9b2Fixture11SynchronizeEP12b2BroadPhaseRK11b2TransformS4_:
.LFB848:
	.loc 6 153 0
	.cfi_startproc
	@ args = 0, pretend = 0, frame = 64
	@ frame_needed = 0, uses_anonymous_args = 0
	str	lr, [sp, #-4]!
.LCFI33:
	.cfi_def_cfa_offset 4
	sub	sp, sp, #68
.LCFI34:
	.cfi_def_cfa_offset 72
	str	r0, [sp, #12]
	str	r1, [sp, #8]
	str	r2, [sp, #4]
	str	r3, [sp, #0]
.LBB15:
	.loc 6 154 0
	ldr	r3, [sp, #12]
	ldr	r3, [r3, #28]
	cmp	r3, #0
	beq	.L86
	.cfi_offset 14, -4
.L81:
.LBB16:
	.loc 6 159 0
	mov	r3, #0
	str	r3, [sp, #56]
	b	.L83
.L84:
.LBB17:
	.loc 6 161 0
	ldr	r3, [sp, #12]
	ldr	r1, [r3, #24]
	ldr	r2, [sp, #56]
	mov	r3, r2
	mov	r3, r3, asl #3
	rsb	r3, r2, r3
	mov	r3, r3, asl #2
	add	r3, r1, r3
	str	r3, [sp, #60]
	.loc 6 164 0
	add	r3, sp, #40
	mov	r0, r3
	bl	_ZN6b2AABBC1Ev
	add	r3, sp, #24
	mov	r0, r3
	bl	_ZN6b2AABBC1Ev
	.loc 6 165 0
	ldr	r3, [sp, #12]
	ldr	r3, [r3, #12]
	ldr	r3, [r3, #0]
	add	r3, r3, #24
	ldr	ip, [r3, #0]
	ldr	r3, [sp, #12]
	ldr	r1, [r3, #12]
	ldr	r3, [sp, #60]
	ldr	r3, [r3, #20]
	add	r2, sp, #40
	mov	r0, r1
	mov	r1, r2
	ldr	r2, [sp, #4]
	blx	ip
	.loc 6 166 0
	ldr	r3, [sp, #12]
	ldr	r3, [r3, #12]
	ldr	r3, [r3, #0]
	add	r3, r3, #24
	ldr	ip, [r3, #0]
	ldr	r3, [sp, #12]
	ldr	r1, [r3, #12]
	ldr	r3, [sp, #60]
	ldr	r3, [r3, #20]
	add	r2, sp, #24
	mov	r0, r1
	mov	r1, r2
	ldr	r2, [sp, #0]
	blx	ip
	.loc 6 168 0
	ldr	r1, [sp, #60]
	add	r2, sp, #40
	add	r3, sp, #24
	mov	r0, r1
	mov	r1, r2
	mov	r2, r3
	bl	_ZN6b2AABB7CombineERKS_S1_
	.loc 6 170 0
	ldr	r2, [sp, #0]
	ldr	r3, [sp, #4]
	add	r1, sp, #16
	mov	r0, r1
	mov	r1, r2
	mov	r2, r3
	bl	_ZmiRK6b2Vec2S1_
	.loc 6 172 0
	ldr	r3, [sp, #60]
	ldr	r1, [r3, #24]
	ldr	r2, [sp, #60]
	add	r3, sp, #16
	ldr	r0, [sp, #8]
	bl	_ZN12b2BroadPhase9MoveProxyEiRK6b2AABBRK6b2Vec2
.LBE17:
	.loc 6 159 0
	ldr	r3, [sp, #56]
	add	r3, r3, #1
	str	r3, [sp, #56]
.L83:
	ldr	r3, [sp, #12]
	ldr	r2, [r3, #28]
	ldr	r3, [sp, #56]
	cmp	r2, r3
	movle	r3, #0
	movgt	r3, #1
	and	r3, r3, #255
	cmp	r3, #0
	bne	.L84
	b	.L85
.L86:
.LBE16:
	.loc 6 156 0
	mov	r0, r0	@ nop
.L85:
.LBE15:
	.loc 6 174 0
	add	sp, sp, #68
	ldmfd	sp!, {pc}
	.cfi_endproc
.LFE848:
	.size	_ZN9b2Fixture11SynchronizeEP12b2BroadPhaseRK11b2TransformS4_, .-_ZN9b2Fixture11SynchronizeEP12b2BroadPhaseRK11b2TransformS4_
	.section	.text._ZN9b2Fixture13SetFilterDataERK8b2Filter,"ax",%progbits
	.align	2
	.global	_ZN9b2Fixture13SetFilterDataERK8b2Filter
	.hidden	_ZN9b2Fixture13SetFilterDataERK8b2Filter
	.type	_ZN9b2Fixture13SetFilterDataERK8b2Filter, %function
_ZN9b2Fixture13SetFilterDataERK8b2Filter:
.LFB852:
	.loc 6 177 0
	.cfi_startproc
	@ args = 0, pretend = 0, frame = 8
	@ frame_needed = 0, uses_anonymous_args = 0
	str	lr, [sp, #-4]!
.LCFI35:
	.cfi_def_cfa_offset 4
	sub	sp, sp, #12
.LCFI36:
	.cfi_def_cfa_offset 16
	str	r0, [sp, #4]
	str	r1, [sp, #0]
	.loc 6 178 0
	ldr	r2, [sp, #4]
	ldr	r3, [sp, #0]
	add	r1, r2, #32
	mov	r2, r3
	mov	r3, #6
	mov	r0, r1
	mov	r1, r2
	mov	r2, r3
	.cfi_offset 14, -4
	bl	memcpy
	.loc 6 180 0
	ldr	r0, [sp, #4]
	bl	_ZN9b2Fixture8RefilterEv
	.loc 6 181 0
	add	sp, sp, #12
	ldmfd	sp!, {pc}
	.cfi_endproc
.LFE852:
	.size	_ZN9b2Fixture13SetFilterDataERK8b2Filter, .-_ZN9b2Fixture13SetFilterDataERK8b2Filter
	.section	.text._ZN9b2Fixture8RefilterEv,"ax",%progbits
	.align	2
	.global	_ZN9b2Fixture8RefilterEv
	.hidden	_ZN9b2Fixture8RefilterEv
	.type	_ZN9b2Fixture8RefilterEv, %function
_ZN9b2Fixture8RefilterEv:
.LFB853:
	.loc 6 184 0
	.cfi_startproc
	@ args = 0, pretend = 0, frame = 40
	@ frame_needed = 0, uses_anonymous_args = 0
	str	lr, [sp, #-4]!
.LCFI37:
	.cfi_def_cfa_offset 4
	sub	sp, sp, #44
.LCFI38:
	.cfi_def_cfa_offset 48
	str	r0, [sp, #4]
.LBB18:
	.loc 6 185 0
	ldr	r3, [sp, #4]
	ldr	r3, [r3, #8]
	cmp	r3, #0
	beq	.L100
	.cfi_offset 14, -4
.L90:
	.loc 6 191 0
	ldr	r3, [sp, #4]
	ldr	r3, [r3, #8]
	mov	r0, r3
	bl	_ZN6b2Body14GetContactListEv
	mov	r3, r0
	str	r3, [sp, #12]
	.loc 6 192 0
	b	.L92
.L95:
.LBB19:
	.loc 6 194 0
	ldr	r3, [sp, #12]
	ldr	r3, [r3, #4]
	str	r3, [sp, #24]
	.loc 6 195 0
	ldr	r0, [sp, #24]
	bl	_ZN9b2Contact11GetFixtureAEv
	mov	r3, r0
	str	r3, [sp, #28]
	.loc 6 196 0
	ldr	r0, [sp, #24]
	bl	_ZN9b2Contact11GetFixtureBEv
	mov	r3, r0
	str	r3, [sp, #32]
	.loc 6 197 0
	ldr	r2, [sp, #28]
	ldr	r3, [sp, #4]
	cmp	r2, r3
	beq	.L93
	ldr	r2, [sp, #32]
	ldr	r3, [sp, #4]
	cmp	r2, r3
	bne	.L94
.L93:
	.loc 6 199 0
	ldr	r0, [sp, #24]
	bl	_ZN9b2Contact16FlagForFilteringEv
.L94:
	.loc 6 202 0
	ldr	r3, [sp, #12]
	ldr	r3, [r3, #12]
	str	r3, [sp, #12]
.L92:
.LBE19:
	.loc 6 192 0
	ldr	r3, [sp, #12]
	cmp	r3, #0
	moveq	r3, #0
	movne	r3, #1
	and	r3, r3, #255
	cmp	r3, #0
	bne	.L95
	.loc 6 205 0
	ldr	r3, [sp, #4]
	ldr	r3, [r3, #8]
	mov	r0, r3
	bl	_ZN6b2Body8GetWorldEv
	mov	r3, r0
	str	r3, [sp, #16]
	.loc 6 207 0
	ldr	r3, [sp, #16]
	cmp	r3, #0
	beq	.L101
.L96:
	.loc 6 213 0
	ldr	r3, [sp, #16]
	add	r3, r3, #102400
	add	r3, r3, #472
	str	r3, [sp, #20]
.LBB20:
	.loc 6 214 0
	mov	r3, #0
	str	r3, [sp, #36]
	b	.L97
.L98:
	.loc 6 216 0
	ldr	r3, [sp, #4]
	ldr	r1, [r3, #24]
	ldr	r2, [sp, #36]
	mov	r3, r2
	mov	r3, r3, asl #3
	rsb	r3, r2, r3
	mov	r3, r3, asl #2
	add	r3, r1, r3
	ldr	r3, [r3, #24]
	ldr	r0, [sp, #20]
	mov	r1, r3
	bl	_ZN12b2BroadPhase10TouchProxyEi
	.loc 6 214 0
	ldr	r3, [sp, #36]
	add	r3, r3, #1
	str	r3, [sp, #36]
.L97:
	ldr	r3, [sp, #4]
	ldr	r2, [r3, #28]
	ldr	r3, [sp, #36]
	cmp	r2, r3
	movle	r3, #0
	movgt	r3, #1
	and	r3, r3, #255
	cmp	r3, #0
	bne	.L98
	b	.L99
.L100:
.LBE20:
	.loc 6 187 0
	mov	r0, r0	@ nop
	b	.L99
.L101:
	.loc 6 209 0
	mov	r0, r0	@ nop
.L99:
.LBE18:
	.loc 6 218 0
	add	sp, sp, #44
	ldmfd	sp!, {pc}
	.cfi_endproc
.LFE853:
	.size	_ZN9b2Fixture8RefilterEv, .-_ZN9b2Fixture8RefilterEv
	.section	.text._ZN9b2Fixture9SetSensorEb,"ax",%progbits
	.align	2
	.global	_ZN9b2Fixture9SetSensorEb
	.hidden	_ZN9b2Fixture9SetSensorEb
	.type	_ZN9b2Fixture9SetSensorEb, %function
_ZN9b2Fixture9SetSensorEb:
.LFB854:
	.loc 6 221 0
	.cfi_startproc
	@ args = 0, pretend = 0, frame = 8
	@ frame_needed = 0, uses_anonymous_args = 0
	str	lr, [sp, #-4]!
.LCFI39:
	.cfi_def_cfa_offset 4
	sub	sp, sp, #12
.LCFI40:
	.cfi_def_cfa_offset 16
	str	r0, [sp, #4]
	mov	r3, r1
	strb	r3, [sp, #3]
	.loc 6 222 0
	ldr	r3, [sp, #4]
	ldrb	r3, [r3, #38]	@ zero_extendqisi2
	ldrb	r2, [sp, #3]	@ zero_extendqisi2
	cmp	r2, r3
	beq	.L104
	.cfi_offset 14, -4
	.loc 6 224 0
	ldr	r3, [sp, #4]
	ldr	r3, [r3, #8]
	mov	r0, r3
	mov	r1, #1
	bl	_ZN6b2Body8SetAwakeEb
	.loc 6 225 0
	ldr	r3, [sp, #4]
	ldrb	r2, [sp, #3]
	strb	r2, [r3, #38]
.L104:
	.loc 6 227 0
	add	sp, sp, #12
	ldmfd	sp!, {pc}
	.cfi_endproc
.LFE854:
	.size	_ZN9b2Fixture9SetSensorEb, .-_ZN9b2Fixture9SetSensorEb
	.section	.rodata
	.align	2
.LC3:
	.ascii	"    b2FixtureDef fd;\012\000"
	.align	2
.LC4:
	.ascii	"    fd.friction = %.15lef;\012\000"
	.align	2
.LC5:
	.ascii	"    fd.restitution = %.15lef;\012\000"
	.align	2
.LC6:
	.ascii	"    fd.density = %.15lef;\012\000"
	.align	2
.LC7:
	.ascii	"    fd.isSensor = bool(%d);\012\000"
	.align	2
.LC8:
	.ascii	"    fd.filter.categoryBits = uint16(%d);\012\000"
	.align	2
.LC9:
	.ascii	"    fd.filter.maskBits = uint16(%d);\012\000"
	.align	2
.LC10:
	.ascii	"    fd.filter.groupIndex = int16(%d);\012\000"
	.align	2
.LC11:
	.ascii	"    b2CircleShape shape;\012\000"
	.align	2
.LC12:
	.ascii	"    shape.m_radius = %.15lef;\012\000"
	.align	2
.LC13:
	.ascii	"    shape.m_p.Set(%.15lef, %.15lef);\012\000"
	.align	2
.LC14:
	.ascii	"    b2EdgeShape shape;\012\000"
	.align	2
.LC15:
	.ascii	"    shape.m_vertex0.Set(%.15lef, %.15lef);\012\000"
	.align	2
.LC16:
	.ascii	"    shape.m_vertex1.Set(%.15lef, %.15lef);\012\000"
	.align	2
.LC17:
	.ascii	"    shape.m_vertex2.Set(%.15lef, %.15lef);\012\000"
	.align	2
.LC18:
	.ascii	"    shape.m_vertex3.Set(%.15lef, %.15lef);\012\000"
	.align	2
.LC19:
	.ascii	"    shape.m_hasVertex0 = bool(%d);\012\000"
	.align	2
.LC20:
	.ascii	"    shape.m_hasVertex3 = bool(%d);\012\000"
	.align	2
.LC21:
	.ascii	"    b2PolygonShape shape;\012\000"
	.align	2
.LC22:
	.ascii	"    b2Vec2 vs[%d];\012\000"
	.align	2
.LC23:
	.ascii	"    vs[%d].Set(%.15lef, %.15lef);\012\000"
	.align	2
.LC24:
	.ascii	"    shape.Set(vs, %d);\012\000"
	.align	2
.LC25:
	.ascii	"    b2ChainShape shape;\012\000"
	.align	2
.LC26:
	.ascii	"    shape.CreateChain(vs, %d);\012\000"
	.align	2
.LC27:
	.ascii	"    shape.m_prevVertex.Set(%.15lef, %.15lef);\012\000"
	.align	2
.LC28:
	.ascii	"    shape.m_nextVertex.Set(%.15lef, %.15lef);\012\000"
	.align	2
.LC29:
	.ascii	"    shape.m_hasPrevVertex = bool(%d);\012\000"
	.align	2
.LC30:
	.ascii	"    shape.m_hasNextVertex = bool(%d);\012\000"
	.align	2
.LC31:
	.ascii	"\012\000"
	.align	2
.LC32:
	.ascii	"    fd.shape = &shape;\012\000"
	.align	2
.LC33:
	.ascii	"    bodies[%d]->CreateFixture(&fd);\012\000"
	.section	.text._ZN9b2Fixture4DumpEi,"ax",%progbits
	.align	2
	.global	_ZN9b2Fixture4DumpEi
	.hidden	_ZN9b2Fixture4DumpEi
	.type	_ZN9b2Fixture4DumpEi, %function
_ZN9b2Fixture4DumpEi:
.LFB855:
	.loc 6 230 0
	.cfi_startproc
	@ args = 0, pretend = 0, frame = 32
	@ frame_needed = 0, uses_anonymous_args = 0
	str	lr, [sp, #-4]!
.LCFI41:
	.cfi_def_cfa_offset 4
	sub	sp, sp, #44
.LCFI42:
	.cfi_def_cfa_offset 48
	str	r0, [sp, #12]
	str	r1, [sp, #8]
.LBB21:
	.loc 6 231 0
	ldr	r0, .L120
	.cfi_offset 14, -4
	bl	_Z5b2LogPKcz
	.loc 6 232 0
	ldr	r3, [sp, #12]
	flds	s15, [r3, #16]
	fcvtds	d7, s15
	ldr	r0, .L120+4
	fmrrd	r2, r3, d7
	bl	_Z5b2LogPKcz
	.loc 6 233 0
	ldr	r3, [sp, #12]
	flds	s15, [r3, #20]
	fcvtds	d7, s15
	ldr	r0, .L120+8
	fmrrd	r2, r3, d7
	bl	_Z5b2LogPKcz
	.loc 6 234 0
	ldr	r3, [sp, #12]
	flds	s15, [r3, #0]
	fcvtds	d7, s15
	ldr	r0, .L120+12
	fmrrd	r2, r3, d7
	bl	_Z5b2LogPKcz
	.loc 6 235 0
	ldr	r3, [sp, #12]
	ldrb	r3, [r3, #38]	@ zero_extendqisi2
	ldr	r0, .L120+16
	mov	r1, r3
	bl	_Z5b2LogPKcz
	.loc 6 236 0
	ldr	r3, [sp, #12]
	ldrh	r3, [r3, #32]
	ldr	r0, .L120+20
	mov	r1, r3
	bl	_Z5b2LogPKcz
	.loc 6 237 0
	ldr	r3, [sp, #12]
	ldrh	r3, [r3, #34]
	ldr	r0, .L120+24
	mov	r1, r3
	bl	_Z5b2LogPKcz
	.loc 6 238 0
	ldr	r3, [sp, #12]
	ldrh	r3, [r3, #36]
	mov	r3, r3, asl #16
	mov	r3, r3, asr #16
	ldr	r0, .L120+28
	mov	r1, r3
	bl	_Z5b2LogPKcz
	.loc 6 240 0
	ldr	r3, [sp, #12]
	ldr	r3, [r3, #12]
	ldr	r3, [r3, #4]
	cmp	r3, #3
	ldrls	pc, [pc, r3, asl #2]
	b	.L119
.L111:
	.word	.L107
	.word	.L108
	.word	.L109
	.word	.L110
.L107:
.LBB22:
	.loc 6 244 0
	ldr	r3, [sp, #12]
	ldr	r3, [r3, #12]
	str	r3, [sp, #16]
	.loc 6 245 0
	ldr	r0, .L120+32
	bl	_Z5b2LogPKcz
	.loc 6 246 0
	ldr	r3, [sp, #16]
	flds	s15, [r3, #8]
	fcvtds	d7, s15
	ldr	r0, .L120+36
	fmrrd	r2, r3, d7
	bl	_Z5b2LogPKcz
	.loc 6 247 0
	ldr	r3, [sp, #16]
	flds	s15, [r3, #12]
	fcvtds	d6, s15
	ldr	r3, [sp, #16]
	flds	s15, [r3, #16]
	fcvtds	d7, s15
	fstd	d7, [sp, #0]
	ldr	r0, .L120+40
	fmrrd	r2, r3, d6
	bl	_Z5b2LogPKcz
.LBE22:
	.loc 6 249 0
	b	.L112
.L108:
.LBB23:
	.loc 6 253 0
	ldr	r3, [sp, #12]
	ldr	r3, [r3, #12]
	str	r3, [sp, #20]
	.loc 6 254 0
	ldr	r0, .L120+44
	bl	_Z5b2LogPKcz
	.loc 6 255 0
	ldr	r3, [sp, #20]
	flds	s15, [r3, #8]
	fcvtds	d7, s15
	ldr	r0, .L120+36
	fmrrd	r2, r3, d7
	bl	_Z5b2LogPKcz
	.loc 6 256 0
	ldr	r3, [sp, #20]
	flds	s15, [r3, #28]
	fcvtds	d6, s15
	ldr	r3, [sp, #20]
	flds	s15, [r3, #32]
	fcvtds	d7, s15
	fstd	d7, [sp, #0]
	ldr	r0, .L120+48
	fmrrd	r2, r3, d6
	bl	_Z5b2LogPKcz
	.loc 6 257 0
	ldr	r3, [sp, #20]
	flds	s15, [r3, #12]
	fcvtds	d6, s15
	ldr	r3, [sp, #20]
	flds	s15, [r3, #16]
	fcvtds	d7, s15
	fstd	d7, [sp, #0]
	ldr	r0, .L120+52
	fmrrd	r2, r3, d6
	bl	_Z5b2LogPKcz
	.loc 6 258 0
	ldr	r3, [sp, #20]
	flds	s15, [r3, #20]
	fcvtds	d6, s15
	ldr	r3, [sp, #20]
	flds	s15, [r3, #24]
	fcvtds	d7, s15
	fstd	d7, [sp, #0]
	ldr	r0, .L120+56
	fmrrd	r2, r3, d6
	bl	_Z5b2LogPKcz
	.loc 6 259 0
	ldr	r3, [sp, #20]
	flds	s15, [r3, #36]
	fcvtds	d6, s15
	ldr	r3, [sp, #20]
	flds	s15, [r3, #40]
	fcvtds	d7, s15
	fstd	d7, [sp, #0]
	ldr	r0, .L120+60
	fmrrd	r2, r3, d6
	bl	_Z5b2LogPKcz
	.loc 6 260 0
	ldr	r3, [sp, #20]
	ldrb	r3, [r3, #44]	@ zero_extendqisi2
	ldr	r0, .L120+64
	mov	r1, r3
	bl	_Z5b2LogPKcz
	.loc 6 261 0
	ldr	r3, [sp, #20]
	ldrb	r3, [r3, #45]	@ zero_extendqisi2
	ldr	r0, .L120+68
	mov	r1, r3
	bl	_Z5b2LogPKcz
.LBE23:
	.loc 6 263 0
	b	.L112
.L109:
.LBB24:
	.loc 6 267 0
	ldr	r3, [sp, #12]
	ldr	r3, [r3, #12]
	str	r3, [sp, #24]
	.loc 6 268 0
	ldr	r0, .L120+72
	bl	_Z5b2LogPKcz
	.loc 6 269 0
	ldr	r0, .L120+76
	mov	r1, #8
	bl	_Z5b2LogPKcz
.LBB25:
	.loc 6 270 0
	mov	r3, #0
	str	r3, [sp, #28]
	b	.L113
.L114:
	.loc 6 272 0
	ldr	r3, [sp, #28]
	ldr	r2, [sp, #24]
	add	r1, r3, #2
	mov	r3, #4
	mov	r1, r1, asl #3
	add	r2, r1, r2
	add	r3, r2, r3
	flds	s15, [r3, #0]
	fcvtds	d6, s15
	ldr	r3, [sp, #28]
	ldr	r2, [sp, #24]
	add	r1, r3, #2
	mov	r3, #8
	mov	r1, r1, asl #3
	add	r2, r1, r2
	add	r3, r2, r3
	flds	s15, [r3, #0]
	fcvtds	d7, s15
	fstd	d7, [sp, #0]
	ldr	r0, .L120+80
	ldr	r1, [sp, #28]
	fmrrd	r2, r3, d6
	bl	_Z5b2LogPKcz
	.loc 6 270 0
	ldr	r3, [sp, #28]
	add	r3, r3, #1
	str	r3, [sp, #28]
.L113:
	ldr	r3, [sp, #24]
	ldr	r2, [r3, #148]
	ldr	r3, [sp, #28]
	cmp	r2, r3
	movle	r3, #0
	movgt	r3, #1
	and	r3, r3, #255
	cmp	r3, #0
	bne	.L114
.LBE25:
	.loc 6 274 0
	ldr	r3, [sp, #24]
	ldr	r3, [r3, #148]
	ldr	r0, .L120+84
	mov	r1, r3
	bl	_Z5b2LogPKcz
.LBE24:
	.loc 6 276 0
	b	.L112
.L110:
.LBB26:
	.loc 6 280 0
	ldr	r3, [sp, #12]
	ldr	r3, [r3, #12]
	str	r3, [sp, #32]
	.loc 6 281 0
	ldr	r0, .L120+88
	bl	_Z5b2LogPKcz
	.loc 6 282 0
	ldr	r3, [sp, #32]
	ldr	r3, [r3, #16]
	ldr	r0, .L120+76
	mov	r1, r3
	bl	_Z5b2LogPKcz
.LBB27:
	.loc 6 283 0
	mov	r3, #0
	str	r3, [sp, #36]
	b	.L115
.L116:
	.loc 6 285 0
	ldr	r3, [sp, #32]
	ldr	r2, [r3, #12]
	ldr	r3, [sp, #36]
	mov	r3, r3, asl #3
	add	r3, r2, r3
	flds	s15, [r3, #0]
	fcvtds	d6, s15
	ldr	r3, [sp, #32]
	ldr	r2, [r3, #12]
	ldr	r3, [sp, #36]
	mov	r3, r3, asl #3
	add	r3, r2, r3
	flds	s15, [r3, #4]
	fcvtds	d7, s15
	fstd	d7, [sp, #0]
	ldr	r0, .L120+80
	ldr	r1, [sp, #36]
	fmrrd	r2, r3, d6
	bl	_Z5b2LogPKcz
	.loc 6 283 0
	ldr	r3, [sp, #36]
	add	r3, r3, #1
	str	r3, [sp, #36]
.L115:
	ldr	r3, [sp, #32]
	ldr	r2, [r3, #16]
	ldr	r3, [sp, #36]
	cmp	r2, r3
	movle	r3, #0
	movgt	r3, #1
	and	r3, r3, #255
	cmp	r3, #0
	bne	.L116
.LBE27:
	.loc 6 287 0
	ldr	r3, [sp, #32]
	ldr	r3, [r3, #16]
	ldr	r0, .L120+92
	mov	r1, r3
	bl	_Z5b2LogPKcz
	.loc 6 288 0
	ldr	r3, [sp, #32]
	flds	s15, [r3, #20]
	fcvtds	d6, s15
	ldr	r3, [sp, #32]
	flds	s15, [r3, #24]
	fcvtds	d7, s15
	fstd	d7, [sp, #0]
	ldr	r0, .L120+96
	fmrrd	r2, r3, d6
	bl	_Z5b2LogPKcz
	.loc 6 289 0
	ldr	r3, [sp, #32]
	flds	s15, [r3, #28]
	fcvtds	d6, s15
	ldr	r3, [sp, #32]
	flds	s15, [r3, #32]
	fcvtds	d7, s15
	fstd	d7, [sp, #0]
	ldr	r0, .L120+100
	fmrrd	r2, r3, d6
	bl	_Z5b2LogPKcz
	.loc 6 290 0
	ldr	r3, [sp, #32]
	ldrb	r3, [r3, #36]	@ zero_extendqisi2
	ldr	r0, .L120+104
	mov	r1, r3
	bl	_Z5b2LogPKcz
	.loc 6 291 0
	ldr	r3, [sp, #32]
	ldrb	r3, [r3, #37]	@ zero_extendqisi2
	ldr	r0, .L120+108
	mov	r1, r3
	bl	_Z5b2LogPKcz
.LBE26:
	.loc 6 293 0
	mov	r0, r0	@ nop
.L112:
	.loc 6 299 0
	ldr	r0, .L120+112
	bl	_Z5b2LogPKcz
	.loc 6 300 0
	ldr	r0, .L120+116
	bl	_Z5b2LogPKcz
	.loc 6 301 0
	ldr	r0, .L120+112
	bl	_Z5b2LogPKcz
	.loc 6 302 0
	ldr	r0, .L120+120
	ldr	r1, [sp, #8]
	bl	_Z5b2LogPKcz
	b	.L118
.L119:
	.loc 6 296 0
	mov	r0, r0	@ nop
.L118:
.LBE21:
	.loc 6 303 0
	add	sp, sp, #44
	ldmfd	sp!, {pc}
.L121:
	.align	2
.L120:
	.word	.LC3
	.word	.LC4
	.word	.LC5
	.word	.LC6
	.word	.LC7
	.word	.LC8
	.word	.LC9
	.word	.LC10
	.word	.LC11
	.word	.LC12
	.word	.LC13
	.word	.LC14
	.word	.LC15
	.word	.LC16
	.word	.LC17
	.word	.LC18
	.word	.LC19
	.word	.LC20
	.word	.LC21
	.word	.LC22
	.word	.LC23
	.word	.LC24
	.word	.LC25
	.word	.LC26
	.word	.LC27
	.word	.LC28
	.word	.LC29
	.word	.LC30
	.word	.LC31
	.word	.LC32
	.word	.LC33
	.cfi_endproc
.LFE855:
	.size	_ZN9b2Fixture4DumpEi, .-_ZN9b2Fixture4DumpEi
	.section	.text._Z5b2MinIfET_S0_S0_,"axG",%progbits,_Z5b2MinIfET_S0_S0_,comdat
	.align	2
	.weak	_Z5b2MinIfET_S0_S0_
	.hidden	_Z5b2MinIfET_S0_S0_
	.type	_Z5b2MinIfET_S0_S0_, %function
_Z5b2MinIfET_S0_S0_:
.LFB857:
	.loc 1 632 0
	.cfi_startproc
	@ args = 0, pretend = 0, frame = 8
	@ frame_needed = 0, uses_anonymous_args = 0
	@ link register save eliminated.
	sub	sp, sp, #8
.LCFI43:
	.cfi_def_cfa_offset 8
	str	r0, [sp, #4]	@ float
	str	r1, [sp, #0]	@ float
	.loc 1 634 0
	flds	s14, [sp, #4]
	flds	s15, [sp, #0]
	fcmpes	s14, s15
	fmstat
	movpl	r3, #0
	movmi	r3, #1
	and	r3, r3, #255
	cmp	r3, #0
	beq	.L123
	flds	s15, [sp, #4]
	b	.L124
.L123:
	flds	s15, [sp, #0]
.L124:
	fmrs	r3, s15
	.loc 1 635 0
	mov	r0, r3	@ float
	add	sp, sp, #8
	bx	lr
	.cfi_endproc
.LFE857:
	.size	_Z5b2MinIfET_S0_S0_, .-_Z5b2MinIfET_S0_S0_
	.section	.text._Z5b2MaxIfET_S0_S0_,"axG",%progbits,_Z5b2MaxIfET_S0_S0_,comdat
	.align	2
	.weak	_Z5b2MaxIfET_S0_S0_
	.hidden	_Z5b2MaxIfET_S0_S0_
	.type	_Z5b2MaxIfET_S0_S0_, %function
_Z5b2MaxIfET_S0_S0_:
.LFB858:
	.loc 1 643 0
	.cfi_startproc
	@ args = 0, pretend = 0, frame = 8
	@ frame_needed = 0, uses_anonymous_args = 0
	@ link register save eliminated.
	sub	sp, sp, #8
.LCFI44:
	.cfi_def_cfa_offset 8
	str	r0, [sp, #4]	@ float
	str	r1, [sp, #0]	@ float
	.loc 1 645 0
	flds	s14, [sp, #4]
	flds	s15, [sp, #0]
	fcmpes	s14, s15
	fmstat
	movle	r3, #0
	movgt	r3, #1
	and	r3, r3, #255
	cmp	r3, #0
	beq	.L127
	flds	s15, [sp, #4]
	b	.L128
.L127:
	flds	s15, [sp, #0]
.L128:
	fmrs	r3, s15
	.loc 1 646 0
	mov	r0, r3	@ float
	add	sp, sp, #8
	bx	lr
	.cfi_endproc
.LFE858:
	.size	_Z5b2MaxIfET_S0_S0_, .-_Z5b2MaxIfET_S0_S0_
	.section	.rodata
	.align	2
	.type	_ZL12b2_chunkSize, %object
	.size	_ZL12b2_chunkSize, 4
_ZL12b2_chunkSize:
	.word	16384
	.align	2
	.type	_ZL15b2_maxBlockSize, %object
	.size	_ZL15b2_maxBlockSize, 4
_ZL15b2_maxBlockSize:
	.word	640
	.align	2
	.type	_ZL13b2_blockSizes, %object
	.size	_ZL13b2_blockSizes, 4
_ZL13b2_blockSizes:
	.word	14
	.align	2
	.type	_ZL22b2_chunkArrayIncrement, %object
	.size	_ZL22b2_chunkArrayIncrement, 4
_ZL22b2_chunkArrayIncrement:
	.word	128
	.type	_ZL14b2_nullFeature, %object
	.size	_ZL14b2_nullFeature, 1
_ZL14b2_nullFeature:
	.byte	-1
	.align	2
	.type	_ZL12b2_stackSize, %object
	.size	_ZL12b2_stackSize, 4
_ZL12b2_stackSize:
	.word	102400
	.align	2
	.type	_ZL18b2_maxStackEntries, %object
	.size	_ZL18b2_maxStackEntries, 4
_ZL18b2_maxStackEntries:
	.word	32
	.align	2
	.type	_ZN4_STLL16__stl_chunk_sizeE, %object
	.size	_ZN4_STLL16__stl_chunk_sizeE, 4
_ZN4_STLL16__stl_chunk_sizeE:
	.word	7
	.text
.Letext0: