	.arch armv5te
	.eabi_attribute 27, 3
	.fpu vfp
	.eabi_attribute 20, 1
	.eabi_attribute 21, 1
	.eabi_attribute 23, 3
	.eabi_attribute 24, 1
	.eabi_attribute 25, 1
	.eabi_attribute 26, 2
	.eabi_attribute 30, 6
	.eabi_attribute 18, 2
	.file	"b2GearJoint.cpp"
	.text
.Ltext0:
	.cfi_sections	.debug_frame
	.section	.text._Z9b2IsValidf,"axG",%progbits,_Z9b2IsValidf,comdat
	.align	2
	.weak	_Z9b2IsValidf
	.hidden	_Z9b2IsValidf
	.type	_Z9b2IsValidf, %function
_Z9b2IsValidf:
.LFB0:
	.file 1 "v:/gigglingbits/box2d/Box2D/Common/b2Math.h"
	.loc 1 27 0
	.cfi_startproc
	@ args = 0, pretend = 0, frame = 16
	@ frame_needed = 0, uses_anonymous_args = 0
	@ link register save eliminated.
	sub	sp, sp, #16
.LCFI0:
	.cfi_def_cfa_offset 16
	str	r0, [sp, #4]	@ float
.LBB2:
	.loc 1 28 0
	add	r3, sp, #4
	ldr	r3, [r3, #0]
	str	r3, [sp, #12]
	.loc 1 29 0
	ldr	r2, [sp, #12]
	ldr	r3, .L3
	and	r3, r2, r3
	ldr	r2, .L3
	cmp	r3, r2
	moveq	r3, #0
	movne	r3, #1
	and	r3, r3, #255
.LBE2:
	.loc 1 30 0
	mov	r0, r3
	add	sp, sp, #16
	bx	lr
.L4:
	.align	2
.L3:
	.word	2139095040
	.cfi_endproc
.LFE0:
	.size	_Z9b2IsValidf, .-_Z9b2IsValidf
	.section	.text._ZN6b2Vec2C1Ev,"axG",%progbits,_ZN6b2Vec2C1Ev,comdat
	.align	2
	.weak	_ZN6b2Vec2C1Ev
	.hidden	_ZN6b2Vec2C1Ev
	.type	_ZN6b2Vec2C1Ev, %function
_ZN6b2Vec2C1Ev:
.LFB4:
	.loc 1 56 0
	.cfi_startproc
	@ args = 0, pretend = 0, frame = 8
	@ frame_needed = 0, uses_anonymous_args = 0
	@ link register save eliminated.
	sub	sp, sp, #8
.LCFI1:
	.cfi_def_cfa_offset 8
	str	r0, [sp, #4]
	.loc 1 56 0
	ldr	r3, [sp, #4]
	mov	r0, r3
	add	sp, sp, #8
	bx	lr
	.cfi_endproc
.LFE4:
	.size	_ZN6b2Vec2C1Ev, .-_ZN6b2Vec2C1Ev
	.section	.text._ZN6b2Vec2C1Eff,"axG",%progbits,_ZN6b2Vec2C1Eff,comdat
	.align	2
	.weak	_ZN6b2Vec2C1Eff
	.hidden	_ZN6b2Vec2C1Eff
	.type	_ZN6b2Vec2C1Eff, %function
_ZN6b2Vec2C1Eff:
.LFB7:
	.loc 1 59 0
	.cfi_startproc
	@ args = 0, pretend = 0, frame = 16
	@ frame_needed = 0, uses_anonymous_args = 0
	@ link register save eliminated.
	sub	sp, sp, #16
.LCFI2:
	.cfi_def_cfa_offset 16
	str	r0, [sp, #12]
	str	r1, [sp, #8]	@ float
	str	r2, [sp, #4]	@ float
	.loc 1 59 0
	ldr	r3, [sp, #12]
	flds	s15, [sp, #8]
	fsts	s15, [r3, #0]
	ldr	r3, [sp, #12]
	flds	s15, [sp, #4]
	fsts	s15, [r3, #4]
	ldr	r3, [sp, #12]
	mov	r0, r3
	add	sp, sp, #16
	bx	lr
	.cfi_endproc
.LFE7:
	.size	_ZN6b2Vec2C1Eff, .-_ZN6b2Vec2C1Eff
	.section	.text._ZN6b2Vec27SetZeroEv,"axG",%progbits,_ZN6b2Vec27SetZeroEv,comdat
	.align	2
	.weak	_ZN6b2Vec27SetZeroEv
	.hidden	_ZN6b2Vec27SetZeroEv
	.type	_ZN6b2Vec27SetZeroEv, %function
_ZN6b2Vec27SetZeroEv:
.LFB8:
	.loc 1 62 0
	.cfi_startproc
	@ args = 0, pretend = 0, frame = 8
	@ frame_needed = 0, uses_anonymous_args = 0
	@ link register save eliminated.
	sub	sp, sp, #8
.LCFI3:
	.cfi_def_cfa_offset 8
	str	r0, [sp, #4]
	.loc 1 62 0
	ldr	r3, [sp, #4]
	flds	s15, .L13
	fsts	s15, [r3, #0]
	ldr	r3, [sp, #4]
	flds	s15, .L13
	fsts	s15, [r3, #4]
	add	sp, sp, #8
	bx	lr
.L14:
	.align	2
.L13:
	.word	0
	.cfi_endproc
.LFE8:
	.size	_ZN6b2Vec27SetZeroEv, .-_ZN6b2Vec27SetZeroEv
	.section	.text._ZN6b2Vec2pLERKS_,"axG",%progbits,_ZN6b2Vec2pLERKS_,comdat
	.align	2
	.weak	_ZN6b2Vec2pLERKS_
	.hidden	_ZN6b2Vec2pLERKS_
	.type	_ZN6b2Vec2pLERKS_, %function
_ZN6b2Vec2pLERKS_:
.LFB13:
	.loc 1 83 0
	.cfi_startproc
	@ args = 0, pretend = 0, frame = 8
	@ frame_needed = 0, uses_anonymous_args = 0
	@ link register save eliminated.
	sub	sp, sp, #8
.LCFI4:
	.cfi_def_cfa_offset 8
	str	r0, [sp, #4]
	str	r1, [sp, #0]
	.loc 1 85 0
	ldr	r3, [sp, #4]
	flds	s14, [r3, #0]
	ldr	r3, [sp, #0]
	flds	s15, [r3, #0]
	fadds	s15, s14, s15
	ldr	r3, [sp, #4]
	fsts	s15, [r3, #0]
	ldr	r3, [sp, #4]
	flds	s14, [r3, #4]
	ldr	r3, [sp, #0]
	flds	s15, [r3, #4]
	fadds	s15, s14, s15
	ldr	r3, [sp, #4]
	fsts	s15, [r3, #4]
	.loc 1 86 0
	add	sp, sp, #8
	bx	lr
	.cfi_endproc
.LFE13:
	.size	_ZN6b2Vec2pLERKS_, .-_ZN6b2Vec2pLERKS_
	.section	.text._ZN6b2Vec2mIERKS_,"axG",%progbits,_ZN6b2Vec2mIERKS_,comdat
	.align	2
	.weak	_ZN6b2Vec2mIERKS_
	.hidden	_ZN6b2Vec2mIERKS_
	.type	_ZN6b2Vec2mIERKS_, %function
_ZN6b2Vec2mIERKS_:
.LFB14:
	.loc 1 89 0
	.cfi_startproc
	@ args = 0, pretend = 0, frame = 8
	@ frame_needed = 0, uses_anonymous_args = 0
	@ link register save eliminated.
	sub	sp, sp, #8
.LCFI5:
	.cfi_def_cfa_offset 8
	str	r0, [sp, #4]
	str	r1, [sp, #0]
	.loc 1 91 0
	ldr	r3, [sp, #4]
	flds	s14, [r3, #0]
	ldr	r3, [sp, #0]
	flds	s15, [r3, #0]
	fsubs	s15, s14, s15
	ldr	r3, [sp, #4]
	fsts	s15, [r3, #0]
	ldr	r3, [sp, #4]
	flds	s14, [r3, #4]
	ldr	r3, [sp, #0]
	flds	s15, [r3, #4]
	fsubs	s15, s14, s15
	ldr	r3, [sp, #4]
	fsts	s15, [r3, #4]
	.loc 1 92 0
	add	sp, sp, #8
	bx	lr
	.cfi_endproc
.LFE14:
	.size	_ZN6b2Vec2mIERKS_, .-_ZN6b2Vec2mIERKS_
	.section	.text._ZN5b2RotC1Ef,"axG",%progbits,_ZN5b2RotC1Ef,comdat
	.align	2
	.weak	_ZN5b2RotC1Ef
	.hidden	_ZN5b2RotC1Ef
	.type	_ZN5b2RotC1Ef, %function
_ZN5b2RotC1Ef:
.LFB59:
	.loc 1 304 0
	.cfi_startproc
	@ args = 0, pretend = 0, frame = 8
	@ frame_needed = 0, uses_anonymous_args = 0
	str	lr, [sp, #-4]!
.LCFI6:
	.cfi_def_cfa_offset 4
	sub	sp, sp, #12
.LCFI7:
	.cfi_def_cfa_offset 16
	str	r0, [sp, #4]
	str	r1, [sp, #0]	@ float
	.loc 1 307 0
	ldr	r0, [sp, #0]	@ float
	.cfi_offset 14, -4
	bl	sinf
	mov	r2, r0	@ float
	ldr	r3, [sp, #4]
	str	r2, [r3, #0]	@ float
	.loc 1 308 0
	ldr	r0, [sp, #0]	@ float
	bl	cosf
	mov	r2, r0	@ float
	ldr	r3, [sp, #4]
	str	r2, [r3, #4]	@ float
	.loc 1 309 0
	ldr	r3, [sp, #4]
	mov	r0, r3
	add	sp, sp, #12
	ldmfd	sp!, {pc}
	.cfi_endproc
.LFE59:
	.size	_ZN5b2RotC1Ef, .-_ZN5b2RotC1Ef
	.section	.text._Z5b2DotRK6b2Vec2S1_,"axG",%progbits,_Z5b2DotRK6b2Vec2S1_,comdat
	.align	2
	.weak	_Z5b2DotRK6b2Vec2S1_
	.hidden	_Z5b2DotRK6b2Vec2S1_
	.type	_Z5b2DotRK6b2Vec2S1_, %function
_Z5b2DotRK6b2Vec2S1_:
.LFB73:
	.loc 1 407 0
	.cfi_startproc
	@ args = 0, pretend = 0, frame = 8
	@ frame_needed = 0, uses_anonymous_args = 0
	@ link register save eliminated.
	sub	sp, sp, #8
.LCFI8:
	.cfi_def_cfa_offset 8
	str	r0, [sp, #4]
	str	r1, [sp, #0]
	.loc 1 408 0
	ldr	r3, [sp, #4]
	flds	s14, [r3, #0]
	ldr	r3, [sp, #0]
	flds	s15, [r3, #0]
	fmuls	s14, s14, s15
	ldr	r3, [sp, #4]
	flds	s13, [r3, #4]
	ldr	r3, [sp, #0]
	flds	s15, [r3, #4]
	fmuls	s15, s13, s15
	fadds	s15, s14, s15
	fmrs	r3, s15
	.loc 1 409 0
	mov	r0, r3	@ float
	add	sp, sp, #8
	bx	lr
	.cfi_endproc
.LFE73:
	.size	_Z5b2DotRK6b2Vec2S1_, .-_Z5b2DotRK6b2Vec2S1_
	.section	.text._Z7b2CrossRK6b2Vec2S1_,"axG",%progbits,_Z7b2CrossRK6b2Vec2S1_,comdat
	.align	2
	.weak	_Z7b2CrossRK6b2Vec2S1_
	.hidden	_Z7b2CrossRK6b2Vec2S1_
	.type	_Z7b2CrossRK6b2Vec2S1_, %function
_Z7b2CrossRK6b2Vec2S1_:
.LFB74:
	.loc 1 413 0
	.cfi_startproc
	@ args = 0, pretend = 0, frame = 8
	@ frame_needed = 0, uses_anonymous_args = 0
	@ link register save eliminated.
	sub	sp, sp, #8
.LCFI9:
	.cfi_def_cfa_offset 8
	str	r0, [sp, #4]
	str	r1, [sp, #0]
	.loc 1 414 0
	ldr	r3, [sp, #4]
	flds	s14, [r3, #0]
	ldr	r3, [sp, #0]
	flds	s15, [r3, #4]
	fmuls	s14, s14, s15
	ldr	r3, [sp, #4]
	flds	s13, [r3, #4]
	ldr	r3, [sp, #0]
	flds	s15, [r3, #0]
	fmuls	s15, s13, s15
	fsubs	s15, s14, s15
	fmrs	r3, s15
	.loc 1 415 0
	mov	r0, r3	@ float
	add	sp, sp, #8
	bx	lr
	.cfi_endproc
.LFE74:
	.size	_Z7b2CrossRK6b2Vec2S1_, .-_Z7b2CrossRK6b2Vec2S1_
	.section	.text._ZplRK6b2Vec2S1_,"axG",%progbits,_ZplRK6b2Vec2S1_,comdat
	.align	2
	.weak	_ZplRK6b2Vec2S1_
	.hidden	_ZplRK6b2Vec2S1_
	.type	_ZplRK6b2Vec2S1_, %function
_ZplRK6b2Vec2S1_:
.LFB79:
	.loc 1 447 0
	.cfi_startproc
	@ args = 0, pretend = 0, frame = 8
	@ frame_needed = 0, uses_anonymous_args = 0
	stmfd	sp!, {r4, lr}
.LCFI10:
	.cfi_def_cfa_offset 8
	sub	sp, sp, #8
.LCFI11:
	.cfi_def_cfa_offset 16
	mov	r4, r0
	.cfi_offset 14, -4
	.cfi_offset 4, -8
	str	r1, [sp, #4]
	str	r2, [sp, #0]
	.loc 1 448 0
	ldr	r3, [sp, #4]
	flds	s14, [r3, #0]
	ldr	r3, [sp, #0]
	flds	s15, [r3, #0]
	fadds	s13, s14, s15
	ldr	r3, [sp, #4]
	flds	s14, [r3, #4]
	ldr	r3, [sp, #0]
	flds	s15, [r3, #4]
	fadds	s15, s14, s15
	mov	r0, r4
	fmrs	r1, s13
	fmrs	r2, s15
	bl	_ZN6b2Vec2C1Eff
	.loc 1 449 0
	mov	r0, r4
	add	sp, sp, #8
	ldmfd	sp!, {r4, pc}
	.cfi_endproc
.LFE79:
	.size	_ZplRK6b2Vec2S1_, .-_ZplRK6b2Vec2S1_
	.section	.text._ZmiRK6b2Vec2S1_,"axG",%progbits,_ZmiRK6b2Vec2S1_,comdat
	.align	2
	.weak	_ZmiRK6b2Vec2S1_
	.hidden	_ZmiRK6b2Vec2S1_
	.type	_ZmiRK6b2Vec2S1_, %function
_ZmiRK6b2Vec2S1_:
.LFB80:
	.loc 1 453 0
	.cfi_startproc
	@ args = 0, pretend = 0, frame = 8
	@ frame_needed = 0, uses_anonymous_args = 0
	stmfd	sp!, {r4, lr}
.LCFI12:
	.cfi_def_cfa_offset 8
	sub	sp, sp, #8
.LCFI13:
	.cfi_def_cfa_offset 16
	mov	r4, r0
	.cfi_offset 14, -4
	.cfi_offset 4, -8
	str	r1, [sp, #4]
	str	r2, [sp, #0]
	.loc 1 454 0
	ldr	r3, [sp, #4]
	flds	s14, [r3, #0]
	ldr	r3, [sp, #0]
	flds	s15, [r3, #0]
	fsubs	s13, s14, s15
	ldr	r3, [sp, #4]
	flds	s14, [r3, #4]
	ldr	r3, [sp, #0]
	flds	s15, [r3, #4]
	fsubs	s15, s14, s15
	mov	r0, r4
	fmrs	r1, s13
	fmrs	r2, s15
	bl	_ZN6b2Vec2C1Eff
	.loc 1 455 0
	mov	r0, r4
	add	sp, sp, #8
	ldmfd	sp!, {r4, pc}
	.cfi_endproc
.LFE80:
	.size	_ZmiRK6b2Vec2S1_, .-_ZmiRK6b2Vec2S1_
	.section	.text._ZmlfRK6b2Vec2,"axG",%progbits,_ZmlfRK6b2Vec2,comdat
	.align	2
	.weak	_ZmlfRK6b2Vec2
	.hidden	_ZmlfRK6b2Vec2
	.type	_ZmlfRK6b2Vec2, %function
_ZmlfRK6b2Vec2:
.LFB81:
	.loc 1 458 0
	.cfi_startproc
	@ args = 0, pretend = 0, frame = 8
	@ frame_needed = 0, uses_anonymous_args = 0
	stmfd	sp!, {r4, lr}
.LCFI14:
	.cfi_def_cfa_offset 8
	sub	sp, sp, #8
.LCFI15:
	.cfi_def_cfa_offset 16
	mov	r4, r0
	.cfi_offset 14, -4
	.cfi_offset 4, -8
	str	r1, [sp, #4]	@ float
	str	r2, [sp, #0]
	.loc 1 459 0
	ldr	r3, [sp, #0]
	flds	s14, [r3, #0]
	flds	s15, [sp, #4]
	fmuls	s14, s14, s15
	ldr	r3, [sp, #0]
	flds	s13, [r3, #4]
	flds	s15, [sp, #4]
	fmuls	s15, s13, s15
	mov	r0, r4
	fmrs	r1, s14
	fmrs	r2, s15
	bl	_ZN6b2Vec2C1Eff
	.loc 1 460 0
	mov	r0, r4
	add	sp, sp, #8
	ldmfd	sp!, {r4, pc}
	.cfi_endproc
.LFE81:
	.size	_ZmlfRK6b2Vec2, .-_ZmlfRK6b2Vec2
	.section	.text._Z5b2MulRK5b2RotRK6b2Vec2,"axG",%progbits,_Z5b2MulRK5b2RotRK6b2Vec2,comdat
	.align	2
	.weak	_Z5b2MulRK5b2RotRK6b2Vec2
	.hidden	_Z5b2MulRK5b2RotRK6b2Vec2
	.type	_Z5b2MulRK5b2RotRK6b2Vec2, %function
_Z5b2MulRK5b2RotRK6b2Vec2:
.LFB97:
	.loc 1 567 0
	.cfi_startproc
	@ args = 0, pretend = 0, frame = 8
	@ frame_needed = 0, uses_anonymous_args = 0
	stmfd	sp!, {r4, lr}
.LCFI16:
	.cfi_def_cfa_offset 8
	sub	sp, sp, #8
.LCFI17:
	.cfi_def_cfa_offset 16
	mov	r4, r0
	.cfi_offset 14, -4
	.cfi_offset 4, -8
	str	r1, [sp, #4]
	str	r2, [sp, #0]
	.loc 1 568 0
	ldr	r3, [sp, #4]
	flds	s14, [r3, #4]
	ldr	r3, [sp, #0]
	flds	s15, [r3, #0]
	fmuls	s14, s14, s15
	ldr	r3, [sp, #4]
	flds	s13, [r3, #0]
	ldr	r3, [sp, #0]
	flds	s15, [r3, #4]
	fmuls	s15, s13, s15
	fsubs	s12, s14, s15
	ldr	r3, [sp, #4]
	flds	s14, [r3, #0]
	ldr	r3, [sp, #0]
	flds	s15, [r3, #0]
	fmuls	s14, s14, s15
	ldr	r3, [sp, #4]
	flds	s13, [r3, #4]
	ldr	r3, [sp, #0]
	flds	s15, [r3, #4]
	fmuls	s15, s13, s15
	fadds	s15, s14, s15
	mov	r0, r4
	fmrs	r1, s12
	fmrs	r2, s15
	bl	_ZN6b2Vec2C1Eff
	.loc 1 569 0
	mov	r0, r4
	add	sp, sp, #8
	ldmfd	sp!, {r4, pc}
	.cfi_endproc
.LFE97:
	.size	_Z5b2MulRK5b2RotRK6b2Vec2, .-_Z5b2MulRK5b2RotRK6b2Vec2
	.section	.text._Z6b2MulTRK5b2RotRK6b2Vec2,"axG",%progbits,_Z6b2MulTRK5b2RotRK6b2Vec2,comdat
	.align	2
	.weak	_Z6b2MulTRK5b2RotRK6b2Vec2
	.hidden	_Z6b2MulTRK5b2RotRK6b2Vec2
	.type	_Z6b2MulTRK5b2RotRK6b2Vec2, %function
_Z6b2MulTRK5b2RotRK6b2Vec2:
.LFB98:
	.loc 1 573 0
	.cfi_startproc
	@ args = 0, pretend = 0, frame = 8
	@ frame_needed = 0, uses_anonymous_args = 0
	stmfd	sp!, {r4, lr}
.LCFI18:
	.cfi_def_cfa_offset 8
	sub	sp, sp, #8
.LCFI19:
	.cfi_def_cfa_offset 16
	mov	r4, r0
	.cfi_offset 14, -4
	.cfi_offset 4, -8
	str	r1, [sp, #4]
	str	r2, [sp, #0]
	.loc 1 574 0
	ldr	r3, [sp, #4]
	flds	s14, [r3, #4]
	ldr	r3, [sp, #0]
	flds	s15, [r3, #0]
	fmuls	s14, s14, s15
	ldr	r3, [sp, #4]
	flds	s13, [r3, #0]
	ldr	r3, [sp, #0]
	flds	s15, [r3, #4]
	fmuls	s15, s13, s15
	fadds	s12, s14, s15
	ldr	r3, [sp, #4]
	flds	s15, [r3, #0]
	fnegs	s14, s15
	ldr	r3, [sp, #0]
	flds	s15, [r3, #0]
	fmuls	s14, s14, s15
	ldr	r3, [sp, #4]
	flds	s13, [r3, #4]
	ldr	r3, [sp, #0]
	flds	s15, [r3, #4]
	fmuls	s15, s13, s15
	fadds	s15, s14, s15
	mov	r0, r4
	fmrs	r1, s12
	fmrs	r2, s15
	bl	_ZN6b2Vec2C1Eff
	.loc 1 575 0
	mov	r0, r4
	add	sp, sp, #8
	ldmfd	sp!, {r4, pc}
	.cfi_endproc
.LFE98:
	.size	_Z6b2MulTRK5b2RotRK6b2Vec2, .-_Z6b2MulTRK5b2RotRK6b2Vec2
	.section	.text._Z5b2MulRK11b2TransformRK6b2Vec2,"axG",%progbits,_Z5b2MulRK11b2TransformRK6b2Vec2,comdat
	.align	2
	.weak	_Z5b2MulRK11b2TransformRK6b2Vec2
	.hidden	_Z5b2MulRK11b2TransformRK6b2Vec2
	.type	_Z5b2MulRK11b2TransformRK6b2Vec2, %function
_Z5b2MulRK11b2TransformRK6b2Vec2:
.LFB99:
	.loc 1 578 0
	.cfi_startproc
	@ args = 0, pretend = 0, frame = 16
	@ frame_needed = 0, uses_anonymous_args = 0
	stmfd	sp!, {r4, lr}
.LCFI20:
	.cfi_def_cfa_offset 8
	sub	sp, sp, #16
.LCFI21:
	.cfi_def_cfa_offset 24
	mov	r4, r0
	.cfi_offset 14, -4
	.cfi_offset 4, -8
	str	r1, [sp, #4]
	str	r2, [sp, #0]
.LBB3:
	.loc 1 579 0
	ldr	r3, [sp, #4]
	flds	s14, [r3, #12]
	ldr	r3, [sp, #0]
	flds	s15, [r3, #0]
	fmuls	s14, s14, s15
	ldr	r3, [sp, #4]
	flds	s13, [r3, #8]
	ldr	r3, [sp, #0]
	flds	s15, [r3, #4]
	fmuls	s15, s13, s15
	fsubs	s14, s14, s15
	ldr	r3, [sp, #4]
	flds	s15, [r3, #0]
	fadds	s15, s14, s15
	fsts	s15, [sp, #8]
	.loc 1 580 0
	ldr	r3, [sp, #4]
	flds	s14, [r3, #8]
	ldr	r3, [sp, #0]
	flds	s15, [r3, #0]
	fmuls	s14, s14, s15
	ldr	r3, [sp, #4]
	flds	s13, [r3, #12]
	ldr	r3, [sp, #0]
	flds	s15, [r3, #4]
	fmuls	s15, s13, s15
	fadds	s14, s14, s15
	ldr	r3, [sp, #4]
	flds	s15, [r3, #4]
	fadds	s15, s14, s15
	fsts	s15, [sp, #12]
	.loc 1 582 0
	mov	r0, r4
	ldr	r1, [sp, #8]	@ float
	ldr	r2, [sp, #12]	@ float
	bl	_ZN6b2Vec2C1Eff
.LBE3:
	.loc 1 583 0
	mov	r0, r4
	add	sp, sp, #16
	ldmfd	sp!, {r4, pc}
	.cfi_endproc
.LFE99:
	.size	_Z5b2MulRK11b2TransformRK6b2Vec2, .-_Z5b2MulRK11b2TransformRK6b2Vec2
	.section	.rodata
	.align	2
.LC0:
	.ascii	"// Dump is not supported for this joint type.\012\000"
	.section	.text._ZN7b2Joint4DumpEv,"axG",%progbits,_ZN7b2Joint4DumpEv,comdat
	.align	2
	.weak	_ZN7b2Joint4DumpEv
	.hidden	_ZN7b2Joint4DumpEv
	.type	_ZN7b2Joint4DumpEv, %function
_ZN7b2Joint4DumpEv:
.LFB121:
	.file 2 "v:/gigglingbits/box2d/Box2D/Dynamics/Joints/b2Joint.h"
	.loc 2 147 0
	.cfi_startproc
	@ args = 0, pretend = 0, frame = 8
	@ frame_needed = 0, uses_anonymous_args = 0
	str	lr, [sp, #-4]!
.LCFI22:
	.cfi_def_cfa_offset 4
	sub	sp, sp, #12
.LCFI23:
	.cfi_def_cfa_offset 16
	str	r0, [sp, #4]
	.loc 2 147 0
	ldr	r0, .L40
	.cfi_offset 14, -4
	bl	_Z5b2LogPKcz
	add	sp, sp, #12
	ldmfd	sp!, {pc}
.L41:
	.align	2
.L40:
	.word	.LC0
	.cfi_endproc
.LFE121:
	.size	_ZN7b2Joint4DumpEv, .-_ZN7b2Joint4DumpEv
	.section	.text._ZN7b2Joint11ShiftOriginERK6b2Vec2,"axG",%progbits,_ZN7b2Joint11ShiftOriginERK6b2Vec2,comdat
	.align	2
	.weak	_ZN7b2Joint11ShiftOriginERK6b2Vec2
	.hidden	_ZN7b2Joint11ShiftOriginERK6b2Vec2
	.type	_ZN7b2Joint11ShiftOriginERK6b2Vec2, %function
_ZN7b2Joint11ShiftOriginERK6b2Vec2:
.LFB122:
	.loc 2 150 0
	.cfi_startproc
	@ args = 0, pretend = 0, frame = 8
	@ frame_needed = 0, uses_anonymous_args = 0
	@ link register save eliminated.
	sub	sp, sp, #8
.LCFI24:
	.cfi_def_cfa_offset 8
	str	r0, [sp, #4]
	str	r1, [sp, #0]
	.loc 2 150 0
	add	sp, sp, #8
	bx	lr
	.cfi_endproc
.LFE122:
	.size	_ZN7b2Joint11ShiftOriginERK6b2Vec2, .-_ZN7b2Joint11ShiftOriginERK6b2Vec2
	.section	.text._ZN7b2JointD2Ev,"axG",%progbits,_ZN7b2JointD2Ev,comdat
	.align	2
	.weak	_ZN7b2JointD2Ev
	.hidden	_ZN7b2JointD2Ev
	.type	_ZN7b2JointD2Ev, %function
_ZN7b2JointD2Ev:
.LFB124:
	.loc 2 162 0
	.cfi_startproc
	@ args = 0, pretend = 0, frame = 8
	@ frame_needed = 0, uses_anonymous_args = 0
	str	lr, [sp, #-4]!
.LCFI25:
	.cfi_def_cfa_offset 4
	sub	sp, sp, #12
.LCFI26:
	.cfi_def_cfa_offset 16
	str	r0, [sp, #4]
	.loc 2 162 0
	ldr	r3, [sp, #4]
	ldr	r2, .L48
	str	r2, [r3, #0]
	mov	r3, #0
	and	r3, r3, #255
	cmp	r3, #0
	beq	.L46
	.cfi_offset 14, -4
	ldr	r0, [sp, #4]
	bl	_ZdlPv
.L46:
	ldr	r3, [sp, #4]
	mov	r0, r3
	add	sp, sp, #12
	ldmfd	sp!, {pc}
.L49:
	.align	2
.L48:
	.word	_ZTV7b2Joint+8
	.cfi_endproc
.LFE124:
	.size	_ZN7b2JointD2Ev, .-_ZN7b2JointD2Ev
	.section	.text._ZN7b2JointD1Ev,"axG",%progbits,_ZN7b2JointD1Ev,comdat
	.align	2
	.weak	_ZN7b2JointD1Ev
	.hidden	_ZN7b2JointD1Ev
	.type	_ZN7b2JointD1Ev, %function
_ZN7b2JointD1Ev:
.LFB125:
	.loc 2 162 0
	.cfi_startproc
	@ args = 0, pretend = 0, frame = 8
	@ frame_needed = 0, uses_anonymous_args = 0
	str	lr, [sp, #-4]!
.LCFI27:
	.cfi_def_cfa_offset 4
	sub	sp, sp, #12
.LCFI28:
	.cfi_def_cfa_offset 16
	str	r0, [sp, #4]
	.loc 2 162 0
	ldr	r3, [sp, #4]
	ldr	r2, .L54
	str	r2, [r3, #0]
	mov	r3, #0
	and	r3, r3, #255
	cmp	r3, #0
	beq	.L52
	.cfi_offset 14, -4
	ldr	r0, [sp, #4]
	bl	_ZdlPv
.L52:
	ldr	r3, [sp, #4]
	mov	r0, r3
	add	sp, sp, #12
	ldmfd	sp!, {pc}
.L55:
	.align	2
.L54:
	.word	_ZTV7b2Joint+8
	.cfi_endproc
.LFE125:
	.size	_ZN7b2JointD1Ev, .-_ZN7b2JointD1Ev
	.section	.text._ZN7b2JointD0Ev,"axG",%progbits,_ZN7b2JointD0Ev,comdat
	.align	2
	.weak	_ZN7b2JointD0Ev
	.hidden	_ZN7b2JointD0Ev
	.type	_ZN7b2JointD0Ev, %function
_ZN7b2JointD0Ev:
.LFB126:
	.loc 2 162 0
	.cfi_startproc
	@ args = 0, pretend = 0, frame = 8
	@ frame_needed = 0, uses_anonymous_args = 0
	str	lr, [sp, #-4]!
.LCFI29:
	.cfi_def_cfa_offset 4
	sub	sp, sp, #12
.LCFI30:
	.cfi_def_cfa_offset 16
	str	r0, [sp, #4]
	.loc 2 162 0
	ldr	r3, [sp, #4]
	ldr	r2, .L60
	str	r2, [r3, #0]
	mov	r3, #1
	and	r3, r3, #255
	cmp	r3, #0
	beq	.L58
	.cfi_offset 14, -4
	ldr	r0, [sp, #4]
	bl	_ZdlPv
.L58:
	ldr	r3, [sp, #4]
	mov	r0, r3
	add	sp, sp, #12
	ldmfd	sp!, {pc}
.L61:
	.align	2
.L60:
	.word	_ZTV7b2Joint+8
	.cfi_endproc
.LFE126:
	.size	_ZN7b2JointD0Ev, .-_ZN7b2JointD0Ev
	.section	.text._ZNK7b2Joint7GetTypeEv,"axG",%progbits,_ZNK7b2Joint7GetTypeEv,comdat
	.align	2
	.weak	_ZNK7b2Joint7GetTypeEv
	.hidden	_ZNK7b2Joint7GetTypeEv
	.type	_ZNK7b2Joint7GetTypeEv, %function
_ZNK7b2Joint7GetTypeEv:
.LFB127:
	.loc 2 187 0
	.cfi_startproc
	@ args = 0, pretend = 0, frame = 8
	@ frame_needed = 0, uses_anonymous_args = 0
	@ link register save eliminated.
	sub	sp, sp, #8
.LCFI31:
	.cfi_def_cfa_offset 8
	str	r0, [sp, #4]
	.loc 2 188 0
	ldr	r3, [sp, #4]
	ldr	r3, [r3, #4]
	.loc 2 189 0
	mov	r0, r3
	add	sp, sp, #8
	bx	lr
	.cfi_endproc
.LFE127:
	.size	_ZNK7b2Joint7GetTypeEv, .-_ZNK7b2Joint7GetTypeEv
	.section	.text._ZN7b2Joint8GetBodyAEv,"axG",%progbits,_ZN7b2Joint8GetBodyAEv,comdat
	.align	2
	.weak	_ZN7b2Joint8GetBodyAEv
	.hidden	_ZN7b2Joint8GetBodyAEv
	.type	_ZN7b2Joint8GetBodyAEv, %function
_ZN7b2Joint8GetBodyAEv:
.LFB128:
	.loc 2 192 0
	.cfi_startproc
	@ args = 0, pretend = 0, frame = 8
	@ frame_needed = 0, uses_anonymous_args = 0
	@ link register save eliminated.
	sub	sp, sp, #8
.LCFI32:
	.cfi_def_cfa_offset 8
	str	r0, [sp, #4]
	.loc 2 193 0
	ldr	r3, [sp, #4]
	ldr	r3, [r3, #48]
	.loc 2 194 0
	mov	r0, r3
	add	sp, sp, #8
	bx	lr
	.cfi_endproc
.LFE128:
	.size	_ZN7b2Joint8GetBodyAEv, .-_ZN7b2Joint8GetBodyAEv
	.section	.text._ZN7b2Joint8GetBodyBEv,"axG",%progbits,_ZN7b2Joint8GetBodyBEv,comdat
	.align	2
	.weak	_ZN7b2Joint8GetBodyBEv
	.hidden	_ZN7b2Joint8GetBodyBEv
	.type	_ZN7b2Joint8GetBodyBEv, %function
_ZN7b2Joint8GetBodyBEv:
.LFB129:
	.loc 2 197 0
	.cfi_startproc
	@ args = 0, pretend = 0, frame = 8
	@ frame_needed = 0, uses_anonymous_args = 0
	@ link register save eliminated.
	sub	sp, sp, #8
.LCFI33:
	.cfi_def_cfa_offset 8
	str	r0, [sp, #4]
	.loc 2 198 0
	ldr	r3, [sp, #4]
	ldr	r3, [r3, #52]
	.loc 2 199 0
	mov	r0, r3
	add	sp, sp, #8
	bx	lr
	.cfi_endproc
.LFE129:
	.size	_ZN7b2Joint8GetBodyBEv, .-_ZN7b2Joint8GetBodyBEv
	.section	.text._ZNK6b2Body13GetWorldPointERK6b2Vec2,"axG",%progbits,_ZNK6b2Body13GetWorldPointERK6b2Vec2,comdat
	.align	2
	.weak	_ZNK6b2Body13GetWorldPointERK6b2Vec2
	.hidden	_ZNK6b2Body13GetWorldPointERK6b2Vec2
	.type	_ZNK6b2Body13GetWorldPointERK6b2Vec2, %function
_ZNK6b2Body13GetWorldPointERK6b2Vec2:
.LFB484:
	.file 3 "v:/gigglingbits/box2d/Box2D/Dynamics/b2Body.h"
	.loc 3 557 0
	.cfi_startproc
	@ args = 0, pretend = 0, frame = 8
	@ frame_needed = 0, uses_anonymous_args = 0
	stmfd	sp!, {r4, lr}
.LCFI34:
	.cfi_def_cfa_offset 8
	sub	sp, sp, #8
.LCFI35:
	.cfi_def_cfa_offset 16
	mov	r4, r0
	.cfi_offset 14, -4
	.cfi_offset 4, -8
	str	r1, [sp, #4]
	str	r2, [sp, #0]
	.loc 3 558 0
	ldr	r3, [sp, #4]
	add	r3, r3, #12
	mov	r0, r4
	mov	r1, r3
	ldr	r2, [sp, #0]
	bl	_Z5b2MulRK11b2TransformRK6b2Vec2
	.loc 3 559 0
	mov	r0, r4
	add	sp, sp, #8
	ldmfd	sp!, {r4, pc}
	.cfi_endproc
.LFE484:
	.size	_ZNK6b2Body13GetWorldPointERK6b2Vec2, .-_ZNK6b2Body13GetWorldPointERK6b2Vec2
	.section	.rodata
	.align	2
.LC1:
	.ascii	"v:/gigglingbits/box2d/Box2D/Dynamics/Joints/b2GearJ"
	.ascii	"oint.cpp\000"
	.align	2
.LC2:
	.ascii	"m_typeA == e_revoluteJoint || m_typeA == e_prismati"
	.ascii	"cJoint\000"
	.align	2
.LC3:
	.ascii	"m_typeB == e_revoluteJoint || m_typeB == e_prismati"
	.ascii	"cJoint\000"
	.section	.text._ZN11b2GearJointC2EPK14b2GearJointDef,"ax",%progbits
	.align	2
	.global	_ZN11b2GearJointC2EPK14b2GearJointDef
	.hidden	_ZN11b2GearJointC2EPK14b2GearJointDef
	.type	_ZN11b2GearJointC2EPK14b2GearJointDef, %function
_ZN11b2GearJointC2EPK14b2GearJointDef:
.LFB524:
	.file 4 "v:/gigglingbits/box2d/Box2D/Dynamics/Joints/b2GearJoint.cpp"
	.loc 4 44 0
	.cfi_startproc
	@ args = 0, pretend = 0, frame = 208
	@ frame_needed = 0, uses_anonymous_args = 0
	str	lr, [sp, #-4]!
.LCFI36:
	.cfi_def_cfa_offset 4
	sub	sp, sp, #212
.LCFI37:
	.cfi_def_cfa_offset 216
	str	r0, [sp, #4]
	str	r1, [sp, #0]
	.loc 4 45 0
	ldr	r2, [sp, #4]
	ldr	r3, [sp, #0]
	mov	r0, r2
	mov	r1, r3
	.cfi_offset 14, -4
	bl	_ZN7b2JointC2EPK10b2JointDef
	ldr	r3, [sp, #4]
	ldr	r2, .L79+4
	str	r2, [r3, #0]
	ldr	r3, [sp, #4]
	add	r3, r3, #92
	mov	r0, r3
	bl	_ZN6b2Vec2C1Ev
	ldr	r3, [sp, #4]
	add	r3, r3, #100
	mov	r0, r3
	bl	_ZN6b2Vec2C1Ev
	ldr	r3, [sp, #4]
	add	r3, r3, #108
	mov	r0, r3
	bl	_ZN6b2Vec2C1Ev
	ldr	r3, [sp, #4]
	add	r3, r3, #116
	mov	r0, r3
	bl	_ZN6b2Vec2C1Ev
	ldr	r3, [sp, #4]
	add	r3, r3, #124
	mov	r0, r3
	bl	_ZN6b2Vec2C1Ev
	ldr	r3, [sp, #4]
	add	r3, r3, #132
	mov	r0, r3
	bl	_ZN6b2Vec2C1Ev
	ldr	r3, [sp, #4]
	add	r3, r3, #176
	mov	r0, r3
	bl	_ZN6b2Vec2C1Ev
	ldr	r3, [sp, #4]
	add	r3, r3, #184
	mov	r0, r3
	bl	_ZN6b2Vec2C1Ev
	ldr	r3, [sp, #4]
	add	r3, r3, #192
	mov	r0, r3
	bl	_ZN6b2Vec2C1Ev
	ldr	r3, [sp, #4]
	add	r3, r3, #200
	mov	r0, r3
	bl	_ZN6b2Vec2C1Ev
	ldr	r3, [sp, #4]
	add	r3, r3, #240
	mov	r0, r3
	bl	_ZN6b2Vec2C1Ev
	ldr	r3, [sp, #4]
	add	r3, r3, #248
	mov	r0, r3
	bl	_ZN6b2Vec2C1Ev
.LBB4:
	.loc 4 47 0
	ldr	r3, [sp, #0]
	ldr	r2, [r3, #20]
	ldr	r3, [sp, #4]
	str	r2, [r3, #68]
	.loc 4 48 0
	ldr	r3, [sp, #0]
	ldr	r2, [r3, #24]
	ldr	r3, [sp, #4]
	str	r2, [r3, #72]
	.loc 4 50 0
	ldr	r3, [sp, #4]
	ldr	r3, [r3, #68]
	mov	r0, r3
	bl	_ZNK7b2Joint7GetTypeEv
	mov	r2, r0
	ldr	r3, [sp, #4]
	str	r2, [r3, #76]
	.loc 4 51 0
	ldr	r3, [sp, #4]
	ldr	r3, [r3, #72]
	mov	r0, r3
	bl	_ZNK7b2Joint7GetTypeEv
	mov	r2, r0
	ldr	r3, [sp, #4]
	str	r2, [r3, #80]
	.loc 4 53 0
	ldr	r3, [sp, #4]
	ldr	r3, [r3, #76]
	cmp	r3, #1
	beq	.L71
	ldr	r3, [sp, #4]
	ldr	r3, [r3, #76]
	cmp	r3, #2
	beq	.L71
	ldr	r0, .L79+8
	mov	r1, #53
	ldr	r2, .L79+12
	bl	__assert
.L71:
	.loc 4 54 0
	ldr	r3, [sp, #4]
	ldr	r3, [r3, #80]
	cmp	r3, #1
	beq	.L72
	ldr	r3, [sp, #4]
	ldr	r3, [r3, #80]
	cmp	r3, #2
	beq	.L72
	ldr	r0, .L79+8
	mov	r1, #54
	ldr	r2, .L79+16
	bl	__assert
.L72:
	.loc 4 60 0
	ldr	r3, [sp, #4]
	ldr	r3, [r3, #68]
	mov	r0, r3
	bl	_ZN7b2Joint8GetBodyAEv
	mov	r2, r0
	ldr	r3, [sp, #4]
	str	r2, [r3, #84]
	.loc 4 61 0
	ldr	r3, [sp, #4]
	ldr	r3, [r3, #68]
	mov	r0, r3
	bl	_ZN7b2Joint8GetBodyBEv
	mov	r2, r0
	ldr	r3, [sp, #4]
	str	r2, [r3, #48]
	.loc 4 64 0
	ldr	r3, [sp, #4]
	ldr	r3, [r3, #48]
	add	ip, sp, #88
	add	r3, r3, #12
	ldmia	r3, {r0, r1, r2, r3}
	stmia	ip, {r0, r1, r2, r3}
	.loc 4 65 0
	ldr	r3, [sp, #4]
	ldr	r3, [r3, #48]
	flds	s15, [r3, #56]
	fsts	s15, [sp, #176]
	.loc 4 66 0
	ldr	r3, [sp, #4]
	ldr	r3, [r3, #84]
	add	ip, sp, #72
	add	r3, r3, #12
	ldmia	r3, {r0, r1, r2, r3}
	stmia	ip, {r0, r1, r2, r3}
	.loc 4 67 0
	ldr	r3, [sp, #4]
	ldr	r3, [r3, #84]
	flds	s15, [r3, #56]
	fsts	s15, [sp, #180]
	.loc 4 69 0
	ldr	r3, [sp, #4]
	ldr	r3, [r3, #76]
	cmp	r3, #1
	bne	.L73
.LBB5:
	.loc 4 71 0
	ldr	r3, [sp, #0]
	ldr	r3, [r3, #20]
	str	r3, [sp, #192]
	.loc 4 72 0
	ldr	r3, [sp, #4]
	ldr	r2, [sp, #192]
	add	r3, r3, #108
	add	r2, r2, #68
	ldmia	r2, {r0, r1}
	stmia	r3, {r0, r1}
	.loc 4 73 0
	ldr	r3, [sp, #4]
	ldr	r2, [sp, #192]
	add	r3, r3, #92
	add	r2, r2, #76
	ldmia	r2, {r0, r1}
	stmia	r3, {r0, r1}
	.loc 4 74 0
	ldr	r3, [sp, #192]
	flds	s15, [r3, #116]
	ldr	r3, [sp, #4]
	fsts	s15, [r3, #140]
	.loc 4 75 0
	ldr	r3, [sp, #4]
	add	r3, r3, #124
	mov	r0, r3
	bl	_ZN6b2Vec27SetZeroEv
	.loc 4 77 0
	flds	s14, [sp, #176]
	flds	s15, [sp, #180]
	fsubs	s14, s14, s15
	ldr	r3, [sp, #4]
	flds	s15, [r3, #140]
	fsubs	s15, s14, s15
	fsts	s15, [sp, #168]
	b	.L74
.L73:
.LBE5:
.LBB6:
	.loc 4 81 0
	ldr	r3, [sp, #0]
	ldr	r3, [r3, #20]
	str	r3, [sp, #196]
	.loc 4 82 0
	ldr	r3, [sp, #4]
	ldr	r2, [sp, #196]
	add	r3, r3, #108
	add	r2, r2, #68
	ldmia	r2, {r0, r1}
	stmia	r3, {r0, r1}
	.loc 4 83 0
	ldr	r3, [sp, #4]
	ldr	r2, [sp, #196]
	add	r3, r3, #92
	add	r2, r2, #76
	ldmia	r2, {r0, r1}
	stmia	r3, {r0, r1}
	.loc 4 84 0
	ldr	r3, [sp, #196]
	flds	s15, [r3, #100]
	ldr	r3, [sp, #4]
	fsts	s15, [r3, #140]
	.loc 4 85 0
	ldr	r3, [sp, #4]
	ldr	r2, [sp, #196]
	add	r3, r3, #124
	add	r2, r2, #84
	ldmia	r2, {r0, r1}
	stmia	r3, {r0, r1}
	.loc 4 87 0
	ldr	r2, [sp, #4]
	add	r3, sp, #32
	add	r2, r2, #108
	ldmia	r2, {r0, r1}
	stmia	r3, {r0, r1}
	.loc 4 88 0
	ldr	r3, [sp, #4]
	add	r3, r3, #92
	add	r1, sp, #112
	add	r2, sp, #88
	add	r2, r2, #8
	mov	r0, r1
	mov	r1, r2
	mov	r2, r3
	bl	_Z5b2MulRK5b2RotRK6b2Vec2
	add	r1, sp, #120
	add	r2, sp, #88
	add	r3, sp, #72
	mov	r0, r1
	mov	r1, r2
	mov	r2, r3
	bl	_ZmiRK6b2Vec2S1_
	add	r1, sp, #104
	add	r2, sp, #112
	add	r3, sp, #120
	mov	r0, r1
	mov	r1, r2
	mov	r2, r3
	bl	_ZplRK6b2Vec2S1_
	add	r1, sp, #24
	add	r3, sp, #72
	add	r2, r3, #8
	add	r3, sp, #104
	mov	r0, r1
	mov	r1, r2
	mov	r2, r3
	bl	_Z6b2MulTRK5b2RotRK6b2Vec2
	.loc 4 89 0
	add	r1, sp, #128
	add	r2, sp, #24
	add	r3, sp, #32
	mov	r0, r1
	mov	r1, r2
	mov	r2, r3
	bl	_ZmiRK6b2Vec2S1_
	ldr	r3, [sp, #4]
	add	r3, r3, #124
	add	r2, sp, #128
	mov	r0, r2
	mov	r1, r3
	bl	_Z5b2DotRK6b2Vec2S1_
	mov	r3, r0	@ float
	str	r3, [sp, #168]	@ float
.L74:
.LBE6:
	.loc 4 92 0
	ldr	r3, [sp, #4]
	ldr	r3, [r3, #72]
	mov	r0, r3
	bl	_ZN7b2Joint8GetBodyAEv
	mov	r2, r0
	ldr	r3, [sp, #4]
	str	r2, [r3, #88]
	.loc 4 93 0
	ldr	r3, [sp, #4]
	ldr	r3, [r3, #72]
	mov	r0, r3
	bl	_ZN7b2Joint8GetBodyBEv
	mov	r2, r0
	ldr	r3, [sp, #4]
	str	r2, [r3, #52]
	.loc 4 96 0
	ldr	r3, [sp, #4]
	ldr	r3, [r3, #52]
	add	ip, sp, #56
	add	r3, r3, #12
	ldmia	r3, {r0, r1, r2, r3}
	stmia	ip, {r0, r1, r2, r3}
	.loc 4 97 0
	ldr	r3, [sp, #4]
	ldr	r3, [r3, #52]
	flds	s15, [r3, #56]
	fsts	s15, [sp, #184]
	.loc 4 98 0
	ldr	r3, [sp, #4]
	ldr	r3, [r3, #88]
	add	ip, sp, #40
	add	r3, r3, #12
	ldmia	r3, {r0, r1, r2, r3}
	stmia	ip, {r0, r1, r2, r3}
	.loc 4 99 0
	ldr	r3, [sp, #4]
	ldr	r3, [r3, #88]
	flds	s15, [r3, #56]
	fsts	s15, [sp, #188]
	.loc 4 101 0
	ldr	r3, [sp, #4]
	ldr	r3, [r3, #80]
	cmp	r3, #1
	bne	.L75
.LBB7:
	.loc 4 103 0
	ldr	r3, [sp, #0]
	ldr	r3, [r3, #24]
	str	r3, [sp, #200]
	.loc 4 104 0
	ldr	r3, [sp, #4]
	ldr	r2, [sp, #200]
	add	r3, r3, #116
	add	r2, r2, #68
	ldmia	r2, {r0, r1}
	stmia	r3, {r0, r1}
	.loc 4 105 0
	ldr	r3, [sp, #4]
	ldr	r2, [sp, #200]
	add	r3, r3, #100
	add	r2, r2, #76
	ldmia	r2, {r0, r1}
	stmia	r3, {r0, r1}
	.loc 4 106 0
	ldr	r3, [sp, #200]
	flds	s15, [r3, #116]
	ldr	r3, [sp, #4]
	fsts	s15, [r3, #144]
	.loc 4 107 0
	ldr	r3, [sp, #4]
	add	r3, r3, #132
	mov	r0, r3
	bl	_ZN6b2Vec27SetZeroEv
	.loc 4 109 0
	flds	s14, [sp, #184]
	flds	s15, [sp, #188]
	fsubs	s14, s14, s15
	ldr	r3, [sp, #4]
	flds	s15, [r3, #144]
	fsubs	s15, s14, s15
	fsts	s15, [sp, #172]
	b	.L76
.L75:
.LBE7:
.LBB8:
	.loc 4 113 0
	ldr	r3, [sp, #0]
	ldr	r3, [r3, #24]
	str	r3, [sp, #204]
	.loc 4 114 0
	ldr	r3, [sp, #4]
	ldr	r2, [sp, #204]
	add	r3, r3, #116
	add	r2, r2, #68
	ldmia	r2, {r0, r1}
	stmia	r3, {r0, r1}
	.loc 4 115 0
	ldr	r3, [sp, #4]
	ldr	r2, [sp, #204]
	add	r3, r3, #100
	add	r2, r2, #76
	ldmia	r2, {r0, r1}
	stmia	r3, {r0, r1}
	.loc 4 116 0
	ldr	r3, [sp, #204]
	flds	s15, [r3, #100]
	ldr	r3, [sp, #4]
	fsts	s15, [r3, #144]
	.loc 4 117 0
	ldr	r3, [sp, #4]
	ldr	r2, [sp, #204]
	add	r3, r3, #132
	add	r2, r2, #84
	ldmia	r2, {r0, r1}
	stmia	r3, {r0, r1}
	.loc 4 119 0
	ldr	r2, [sp, #4]
	add	r3, sp, #16
	add	r2, r2, #116
	ldmia	r2, {r0, r1}
	stmia	r3, {r0, r1}
	.loc 4 120 0
	ldr	r3, [sp, #4]
	add	r3, r3, #100
	add	r1, sp, #144
	add	r2, sp, #56
	add	r2, r2, #8
	mov	r0, r1
	mov	r1, r2
	mov	r2, r3
	bl	_Z5b2MulRK5b2RotRK6b2Vec2
	add	r1, sp, #152
	add	r2, sp, #56
	add	r3, sp, #40
	mov	r0, r1
	mov	r1, r2
	mov	r2, r3
	bl	_ZmiRK6b2Vec2S1_
	add	r1, sp, #136
	add	r2, sp, #144
	add	r3, sp, #152
	mov	r0, r1
	mov	r1, r2
	mov	r2, r3
	bl	_ZplRK6b2Vec2S1_
	add	r1, sp, #8
	add	r3, sp, #40
	add	r2, r3, #8
	add	r3, sp, #136
	mov	r0, r1
	mov	r1, r2
	mov	r2, r3
	bl	_Z6b2MulTRK5b2RotRK6b2Vec2
	.loc 4 121 0
	add	r1, sp, #160
	add	r2, sp, #8
	add	r3, sp, #16
	mov	r0, r1
	mov	r1, r2
	mov	r2, r3
	bl	_ZmiRK6b2Vec2S1_
	ldr	r3, [sp, #4]
	add	r3, r3, #132
	add	r2, sp, #160
	mov	r0, r2
	mov	r1, r3
	bl	_Z5b2DotRK6b2Vec2S1_
	mov	r3, r0	@ float
	str	r3, [sp, #172]	@ float
.L76:
.LBE8:
	.loc 4 124 0
	ldr	r3, [sp, #0]
	flds	s15, [r3, #28]
	ldr	r3, [sp, #4]
	fsts	s15, [r3, #152]
	.loc 4 126 0
	ldr	r3, [sp, #4]
	flds	s14, [r3, #152]
	flds	s15, [sp, #172]
	fmuls	s15, s14, s15
	flds	s14, [sp, #168]
	fadds	s15, s15, s14
	ldr	r3, [sp, #4]
	fsts	s15, [r3, #148]
	.loc 4 128 0
	ldr	r3, [sp, #4]
	flds	s15, .L79
	fsts	s15, [r3, #156]
.LBE4:
	.loc 4 129 0
	ldr	r3, [sp, #4]
	mov	r0, r3
	add	sp, sp, #212
	ldmfd	sp!, {pc}
.L80:
	.align	2
.L79:
	.word	0
	.word	_ZTV11b2GearJoint+8
	.word	.LC1
	.word	.LC2
	.word	.LC3
	.cfi_endproc
.LFE524:
	.size	_ZN11b2GearJointC2EPK14b2GearJointDef, .-_ZN11b2GearJointC2EPK14b2GearJointDef
	.section	.text._ZN11b2GearJointC1EPK14b2GearJointDef,"ax",%progbits
	.align	2
	.global	_ZN11b2GearJointC1EPK14b2GearJointDef
	.hidden	_ZN11b2GearJointC1EPK14b2GearJointDef
	.type	_ZN11b2GearJointC1EPK14b2GearJointDef, %function
_ZN11b2GearJointC1EPK14b2GearJointDef:
.LFB525:
	.loc 4 44 0
	.cfi_startproc
	@ args = 0, pretend = 0, frame = 208
	@ frame_needed = 0, uses_anonymous_args = 0
	str	lr, [sp, #-4]!
.LCFI38:
	.cfi_def_cfa_offset 4
	sub	sp, sp, #212
.LCFI39:
	.cfi_def_cfa_offset 216
	str	r0, [sp, #4]
	str	r1, [sp, #0]
	.loc 4 45 0
	ldr	r2, [sp, #4]
	ldr	r3, [sp, #0]
	mov	r0, r2
	mov	r1, r3
	.cfi_offset 14, -4
	bl	_ZN7b2JointC2EPK10b2JointDef
	ldr	r3, [sp, #4]
	ldr	r2, .L90+4
	str	r2, [r3, #0]
	ldr	r3, [sp, #4]
	add	r3, r3, #92
	mov	r0, r3
	bl	_ZN6b2Vec2C1Ev
	ldr	r3, [sp, #4]
	add	r3, r3, #100
	mov	r0, r3
	bl	_ZN6b2Vec2C1Ev
	ldr	r3, [sp, #4]
	add	r3, r3, #108
	mov	r0, r3
	bl	_ZN6b2Vec2C1Ev
	ldr	r3, [sp, #4]
	add	r3, r3, #116
	mov	r0, r3
	bl	_ZN6b2Vec2C1Ev
	ldr	r3, [sp, #4]
	add	r3, r3, #124
	mov	r0, r3
	bl	_ZN6b2Vec2C1Ev
	ldr	r3, [sp, #4]
	add	r3, r3, #132
	mov	r0, r3
	bl	_ZN6b2Vec2C1Ev
	ldr	r3, [sp, #4]
	add	r3, r3, #176
	mov	r0, r3
	bl	_ZN6b2Vec2C1Ev
	ldr	r3, [sp, #4]
	add	r3, r3, #184
	mov	r0, r3
	bl	_ZN6b2Vec2C1Ev
	ldr	r3, [sp, #4]
	add	r3, r3, #192
	mov	r0, r3
	bl	_ZN6b2Vec2C1Ev
	ldr	r3, [sp, #4]
	add	r3, r3, #200
	mov	r0, r3
	bl	_ZN6b2Vec2C1Ev
	ldr	r3, [sp, #4]
	add	r3, r3, #240
	mov	r0, r3
	bl	_ZN6b2Vec2C1Ev
	ldr	r3, [sp, #4]
	add	r3, r3, #248
	mov	r0, r3
	bl	_ZN6b2Vec2C1Ev
.LBB9:
	.loc 4 47 0
	ldr	r3, [sp, #0]
	ldr	r2, [r3, #20]
	ldr	r3, [sp, #4]
	str	r2, [r3, #68]
	.loc 4 48 0
	ldr	r3, [sp, #0]
	ldr	r2, [r3, #24]
	ldr	r3, [sp, #4]
	str	r2, [r3, #72]
	.loc 4 50 0
	ldr	r3, [sp, #4]
	ldr	r3, [r3, #68]
	mov	r0, r3
	bl	_ZNK7b2Joint7GetTypeEv
	mov	r2, r0
	ldr	r3, [sp, #4]
	str	r2, [r3, #76]
	.loc 4 51 0
	ldr	r3, [sp, #4]
	ldr	r3, [r3, #72]
	mov	r0, r3
	bl	_ZNK7b2Joint7GetTypeEv
	mov	r2, r0
	ldr	r3, [sp, #4]
	str	r2, [r3, #80]
	.loc 4 53 0
	ldr	r3, [sp, #4]
	ldr	r3, [r3, #76]
	cmp	r3, #1
	beq	.L82
	ldr	r3, [sp, #4]
	ldr	r3, [r3, #76]
	cmp	r3, #2
	beq	.L82
	ldr	r0, .L90+8
	mov	r1, #53
	ldr	r2, .L90+12
	bl	__assert
.L82:
	.loc 4 54 0
	ldr	r3, [sp, #4]
	ldr	r3, [r3, #80]
	cmp	r3, #1
	beq	.L83
	ldr	r3, [sp, #4]
	ldr	r3, [r3, #80]
	cmp	r3, #2
	beq	.L83
	ldr	r0, .L90+8
	mov	r1, #54
	ldr	r2, .L90+16
	bl	__assert
.L83:
	.loc 4 60 0
	ldr	r3, [sp, #4]
	ldr	r3, [r3, #68]
	mov	r0, r3
	bl	_ZN7b2Joint8GetBodyAEv
	mov	r2, r0
	ldr	r3, [sp, #4]
	str	r2, [r3, #84]
	.loc 4 61 0
	ldr	r3, [sp, #4]
	ldr	r3, [r3, #68]
	mov	r0, r3
	bl	_ZN7b2Joint8GetBodyBEv
	mov	r2, r0
	ldr	r3, [sp, #4]
	str	r2, [r3, #48]
	.loc 4 64 0
	ldr	r3, [sp, #4]
	ldr	r3, [r3, #48]
	add	ip, sp, #88
	add	r3, r3, #12
	ldmia	r3, {r0, r1, r2, r3}
	stmia	ip, {r0, r1, r2, r3}
	.loc 4 65 0
	ldr	r3, [sp, #4]
	ldr	r3, [r3, #48]
	flds	s15, [r3, #56]
	fsts	s15, [sp, #176]
	.loc 4 66 0
	ldr	r3, [sp, #4]
	ldr	r3, [r3, #84]
	add	ip, sp, #72
	add	r3, r3, #12
	ldmia	r3, {r0, r1, r2, r3}
	stmia	ip, {r0, r1, r2, r3}
	.loc 4 67 0
	ldr	r3, [sp, #4]
	ldr	r3, [r3, #84]
	flds	s15, [r3, #56]
	fsts	s15, [sp, #180]
	.loc 4 69 0
	ldr	r3, [sp, #4]
	ldr	r3, [r3, #76]
	cmp	r3, #1
	bne	.L84
.LBB10:
	.loc 4 71 0
	ldr	r3, [sp, #0]
	ldr	r3, [r3, #20]
	str	r3, [sp, #192]
	.loc 4 72 0
	ldr	r3, [sp, #4]
	ldr	r2, [sp, #192]
	add	r3, r3, #108
	add	r2, r2, #68
	ldmia	r2, {r0, r1}
	stmia	r3, {r0, r1}
	.loc 4 73 0
	ldr	r3, [sp, #4]
	ldr	r2, [sp, #192]
	add	r3, r3, #92
	add	r2, r2, #76
	ldmia	r2, {r0, r1}
	stmia	r3, {r0, r1}
	.loc 4 74 0
	ldr	r3, [sp, #192]
	flds	s15, [r3, #116]
	ldr	r3, [sp, #4]
	fsts	s15, [r3, #140]
	.loc 4 75 0
	ldr	r3, [sp, #4]
	add	r3, r3, #124
	mov	r0, r3
	bl	_ZN6b2Vec27SetZeroEv
	.loc 4 77 0
	flds	s14, [sp, #176]
	flds	s15, [sp, #180]
	fsubs	s14, s14, s15
	ldr	r3, [sp, #4]
	flds	s15, [r3, #140]
	fsubs	s15, s14, s15
	fsts	s15, [sp, #168]
	b	.L85
.L84:
.LBE10:
.LBB11:
	.loc 4 81 0
	ldr	r3, [sp, #0]
	ldr	r3, [r3, #20]
	str	r3, [sp, #196]
	.loc 4 82 0
	ldr	r3, [sp, #4]
	ldr	r2, [sp, #196]
	add	r3, r3, #108
	add	r2, r2, #68
	ldmia	r2, {r0, r1}
	stmia	r3, {r0, r1}
	.loc 4 83 0
	ldr	r3, [sp, #4]
	ldr	r2, [sp, #196]
	add	r3, r3, #92
	add	r2, r2, #76
	ldmia	r2, {r0, r1}
	stmia	r3, {r0, r1}
	.loc 4 84 0
	ldr	r3, [sp, #196]
	flds	s15, [r3, #100]
	ldr	r3, [sp, #4]
	fsts	s15, [r3, #140]
	.loc 4 85 0
	ldr	r3, [sp, #4]
	ldr	r2, [sp, #196]
	add	r3, r3, #124
	add	r2, r2, #84
	ldmia	r2, {r0, r1}
	stmia	r3, {r0, r1}
	.loc 4 87 0
	ldr	r2, [sp, #4]
	add	r3, sp, #32
	add	r2, r2, #108
	ldmia	r2, {r0, r1}
	stmia	r3, {r0, r1}
	.loc 4 88 0
	ldr	r3, [sp, #4]
	add	r3, r3, #92
	add	r1, sp, #112
	add	r2, sp, #88
	add	r2, r2, #8
	mov	r0, r1
	mov	r1, r2
	mov	r2, r3
	bl	_Z5b2MulRK5b2RotRK6b2Vec2
	add	r1, sp, #120
	add	r2, sp, #88
	add	r3, sp, #72
	mov	r0, r1
	mov	r1, r2
	mov	r2, r3
	bl	_ZmiRK6b2Vec2S1_
	add	r1, sp, #104
	add	r2, sp, #112
	add	r3, sp, #120
	mov	r0, r1
	mov	r1, r2
	mov	r2, r3
	bl	_ZplRK6b2Vec2S1_
	add	r1, sp, #24
	add	r3, sp, #72
	add	r2, r3, #8
	add	r3, sp, #104
	mov	r0, r1
	mov	r1, r2
	mov	r2, r3
	bl	_Z6b2MulTRK5b2RotRK6b2Vec2
	.loc 4 89 0
	add	r1, sp, #128
	add	r2, sp, #24
	add	r3, sp, #32
	mov	r0, r1
	mov	r1, r2
	mov	r2, r3
	bl	_ZmiRK6b2Vec2S1_
	ldr	r3, [sp, #4]
	add	r3, r3, #124
	add	r2, sp, #128
	mov	r0, r2
	mov	r1, r3
	bl	_Z5b2DotRK6b2Vec2S1_
	mov	r3, r0	@ float
	str	r3, [sp, #168]	@ float
.L85:
.LBE11:
	.loc 4 92 0
	ldr	r3, [sp, #4]
	ldr	r3, [r3, #72]
	mov	r0, r3
	bl	_ZN7b2Joint8GetBodyAEv
	mov	r2, r0
	ldr	r3, [sp, #4]
	str	r2, [r3, #88]
	.loc 4 93 0
	ldr	r3, [sp, #4]
	ldr	r3, [r3, #72]
	mov	r0, r3
	bl	_ZN7b2Joint8GetBodyBEv
	mov	r2, r0
	ldr	r3, [sp, #4]
	str	r2, [r3, #52]
	.loc 4 96 0
	ldr	r3, [sp, #4]
	ldr	r3, [r3, #52]
	add	ip, sp, #56
	add	r3, r3, #12
	ldmia	r3, {r0, r1, r2, r3}
	stmia	ip, {r0, r1, r2, r3}
	.loc 4 97 0
	ldr	r3, [sp, #4]
	ldr	r3, [r3, #52]
	flds	s15, [r3, #56]
	fsts	s15, [sp, #184]
	.loc 4 98 0
	ldr	r3, [sp, #4]
	ldr	r3, [r3, #88]
	add	ip, sp, #40
	add	r3, r3, #12
	ldmia	r3, {r0, r1, r2, r3}
	stmia	ip, {r0, r1, r2, r3}
	.loc 4 99 0
	ldr	r3, [sp, #4]
	ldr	r3, [r3, #88]
	flds	s15, [r3, #56]
	fsts	s15, [sp, #188]
	.loc 4 101 0
	ldr	r3, [sp, #4]
	ldr	r3, [r3, #80]
	cmp	r3, #1
	bne	.L86
.LBB12:
	.loc 4 103 0
	ldr	r3, [sp, #0]
	ldr	r3, [r3, #24]
	str	r3, [sp, #200]
	.loc 4 104 0
	ldr	r3, [sp, #4]
	ldr	r2, [sp, #200]
	add	r3, r3, #116
	add	r2, r2, #68
	ldmia	r2, {r0, r1}
	stmia	r3, {r0, r1}
	.loc 4 105 0
	ldr	r3, [sp, #4]
	ldr	r2, [sp, #200]
	add	r3, r3, #100
	add	r2, r2, #76
	ldmia	r2, {r0, r1}
	stmia	r3, {r0, r1}
	.loc 4 106 0
	ldr	r3, [sp, #200]
	flds	s15, [r3, #116]
	ldr	r3, [sp, #4]
	fsts	s15, [r3, #144]
	.loc 4 107 0
	ldr	r3, [sp, #4]
	add	r3, r3, #132
	mov	r0, r3
	bl	_ZN6b2Vec27SetZeroEv
	.loc 4 109 0
	flds	s14, [sp, #184]
	flds	s15, [sp, #188]
	fsubs	s14, s14, s15
	ldr	r3, [sp, #4]
	flds	s15, [r3, #144]
	fsubs	s15, s14, s15
	fsts	s15, [sp, #172]
	b	.L87
.L86:
.LBE12:
.LBB13:
	.loc 4 113 0
	ldr	r3, [sp, #0]
	ldr	r3, [r3, #24]
	str	r3, [sp, #204]
	.loc 4 114 0
	ldr	r3, [sp, #4]
	ldr	r2, [sp, #204]
	add	r3, r3, #116
	add	r2, r2, #68
	ldmia	r2, {r0, r1}
	stmia	r3, {r0, r1}
	.loc 4 115 0
	ldr	r3, [sp, #4]
	ldr	r2, [sp, #204]
	add	r3, r3, #100
	add	r2, r2, #76
	ldmia	r2, {r0, r1}
	stmia	r3, {r0, r1}
	.loc 4 116 0
	ldr	r3, [sp, #204]
	flds	s15, [r3, #100]
	ldr	r3, [sp, #4]
	fsts	s15, [r3, #144]
	.loc 4 117 0
	ldr	r3, [sp, #4]
	ldr	r2, [sp, #204]
	add	r3, r3, #132
	add	r2, r2, #84
	ldmia	r2, {r0, r1}
	stmia	r3, {r0, r1}
	.loc 4 119 0
	ldr	r2, [sp, #4]
	add	r3, sp, #16
	add	r2, r2, #116
	ldmia	r2, {r0, r1}
	stmia	r3, {r0, r1}
	.loc 4 120 0
	ldr	r3, [sp, #4]
	add	r3, r3, #100
	add	r1, sp, #144
	add	r2, sp, #56
	add	r2, r2, #8
	mov	r0, r1
	mov	r1, r2
	mov	r2, r3
	bl	_Z5b2MulRK5b2RotRK6b2Vec2
	add	r1, sp, #152
	add	r2, sp, #56
	add	r3, sp, #40
	mov	r0, r1
	mov	r1, r2
	mov	r2, r3
	bl	_ZmiRK6b2Vec2S1_
	add	r1, sp, #136
	add	r2, sp, #144
	add	r3, sp, #152
	mov	r0, r1
	mov	r1, r2
	mov	r2, r3
	bl	_ZplRK6b2Vec2S1_
	add	r1, sp, #8
	add	r3, sp, #40
	add	r2, r3, #8
	add	r3, sp, #136
	mov	r0, r1
	mov	r1, r2
	mov	r2, r3
	bl	_Z6b2MulTRK5b2RotRK6b2Vec2
	.loc 4 121 0
	add	r1, sp, #160
	add	r2, sp, #8
	add	r3, sp, #16
	mov	r0, r1
	mov	r1, r2
	mov	r2, r3
	bl	_ZmiRK6b2Vec2S1_
	ldr	r3, [sp, #4]
	add	r3, r3, #132
	add	r2, sp, #160
	mov	r0, r2
	mov	r1, r3
	bl	_Z5b2DotRK6b2Vec2S1_
	mov	r3, r0	@ float
	str	r3, [sp, #172]	@ float
.L87:
.LBE13:
	.loc 4 124 0
	ldr	r3, [sp, #0]
	flds	s15, [r3, #28]
	ldr	r3, [sp, #4]
	fsts	s15, [r3, #152]
	.loc 4 126 0
	ldr	r3, [sp, #4]
	flds	s14, [r3, #152]
	flds	s15, [sp, #172]
	fmuls	s15, s14, s15
	flds	s14, [sp, #168]
	fadds	s15, s15, s14
	ldr	r3, [sp, #4]
	fsts	s15, [r3, #148]
	.loc 4 128 0
	ldr	r3, [sp, #4]
	flds	s15, .L90
	fsts	s15, [r3, #156]
.LBE9:
	.loc 4 129 0
	ldr	r3, [sp, #4]
	mov	r0, r3
	add	sp, sp, #212
	ldmfd	sp!, {pc}
.L91:
	.align	2
.L90:
	.word	0
	.word	_ZTV11b2GearJoint+8
	.word	.LC1
	.word	.LC2
	.word	.LC3
	.cfi_endproc
.LFE525:
	.size	_ZN11b2GearJointC1EPK14b2GearJointDef, .-_ZN11b2GearJointC1EPK14b2GearJointDef
	.section	.text._ZN11b2GearJoint23InitVelocityConstraintsERK12b2SolverData,"ax",%progbits
	.align	2
	.global	_ZN11b2GearJoint23InitVelocityConstraintsERK12b2SolverData
	.hidden	_ZN11b2GearJoint23InitVelocityConstraintsERK12b2SolverData
	.type	_ZN11b2GearJoint23InitVelocityConstraintsERK12b2SolverData, %function
_ZN11b2GearJoint23InitVelocityConstraintsERK12b2SolverData:
.LFB526:
	.loc 4 132 0
	.cfi_startproc
	@ args = 0, pretend = 0, frame = 224
	@ frame_needed = 0, uses_anonymous_args = 0
	stmfd	sp!, {r4, lr}
.LCFI40:
	.cfi_def_cfa_offset 8
	fstmfdd	sp!, {d8}
.LCFI41:
	.cfi_def_cfa_offset 16
	sub	sp, sp, #224
.LCFI42:
	.cfi_def_cfa_offset 240
	str	r0, [sp, #12]
	str	r1, [sp, #8]
.LBB14:
	.loc 4 133 0
	ldr	r3, [sp, #12]
	ldr	r3, [r3, #48]
	ldr	r2, [r3, #8]
	ldr	r3, [sp, #12]
	str	r2, [r3, #160]
	.loc 4 134 0
	ldr	r3, [sp, #12]
	ldr	r3, [r3, #52]
	ldr	r2, [r3, #8]
	ldr	r3, [sp, #12]
	str	r2, [r3, #164]
	.loc 4 135 0
	ldr	r3, [sp, #12]
	ldr	r3, [r3, #84]
	ldr	r2, [r3, #8]
	ldr	r3, [sp, #12]
	str	r2, [r3, #168]
	.loc 4 136 0
	ldr	r3, [sp, #12]
	ldr	r3, [r3, #88]
	ldr	r2, [r3, #8]
	ldr	r3, [sp, #12]
	str	r2, [r3, #172]
	.loc 4 137 0
	ldr	r3, [sp, #12]
	ldr	r2, [r3, #48]
	ldr	r3, [sp, #12]
	add	r3, r3, #176
	add	r2, r2, #28
	ldmia	r2, {r0, r1}
	stmia	r3, {r0, r1}
	.loc 4 138 0
	ldr	r3, [sp, #12]
	ldr	r2, [r3, #52]
	ldr	r3, [sp, #12]
	add	r3, r3, #184
	add	r2, r2, #28
	ldmia	r2, {r0, r1}
	stmia	r3, {r0, r1}
	.loc 4 139 0
	ldr	r3, [sp, #12]
	ldr	r2, [r3, #84]
	ldr	r3, [sp, #12]
	add	r3, r3, #192
	add	r2, r2, #28
	ldmia	r2, {r0, r1}
	stmia	r3, {r0, r1}
	.loc 4 140 0
	ldr	r3, [sp, #12]
	ldr	r2, [r3, #88]
	ldr	r3, [sp, #12]
	add	r3, r3, #200
	add	r2, r2, #28
	ldmia	r2, {r0, r1}
	stmia	r3, {r0, r1}
	.loc 4 141 0
	ldr	r3, [sp, #12]
	ldr	r3, [r3, #48]
	flds	s15, [r3, #120]
	ldr	r3, [sp, #12]
	fsts	s15, [r3, #208]
	.loc 4 142 0
	ldr	r3, [sp, #12]
	ldr	r3, [r3, #52]
	flds	s15, [r3, #120]
	ldr	r3, [sp, #12]
	fsts	s15, [r3, #212]
	.loc 4 143 0
	ldr	r3, [sp, #12]
	ldr	r3, [r3, #84]
	flds	s15, [r3, #120]
	ldr	r3, [sp, #12]
	fsts	s15, [r3, #216]
	.loc 4 144 0
	ldr	r3, [sp, #12]
	ldr	r3, [r3, #88]
	flds	s15, [r3, #120]
	ldr	r3, [sp, #12]
	fsts	s15, [r3, #220]
	.loc 4 145 0
	ldr	r3, [sp, #12]
	ldr	r3, [r3, #48]
	flds	s15, [r3, #128]
	ldr	r3, [sp, #12]
	fsts	s15, [r3, #224]
	.loc 4 146 0
	ldr	r3, [sp, #12]
	ldr	r3, [r3, #52]
	flds	s15, [r3, #128]
	ldr	r3, [sp, #12]
	fsts	s15, [r3, #228]
	.loc 4 147 0
	ldr	r3, [sp, #12]
	ldr	r3, [r3, #84]
	flds	s15, [r3, #128]
	ldr	r3, [sp, #12]
	fsts	s15, [r3, #232]
	.loc 4 148 0
	ldr	r3, [sp, #12]
	ldr	r3, [r3, #88]
	flds	s15, [r3, #128]
	ldr	r3, [sp, #12]
	fsts	s15, [r3, #236]
	.loc 4 150 0
	ldr	r3, [sp, #8]
	ldr	r1, [r3, #24]
	ldr	r3, [sp, #12]
	ldr	r3, [r3, #160]
	mov	r2, r3
	mov	r3, r2
	mov	r3, r3, asl #1
	add	r3, r3, r2
	mov	r3, r3, asl #2
	add	r3, r1, r3
	flds	s15, [r3, #8]
	fsts	s15, [sp, #192]
	.loc 4 151 0
	ldr	r3, [sp, #8]
	ldr	r1, [r3, #28]
	ldr	r3, [sp, #12]
	ldr	r3, [r3, #160]
	mov	r2, r3
	mov	r3, r2
	mov	r3, r3, asl #1
	add	r3, r3, r2
	mov	r3, r3, asl #2
	add	r2, r1, r3
	add	r3, sp, #120
	ldmia	r2, {r0, r1}
	stmia	r3, {r0, r1}
	.loc 4 152 0
	ldr	r3, [sp, #8]
	ldr	r1, [r3, #28]
	ldr	r3, [sp, #12]
	ldr	r3, [r3, #160]
	mov	r2, r3
	mov	r3, r2
	mov	r3, r3, asl #1
	add	r3, r3, r2
	mov	r3, r3, asl #2
	add	r3, r1, r3
	flds	s15, [r3, #8]
	fsts	s15, [sp, #196]
	.loc 4 154 0
	ldr	r3, [sp, #8]
	ldr	r1, [r3, #24]
	ldr	r3, [sp, #12]
	ldr	r3, [r3, #164]
	mov	r2, r3
	mov	r3, r2
	mov	r3, r3, asl #1
	add	r3, r3, r2
	mov	r3, r3, asl #2
	add	r3, r1, r3
	flds	s15, [r3, #8]
	fsts	s15, [sp, #200]
	.loc 4 155 0
	ldr	r3, [sp, #8]
	ldr	r1, [r3, #28]
	ldr	r3, [sp, #12]
	ldr	r3, [r3, #164]
	mov	r2, r3
	mov	r3, r2
	mov	r3, r3, asl #1
	add	r3, r3, r2
	mov	r3, r3, asl #2
	add	r2, r1, r3
	add	r3, sp, #112
	ldmia	r2, {r0, r1}
	stmia	r3, {r0, r1}
	.loc 4 156 0
	ldr	r3, [sp, #8]
	ldr	r1, [r3, #28]
	ldr	r3, [sp, #12]
	ldr	r3, [r3, #164]
	mov	r2, r3
	mov	r3, r2
	mov	r3, r3, asl #1
	add	r3, r3, r2
	mov	r3, r3, asl #2
	add	r3, r1, r3
	flds	s15, [r3, #8]
	fsts	s15, [sp, #204]
	.loc 4 158 0
	ldr	r3, [sp, #8]
	ldr	r1, [r3, #24]
	ldr	r3, [sp, #12]
	ldr	r3, [r3, #168]
	mov	r2, r3
	mov	r3, r2
	mov	r3, r3, asl #1
	add	r3, r3, r2
	mov	r3, r3, asl #2
	add	r3, r1, r3
	flds	s15, [r3, #8]
	fsts	s15, [sp, #208]
	.loc 4 159 0
	ldr	r3, [sp, #8]
	ldr	r1, [r3, #28]
	ldr	r3, [sp, #12]
	ldr	r3, [r3, #168]
	mov	r2, r3
	mov	r3, r2
	mov	r3, r3, asl #1
	add	r3, r3, r2
	mov	r3, r3, asl #2
	add	r2, r1, r3
	add	r3, sp, #104
	ldmia	r2, {r0, r1}
	stmia	r3, {r0, r1}
	.loc 4 160 0
	ldr	r3, [sp, #8]
	ldr	r1, [r3, #28]
	ldr	r3, [sp, #12]
	ldr	r3, [r3, #168]
	mov	r2, r3
	mov	r3, r2
	mov	r3, r3, asl #1
	add	r3, r3, r2
	mov	r3, r3, asl #2
	add	r3, r1, r3
	flds	s15, [r3, #8]
	fsts	s15, [sp, #212]
	.loc 4 162 0
	ldr	r3, [sp, #8]
	ldr	r1, [r3, #24]
	ldr	r3, [sp, #12]
	ldr	r3, [r3, #172]
	mov	r2, r3
	mov	r3, r2
	mov	r3, r3, asl #1
	add	r3, r3, r2
	mov	r3, r3, asl #2
	add	r3, r1, r3
	flds	s15, [r3, #8]
	fsts	s15, [sp, #216]
	.loc 4 163 0
	ldr	r3, [sp, #8]
	ldr	r1, [r3, #28]
	ldr	r3, [sp, #12]
	ldr	r3, [r3, #172]
	mov	r2, r3
	mov	r3, r2
	mov	r3, r3, asl #1
	add	r3, r3, r2
	mov	r3, r3, asl #2
	add	r2, r1, r3
	add	r3, sp, #96
	ldmia	r2, {r0, r1}
	stmia	r3, {r0, r1}
	.loc 4 164 0
	ldr	r3, [sp, #8]
	ldr	r1, [r3, #28]
	ldr	r3, [sp, #12]
	ldr	r3, [r3, #172]
	mov	r2, r3
	mov	r3, r2
	mov	r3, r3, asl #1
	add	r3, r3, r2
	mov	r3, r3, asl #2
	add	r3, r1, r3
	flds	s15, [r3, #8]
	fsts	s15, [sp, #220]
	.loc 4 166 0
	add	r3, sp, #88
	mov	r0, r3
	ldr	r1, [sp, #192]	@ float
	.cfi_offset 80, -16
	.cfi_offset 14, -4
	.cfi_offset 4, -8
	bl	_ZN5b2RotC1Ef
	add	r3, sp, #80
	mov	r0, r3
	ldr	r1, [sp, #200]	@ float
	bl	_ZN5b2RotC1Ef
	add	r3, sp, #72
	mov	r0, r3
	ldr	r1, [sp, #208]	@ float
	bl	_ZN5b2RotC1Ef
	add	r3, sp, #64
	mov	r0, r3
	ldr	r1, [sp, #216]	@ float
	bl	_ZN5b2RotC1Ef
	.loc 4 168 0
	ldr	r3, [sp, #12]
	flds	s15, .L102+4
	fsts	s15, [r3, #272]
	.loc 4 170 0
	ldr	r3, [sp, #12]
	ldr	r3, [r3, #76]
	cmp	r3, #1
	bne	.L93
	.loc 4 172 0
	ldr	r3, [sp, #12]
	add	r3, r3, #240
	mov	r0, r3
	bl	_ZN6b2Vec27SetZeroEv
	.loc 4 173 0
	ldr	r3, [sp, #12]
	flds	s15, .L102
	fsts	s15, [r3, #256]
	.loc 4 174 0
	ldr	r3, [sp, #12]
	flds	s15, .L102
	fsts	s15, [r3, #264]
	.loc 4 175 0
	ldr	r3, [sp, #12]
	flds	s14, [r3, #272]
	ldr	r3, [sp, #12]
	flds	s13, [r3, #224]
	ldr	r3, [sp, #12]
	flds	s15, [r3, #232]
	fadds	s15, s13, s15
	fadds	s15, s14, s15
	ldr	r3, [sp, #12]
	fsts	s15, [r3, #272]
	b	.L94
.L93:
.LBB15:
	.loc 4 179 0
	ldr	r3, [sp, #12]
	add	r3, r3, #124
	add	r1, sp, #56
	add	r2, sp, #72
	mov	r0, r1
	mov	r1, r2
	mov	r2, r3
	bl	_Z5b2MulRK5b2RotRK6b2Vec2
	.loc 4 180 0
	ldr	r3, [sp, #12]
	add	r2, r3, #108
	ldr	r3, [sp, #12]
	add	r3, r3, #192
	add	r1, sp, #128
	mov	r0, r1
	mov	r1, r2
	mov	r2, r3
	bl	_ZmiRK6b2Vec2S1_
	add	r1, sp, #48
	add	r2, sp, #72
	add	r3, sp, #128
	mov	r0, r1
	mov	r1, r2
	mov	r2, r3
	bl	_Z5b2MulRK5b2RotRK6b2Vec2
	.loc 4 181 0
	ldr	r3, [sp, #12]
	add	r2, r3, #92
	ldr	r3, [sp, #12]
	add	r3, r3, #176
	add	r1, sp, #136
	mov	r0, r1
	mov	r1, r2
	mov	r2, r3
	bl	_ZmiRK6b2Vec2S1_
	add	r1, sp, #40
	add	r2, sp, #88
	add	r3, sp, #136
	mov	r0, r1
	mov	r1, r2
	mov	r2, r3
	bl	_Z5b2MulRK5b2RotRK6b2Vec2
	.loc 4 182 0
	ldr	r3, [sp, #12]
	add	r3, r3, #240
	add	r2, sp, #56
	ldmia	r2, {r0, r1}
	stmia	r3, {r0, r1}
	.loc 4 183 0
	add	r2, sp, #48
	add	r3, sp, #56
	mov	r0, r2
	mov	r1, r3
	bl	_Z7b2CrossRK6b2Vec2S1_
	mov	r2, r0	@ float
	ldr	r3, [sp, #12]
	str	r2, [r3, #264]	@ float
	.loc 4 184 0
	add	r2, sp, #40
	add	r3, sp, #56
	mov	r0, r2
	mov	r1, r3
	bl	_Z7b2CrossRK6b2Vec2S1_
	mov	r2, r0	@ float
	ldr	r3, [sp, #12]
	str	r2, [r3, #256]	@ float
	.loc 4 185 0
	ldr	r3, [sp, #12]
	flds	s14, [r3, #272]
	ldr	r3, [sp, #12]
	flds	s13, [r3, #216]
	ldr	r3, [sp, #12]
	flds	s15, [r3, #208]
	fadds	s13, s13, s15
	ldr	r3, [sp, #12]
	flds	s12, [r3, #232]
	ldr	r3, [sp, #12]
	flds	s15, [r3, #264]
	fmuls	s15, s12, s15
	ldr	r3, [sp, #12]
	flds	s12, [r3, #264]
	fmuls	s15, s15, s12
	fadds	s13, s13, s15
	ldr	r3, [sp, #12]
	flds	s12, [r3, #224]
	ldr	r3, [sp, #12]
	flds	s15, [r3, #256]
	fmuls	s15, s12, s15
	ldr	r3, [sp, #12]
	flds	s12, [r3, #256]
	fmuls	s15, s15, s12
	fadds	s15, s13, s15
	fadds	s15, s14, s15
	ldr	r3, [sp, #12]
	fsts	s15, [r3, #272]
.L94:
.LBE15:
	.loc 4 188 0
	ldr	r3, [sp, #12]
	ldr	r3, [r3, #80]
	cmp	r3, #1
	bne	.L95
	.loc 4 190 0
	ldr	r3, [sp, #12]
	add	r3, r3, #248
	mov	r0, r3
	bl	_ZN6b2Vec27SetZeroEv
	.loc 4 191 0
	ldr	r3, [sp, #12]
	flds	s15, [r3, #152]
	ldr	r3, [sp, #12]
	fsts	s15, [r3, #260]
	.loc 4 192 0
	ldr	r3, [sp, #12]
	flds	s15, [r3, #152]
	ldr	r3, [sp, #12]
	fsts	s15, [r3, #268]
	.loc 4 193 0
	ldr	r3, [sp, #12]
	flds	s14, [r3, #272]
	ldr	r3, [sp, #12]
	flds	s13, [r3, #152]
	ldr	r3, [sp, #12]
	flds	s15, [r3, #152]
	fmuls	s15, s13, s15
	ldr	r3, [sp, #12]
	flds	s12, [r3, #228]
	ldr	r3, [sp, #12]
	flds	s13, [r3, #236]
	fadds	s13, s12, s13
	fmuls	s15, s15, s13
	fadds	s15, s14, s15
	ldr	r3, [sp, #12]
	fsts	s15, [r3, #272]
	b	.L96
.L103:
	.align	2
.L102:
	.word	1065353216
	.word	0
.L95:
.LBB16:
	.loc 4 197 0
	ldr	r3, [sp, #12]
	add	r3, r3, #132
	add	r1, sp, #32
	add	r2, sp, #64
	mov	r0, r1
	mov	r1, r2
	mov	r2, r3
	bl	_Z5b2MulRK5b2RotRK6b2Vec2
	.loc 4 198 0
	ldr	r3, [sp, #12]
	add	r2, r3, #116
	ldr	r3, [sp, #12]
	add	r3, r3, #200
	add	r1, sp, #144
	mov	r0, r1
	mov	r1, r2
	mov	r2, r3
	bl	_ZmiRK6b2Vec2S1_
	add	r1, sp, #24
	add	r2, sp, #64
	add	r3, sp, #144
	mov	r0, r1
	mov	r1, r2
	mov	r2, r3
	bl	_Z5b2MulRK5b2RotRK6b2Vec2
	.loc 4 199 0
	ldr	r3, [sp, #12]
	add	r2, r3, #100
	ldr	r3, [sp, #12]
	add	r3, r3, #184
	add	r1, sp, #152
	mov	r0, r1
	mov	r1, r2
	mov	r2, r3
	bl	_ZmiRK6b2Vec2S1_
	add	r1, sp, #16
	add	r2, sp, #80
	add	r3, sp, #152
	mov	r0, r1
	mov	r1, r2
	mov	r2, r3
	bl	_Z5b2MulRK5b2RotRK6b2Vec2
	.loc 4 200 0
	ldr	r3, [sp, #12]
	ldr	r2, [r3, #152]	@ float
	ldr	r4, [sp, #12]
	mov	r1, sp
	add	r3, sp, #32
	mov	r0, r1
	mov	r1, r2	@ float
	mov	r2, r3
	bl	_ZmlfRK6b2Vec2
	add	r3, r4, #248
	mov	r2, sp
	ldmia	r2, {r0, r1}
	stmia	r3, {r0, r1}
	.loc 4 201 0
	ldr	r3, [sp, #12]
	flds	s16, [r3, #152]
	add	r2, sp, #24
	add	r3, sp, #32
	mov	r0, r2
	mov	r1, r3
	bl	_Z7b2CrossRK6b2Vec2S1_
	fmsr	s15, r0
	fmuls	s15, s16, s15
	ldr	r3, [sp, #12]
	fsts	s15, [r3, #268]
	.loc 4 202 0
	ldr	r3, [sp, #12]
	flds	s16, [r3, #152]
	add	r2, sp, #16
	add	r3, sp, #32
	mov	r0, r2
	mov	r1, r3
	bl	_Z7b2CrossRK6b2Vec2S1_
	fmsr	s15, r0
	fmuls	s15, s16, s15
	ldr	r3, [sp, #12]
	fsts	s15, [r3, #260]
	.loc 4 203 0
	ldr	r3, [sp, #12]
	flds	s13, [r3, #272]
	ldr	r3, [sp, #12]
	flds	s14, [r3, #152]
	ldr	r3, [sp, #12]
	flds	s15, [r3, #152]
	fmuls	s15, s14, s15
	ldr	r3, [sp, #12]
	flds	s12, [r3, #220]
	ldr	r3, [sp, #12]
	flds	s14, [r3, #212]
	fadds	s14, s12, s14
	fmuls	s14, s15, s14
	ldr	r3, [sp, #12]
	flds	s12, [r3, #236]
	ldr	r3, [sp, #12]
	flds	s15, [r3, #268]
	fmuls	s15, s12, s15
	ldr	r3, [sp, #12]
	flds	s12, [r3, #268]
	fmuls	s15, s15, s12
	fadds	s14, s14, s15
	ldr	r3, [sp, #12]
	flds	s12, [r3, #228]
	ldr	r3, [sp, #12]
	flds	s15, [r3, #260]
	fmuls	s15, s12, s15
	ldr	r3, [sp, #12]
	flds	s12, [r3, #260]
	fmuls	s15, s15, s12
	fadds	s15, s14, s15
	fadds	s15, s13, s15
	ldr	r3, [sp, #12]
	fsts	s15, [r3, #272]
.L96:
.LBE16:
	.loc 4 207 0
	ldr	r3, [sp, #12]
	flds	s15, [r3, #272]
	fcmpezs	s15
	fmstat
	movle	r3, #0
	movgt	r3, #1
	and	r3, r3, #255
	cmp	r3, #0
	beq	.L97
	ldr	r3, [sp, #12]
	flds	s15, [r3, #272]
	flds	s14, .L102
	fdivs	s15, s14, s15
	b	.L98
.L97:
	flds	s15, .L102+4
.L98:
	ldr	r3, [sp, #12]
	fsts	s15, [r3, #272]
	.loc 4 209 0
	ldr	r3, [sp, #8]
	ldrb	r3, [r3, #20]	@ zero_extendqisi2
	cmp	r3, #0
	beq	.L99
	.loc 4 211 0
	ldr	r3, [sp, #12]
	flds	s14, [r3, #208]
	ldr	r3, [sp, #12]
	flds	s15, [r3, #156]
	fmuls	s15, s14, s15
	ldr	r3, [sp, #12]
	add	r3, r3, #240
	add	r2, sp, #160
	mov	r0, r2
	fmrs	r1, s15
	mov	r2, r3
	bl	_ZmlfRK6b2Vec2
	add	r2, sp, #120
	add	r3, sp, #160
	mov	r0, r2
	mov	r1, r3
	bl	_ZN6b2Vec2pLERKS_
	.loc 4 212 0
	ldr	r3, [sp, #12]
	flds	s14, [r3, #224]
	ldr	r3, [sp, #12]
	flds	s15, [r3, #156]
	fmuls	s15, s14, s15
	ldr	r3, [sp, #12]
	flds	s14, [r3, #256]
	fmuls	s15, s15, s14
	flds	s14, [sp, #196]
	fadds	s15, s14, s15
	fsts	s15, [sp, #196]
	.loc 4 213 0
	ldr	r3, [sp, #12]
	flds	s14, [r3, #212]
	ldr	r3, [sp, #12]
	flds	s15, [r3, #156]
	fmuls	s15, s14, s15
	ldr	r3, [sp, #12]
	add	r3, r3, #248
	add	r2, sp, #168
	mov	r0, r2
	fmrs	r1, s15
	mov	r2, r3
	bl	_ZmlfRK6b2Vec2
	add	r2, sp, #112
	add	r3, sp, #168
	mov	r0, r2
	mov	r1, r3
	bl	_ZN6b2Vec2pLERKS_
	.loc 4 214 0
	ldr	r3, [sp, #12]
	flds	s14, [r3, #228]
	ldr	r3, [sp, #12]
	flds	s15, [r3, #156]
	fmuls	s15, s14, s15
	ldr	r3, [sp, #12]
	flds	s14, [r3, #260]
	fmuls	s15, s15, s14
	flds	s14, [sp, #204]
	fadds	s15, s14, s15
	fsts	s15, [sp, #204]
	.loc 4 215 0
	ldr	r3, [sp, #12]
	flds	s14, [r3, #216]
	ldr	r3, [sp, #12]
	flds	s15, [r3, #156]
	fmuls	s15, s14, s15
	ldr	r3, [sp, #12]
	add	r3, r3, #240
	add	r2, sp, #176
	mov	r0, r2
	fmrs	r1, s15
	mov	r2, r3
	bl	_ZmlfRK6b2Vec2
	add	r2, sp, #104
	add	r3, sp, #176
	mov	r0, r2
	mov	r1, r3
	bl	_ZN6b2Vec2mIERKS_
	.loc 4 216 0
	ldr	r3, [sp, #12]
	flds	s14, [r3, #232]
	ldr	r3, [sp, #12]
	flds	s15, [r3, #156]
	fmuls	s15, s14, s15
	ldr	r3, [sp, #12]
	flds	s14, [r3, #264]
	fmuls	s15, s15, s14
	flds	s14, [sp, #212]
	fsubs	s15, s14, s15
	fsts	s15, [sp, #212]
	.loc 4 217 0
	ldr	r3, [sp, #12]
	flds	s14, [r3, #220]
	ldr	r3, [sp, #12]
	flds	s15, [r3, #156]
	fmuls	s15, s14, s15
	ldr	r3, [sp, #12]
	add	r3, r3, #248
	add	r2, sp, #184
	mov	r0, r2
	fmrs	r1, s15
	mov	r2, r3
	bl	_ZmlfRK6b2Vec2
	add	r2, sp, #96
	add	r3, sp, #184
	mov	r0, r2
	mov	r1, r3
	bl	_ZN6b2Vec2mIERKS_
	.loc 4 218 0
	ldr	r3, [sp, #12]
	flds	s14, [r3, #236]
	ldr	r3, [sp, #12]
	flds	s15, [r3, #156]
	fmuls	s15, s14, s15
	ldr	r3, [sp, #12]
	flds	s14, [r3, #268]
	fmuls	s15, s15, s14
	flds	s14, [sp, #220]
	fsubs	s15, s14, s15
	fsts	s15, [sp, #220]
	b	.L100
.L99:
	.loc 4 222 0
	ldr	r3, [sp, #12]
	flds	s15, .L102+4
	fsts	s15, [r3, #156]
.L100:
	.loc 4 225 0
	ldr	r3, [sp, #8]
	ldr	r1, [r3, #28]
	ldr	r3, [sp, #12]
	ldr	r3, [r3, #160]
	mov	r2, r3
	mov	r3, r2
	mov	r3, r3, asl #1
	add	r3, r3, r2
	mov	r3, r3, asl #2
	add	r3, r1, r3
	add	r2, sp, #120
	ldmia	r2, {r0, r1}
	stmia	r3, {r0, r1}
	.loc 4 226 0
	ldr	r3, [sp, #8]
	ldr	r1, [r3, #28]
	ldr	r3, [sp, #12]
	ldr	r3, [r3, #160]
	mov	r2, r3
	mov	r3, r2
	mov	r3, r3, asl #1
	add	r3, r3, r2
	mov	r3, r3, asl #2
	add	r3, r1, r3
	flds	s15, [sp, #196]
	fsts	s15, [r3, #8]
	.loc 4 227 0
	ldr	r3, [sp, #8]
	ldr	r1, [r3, #28]
	ldr	r3, [sp, #12]
	ldr	r3, [r3, #164]
	mov	r2, r3
	mov	r3, r2
	mov	r3, r3, asl #1
	add	r3, r3, r2
	mov	r3, r3, asl #2
	add	r3, r1, r3
	add	r2, sp, #112
	ldmia	r2, {r0, r1}
	stmia	r3, {r0, r1}
	.loc 4 228 0
	ldr	r3, [sp, #8]
	ldr	r1, [r3, #28]
	ldr	r3, [sp, #12]
	ldr	r3, [r3, #164]
	mov	r2, r3
	mov	r3, r2
	mov	r3, r3, asl #1
	add	r3, r3, r2
	mov	r3, r3, asl #2
	add	r3, r1, r3
	flds	s15, [sp, #204]
	fsts	s15, [r3, #8]
	.loc 4 229 0
	ldr	r3, [sp, #8]
	ldr	r1, [r3, #28]
	ldr	r3, [sp, #12]
	ldr	r3, [r3, #168]
	mov	r2, r3
	mov	r3, r2
	mov	r3, r3, asl #1
	add	r3, r3, r2
	mov	r3, r3, asl #2
	add	r3, r1, r3
	add	r2, sp, #104
	ldmia	r2, {r0, r1}
	stmia	r3, {r0, r1}
	.loc 4 230 0
	ldr	r3, [sp, #8]
	ldr	r1, [r3, #28]
	ldr	r3, [sp, #12]
	ldr	r3, [r3, #168]
	mov	r2, r3
	mov	r3, r2
	mov	r3, r3, asl #1
	add	r3, r3, r2
	mov	r3, r3, asl #2
	add	r3, r1, r3
	flds	s15, [sp, #212]
	fsts	s15, [r3, #8]
	.loc 4 231 0
	ldr	r3, [sp, #8]
	ldr	r1, [r3, #28]
	ldr	r3, [sp, #12]
	ldr	r3, [r3, #172]
	mov	r2, r3
	mov	r3, r2
	mov	r3, r3, asl #1
	add	r3, r3, r2
	mov	r3, r3, asl #2
	add	r3, r1, r3
	add	r2, sp, #96
	ldmia	r2, {r0, r1}
	stmia	r3, {r0, r1}
	.loc 4 232 0
	ldr	r3, [sp, #8]
	ldr	r1, [r3, #28]
	ldr	r3, [sp, #12]
	ldr	r3, [r3, #172]
	mov	r2, r3
	mov	r3, r2
	mov	r3, r3, asl #1
	add	r3, r3, r2
	mov	r3, r3, asl #2
	add	r3, r1, r3
	flds	s15, [sp, #220]
	fsts	s15, [r3, #8]
.LBE14:
	.loc 4 233 0
	add	sp, sp, #224
	fldmfdd	sp!, {d8}
	ldmfd	sp!, {r4, pc}
	.cfi_endproc
.LFE526:
	.size	_ZN11b2GearJoint23InitVelocityConstraintsERK12b2SolverData, .-_ZN11b2GearJoint23InitVelocityConstraintsERK12b2SolverData
	.section	.text._ZN11b2GearJoint24SolveVelocityConstraintsERK12b2SolverData,"ax",%progbits
	.align	2
	.global	_ZN11b2GearJoint24SolveVelocityConstraintsERK12b2SolverData
	.hidden	_ZN11b2GearJoint24SolveVelocityConstraintsERK12b2SolverData
	.type	_ZN11b2GearJoint24SolveVelocityConstraintsERK12b2SolverData, %function
_ZN11b2GearJoint24SolveVelocityConstraintsERK12b2SolverData:
.LFB527:
	.loc 4 236 0
	.cfi_startproc
	@ args = 0, pretend = 0, frame = 112
	@ frame_needed = 0, uses_anonymous_args = 0
	stmfd	sp!, {r4, lr}
.LCFI43:
	.cfi_def_cfa_offset 8
	fstmfdd	sp!, {d8}
.LCFI44:
	.cfi_def_cfa_offset 16
	sub	sp, sp, #112
.LCFI45:
	.cfi_def_cfa_offset 128
	str	r0, [sp, #4]
	str	r1, [sp, #0]
.LBB17:
	.loc 4 237 0
	ldr	r3, [sp, #0]
	ldr	r1, [r3, #28]
	ldr	r3, [sp, #4]
	ldr	r3, [r3, #160]
	mov	r2, r3
	mov	r3, r2
	mov	r3, r3, asl #1
	add	r3, r3, r2
	mov	r3, r3, asl #2
	add	r2, r1, r3
	add	r3, sp, #32
	ldmia	r2, {r0, r1}
	stmia	r3, {r0, r1}
	.loc 4 238 0
	ldr	r3, [sp, #0]
	ldr	r1, [r3, #28]
	ldr	r3, [sp, #4]
	ldr	r3, [r3, #160]
	mov	r2, r3
	mov	r3, r2
	mov	r3, r3, asl #1
	add	r3, r3, r2
	mov	r3, r3, asl #2
	add	r3, r1, r3
	flds	s15, [r3, #8]
	fsts	s15, [sp, #88]
	.loc 4 239 0
	ldr	r3, [sp, #0]
	ldr	r1, [r3, #28]
	ldr	r3, [sp, #4]
	ldr	r3, [r3, #164]
	mov	r2, r3
	mov	r3, r2
	mov	r3, r3, asl #1
	add	r3, r3, r2
	mov	r3, r3, asl #2
	add	r2, r1, r3
	add	r3, sp, #24
	ldmia	r2, {r0, r1}
	stmia	r3, {r0, r1}
	.loc 4 240 0
	ldr	r3, [sp, #0]
	ldr	r1, [r3, #28]
	ldr	r3, [sp, #4]
	ldr	r3, [r3, #164]
	mov	r2, r3
	mov	r3, r2
	mov	r3, r3, asl #1
	add	r3, r3, r2
	mov	r3, r3, asl #2
	add	r3, r1, r3
	flds	s15, [r3, #8]
	fsts	s15, [sp, #92]
	.loc 4 241 0
	ldr	r3, [sp, #0]
	ldr	r1, [r3, #28]
	ldr	r3, [sp, #4]
	ldr	r3, [r3, #168]
	mov	r2, r3
	mov	r3, r2
	mov	r3, r3, asl #1
	add	r3, r3, r2
	mov	r3, r3, asl #2
	add	r2, r1, r3
	add	r3, sp, #16
	ldmia	r2, {r0, r1}
	stmia	r3, {r0, r1}
	.loc 4 242 0
	ldr	r3, [sp, #0]
	ldr	r1, [r3, #28]
	ldr	r3, [sp, #4]
	ldr	r3, [r3, #168]
	mov	r2, r3
	mov	r3, r2
	mov	r3, r3, asl #1
	add	r3, r3, r2
	mov	r3, r3, asl #2
	add	r3, r1, r3
	flds	s15, [r3, #8]
	fsts	s15, [sp, #96]
	.loc 4 243 0
	ldr	r3, [sp, #0]
	ldr	r1, [r3, #28]
	ldr	r3, [sp, #4]
	ldr	r3, [r3, #172]
	mov	r2, r3
	mov	r3, r2
	mov	r3, r3, asl #1
	add	r3, r3, r2
	mov	r3, r3, asl #2
	add	r2, r1, r3
	add	r3, sp, #8
	ldmia	r2, {r0, r1}
	stmia	r3, {r0, r1}
	.loc 4 244 0
	ldr	r3, [sp, #0]
	ldr	r1, [r3, #28]
	ldr	r3, [sp, #4]
	ldr	r3, [r3, #172]
	mov	r2, r3
	mov	r3, r2
	mov	r3, r3, asl #1
	add	r3, r3, r2
	mov	r3, r3, asl #2
	add	r3, r1, r3
	flds	s15, [r3, #8]
	fsts	s15, [sp, #100]
	.loc 4 246 0
	ldr	r3, [sp, #4]
	add	r4, r3, #240
	.cfi_offset 80, -16
	.cfi_offset 14, -4
	.cfi_offset 4, -8
	add	r1, sp, #40
	add	r2, sp, #32
	add	r3, sp, #16
	mov	r0, r1
	mov	r1, r2
	mov	r2, r3
	bl	_ZmiRK6b2Vec2S1_
	add	r3, sp, #40
	mov	r0, r4
	mov	r1, r3
	bl	_Z5b2DotRK6b2Vec2S1_
	fmsr	s16, r0
	ldr	r3, [sp, #4]
	add	r4, r3, #248
	add	r1, sp, #48
	add	r2, sp, #24
	add	r3, sp, #8
	mov	r0, r1
	mov	r1, r2
	mov	r2, r3
	bl	_ZmiRK6b2Vec2S1_
	add	r3, sp, #48
	mov	r0, r4
	mov	r1, r3
	bl	_Z5b2DotRK6b2Vec2S1_
	fmsr	s15, r0
	fadds	s15, s16, s15
	fsts	s15, [sp, #104]
	.loc 4 247 0
	ldr	r3, [sp, #4]
	flds	s14, [r3, #256]
	flds	s15, [sp, #88]
	fmuls	s14, s14, s15
	ldr	r3, [sp, #4]
	flds	s13, [r3, #264]
	flds	s15, [sp, #96]
	fmuls	s15, s13, s15
	fsubs	s13, s14, s15
	ldr	r3, [sp, #4]
	flds	s14, [r3, #260]
	flds	s15, [sp, #92]
	fmuls	s14, s14, s15
	ldr	r3, [sp, #4]
	flds	s12, [r3, #268]
	flds	s15, [sp, #100]
	fmuls	s15, s12, s15
	fsubs	s15, s14, s15
	fadds	s15, s13, s15
	flds	s14, [sp, #104]
	fadds	s15, s14, s15
	fsts	s15, [sp, #104]
	.loc 4 249 0
	ldr	r3, [sp, #4]
	flds	s15, [r3, #272]
	fnegs	s14, s15
	flds	s15, [sp, #104]
	fmuls	s15, s14, s15
	fsts	s15, [sp, #108]
	.loc 4 250 0
	ldr	r3, [sp, #4]
	flds	s14, [r3, #156]
	flds	s15, [sp, #108]
	fadds	s15, s14, s15
	ldr	r3, [sp, #4]
	fsts	s15, [r3, #156]
	.loc 4 252 0
	ldr	r3, [sp, #4]
	flds	s14, [r3, #208]
	flds	s15, [sp, #108]
	fmuls	s15, s14, s15
	ldr	r3, [sp, #4]
	add	r3, r3, #240
	add	r2, sp, #56
	mov	r0, r2
	fmrs	r1, s15
	mov	r2, r3
	bl	_ZmlfRK6b2Vec2
	add	r2, sp, #32
	add	r3, sp, #56
	mov	r0, r2
	mov	r1, r3
	bl	_ZN6b2Vec2pLERKS_
	.loc 4 253 0
	ldr	r3, [sp, #4]
	flds	s14, [r3, #224]
	flds	s15, [sp, #108]
	fmuls	s15, s14, s15
	ldr	r3, [sp, #4]
	flds	s14, [r3, #256]
	fmuls	s15, s15, s14
	flds	s14, [sp, #88]
	fadds	s15, s14, s15
	fsts	s15, [sp, #88]
	.loc 4 254 0
	ldr	r3, [sp, #4]
	flds	s14, [r3, #212]
	flds	s15, [sp, #108]
	fmuls	s15, s14, s15
	ldr	r3, [sp, #4]
	add	r3, r3, #248
	add	r2, sp, #64
	mov	r0, r2
	fmrs	r1, s15
	mov	r2, r3
	bl	_ZmlfRK6b2Vec2
	add	r2, sp, #24
	add	r3, sp, #64
	mov	r0, r2
	mov	r1, r3
	bl	_ZN6b2Vec2pLERKS_
	.loc 4 255 0
	ldr	r3, [sp, #4]
	flds	s14, [r3, #228]
	flds	s15, [sp, #108]
	fmuls	s15, s14, s15
	ldr	r3, [sp, #4]
	flds	s14, [r3, #260]
	fmuls	s15, s15, s14
	flds	s14, [sp, #92]
	fadds	s15, s14, s15
	fsts	s15, [sp, #92]
	.loc 4 256 0
	ldr	r3, [sp, #4]
	flds	s14, [r3, #216]
	flds	s15, [sp, #108]
	fmuls	s15, s14, s15
	ldr	r3, [sp, #4]
	add	r3, r3, #240
	add	r2, sp, #72
	mov	r0, r2
	fmrs	r1, s15
	mov	r2, r3
	bl	_ZmlfRK6b2Vec2
	add	r2, sp, #16
	add	r3, sp, #72
	mov	r0, r2
	mov	r1, r3
	bl	_ZN6b2Vec2mIERKS_
	.loc 4 257 0
	ldr	r3, [sp, #4]
	flds	s14, [r3, #232]
	flds	s15, [sp, #108]
	fmuls	s15, s14, s15
	ldr	r3, [sp, #4]
	flds	s14, [r3, #264]
	fmuls	s15, s15, s14
	flds	s14, [sp, #96]
	fsubs	s15, s14, s15
	fsts	s15, [sp, #96]
	.loc 4 258 0
	ldr	r3, [sp, #4]
	flds	s14, [r3, #220]
	flds	s15, [sp, #108]
	fmuls	s15, s14, s15
	ldr	r3, [sp, #4]
	add	r3, r3, #248
	add	r2, sp, #80
	mov	r0, r2
	fmrs	r1, s15
	mov	r2, r3
	bl	_ZmlfRK6b2Vec2
	add	r2, sp, #8
	add	r3, sp, #80
	mov	r0, r2
	mov	r1, r3
	bl	_ZN6b2Vec2mIERKS_
	.loc 4 259 0
	ldr	r3, [sp, #4]
	flds	s14, [r3, #236]
	flds	s15, [sp, #108]
	fmuls	s15, s14, s15
	ldr	r3, [sp, #4]
	flds	s14, [r3, #268]
	fmuls	s15, s15, s14
	flds	s14, [sp, #100]
	fsubs	s15, s14, s15
	fsts	s15, [sp, #100]
	.loc 4 261 0
	ldr	r3, [sp, #0]
	ldr	r1, [r3, #28]
	ldr	r3, [sp, #4]
	ldr	r3, [r3, #160]
	mov	r2, r3
	mov	r3, r2
	mov	r3, r3, asl #1
	add	r3, r3, r2
	mov	r3, r3, asl #2
	add	r3, r1, r3
	add	r2, sp, #32
	ldmia	r2, {r0, r1}
	stmia	r3, {r0, r1}
	.loc 4 262 0
	ldr	r3, [sp, #0]
	ldr	r1, [r3, #28]
	ldr	r3, [sp, #4]
	ldr	r3, [r3, #160]
	mov	r2, r3
	mov	r3, r2
	mov	r3, r3, asl #1
	add	r3, r3, r2
	mov	r3, r3, asl #2
	add	r3, r1, r3
	flds	s15, [sp, #88]
	fsts	s15, [r3, #8]
	.loc 4 263 0
	ldr	r3, [sp, #0]
	ldr	r1, [r3, #28]
	ldr	r3, [sp, #4]
	ldr	r3, [r3, #164]
	mov	r2, r3
	mov	r3, r2
	mov	r3, r3, asl #1
	add	r3, r3, r2
	mov	r3, r3, asl #2
	add	r3, r1, r3
	add	r2, sp, #24
	ldmia	r2, {r0, r1}
	stmia	r3, {r0, r1}
	.loc 4 264 0
	ldr	r3, [sp, #0]
	ldr	r1, [r3, #28]
	ldr	r3, [sp, #4]
	ldr	r3, [r3, #164]
	mov	r2, r3
	mov	r3, r2
	mov	r3, r3, asl #1
	add	r3, r3, r2
	mov	r3, r3, asl #2
	add	r3, r1, r3
	flds	s15, [sp, #92]
	fsts	s15, [r3, #8]
	.loc 4 265 0
	ldr	r3, [sp, #0]
	ldr	r1, [r3, #28]
	ldr	r3, [sp, #4]
	ldr	r3, [r3, #168]
	mov	r2, r3
	mov	r3, r2
	mov	r3, r3, asl #1
	add	r3, r3, r2
	mov	r3, r3, asl #2
	add	r3, r1, r3
	add	r2, sp, #16
	ldmia	r2, {r0, r1}
	stmia	r3, {r0, r1}
	.loc 4 266 0
	ldr	r3, [sp, #0]
	ldr	r1, [r3, #28]
	ldr	r3, [sp, #4]
	ldr	r3, [r3, #168]
	mov	r2, r3
	mov	r3, r2
	mov	r3, r3, asl #1
	add	r3, r3, r2
	mov	r3, r3, asl #2
	add	r3, r1, r3
	flds	s15, [sp, #96]
	fsts	s15, [r3, #8]
	.loc 4 267 0
	ldr	r3, [sp, #0]
	ldr	r1, [r3, #28]
	ldr	r3, [sp, #4]
	ldr	r3, [r3, #172]
	mov	r2, r3
	mov	r3, r2
	mov	r3, r3, asl #1
	add	r3, r3, r2
	mov	r3, r3, asl #2
	add	r3, r1, r3
	add	r2, sp, #8
	ldmia	r2, {r0, r1}
	stmia	r3, {r0, r1}
	.loc 4 268 0
	ldr	r3, [sp, #0]
	ldr	r1, [r3, #28]
	ldr	r3, [sp, #4]
	ldr	r3, [r3, #172]
	mov	r2, r3
	mov	r3, r2
	mov	r3, r3, asl #1
	add	r3, r3, r2
	mov	r3, r3, asl #2
	add	r3, r1, r3
	flds	s15, [sp, #100]
	fsts	s15, [r3, #8]
.LBE17:
	.loc 4 269 0
	add	sp, sp, #112
	fldmfdd	sp!, {d8}
	ldmfd	sp!, {r4, pc}
	.cfi_endproc
.LFE527:
	.size	_ZN11b2GearJoint24SolveVelocityConstraintsERK12b2SolverData, .-_ZN11b2GearJoint24SolveVelocityConstraintsERK12b2SolverData
	.section	.text._ZN11b2GearJoint24SolvePositionConstraintsERK12b2SolverData,"ax",%progbits
	.align	2
	.global	_ZN11b2GearJoint24SolvePositionConstraintsERK12b2SolverData
	.hidden	_ZN11b2GearJoint24SolvePositionConstraintsERK12b2SolverData
	.type	_ZN11b2GearJoint24SolvePositionConstraintsERK12b2SolverData, %function
_ZN11b2GearJoint24SolvePositionConstraintsERK12b2SolverData:
.LFB528:
	.loc 4 272 0
	.cfi_startproc
	@ args = 0, pretend = 0, frame = 344
	@ frame_needed = 0, uses_anonymous_args = 0
	str	lr, [sp, #-4]!
.LCFI46:
	.cfi_def_cfa_offset 4
	fstmfdd	sp!, {d8}
.LCFI47:
	.cfi_def_cfa_offset 12
	sub	sp, sp, #348
.LCFI48:
	.cfi_def_cfa_offset 360
	str	r0, [sp, #12]
	str	r1, [sp, #8]
.LBB18:
	.loc 4 273 0
	ldr	r3, [sp, #8]
	ldr	r1, [r3, #24]
	ldr	r3, [sp, #12]
	ldr	r3, [r3, #160]
	mov	r2, r3
	mov	r3, r2
	mov	r3, r3, asl #1
	add	r3, r3, r2
	mov	r3, r3, asl #2
	add	r2, r1, r3
	add	r3, sp, #168
	ldmia	r2, {r0, r1}
	stmia	r3, {r0, r1}
	.loc 4 274 0
	ldr	r3, [sp, #8]
	ldr	r1, [r3, #24]
	ldr	r3, [sp, #12]
	ldr	r3, [r3, #160]
	mov	r2, r3
	mov	r3, r2
	mov	r3, r3, asl #1
	add	r3, r3, r2
	mov	r3, r3, asl #2
	add	r3, r1, r3
	flds	s15, [r3, #8]
	fsts	s15, [sp, #288]
	.loc 4 275 0
	ldr	r3, [sp, #8]
	ldr	r1, [r3, #24]
	ldr	r3, [sp, #12]
	ldr	r3, [r3, #164]
	mov	r2, r3
	mov	r3, r2
	mov	r3, r3, asl #1
	add	r3, r3, r2
	mov	r3, r3, asl #2
	add	r2, r1, r3
	add	r3, sp, #160
	ldmia	r2, {r0, r1}
	stmia	r3, {r0, r1}
	.loc 4 276 0
	ldr	r3, [sp, #8]
	ldr	r1, [r3, #24]
	ldr	r3, [sp, #12]
	ldr	r3, [r3, #164]
	mov	r2, r3
	mov	r3, r2
	mov	r3, r3, asl #1
	add	r3, r3, r2
	mov	r3, r3, asl #2
	add	r3, r1, r3
	flds	s15, [r3, #8]
	fsts	s15, [sp, #292]
	.loc 4 277 0
	ldr	r3, [sp, #8]
	ldr	r1, [r3, #24]
	ldr	r3, [sp, #12]
	ldr	r3, [r3, #168]
	mov	r2, r3
	mov	r3, r2
	mov	r3, r3, asl #1
	add	r3, r3, r2
	mov	r3, r3, asl #2
	add	r2, r1, r3
	add	r3, sp, #152
	ldmia	r2, {r0, r1}
	stmia	r3, {r0, r1}
	.loc 4 278 0
	ldr	r3, [sp, #8]
	ldr	r1, [r3, #24]
	ldr	r3, [sp, #12]
	ldr	r3, [r3, #168]
	mov	r2, r3
	mov	r3, r2
	mov	r3, r3, asl #1
	add	r3, r3, r2
	mov	r3, r3, asl #2
	add	r3, r1, r3
	flds	s15, [r3, #8]
	fsts	s15, [sp, #296]
	.loc 4 279 0
	ldr	r3, [sp, #8]
	ldr	r1, [r3, #24]
	ldr	r3, [sp, #12]
	ldr	r3, [r3, #172]
	mov	r2, r3
	mov	r3, r2
	mov	r3, r3, asl #1
	add	r3, r3, r2
	mov	r3, r3, asl #2
	add	r2, r1, r3
	add	r3, sp, #144
	ldmia	r2, {r0, r1}
	stmia	r3, {r0, r1}
	.loc 4 280 0
	ldr	r3, [sp, #8]
	ldr	r1, [r3, #24]
	ldr	r3, [sp, #12]
	ldr	r3, [r3, #172]
	mov	r2, r3
	mov	r3, r2
	mov	r3, r3, asl #1
	add	r3, r3, r2
	mov	r3, r3, asl #2
	add	r3, r1, r3
	flds	s15, [r3, #8]
	fsts	s15, [sp, #300]
	.loc 4 282 0
	add	r3, sp, #136
	mov	r0, r3
	ldr	r1, [sp, #288]	@ float
	.cfi_offset 80, -12
	.cfi_offset 14, -4
	bl	_ZN5b2RotC1Ef
	add	r3, sp, #128
	mov	r0, r3
	ldr	r1, [sp, #292]	@ float
	bl	_ZN5b2RotC1Ef
	add	r3, sp, #120
	mov	r0, r3
	ldr	r1, [sp, #296]	@ float
	bl	_ZN5b2RotC1Ef
	add	r3, sp, #112
	mov	r0, r3
	ldr	r1, [sp, #300]	@ float
	bl	_ZN5b2RotC1Ef
	.loc 4 284 0
	flds	s15, .L113+4
	fsts	s15, [sp, #304]
	.loc 4 288 0
	add	r3, sp, #104
	mov	r0, r3
	bl	_ZN6b2Vec2C1Ev
	add	r3, sp, #96
	mov	r0, r3
	bl	_ZN6b2Vec2C1Ev
	.loc 4 290 0
	flds	s15, .L113+4
	fsts	s15, [sp, #332]
	.loc 4 292 0
	ldr	r3, [sp, #12]
	ldr	r3, [r3, #76]
	cmp	r3, #1
	bne	.L107
	.loc 4 294 0
	add	r3, sp, #104
	mov	r0, r3
	bl	_ZN6b2Vec27SetZeroEv
	.loc 4 295 0
	flds	s15, .L113
	fsts	s15, [sp, #316]
	.loc 4 296 0
	flds	s15, .L113
	fsts	s15, [sp, #324]
	.loc 4 297 0
	ldr	r3, [sp, #12]
	flds	s14, [r3, #224]
	ldr	r3, [sp, #12]
	flds	s15, [r3, #232]
	fadds	s15, s14, s15
	flds	s14, [sp, #332]
	fadds	s15, s14, s15
	fsts	s15, [sp, #332]
	.loc 4 299 0
	flds	s14, [sp, #288]
	flds	s15, [sp, #296]
	fsubs	s14, s14, s15
	ldr	r3, [sp, #12]
	flds	s15, [r3, #140]
	fsubs	s15, s14, s15
	fsts	s15, [sp, #308]
	b	.L108
.L107:
.LBB19:
	.loc 4 303 0
	ldr	r3, [sp, #12]
	add	r3, r3, #124
	add	r1, sp, #88
	add	r2, sp, #120
	mov	r0, r1
	mov	r1, r2
	mov	r2, r3
	bl	_Z5b2MulRK5b2RotRK6b2Vec2
	.loc 4 304 0
	ldr	r3, [sp, #12]
	add	r2, r3, #108
	ldr	r3, [sp, #12]
	add	r3, r3, #192
	add	r1, sp, #176
	mov	r0, r1
	mov	r1, r2
	mov	r2, r3
	bl	_ZmiRK6b2Vec2S1_
	add	r1, sp, #80
	add	r2, sp, #120
	add	r3, sp, #176
	mov	r0, r1
	mov	r1, r2
	mov	r2, r3
	bl	_Z5b2MulRK5b2RotRK6b2Vec2
	.loc 4 305 0
	ldr	r3, [sp, #12]
	add	r2, r3, #92
	ldr	r3, [sp, #12]
	add	r3, r3, #176
	add	r1, sp, #184
	mov	r0, r1
	mov	r1, r2
	mov	r2, r3
	bl	_ZmiRK6b2Vec2S1_
	add	r1, sp, #72
	add	r2, sp, #136
	add	r3, sp, #184
	mov	r0, r1
	mov	r1, r2
	mov	r2, r3
	bl	_Z5b2MulRK5b2RotRK6b2Vec2
	.loc 4 306 0
	add	r3, sp, #104
	add	r2, sp, #88
	ldmia	r2, {r0, r1}
	stmia	r3, {r0, r1}
	.loc 4 307 0
	add	r2, sp, #80
	add	r3, sp, #88
	mov	r0, r2
	mov	r1, r3
	bl	_Z7b2CrossRK6b2Vec2S1_
	mov	r3, r0	@ float
	str	r3, [sp, #324]	@ float
	.loc 4 308 0
	add	r2, sp, #72
	add	r3, sp, #88
	mov	r0, r2
	mov	r1, r3
	bl	_Z7b2CrossRK6b2Vec2S1_
	mov	r3, r0	@ float
	str	r3, [sp, #316]	@ float
	.loc 4 309 0
	ldr	r3, [sp, #12]
	flds	s14, [r3, #216]
	ldr	r3, [sp, #12]
	flds	s15, [r3, #208]
	fadds	s14, s14, s15
	ldr	r3, [sp, #12]
	flds	s13, [r3, #232]
	flds	s15, [sp, #324]
	fmuls	s15, s13, s15
	flds	s13, [sp, #324]
	fmuls	s15, s15, s13
	fadds	s14, s14, s15
	ldr	r3, [sp, #12]
	flds	s13, [r3, #224]
	flds	s15, [sp, #316]
	fmuls	s15, s13, s15
	flds	s13, [sp, #316]
	fmuls	s15, s15, s13
	fadds	s15, s14, s15
	flds	s14, [sp, #332]
	fadds	s15, s14, s15
	fsts	s15, [sp, #332]
	.loc 4 311 0
	ldr	r3, [sp, #12]
	add	r2, r3, #108
	ldr	r3, [sp, #12]
	add	r3, r3, #192
	add	r1, sp, #64
	mov	r0, r1
	mov	r1, r2
	mov	r2, r3
	bl	_ZmiRK6b2Vec2S1_
	.loc 4 312 0
	add	r1, sp, #200
	add	r2, sp, #168
	add	r3, sp, #152
	mov	r0, r1
	mov	r1, r2
	mov	r2, r3
	bl	_ZmiRK6b2Vec2S1_
	add	r1, sp, #192
	add	r2, sp, #72
	add	r3, sp, #200
	mov	r0, r1
	mov	r1, r2
	mov	r2, r3
	bl	_ZplRK6b2Vec2S1_
	add	r1, sp, #56
	add	r2, sp, #120
	add	r3, sp, #192
	mov	r0, r1
	mov	r1, r2
	mov	r2, r3
	bl	_Z6b2MulTRK5b2RotRK6b2Vec2
	.loc 4 313 0
	add	r1, sp, #208
	add	r2, sp, #56
	add	r3, sp, #64
	mov	r0, r1
	mov	r1, r2
	mov	r2, r3
	bl	_ZmiRK6b2Vec2S1_
	ldr	r3, [sp, #12]
	add	r3, r3, #124
	add	r2, sp, #208
	mov	r0, r2
	mov	r1, r3
	bl	_Z5b2DotRK6b2Vec2S1_
	mov	r3, r0	@ float
	str	r3, [sp, #308]	@ float
.L108:
.LBE19:
	.loc 4 316 0
	ldr	r3, [sp, #12]
	ldr	r3, [r3, #80]
	cmp	r3, #1
	bne	.L109
	.loc 4 318 0
	add	r3, sp, #96
	mov	r0, r3
	bl	_ZN6b2Vec27SetZeroEv
	.loc 4 319 0
	ldr	r3, [sp, #12]
	flds	s15, [r3, #152]
	fsts	s15, [sp, #320]
	.loc 4 320 0
	ldr	r3, [sp, #12]
	flds	s15, [r3, #152]
	fsts	s15, [sp, #328]
	.loc 4 321 0
	ldr	r3, [sp, #12]
	flds	s14, [r3, #152]
	ldr	r3, [sp, #12]
	flds	s15, [r3, #152]
	fmuls	s15, s14, s15
	ldr	r3, [sp, #12]
	flds	s13, [r3, #228]
	ldr	r3, [sp, #12]
	flds	s14, [r3, #236]
	fadds	s14, s13, s14
	fmuls	s15, s15, s14
	flds	s14, [sp, #332]
	fadds	s15, s14, s15
	fsts	s15, [sp, #332]
	.loc 4 323 0
	flds	s14, [sp, #292]
	flds	s15, [sp, #300]
	fsubs	s14, s14, s15
	ldr	r3, [sp, #12]
	flds	s15, [r3, #144]
	fsubs	s15, s14, s15
	fsts	s15, [sp, #312]
	b	.L110
.L114:
	.align	2
.L113:
	.word	1065353216
	.word	0
.L109:
.LBB20:
	.loc 4 327 0
	ldr	r3, [sp, #12]
	add	r3, r3, #132
	add	r1, sp, #48
	add	r2, sp, #112
	mov	r0, r1
	mov	r1, r2
	mov	r2, r3
	bl	_Z5b2MulRK5b2RotRK6b2Vec2
	.loc 4 328 0
	ldr	r3, [sp, #12]
	add	r2, r3, #116
	ldr	r3, [sp, #12]
	add	r3, r3, #200
	add	r1, sp, #216
	mov	r0, r1
	mov	r1, r2
	mov	r2, r3
	bl	_ZmiRK6b2Vec2S1_
	add	r1, sp, #40
	add	r2, sp, #112
	add	r3, sp, #216
	mov	r0, r1
	mov	r1, r2
	mov	r2, r3
	bl	_Z5b2MulRK5b2RotRK6b2Vec2
	.loc 4 329 0
	ldr	r3, [sp, #12]
	add	r2, r3, #100
	ldr	r3, [sp, #12]
	add	r3, r3, #184
	add	r1, sp, #224
	mov	r0, r1
	mov	r1, r2
	mov	r2, r3
	bl	_ZmiRK6b2Vec2S1_
	add	r1, sp, #32
	add	r2, sp, #128
	add	r3, sp, #224
	mov	r0, r1
	mov	r1, r2
	mov	r2, r3
	bl	_Z5b2MulRK5b2RotRK6b2Vec2
	.loc 4 330 0
	ldr	r3, [sp, #12]
	ldr	r2, [r3, #152]	@ float
	mov	r1, sp
	add	r3, sp, #48
	mov	r0, r1
	mov	r1, r2	@ float
	mov	r2, r3
	bl	_ZmlfRK6b2Vec2
	add	r3, sp, #96
	mov	r2, sp
	ldmia	r2, {r0, r1}
	stmia	r3, {r0, r1}
	.loc 4 331 0
	ldr	r3, [sp, #12]
	flds	s16, [r3, #152]
	add	r2, sp, #40
	add	r3, sp, #48
	mov	r0, r2
	mov	r1, r3
	bl	_Z7b2CrossRK6b2Vec2S1_
	fmsr	s15, r0
	fmuls	s15, s16, s15
	fsts	s15, [sp, #328]
	.loc 4 332 0
	ldr	r3, [sp, #12]
	flds	s16, [r3, #152]
	add	r2, sp, #32
	add	r3, sp, #48
	mov	r0, r2
	mov	r1, r3
	bl	_Z7b2CrossRK6b2Vec2S1_
	fmsr	s15, r0
	fmuls	s15, s16, s15
	fsts	s15, [sp, #320]
	.loc 4 333 0
	ldr	r3, [sp, #12]
	flds	s14, [r3, #152]
	ldr	r3, [sp, #12]
	flds	s15, [r3, #152]
	fmuls	s15, s14, s15
	ldr	r3, [sp, #12]
	flds	s13, [r3, #220]
	ldr	r3, [sp, #12]
	flds	s14, [r3, #212]
	fadds	s14, s13, s14
	fmuls	s14, s15, s14
	ldr	r3, [sp, #12]
	flds	s13, [r3, #236]
	flds	s15, [sp, #328]
	fmuls	s15, s13, s15
	flds	s13, [sp, #328]
	fmuls	s15, s15, s13
	fadds	s14, s14, s15
	ldr	r3, [sp, #12]
	flds	s13, [r3, #228]
	flds	s15, [sp, #320]
	fmuls	s15, s13, s15
	flds	s13, [sp, #320]
	fmuls	s15, s15, s13
	fadds	s15, s14, s15
	flds	s14, [sp, #332]
	fadds	s15, s14, s15
	fsts	s15, [sp, #332]
	.loc 4 335 0
	ldr	r3, [sp, #12]
	add	r2, r3, #116
	ldr	r3, [sp, #12]
	add	r3, r3, #200
	add	r1, sp, #24
	mov	r0, r1
	mov	r1, r2
	mov	r2, r3
	bl	_ZmiRK6b2Vec2S1_
	.loc 4 336 0
	add	r1, sp, #240
	add	r2, sp, #160
	add	r3, sp, #144
	mov	r0, r1
	mov	r1, r2
	mov	r2, r3
	bl	_ZmiRK6b2Vec2S1_
	add	r1, sp, #232
	add	r2, sp, #32
	add	r3, sp, #240
	mov	r0, r1
	mov	r1, r2
	mov	r2, r3
	bl	_ZplRK6b2Vec2S1_
	add	r1, sp, #16
	add	r2, sp, #112
	add	r3, sp, #232
	mov	r0, r1
	mov	r1, r2
	mov	r2, r3
	bl	_Z6b2MulTRK5b2RotRK6b2Vec2
	.loc 4 337 0
	add	r1, sp, #248
	add	r2, sp, #16
	add	r3, sp, #24
	mov	r0, r1
	mov	r1, r2
	mov	r2, r3
	bl	_ZmiRK6b2Vec2S1_
	ldr	r3, [sp, #12]
	add	r3, r3, #132
	add	r2, sp, #248
	mov	r0, r2
	mov	r1, r3
	bl	_Z5b2DotRK6b2Vec2S1_
	mov	r3, r0	@ float
	str	r3, [sp, #312]	@ float
.L110:
.LBE20:
	.loc 4 340 0
	ldr	r3, [sp, #12]
	flds	s14, [r3, #152]
	flds	s15, [sp, #312]
	fmuls	s15, s14, s15
	flds	s14, [sp, #308]
	fadds	s14, s15, s14
	ldr	r3, [sp, #12]
	flds	s15, [r3, #148]
	fsubs	s15, s14, s15
	fsts	s15, [sp, #336]
	.loc 4 342 0
	flds	s15, .L113+4
	fsts	s15, [sp, #340]
	.loc 4 343 0
	flds	s15, [sp, #332]
	fcmpezs	s15
	fmstat
	movle	r3, #0
	movgt	r3, #1
	and	r3, r3, #255
	cmp	r3, #0
	beq	.L111
	.loc 4 345 0
	flds	s15, [sp, #336]
	fnegs	s14, s15
	flds	s15, [sp, #332]
	fdivs	s15, s14, s15
	fsts	s15, [sp, #340]
.L111:
	.loc 4 348 0
	ldr	r3, [sp, #12]
	flds	s14, [r3, #208]
	flds	s15, [sp, #340]
	fmuls	s15, s14, s15
	add	r2, sp, #256
	add	r3, sp, #104
	mov	r0, r2
	fmrs	r1, s15
	mov	r2, r3
	bl	_ZmlfRK6b2Vec2
	add	r2, sp, #168
	add	r3, sp, #256
	mov	r0, r2
	mov	r1, r3
	bl	_ZN6b2Vec2pLERKS_
	.loc 4 349 0
	ldr	r3, [sp, #12]
	flds	s14, [r3, #224]
	flds	s15, [sp, #340]
	fmuls	s15, s14, s15
	flds	s14, [sp, #316]
	fmuls	s15, s15, s14
	flds	s14, [sp, #288]
	fadds	s15, s14, s15
	fsts	s15, [sp, #288]
	.loc 4 350 0
	ldr	r3, [sp, #12]
	flds	s14, [r3, #212]
	flds	s15, [sp, #340]
	fmuls	s15, s14, s15
	add	r2, sp, #264
	add	r3, sp, #96
	mov	r0, r2
	fmrs	r1, s15
	mov	r2, r3
	bl	_ZmlfRK6b2Vec2
	add	r2, sp, #160
	add	r3, sp, #264
	mov	r0, r2
	mov	r1, r3
	bl	_ZN6b2Vec2pLERKS_
	.loc 4 351 0
	ldr	r3, [sp, #12]
	flds	s14, [r3, #228]
	flds	s15, [sp, #340]
	fmuls	s15, s14, s15
	flds	s14, [sp, #320]
	fmuls	s15, s15, s14
	flds	s14, [sp, #292]
	fadds	s15, s14, s15
	fsts	s15, [sp, #292]
	.loc 4 352 0
	ldr	r3, [sp, #12]
	flds	s14, [r3, #216]
	flds	s15, [sp, #340]
	fmuls	s15, s14, s15
	add	r2, sp, #272
	add	r3, sp, #104
	mov	r0, r2
	fmrs	r1, s15
	mov	r2, r3
	bl	_ZmlfRK6b2Vec2
	add	r2, sp, #152
	add	r3, sp, #272
	mov	r0, r2
	mov	r1, r3
	bl	_ZN6b2Vec2mIERKS_
	.loc 4 353 0
	ldr	r3, [sp, #12]
	flds	s14, [r3, #232]
	flds	s15, [sp, #340]
	fmuls	s15, s14, s15
	flds	s14, [sp, #324]
	fmuls	s15, s15, s14
	flds	s14, [sp, #296]
	fsubs	s15, s14, s15
	fsts	s15, [sp, #296]
	.loc 4 354 0
	ldr	r3, [sp, #12]
	flds	s14, [r3, #220]
	flds	s15, [sp, #340]
	fmuls	s15, s14, s15
	add	r2, sp, #280
	add	r3, sp, #96
	mov	r0, r2
	fmrs	r1, s15
	mov	r2, r3
	bl	_ZmlfRK6b2Vec2
	add	r2, sp, #144
	add	r3, sp, #280
	mov	r0, r2
	mov	r1, r3
	bl	_ZN6b2Vec2mIERKS_
	.loc 4 355 0
	ldr	r3, [sp, #12]
	flds	s14, [r3, #236]
	flds	s15, [sp, #340]
	fmuls	s15, s14, s15
	flds	s14, [sp, #328]
	fmuls	s15, s15, s14
	flds	s14, [sp, #300]
	fsubs	s15, s14, s15
	fsts	s15, [sp, #300]
	.loc 4 357 0
	ldr	r3, [sp, #8]
	ldr	r1, [r3, #24]
	ldr	r3, [sp, #12]
	ldr	r3, [r3, #160]
	mov	r2, r3
	mov	r3, r2
	mov	r3, r3, asl #1
	add	r3, r3, r2
	mov	r3, r3, asl #2
	add	r3, r1, r3
	add	r2, sp, #168
	ldmia	r2, {r0, r1}
	stmia	r3, {r0, r1}
	.loc 4 358 0
	ldr	r3, [sp, #8]
	ldr	r1, [r3, #24]
	ldr	r3, [sp, #12]
	ldr	r3, [r3, #160]
	mov	r2, r3
	mov	r3, r2
	mov	r3, r3, asl #1
	add	r3, r3, r2
	mov	r3, r3, asl #2
	add	r3, r1, r3
	flds	s15, [sp, #288]
	fsts	s15, [r3, #8]
	.loc 4 359 0
	ldr	r3, [sp, #8]
	ldr	r1, [r3, #24]
	ldr	r3, [sp, #12]
	ldr	r3, [r3, #164]
	mov	r2, r3
	mov	r3, r2
	mov	r3, r3, asl #1
	add	r3, r3, r2
	mov	r3, r3, asl #2
	add	r3, r1, r3
	add	r2, sp, #160
	ldmia	r2, {r0, r1}
	stmia	r3, {r0, r1}
	.loc 4 360 0
	ldr	r3, [sp, #8]
	ldr	r1, [r3, #24]
	ldr	r3, [sp, #12]
	ldr	r3, [r3, #164]
	mov	r2, r3
	mov	r3, r2
	mov	r3, r3, asl #1
	add	r3, r3, r2
	mov	r3, r3, asl #2
	add	r3, r1, r3
	flds	s15, [sp, #292]
	fsts	s15, [r3, #8]
	.loc 4 361 0
	ldr	r3, [sp, #8]
	ldr	r1, [r3, #24]
	ldr	r3, [sp, #12]
	ldr	r3, [r3, #168]
	mov	r2, r3
	mov	r3, r2
	mov	r3, r3, asl #1
	add	r3, r3, r2
	mov	r3, r3, asl #2
	add	r3, r1, r3
	add	r2, sp, #152
	ldmia	r2, {r0, r1}
	stmia	r3, {r0, r1}
	.loc 4 362 0
	ldr	r3, [sp, #8]
	ldr	r1, [r3, #24]
	ldr	r3, [sp, #12]
	ldr	r3, [r3, #168]
	mov	r2, r3
	mov	r3, r2
	mov	r3, r3, asl #1
	add	r3, r3, r2
	mov	r3, r3, asl #2
	add	r3, r1, r3
	flds	s15, [sp, #296]
	fsts	s15, [r3, #8]
	.loc 4 363 0
	ldr	r3, [sp, #8]
	ldr	r1, [r3, #24]
	ldr	r3, [sp, #12]
	ldr	r3, [r3, #172]
	mov	r2, r3
	mov	r3, r2
	mov	r3, r3, asl #1
	add	r3, r3, r2
	mov	r3, r3, asl #2
	add	r3, r1, r3
	add	r2, sp, #144
	ldmia	r2, {r0, r1}
	stmia	r3, {r0, r1}
	.loc 4 364 0
	ldr	r3, [sp, #8]
	ldr	r1, [r3, #24]
	ldr	r3, [sp, #12]
	ldr	r3, [r3, #172]
	mov	r2, r3
	mov	r3, r2
	mov	r3, r3, asl #1
	add	r3, r3, r2
	mov	r3, r3, asl #2
	add	r3, r1, r3
	flds	s15, [sp, #300]
	fsts	s15, [r3, #8]
	.loc 4 367 0
	flds	s14, [sp, #304]
	flds	s15, .L115
	fcmpes	s14, s15
	fmstat
	movpl	r3, #0
	movmi	r3, #1
	and	r3, r3, #255
.LBE18:
	.loc 4 368 0
	mov	r0, r3
	add	sp, sp, #348
	fldmfdd	sp!, {d8}
	ldmfd	sp!, {pc}
.L116:
	.align	2
.L115:
	.word	1000593162
	.cfi_endproc
.LFE528:
	.size	_ZN11b2GearJoint24SolvePositionConstraintsERK12b2SolverData, .-_ZN11b2GearJoint24SolvePositionConstraintsERK12b2SolverData
	.section	.text._ZNK11b2GearJoint10GetAnchorAEv,"ax",%progbits
	.align	2
	.global	_ZNK11b2GearJoint10GetAnchorAEv
	.hidden	_ZNK11b2GearJoint10GetAnchorAEv
	.type	_ZNK11b2GearJoint10GetAnchorAEv, %function
_ZNK11b2GearJoint10GetAnchorAEv:
.LFB529:
	.loc 4 371 0
	.cfi_startproc
	@ args = 0, pretend = 0, frame = 8
	@ frame_needed = 0, uses_anonymous_args = 0
	stmfd	sp!, {r4, lr}
.LCFI49:
	.cfi_def_cfa_offset 8
	sub	sp, sp, #8
.LCFI50:
	.cfi_def_cfa_offset 16
	mov	r4, r0
	.cfi_offset 14, -4
	.cfi_offset 4, -8
	str	r1, [sp, #4]
	.loc 4 372 0
	ldr	r3, [sp, #4]
	ldr	r2, [r3, #48]
	ldr	r3, [sp, #4]
	add	r3, r3, #92
	mov	r0, r4
	mov	r1, r2
	mov	r2, r3
	bl	_ZNK6b2Body13GetWorldPointERK6b2Vec2
	.loc 4 373 0
	mov	r0, r4
	add	sp, sp, #8
	ldmfd	sp!, {r4, pc}
	.cfi_endproc
.LFE529:
	.size	_ZNK11b2GearJoint10GetAnchorAEv, .-_ZNK11b2GearJoint10GetAnchorAEv
	.section	.text._ZNK11b2GearJoint10GetAnchorBEv,"ax",%progbits
	.align	2
	.global	_ZNK11b2GearJoint10GetAnchorBEv
	.hidden	_ZNK11b2GearJoint10GetAnchorBEv
	.type	_ZNK11b2GearJoint10GetAnchorBEv, %function
_ZNK11b2GearJoint10GetAnchorBEv:
.LFB530:
	.loc 4 376 0
	.cfi_startproc
	@ args = 0, pretend = 0, frame = 8
	@ frame_needed = 0, uses_anonymous_args = 0
	stmfd	sp!, {r4, lr}
.LCFI51:
	.cfi_def_cfa_offset 8
	sub	sp, sp, #8
.LCFI52:
	.cfi_def_cfa_offset 16
	mov	r4, r0
	.cfi_offset 14, -4
	.cfi_offset 4, -8
	str	r1, [sp, #4]
	.loc 4 377 0
	ldr	r3, [sp, #4]
	ldr	r2, [r3, #52]
	ldr	r3, [sp, #4]
	add	r3, r3, #100
	mov	r0, r4
	mov	r1, r2
	mov	r2, r3
	bl	_ZNK6b2Body13GetWorldPointERK6b2Vec2
	.loc 4 378 0
	mov	r0, r4
	add	sp, sp, #8
	ldmfd	sp!, {r4, pc}
	.cfi_endproc
.LFE530:
	.size	_ZNK11b2GearJoint10GetAnchorBEv, .-_ZNK11b2GearJoint10GetAnchorBEv
	.section	.text._ZNK11b2GearJoint16GetReactionForceEf,"ax",%progbits
	.align	2
	.global	_ZNK11b2GearJoint16GetReactionForceEf
	.hidden	_ZNK11b2GearJoint16GetReactionForceEf
	.type	_ZNK11b2GearJoint16GetReactionForceEf, %function
_ZNK11b2GearJoint16GetReactionForceEf:
.LFB531:
	.loc 4 381 0
	.cfi_startproc
	@ args = 0, pretend = 0, frame = 16
	@ frame_needed = 0, uses_anonymous_args = 0
	stmfd	sp!, {r4, lr}
.LCFI53:
	.cfi_def_cfa_offset 8
	sub	sp, sp, #16
.LCFI54:
	.cfi_def_cfa_offset 24
	mov	r4, r0
	.cfi_offset 14, -4
	.cfi_offset 4, -8
	str	r1, [sp, #4]
	str	r2, [sp, #0]	@ float
.LBB21:
	.loc 4 382 0
	ldr	r3, [sp, #4]
	ldr	r2, [r3, #156]	@ float
	ldr	r3, [sp, #4]
	add	r3, r3, #240
	add	r1, sp, #8
	mov	r0, r1
	mov	r1, r2	@ float
	mov	r2, r3
	bl	_ZmlfRK6b2Vec2
	.loc 4 383 0
	add	r3, sp, #8
	mov	r0, r4
	ldr	r1, [sp, #0]	@ float
	mov	r2, r3
	bl	_ZmlfRK6b2Vec2
.LBE21:
	.loc 4 384 0
	mov	r0, r4
	add	sp, sp, #16
	ldmfd	sp!, {r4, pc}
	.cfi_endproc
.LFE531:
	.size	_ZNK11b2GearJoint16GetReactionForceEf, .-_ZNK11b2GearJoint16GetReactionForceEf
	.section	.text._ZNK11b2GearJoint17GetReactionTorqueEf,"ax",%progbits
	.align	2
	.global	_ZNK11b2GearJoint17GetReactionTorqueEf
	.hidden	_ZNK11b2GearJoint17GetReactionTorqueEf
	.type	_ZNK11b2GearJoint17GetReactionTorqueEf, %function
_ZNK11b2GearJoint17GetReactionTorqueEf:
.LFB532:
	.loc 4 387 0
	.cfi_startproc
	@ args = 0, pretend = 0, frame = 16
	@ frame_needed = 0, uses_anonymous_args = 0
	@ link register save eliminated.
	sub	sp, sp, #16
.LCFI55:
	.cfi_def_cfa_offset 16
	str	r0, [sp, #4]
	str	r1, [sp, #0]	@ float
.LBB22:
	.loc 4 388 0
	ldr	r3, [sp, #4]
	flds	s14, [r3, #156]
	ldr	r3, [sp, #4]
	flds	s15, [r3, #256]
	fmuls	s15, s14, s15
	fsts	s15, [sp, #12]
	.loc 4 389 0
	flds	s14, [sp, #0]
	flds	s15, [sp, #12]
	fmuls	s15, s14, s15
	fmrs	r3, s15
.LBE22:
	.loc 4 390 0
	mov	r0, r3	@ float
	add	sp, sp, #16
	bx	lr
	.cfi_endproc
.LFE532:
	.size	_ZNK11b2GearJoint17GetReactionTorqueEf, .-_ZNK11b2GearJoint17GetReactionTorqueEf
	.section	.rodata
	.align	2
.LC4:
	.ascii	"b2IsValid(ratio)\000"
	.section	.text._ZN11b2GearJoint8SetRatioEf,"ax",%progbits
	.align	2
	.global	_ZN11b2GearJoint8SetRatioEf
	.hidden	_ZN11b2GearJoint8SetRatioEf
	.type	_ZN11b2GearJoint8SetRatioEf, %function
_ZN11b2GearJoint8SetRatioEf:
.LFB533:
	.loc 4 393 0
	.cfi_startproc
	@ args = 0, pretend = 0, frame = 8
	@ frame_needed = 0, uses_anonymous_args = 0
	str	lr, [sp, #-4]!
.LCFI56:
	.cfi_def_cfa_offset 4
	sub	sp, sp, #12
.LCFI57:
	.cfi_def_cfa_offset 16
	str	r0, [sp, #4]
	str	r1, [sp, #0]	@ float
	.loc 4 394 0
	ldr	r0, [sp, #0]	@ float
	.cfi_offset 14, -4
	bl	_Z9b2IsValidf
	mov	r3, r0
	cmp	r3, #0
	bne	.L127
.L126:
	ldr	r0, .L129
	ldr	r1, .L129+4
	ldr	r2, .L129+8
	bl	__assert
.L127:
	.loc 4 395 0
	ldr	r3, [sp, #4]
	flds	s15, [sp, #0]
	fsts	s15, [r3, #152]
	.loc 4 396 0
	add	sp, sp, #12
	ldmfd	sp!, {pc}
.L130:
	.align	2
.L129:
	.word	.LC1
	.word	394
	.word	.LC4
	.cfi_endproc
.LFE533:
	.size	_ZN11b2GearJoint8SetRatioEf, .-_ZN11b2GearJoint8SetRatioEf
	.section	.text._ZNK11b2GearJoint8GetRatioEv,"ax",%progbits
	.align	2
	.global	_ZNK11b2GearJoint8GetRatioEv
	.hidden	_ZNK11b2GearJoint8GetRatioEv
	.type	_ZNK11b2GearJoint8GetRatioEv, %function
_ZNK11b2GearJoint8GetRatioEv:
.LFB534:
	.loc 4 399 0
	.cfi_startproc
	@ args = 0, pretend = 0, frame = 8
	@ frame_needed = 0, uses_anonymous_args = 0
	@ link register save eliminated.
	sub	sp, sp, #8
.LCFI58:
	.cfi_def_cfa_offset 8
	str	r0, [sp, #4]
	.loc 4 400 0
	ldr	r3, [sp, #4]
	flds	s15, [r3, #152]
	fmrs	r3, s15
	.loc 4 401 0
	mov	r0, r3	@ float
	add	sp, sp, #8
	bx	lr
	.cfi_endproc
.LFE534:
	.size	_ZNK11b2GearJoint8GetRatioEv, .-_ZNK11b2GearJoint8GetRatioEv
	.section	.rodata
	.align	2
.LC5:
	.ascii	"  b2GearJointDef jd;\012\000"
	.align	2
.LC6:
	.ascii	"  jd.bodyA = bodies[%d];\012\000"
	.align	2
.LC7:
	.ascii	"  jd.bodyB = bodies[%d];\012\000"
	.align	2
.LC8:
	.ascii	"  jd.collideConnected = bool(%d);\012\000"
	.align	2
.LC9:
	.ascii	"  jd.joint1 = joints[%d];\012\000"
	.align	2
.LC10:
	.ascii	"  jd.joint2 = joints[%d];\012\000"
	.align	2
.LC11:
	.ascii	"  jd.ratio = %.15lef;\012\000"
	.align	2
.LC12:
	.ascii	"  joints[%d] = m_world->CreateJoint(&jd);\012\000"
	.section	.text._ZN11b2GearJoint4DumpEv,"ax",%progbits
	.align	2
	.global	_ZN11b2GearJoint4DumpEv
	.hidden	_ZN11b2GearJoint4DumpEv
	.type	_ZN11b2GearJoint4DumpEv, %function
_ZN11b2GearJoint4DumpEv:
.LFB535:
	.loc 4 404 0
	.cfi_startproc
	@ args = 0, pretend = 0, frame = 24
	@ frame_needed = 0, uses_anonymous_args = 0
	str	lr, [sp, #-4]!
.LCFI59:
	.cfi_def_cfa_offset 4
	sub	sp, sp, #28
.LCFI60:
	.cfi_def_cfa_offset 32
	str	r0, [sp, #4]
.LBB23:
	.loc 4 405 0
	ldr	r3, [sp, #4]
	ldr	r3, [r3, #48]
	ldr	r3, [r3, #8]
	str	r3, [sp, #8]
	.loc 4 406 0
	ldr	r3, [sp, #4]
	ldr	r3, [r3, #52]
	ldr	r3, [r3, #8]
	str	r3, [sp, #12]
	.loc 4 408 0
	ldr	r3, [sp, #4]
	ldr	r3, [r3, #68]
	ldr	r3, [r3, #56]
	str	r3, [sp, #16]
	.loc 4 409 0
	ldr	r3, [sp, #4]
	ldr	r3, [r3, #72]
	ldr	r3, [r3, #56]
	str	r3, [sp, #20]
	.loc 4 411 0
	ldr	r0, .L135
	.cfi_offset 14, -4
	bl	_Z5b2LogPKcz
	.loc 4 412 0
	ldr	r0, .L135+4
	ldr	r1, [sp, #8]
	bl	_Z5b2LogPKcz
	.loc 4 413 0
	ldr	r0, .L135+8
	ldr	r1, [sp, #12]
	bl	_Z5b2LogPKcz
	.loc 4 414 0
	ldr	r3, [sp, #4]
	ldrb	r3, [r3, #61]	@ zero_extendqisi2
	ldr	r0, .L135+12
	mov	r1, r3
	bl	_Z5b2LogPKcz
	.loc 4 415 0
	ldr	r0, .L135+16
	ldr	r1, [sp, #16]
	bl	_Z5b2LogPKcz
	.loc 4 416 0
	ldr	r0, .L135+20
	ldr	r1, [sp, #20]
	bl	_Z5b2LogPKcz
	.loc 4 417 0
	ldr	r3, [sp, #4]
	flds	s15, [r3, #152]
	fcvtds	d7, s15
	ldr	r0, .L135+24
	fmrrd	r2, r3, d7
	bl	_Z5b2LogPKcz
	.loc 4 418 0
	ldr	r3, [sp, #4]
	ldr	r3, [r3, #56]
	ldr	r0, .L135+28
	mov	r1, r3
	bl	_Z5b2LogPKcz
.LBE23:
	.loc 4 419 0
	add	sp, sp, #28
	ldmfd	sp!, {pc}
.L136:
	.align	2
.L135:
	.word	.LC5
	.word	.LC6
	.word	.LC7
	.word	.LC8
	.word	.LC9
	.word	.LC10
	.word	.LC11
	.word	.LC12
	.cfi_endproc
.LFE535:
	.size	_ZN11b2GearJoint4DumpEv, .-_ZN11b2GearJoint4DumpEv
	.hidden	_ZTV11b2GearJoint
	.global	_ZTV11b2GearJoint
	.section	.rodata
	.align	3
	.type	_ZTV11b2GearJoint, %object
	.size	_ZTV11b2GearJoint, 52
_ZTV11b2GearJoint:
	.word	0
	.word	_ZTI11b2GearJoint
	.word	_ZNK11b2GearJoint10GetAnchorAEv
	.word	_ZNK11b2GearJoint10GetAnchorBEv
	.word	_ZNK11b2GearJoint16GetReactionForceEf
	.word	_ZNK11b2GearJoint17GetReactionTorqueEf
	.word	_ZN11b2GearJoint4DumpEv
	.word	_ZN7b2Joint11ShiftOriginERK6b2Vec2
	.word	_ZN11b2GearJointD1Ev
	.word	_ZN11b2GearJointD0Ev
	.word	_ZN11b2GearJoint23InitVelocityConstraintsERK12b2SolverData
	.word	_ZN11b2GearJoint24SolveVelocityConstraintsERK12b2SolverData
	.word	_ZN11b2GearJoint24SolvePositionConstraintsERK12b2SolverData
	.hidden	_ZTV7b2Joint
	.weak	_ZTV7b2Joint
	.section	.rodata._ZTV7b2Joint,"aG",%progbits,_ZTV7b2Joint,comdat
	.align	3
	.type	_ZTV7b2Joint, %object
	.size	_ZTV7b2Joint, 52
_ZTV7b2Joint:
	.word	0
	.word	_ZTI7b2Joint
	.word	__cxa_pure_virtual
	.word	__cxa_pure_virtual
	.word	__cxa_pure_virtual
	.word	__cxa_pure_virtual
	.word	_ZN7b2Joint4DumpEv
	.word	_ZN7b2Joint11ShiftOriginERK6b2Vec2
	.word	_ZN7b2JointD1Ev
	.word	_ZN7b2JointD0Ev
	.word	__cxa_pure_virtual
	.word	__cxa_pure_virtual
	.word	__cxa_pure_virtual
	.hidden	_ZTI11b2GearJoint
	.global	_ZTI11b2GearJoint
	.section	.rodata
	.align	2
	.type	_ZTI11b2GearJoint, %object
	.size	_ZTI11b2GearJoint, 12
_ZTI11b2GearJoint:
	.word	_ZTVN10__cxxabiv120__si_class_type_infoE+8
	.word	_ZTS11b2GearJoint
	.word	_ZTI7b2Joint
	.hidden	_ZTS11b2GearJoint
	.global	_ZTS11b2GearJoint
	.align	2
	.type	_ZTS11b2GearJoint, %object
	.size	_ZTS11b2GearJoint, 14
_ZTS11b2GearJoint:
	.ascii	"11b2GearJoint\000"
	.hidden	_ZTS7b2Joint
	.weak	_ZTS7b2Joint
	.section	.rodata._ZTS7b2Joint,"aG",%progbits,_ZTS7b2Joint,comdat
	.align	2
	.type	_ZTS7b2Joint, %object
	.size	_ZTS7b2Joint, 9
_ZTS7b2Joint:
	.ascii	"7b2Joint\000"
	.hidden	_ZTI7b2Joint
	.weak	_ZTI7b2Joint
	.section	.rodata._ZTI7b2Joint,"aG",%progbits,_ZTI7b2Joint,comdat
	.align	2
	.type	_ZTI7b2Joint, %object
	.size	_ZTI7b2Joint, 8
_ZTI7b2Joint:
	.word	_ZTVN10__cxxabiv117__class_type_infoE+8
	.word	_ZTS7b2Joint
	.section	.text._ZN11b2GearJointD1Ev,"axG",%progbits,_ZN11b2GearJointD1Ev,comdat
	.align	2
	.weak	_ZN11b2GearJointD1Ev
	.hidden	_ZN11b2GearJointD1Ev
	.type	_ZN11b2GearJointD1Ev, %function
_ZN11b2GearJointD1Ev:
.LFB543:
	.file 5 "v:/gigglingbits/box2d/Box2D/Dynamics/Joints/b2GearJoint.h"
	.loc 5 57 0
	.cfi_startproc
	@ args = 0, pretend = 0, frame = 8
	@ frame_needed = 0, uses_anonymous_args = 0
	str	lr, [sp, #-4]!
.LCFI61:
	.cfi_def_cfa_offset 4
	sub	sp, sp, #12
.LCFI62:
	.cfi_def_cfa_offset 16
	str	r0, [sp, #4]
	.loc 5 57 0
	ldr	r3, [sp, #4]
	ldr	r2, .L141
	str	r2, [r3, #0]
	ldr	r3, [sp, #4]
	mov	r0, r3
	.cfi_offset 14, -4
	bl	_ZN7b2JointD2Ev
	mov	r3, #0
	and	r3, r3, #255
	cmp	r3, #0
	beq	.L139
	ldr	r0, [sp, #4]
	bl	_ZdlPv
.L139:
	ldr	r3, [sp, #4]
	mov	r0, r3
	add	sp, sp, #12
	ldmfd	sp!, {pc}
.L142:
	.align	2
.L141:
	.word	_ZTV11b2GearJoint+8
	.cfi_endproc
.LFE543:
	.size	_ZN11b2GearJointD1Ev, .-_ZN11b2GearJointD1Ev
	.section	.text._ZN11b2GearJointD0Ev,"axG",%progbits,_ZN11b2GearJointD0Ev,comdat
	.align	2
	.weak	_ZN11b2GearJointD0Ev
	.hidden	_ZN11b2GearJointD0Ev
	.type	_ZN11b2GearJointD0Ev, %function
_ZN11b2GearJointD0Ev:
.LFB544:
	.loc 5 57 0
	.cfi_startproc
	@ args = 0, pretend = 0, frame = 8
	@ frame_needed = 0, uses_anonymous_args = 0
	str	lr, [sp, #-4]!
.LCFI63:
	.cfi_def_cfa_offset 4
	sub	sp, sp, #12
.LCFI64:
	.cfi_def_cfa_offset 16
	str	r0, [sp, #4]
	.loc 5 57 0
	ldr	r3, [sp, #4]
	ldr	r2, .L147
	str	r2, [r3, #0]
	ldr	r3, [sp, #4]
	mov	r0, r3
	.cfi_offset 14, -4
	bl	_ZN7b2JointD2Ev
	mov	r3, #1
	and	r3, r3, #255
	cmp	r3, #0
	beq	.L145
	ldr	r0, [sp, #4]
	bl	_ZdlPv
.L145:
	ldr	r3, [sp, #4]
	mov	r0, r3
	add	sp, sp, #12
	ldmfd	sp!, {pc}
.L148:
	.align	2
.L147:
	.word	_ZTV11b2GearJoint+8
	.cfi_endproc
.LFE544:
	.size	_ZN11b2GearJointD0Ev, .-_ZN11b2GearJointD0Ev
	.section	.rodata
	.align	2
	.type	_ZL12b2_chunkSize, %object
	.size	_ZL12b2_chunkSize, 4
_ZL12b2_chunkSize:
	.word	16384
	.align	2
	.type	_ZL15b2_maxBlockSize, %object
	.size	_ZL15b2_maxBlockSize, 4
_ZL15b2_maxBlockSize:
	.word	640
	.align	2
	.type	_ZL13b2_blockSizes, %object
	.size	_ZL13b2_blockSizes, 4
_ZL13b2_blockSizes:
	.word	14
	.align	2
	.type	_ZL22b2_chunkArrayIncrement, %object
	.size	_ZL22b2_chunkArrayIncrement, 4
_ZL22b2_chunkArrayIncrement:
	.word	128
	.type	_ZL14b2_nullFeature, %object
	.size	_ZL14b2_nullFeature, 1
_ZL14b2_nullFeature:
	.byte	-1
	.text
.Letext0: