	.arch armv5te
	.eabi_attribute 27, 3
	.fpu vfp
	.eabi_attribute 20, 1
	.eabi_attribute 21, 1
	.eabi_attribute 23, 3
	.eabi_attribute 24, 1
	.eabi_attribute 25, 1
	.eabi_attribute 26, 2
	.eabi_attribute 30, 6
	.eabi_attribute 18, 2
	.file	"b2PolygonShape.cpp"
	.text
.Ltext0:
	.cfi_sections	.debug_frame
	.section	.text._ZN6b2Vec2C1Ev,"axG",%progbits,_ZN6b2Vec2C1Ev,comdat
	.align	2
	.weak	_ZN6b2Vec2C1Ev
	.hidden	_ZN6b2Vec2C1Ev
	.type	_ZN6b2Vec2C1Ev, %function
_ZN6b2Vec2C1Ev:
.LFB4:
	.file 1 "v:/gigglingbits/box2d/Box2D/Common/b2Math.h"
	.loc 1 56 0
	.cfi_startproc
	@ args = 0, pretend = 0, frame = 8
	@ frame_needed = 0, uses_anonymous_args = 0
	@ link register save eliminated.
	sub	sp, sp, #8
.LCFI0:
	.cfi_def_cfa_offset 8
	str	r0, [sp, #4]
	.loc 1 56 0
	ldr	r3, [sp, #4]
	mov	r0, r3
	add	sp, sp, #8
	bx	lr
	.cfi_endproc
.LFE4:
	.size	_ZN6b2Vec2C1Ev, .-_ZN6b2Vec2C1Ev
	.section	.text._ZN6b2Vec2C1Eff,"axG",%progbits,_ZN6b2Vec2C1Eff,comdat
	.align	2
	.weak	_ZN6b2Vec2C1Eff
	.hidden	_ZN6b2Vec2C1Eff
	.type	_ZN6b2Vec2C1Eff, %function
_ZN6b2Vec2C1Eff:
.LFB7:
	.loc 1 59 0
	.cfi_startproc
	@ args = 0, pretend = 0, frame = 16
	@ frame_needed = 0, uses_anonymous_args = 0
	@ link register save eliminated.
	sub	sp, sp, #16
.LCFI1:
	.cfi_def_cfa_offset 16
	str	r0, [sp, #12]
	str	r1, [sp, #8]	@ float
	str	r2, [sp, #4]	@ float
	.loc 1 59 0
	ldr	r3, [sp, #12]
	flds	s15, [sp, #8]
	fsts	s15, [r3, #0]
	ldr	r3, [sp, #12]
	flds	s15, [sp, #4]
	fsts	s15, [r3, #4]
	ldr	r3, [sp, #12]
	mov	r0, r3
	add	sp, sp, #16
	bx	lr
	.cfi_endproc
.LFE7:
	.size	_ZN6b2Vec2C1Eff, .-_ZN6b2Vec2C1Eff
	.section	.text._ZN6b2Vec27SetZeroEv,"axG",%progbits,_ZN6b2Vec27SetZeroEv,comdat
	.align	2
	.weak	_ZN6b2Vec27SetZeroEv
	.hidden	_ZN6b2Vec27SetZeroEv
	.type	_ZN6b2Vec27SetZeroEv, %function
_ZN6b2Vec27SetZeroEv:
.LFB8:
	.loc 1 62 0
	.cfi_startproc
	@ args = 0, pretend = 0, frame = 8
	@ frame_needed = 0, uses_anonymous_args = 0
	@ link register save eliminated.
	sub	sp, sp, #8
.LCFI2:
	.cfi_def_cfa_offset 8
	str	r0, [sp, #4]
	.loc 1 62 0
	ldr	r3, [sp, #4]
	flds	s15, .L9
	fsts	s15, [r3, #0]
	ldr	r3, [sp, #4]
	flds	s15, .L9
	fsts	s15, [r3, #4]
	add	sp, sp, #8
	bx	lr
.L10:
	.align	2
.L9:
	.word	0
	.cfi_endproc
.LFE8:
	.size	_ZN6b2Vec27SetZeroEv, .-_ZN6b2Vec27SetZeroEv
	.section	.text._ZN6b2Vec23SetEff,"axG",%progbits,_ZN6b2Vec23SetEff,comdat
	.align	2
	.weak	_ZN6b2Vec23SetEff
	.hidden	_ZN6b2Vec23SetEff
	.type	_ZN6b2Vec23SetEff, %function
_ZN6b2Vec23SetEff:
.LFB9:
	.loc 1 65 0
	.cfi_startproc
	@ args = 0, pretend = 0, frame = 16
	@ frame_needed = 0, uses_anonymous_args = 0
	@ link register save eliminated.
	sub	sp, sp, #16
.LCFI3:
	.cfi_def_cfa_offset 16
	str	r0, [sp, #12]
	str	r1, [sp, #8]	@ float
	str	r2, [sp, #4]	@ float
	.loc 1 65 0
	ldr	r3, [sp, #12]
	flds	s15, [sp, #8]
	fsts	s15, [r3, #0]
	ldr	r3, [sp, #12]
	flds	s15, [sp, #4]
	fsts	s15, [r3, #4]
	add	sp, sp, #16
	bx	lr
	.cfi_endproc
.LFE9:
	.size	_ZN6b2Vec23SetEff, .-_ZN6b2Vec23SetEff
	.section	.text._ZN6b2Vec2pLERKS_,"axG",%progbits,_ZN6b2Vec2pLERKS_,comdat
	.align	2
	.weak	_ZN6b2Vec2pLERKS_
	.hidden	_ZN6b2Vec2pLERKS_
	.type	_ZN6b2Vec2pLERKS_, %function
_ZN6b2Vec2pLERKS_:
.LFB13:
	.loc 1 83 0
	.cfi_startproc
	@ args = 0, pretend = 0, frame = 8
	@ frame_needed = 0, uses_anonymous_args = 0
	@ link register save eliminated.
	sub	sp, sp, #8
.LCFI4:
	.cfi_def_cfa_offset 8
	str	r0, [sp, #4]
	str	r1, [sp, #0]
	.loc 1 85 0
	ldr	r3, [sp, #4]
	flds	s14, [r3, #0]
	ldr	r3, [sp, #0]
	flds	s15, [r3, #0]
	fadds	s15, s14, s15
	ldr	r3, [sp, #4]
	fsts	s15, [r3, #0]
	ldr	r3, [sp, #4]
	flds	s14, [r3, #4]
	ldr	r3, [sp, #0]
	flds	s15, [r3, #4]
	fadds	s15, s14, s15
	ldr	r3, [sp, #4]
	fsts	s15, [r3, #4]
	.loc 1 86 0
	add	sp, sp, #8
	bx	lr
	.cfi_endproc
.LFE13:
	.size	_ZN6b2Vec2pLERKS_, .-_ZN6b2Vec2pLERKS_
	.section	.text._ZN6b2Vec2mLEf,"axG",%progbits,_ZN6b2Vec2mLEf,comdat
	.align	2
	.weak	_ZN6b2Vec2mLEf
	.hidden	_ZN6b2Vec2mLEf
	.type	_ZN6b2Vec2mLEf, %function
_ZN6b2Vec2mLEf:
.LFB15:
	.loc 1 95 0
	.cfi_startproc
	@ args = 0, pretend = 0, frame = 8
	@ frame_needed = 0, uses_anonymous_args = 0
	@ link register save eliminated.
	sub	sp, sp, #8
.LCFI5:
	.cfi_def_cfa_offset 8
	str	r0, [sp, #4]
	str	r1, [sp, #0]	@ float
	.loc 1 97 0
	ldr	r3, [sp, #4]
	flds	s14, [r3, #0]
	flds	s15, [sp, #0]
	fmuls	s15, s14, s15
	ldr	r3, [sp, #4]
	fsts	s15, [r3, #0]
	ldr	r3, [sp, #4]
	flds	s14, [r3, #4]
	flds	s15, [sp, #0]
	fmuls	s15, s14, s15
	ldr	r3, [sp, #4]
	fsts	s15, [r3, #4]
	.loc 1 98 0
	add	sp, sp, #8
	bx	lr
	.cfi_endproc
.LFE15:
	.size	_ZN6b2Vec2mLEf, .-_ZN6b2Vec2mLEf
	.section	.text._ZNK6b2Vec26LengthEv,"axG",%progbits,_ZNK6b2Vec26LengthEv,comdat
	.align	2
	.weak	_ZNK6b2Vec26LengthEv
	.hidden	_ZNK6b2Vec26LengthEv
	.type	_ZNK6b2Vec26LengthEv, %function
_ZNK6b2Vec26LengthEv:
.LFB16:
	.loc 1 101 0
	.cfi_startproc
	@ args = 0, pretend = 0, frame = 8
	@ frame_needed = 0, uses_anonymous_args = 0
	str	lr, [sp, #-4]!
.LCFI6:
	.cfi_def_cfa_offset 4
	sub	sp, sp, #12
.LCFI7:
	.cfi_def_cfa_offset 16
	str	r0, [sp, #4]
	.loc 1 103 0
	ldr	r3, [sp, #4]
	flds	s14, [r3, #0]
	ldr	r3, [sp, #4]
	flds	s15, [r3, #0]
	fmuls	s14, s14, s15
	ldr	r3, [sp, #4]
	flds	s13, [r3, #4]
	ldr	r3, [sp, #4]
	flds	s15, [r3, #4]
	fmuls	s15, s13, s15
	fadds	s14, s14, s15
	fsqrts	s15, s14
	fcmps	s15, s15
	fmstat
	beq	.L18
	.cfi_offset 14, -4
	fmrs	r0, s14
	bl	sqrtf
	fmsr	s15, r0
.L18:
	fmrs	r3, s15
	.loc 1 104 0
	mov	r0, r3	@ float
	add	sp, sp, #12
	ldmfd	sp!, {pc}
	.cfi_endproc
.LFE16:
	.size	_ZNK6b2Vec26LengthEv, .-_ZNK6b2Vec26LengthEv
	.section	.text._ZNK6b2Vec213LengthSquaredEv,"axG",%progbits,_ZNK6b2Vec213LengthSquaredEv,comdat
	.align	2
	.weak	_ZNK6b2Vec213LengthSquaredEv
	.hidden	_ZNK6b2Vec213LengthSquaredEv
	.type	_ZNK6b2Vec213LengthSquaredEv, %function
_ZNK6b2Vec213LengthSquaredEv:
.LFB17:
	.loc 1 108 0
	.cfi_startproc
	@ args = 0, pretend = 0, frame = 8
	@ frame_needed = 0, uses_anonymous_args = 0
	@ link register save eliminated.
	sub	sp, sp, #8
.LCFI8:
	.cfi_def_cfa_offset 8
	str	r0, [sp, #4]
	.loc 1 110 0
	ldr	r3, [sp, #4]
	flds	s14, [r3, #0]
	ldr	r3, [sp, #4]
	flds	s15, [r3, #0]
	fmuls	s14, s14, s15
	ldr	r3, [sp, #4]
	flds	s13, [r3, #4]
	ldr	r3, [sp, #4]
	flds	s15, [r3, #4]
	fmuls	s15, s13, s15
	fadds	s15, s14, s15
	fmrs	r3, s15
	.loc 1 111 0
	mov	r0, r3	@ float
	add	sp, sp, #8
	bx	lr
	.cfi_endproc
.LFE17:
	.size	_ZNK6b2Vec213LengthSquaredEv, .-_ZNK6b2Vec213LengthSquaredEv
	.section	.text._ZN6b2Vec29NormalizeEv,"axG",%progbits,_ZN6b2Vec29NormalizeEv,comdat
	.align	2
	.weak	_ZN6b2Vec29NormalizeEv
	.hidden	_ZN6b2Vec29NormalizeEv
	.type	_ZN6b2Vec29NormalizeEv, %function
_ZN6b2Vec29NormalizeEv:
.LFB18:
	.loc 1 114 0
	.cfi_startproc
	@ args = 0, pretend = 0, frame = 16
	@ frame_needed = 0, uses_anonymous_args = 0
	str	lr, [sp, #-4]!
.LCFI9:
	.cfi_def_cfa_offset 4
	sub	sp, sp, #20
.LCFI10:
	.cfi_def_cfa_offset 24
	str	r0, [sp, #4]
.LBB2:
	.loc 1 116 0
	ldr	r0, [sp, #4]
	.cfi_offset 14, -4
	bl	_ZNK6b2Vec26LengthEv
	mov	r3, r0	@ float
	str	r3, [sp, #8]	@ float
	.loc 1 117 0
	flds	s14, [sp, #8]
	flds	s15, .L26
	fcmpes	s14, s15
	fmstat
	movpl	r3, #0
	movmi	r3, #1
	and	r3, r3, #255
	cmp	r3, #0
	beq	.L23
	.loc 1 119 0
	flds	s15, .L26+4
	b	.L24
.L23:
	.loc 1 121 0
	flds	s14, .L26+8
	flds	s15, [sp, #8]
	fdivs	s15, s14, s15
	fsts	s15, [sp, #12]
	.loc 1 122 0
	ldr	r3, [sp, #4]
	flds	s14, [r3, #0]
	flds	s15, [sp, #12]
	fmuls	s15, s14, s15
	ldr	r3, [sp, #4]
	fsts	s15, [r3, #0]
	.loc 1 123 0
	ldr	r3, [sp, #4]
	flds	s14, [r3, #4]
	flds	s15, [sp, #12]
	fmuls	s15, s14, s15
	ldr	r3, [sp, #4]
	fsts	s15, [r3, #4]
	.loc 1 125 0
	flds	s15, [sp, #8]
.L24:
	fmrs	r3, s15
.LBE2:
	.loc 1 126 0
	mov	r0, r3	@ float
	add	sp, sp, #20
	ldmfd	sp!, {pc}
.L27:
	.align	2
.L26:
	.word	872415232
	.word	0
	.word	1065353216
	.cfi_endproc
.LFE18:
	.size	_ZN6b2Vec29NormalizeEv, .-_ZN6b2Vec29NormalizeEv
	.section	.text._ZN5b2RotC1Ev,"axG",%progbits,_ZN5b2RotC1Ev,comdat
	.align	2
	.weak	_ZN5b2RotC1Ev
	.hidden	_ZN5b2RotC1Ev
	.type	_ZN5b2RotC1Ev, %function
_ZN5b2RotC1Ev:
.LFB56:
	.loc 1 301 0
	.cfi_startproc
	@ args = 0, pretend = 0, frame = 8
	@ frame_needed = 0, uses_anonymous_args = 0
	@ link register save eliminated.
	sub	sp, sp, #8
.LCFI11:
	.cfi_def_cfa_offset 8
	str	r0, [sp, #4]
	.loc 1 301 0
	ldr	r3, [sp, #4]
	mov	r0, r3
	add	sp, sp, #8
	bx	lr
	.cfi_endproc
.LFE56:
	.size	_ZN5b2RotC1Ev, .-_ZN5b2RotC1Ev
	.section	.text._ZN5b2Rot3SetEf,"axG",%progbits,_ZN5b2Rot3SetEf,comdat
	.align	2
	.weak	_ZN5b2Rot3SetEf
	.hidden	_ZN5b2Rot3SetEf
	.type	_ZN5b2Rot3SetEf, %function
_ZN5b2Rot3SetEf:
.LFB60:
	.loc 1 312 0
	.cfi_startproc
	@ args = 0, pretend = 0, frame = 8
	@ frame_needed = 0, uses_anonymous_args = 0
	str	lr, [sp, #-4]!
.LCFI12:
	.cfi_def_cfa_offset 4
	sub	sp, sp, #12
.LCFI13:
	.cfi_def_cfa_offset 16
	str	r0, [sp, #4]
	str	r1, [sp, #0]	@ float
	.loc 1 315 0
	ldr	r0, [sp, #0]	@ float
	.cfi_offset 14, -4
	bl	sinf
	mov	r2, r0	@ float
	ldr	r3, [sp, #4]
	str	r2, [r3, #0]	@ float
	.loc 1 316 0
	ldr	r0, [sp, #0]	@ float
	bl	cosf
	mov	r2, r0	@ float
	ldr	r3, [sp, #4]
	str	r2, [r3, #4]	@ float
	.loc 1 317 0
	add	sp, sp, #12
	ldmfd	sp!, {pc}
	.cfi_endproc
.LFE60:
	.size	_ZN5b2Rot3SetEf, .-_ZN5b2Rot3SetEf
	.section	.text._ZN11b2TransformC1Ev,"axG",%progbits,_ZN11b2TransformC1Ev,comdat
	.align	2
	.weak	_ZN11b2TransformC1Ev
	.hidden	_ZN11b2TransformC1Ev
	.type	_ZN11b2TransformC1Ev, %function
_ZN11b2TransformC1Ev:
.LFB67:
	.loc 1 353 0
	.cfi_startproc
	@ args = 0, pretend = 0, frame = 8
	@ frame_needed = 0, uses_anonymous_args = 0
	str	lr, [sp, #-4]!
.LCFI14:
	.cfi_def_cfa_offset 4
	sub	sp, sp, #12
.LCFI15:
	.cfi_def_cfa_offset 16
	str	r0, [sp, #4]
	.loc 1 353 0
	ldr	r3, [sp, #4]
	mov	r0, r3
	.cfi_offset 14, -4
	bl	_ZN6b2Vec2C1Ev
	ldr	r3, [sp, #4]
	add	r3, r3, #8
	mov	r0, r3
	bl	_ZN5b2RotC1Ev
	ldr	r3, [sp, #4]
	mov	r0, r3
	add	sp, sp, #12
	ldmfd	sp!, {pc}
	.cfi_endproc
.LFE67:
	.size	_ZN11b2TransformC1Ev, .-_ZN11b2TransformC1Ev
	.section	.text._Z5b2DotRK6b2Vec2S1_,"axG",%progbits,_Z5b2DotRK6b2Vec2S1_,comdat
	.align	2
	.weak	_Z5b2DotRK6b2Vec2S1_
	.hidden	_Z5b2DotRK6b2Vec2S1_
	.type	_Z5b2DotRK6b2Vec2S1_, %function
_Z5b2DotRK6b2Vec2S1_:
.LFB73:
	.loc 1 407 0
	.cfi_startproc
	@ args = 0, pretend = 0, frame = 8
	@ frame_needed = 0, uses_anonymous_args = 0
	@ link register save eliminated.
	sub	sp, sp, #8
.LCFI16:
	.cfi_def_cfa_offset 8
	str	r0, [sp, #4]
	str	r1, [sp, #0]
	.loc 1 408 0
	ldr	r3, [sp, #4]
	flds	s14, [r3, #0]
	ldr	r3, [sp, #0]
	flds	s15, [r3, #0]
	fmuls	s14, s14, s15
	ldr	r3, [sp, #4]
	flds	s13, [r3, #4]
	ldr	r3, [sp, #0]
	flds	s15, [r3, #4]
	fmuls	s15, s13, s15
	fadds	s15, s14, s15
	fmrs	r3, s15
	.loc 1 409 0
	mov	r0, r3	@ float
	add	sp, sp, #8
	bx	lr
	.cfi_endproc
.LFE73:
	.size	_Z5b2DotRK6b2Vec2S1_, .-_Z5b2DotRK6b2Vec2S1_
	.section	.text._Z7b2CrossRK6b2Vec2S1_,"axG",%progbits,_Z7b2CrossRK6b2Vec2S1_,comdat
	.align	2
	.weak	_Z7b2CrossRK6b2Vec2S1_
	.hidden	_Z7b2CrossRK6b2Vec2S1_
	.type	_Z7b2CrossRK6b2Vec2S1_, %function
_Z7b2CrossRK6b2Vec2S1_:
.LFB74:
	.loc 1 413 0
	.cfi_startproc
	@ args = 0, pretend = 0, frame = 8
	@ frame_needed = 0, uses_anonymous_args = 0
	@ link register save eliminated.
	sub	sp, sp, #8
.LCFI17:
	.cfi_def_cfa_offset 8
	str	r0, [sp, #4]
	str	r1, [sp, #0]
	.loc 1 414 0
	ldr	r3, [sp, #4]
	flds	s14, [r3, #0]
	ldr	r3, [sp, #0]
	flds	s15, [r3, #4]
	fmuls	s14, s14, s15
	ldr	r3, [sp, #4]
	flds	s13, [r3, #4]
	ldr	r3, [sp, #0]
	flds	s15, [r3, #0]
	fmuls	s15, s13, s15
	fsubs	s15, s14, s15
	fmrs	r3, s15
	.loc 1 415 0
	mov	r0, r3	@ float
	add	sp, sp, #8
	bx	lr
	.cfi_endproc
.LFE74:
	.size	_Z7b2CrossRK6b2Vec2S1_, .-_Z7b2CrossRK6b2Vec2S1_
	.section	.text._Z7b2CrossRK6b2Vec2f,"axG",%progbits,_Z7b2CrossRK6b2Vec2f,comdat
	.align	2
	.weak	_Z7b2CrossRK6b2Vec2f
	.hidden	_Z7b2CrossRK6b2Vec2f
	.type	_Z7b2CrossRK6b2Vec2f, %function
_Z7b2CrossRK6b2Vec2f:
.LFB75:
	.loc 1 420 0
	.cfi_startproc
	@ args = 0, pretend = 0, frame = 8
	@ frame_needed = 0, uses_anonymous_args = 0
	stmfd	sp!, {r4, lr}
.LCFI18:
	.cfi_def_cfa_offset 8
	sub	sp, sp, #8
.LCFI19:
	.cfi_def_cfa_offset 16
	mov	r4, r0
	.cfi_offset 14, -4
	.cfi_offset 4, -8
	str	r1, [sp, #4]
	str	r2, [sp, #0]	@ float
	.loc 1 421 0
	ldr	r3, [sp, #4]
	flds	s14, [r3, #4]
	flds	s15, [sp, #0]
	fmuls	s14, s14, s15
	flds	s15, [sp, #0]
	fnegs	s13, s15
	ldr	r3, [sp, #4]
	flds	s15, [r3, #0]
	fmuls	s15, s13, s15
	mov	r0, r4
	fmrs	r1, s14
	fmrs	r2, s15
	bl	_ZN6b2Vec2C1Eff
	.loc 1 422 0
	mov	r0, r4
	add	sp, sp, #8
	ldmfd	sp!, {r4, pc}
	.cfi_endproc
.LFE75:
	.size	_Z7b2CrossRK6b2Vec2f, .-_Z7b2CrossRK6b2Vec2f
	.section	.text._ZplRK6b2Vec2S1_,"axG",%progbits,_ZplRK6b2Vec2S1_,comdat
	.align	2
	.weak	_ZplRK6b2Vec2S1_
	.hidden	_ZplRK6b2Vec2S1_
	.type	_ZplRK6b2Vec2S1_, %function
_ZplRK6b2Vec2S1_:
.LFB79:
	.loc 1 447 0
	.cfi_startproc
	@ args = 0, pretend = 0, frame = 8
	@ frame_needed = 0, uses_anonymous_args = 0
	stmfd	sp!, {r4, lr}
.LCFI20:
	.cfi_def_cfa_offset 8
	sub	sp, sp, #8
.LCFI21:
	.cfi_def_cfa_offset 16
	mov	r4, r0
	.cfi_offset 14, -4
	.cfi_offset 4, -8
	str	r1, [sp, #4]
	str	r2, [sp, #0]
	.loc 1 448 0
	ldr	r3, [sp, #4]
	flds	s14, [r3, #0]
	ldr	r3, [sp, #0]
	flds	s15, [r3, #0]
	fadds	s13, s14, s15
	ldr	r3, [sp, #4]
	flds	s14, [r3, #4]
	ldr	r3, [sp, #0]
	flds	s15, [r3, #4]
	fadds	s15, s14, s15
	mov	r0, r4
	fmrs	r1, s13
	fmrs	r2, s15
	bl	_ZN6b2Vec2C1Eff
	.loc 1 449 0
	mov	r0, r4
	add	sp, sp, #8
	ldmfd	sp!, {r4, pc}
	.cfi_endproc
.LFE79:
	.size	_ZplRK6b2Vec2S1_, .-_ZplRK6b2Vec2S1_
	.section	.text._ZmiRK6b2Vec2S1_,"axG",%progbits,_ZmiRK6b2Vec2S1_,comdat
	.align	2
	.weak	_ZmiRK6b2Vec2S1_
	.hidden	_ZmiRK6b2Vec2S1_
	.type	_ZmiRK6b2Vec2S1_, %function
_ZmiRK6b2Vec2S1_:
.LFB80:
	.loc 1 453 0
	.cfi_startproc
	@ args = 0, pretend = 0, frame = 8
	@ frame_needed = 0, uses_anonymous_args = 0
	stmfd	sp!, {r4, lr}
.LCFI22:
	.cfi_def_cfa_offset 8
	sub	sp, sp, #8
.LCFI23:
	.cfi_def_cfa_offset 16
	mov	r4, r0
	.cfi_offset 14, -4
	.cfi_offset 4, -8
	str	r1, [sp, #4]
	str	r2, [sp, #0]
	.loc 1 454 0
	ldr	r3, [sp, #4]
	flds	s14, [r3, #0]
	ldr	r3, [sp, #0]
	flds	s15, [r3, #0]
	fsubs	s13, s14, s15
	ldr	r3, [sp, #4]
	flds	s14, [r3, #4]
	ldr	r3, [sp, #0]
	flds	s15, [r3, #4]
	fsubs	s15, s14, s15
	mov	r0, r4
	fmrs	r1, s13
	fmrs	r2, s15
	bl	_ZN6b2Vec2C1Eff
	.loc 1 455 0
	mov	r0, r4
	add	sp, sp, #8
	ldmfd	sp!, {r4, pc}
	.cfi_endproc
.LFE80:
	.size	_ZmiRK6b2Vec2S1_, .-_ZmiRK6b2Vec2S1_
	.section	.text._ZmlfRK6b2Vec2,"axG",%progbits,_ZmlfRK6b2Vec2,comdat
	.align	2
	.weak	_ZmlfRK6b2Vec2
	.hidden	_ZmlfRK6b2Vec2
	.type	_ZmlfRK6b2Vec2, %function
_ZmlfRK6b2Vec2:
.LFB81:
	.loc 1 458 0
	.cfi_startproc
	@ args = 0, pretend = 0, frame = 8
	@ frame_needed = 0, uses_anonymous_args = 0
	stmfd	sp!, {r4, lr}
.LCFI24:
	.cfi_def_cfa_offset 8
	sub	sp, sp, #8
.LCFI25:
	.cfi_def_cfa_offset 16
	mov	r4, r0
	.cfi_offset 14, -4
	.cfi_offset 4, -8
	str	r1, [sp, #4]	@ float
	str	r2, [sp, #0]
	.loc 1 459 0
	ldr	r3, [sp, #0]
	flds	s14, [r3, #0]
	flds	s15, [sp, #4]
	fmuls	s14, s14, s15
	ldr	r3, [sp, #0]
	flds	s13, [r3, #4]
	flds	s15, [sp, #4]
	fmuls	s15, s13, s15
	mov	r0, r4
	fmrs	r1, s14
	fmrs	r2, s15
	bl	_ZN6b2Vec2C1Eff
	.loc 1 460 0
	mov	r0, r4
	add	sp, sp, #8
	ldmfd	sp!, {r4, pc}
	.cfi_endproc
.LFE81:
	.size	_ZmlfRK6b2Vec2, .-_ZmlfRK6b2Vec2
	.section	.text._Z17b2DistanceSquaredRK6b2Vec2S1_,"axG",%progbits,_Z17b2DistanceSquaredRK6b2Vec2S1_,comdat
	.align	2
	.weak	_Z17b2DistanceSquaredRK6b2Vec2S1_
	.hidden	_Z17b2DistanceSquaredRK6b2Vec2S1_
	.type	_Z17b2DistanceSquaredRK6b2Vec2S1_, %function
_Z17b2DistanceSquaredRK6b2Vec2S1_:
.LFB84:
	.loc 1 474 0
	.cfi_startproc
	@ args = 0, pretend = 0, frame = 16
	@ frame_needed = 0, uses_anonymous_args = 0
	str	lr, [sp, #-4]!
.LCFI26:
	.cfi_def_cfa_offset 4
	sub	sp, sp, #20
.LCFI27:
	.cfi_def_cfa_offset 24
	str	r0, [sp, #4]
	str	r1, [sp, #0]
.LBB3:
	.loc 1 475 0
	add	r3, sp, #8
	mov	r0, r3
	ldr	r1, [sp, #4]
	ldr	r2, [sp, #0]
	.cfi_offset 14, -4
	bl	_ZmiRK6b2Vec2S1_
	.loc 1 476 0
	add	r2, sp, #8
	add	r3, sp, #8
	mov	r0, r2
	mov	r1, r3
	bl	_Z5b2DotRK6b2Vec2S1_
	mov	r3, r0	@ float
	fmsr	s15, r3
	fmrs	r3, s15
.LBE3:
	.loc 1 477 0
	mov	r0, r3	@ float
	add	sp, sp, #20
	ldmfd	sp!, {pc}
	.cfi_endproc
.LFE84:
	.size	_Z17b2DistanceSquaredRK6b2Vec2S1_, .-_Z17b2DistanceSquaredRK6b2Vec2S1_
	.section	.text._Z5b2MulRK5b2RotRK6b2Vec2,"axG",%progbits,_Z5b2MulRK5b2RotRK6b2Vec2,comdat
	.align	2
	.weak	_Z5b2MulRK5b2RotRK6b2Vec2
	.hidden	_Z5b2MulRK5b2RotRK6b2Vec2
	.type	_Z5b2MulRK5b2RotRK6b2Vec2, %function
_Z5b2MulRK5b2RotRK6b2Vec2:
.LFB97:
	.loc 1 567 0
	.cfi_startproc
	@ args = 0, pretend = 0, frame = 8
	@ frame_needed = 0, uses_anonymous_args = 0
	stmfd	sp!, {r4, lr}
.LCFI28:
	.cfi_def_cfa_offset 8
	sub	sp, sp, #8
.LCFI29:
	.cfi_def_cfa_offset 16
	mov	r4, r0
	.cfi_offset 14, -4
	.cfi_offset 4, -8
	str	r1, [sp, #4]
	str	r2, [sp, #0]
	.loc 1 568 0
	ldr	r3, [sp, #4]
	flds	s14, [r3, #4]
	ldr	r3, [sp, #0]
	flds	s15, [r3, #0]
	fmuls	s14, s14, s15
	ldr	r3, [sp, #4]
	flds	s13, [r3, #0]
	ldr	r3, [sp, #0]
	flds	s15, [r3, #4]
	fmuls	s15, s13, s15
	fsubs	s12, s14, s15
	ldr	r3, [sp, #4]
	flds	s14, [r3, #0]
	ldr	r3, [sp, #0]
	flds	s15, [r3, #0]
	fmuls	s14, s14, s15
	ldr	r3, [sp, #4]
	flds	s13, [r3, #4]
	ldr	r3, [sp, #0]
	flds	s15, [r3, #4]
	fmuls	s15, s13, s15
	fadds	s15, s14, s15
	mov	r0, r4
	fmrs	r1, s12
	fmrs	r2, s15
	bl	_ZN6b2Vec2C1Eff
	.loc 1 569 0
	mov	r0, r4
	add	sp, sp, #8
	ldmfd	sp!, {r4, pc}
	.cfi_endproc
.LFE97:
	.size	_Z5b2MulRK5b2RotRK6b2Vec2, .-_Z5b2MulRK5b2RotRK6b2Vec2
	.section	.text._Z6b2MulTRK5b2RotRK6b2Vec2,"axG",%progbits,_Z6b2MulTRK5b2RotRK6b2Vec2,comdat
	.align	2
	.weak	_Z6b2MulTRK5b2RotRK6b2Vec2
	.hidden	_Z6b2MulTRK5b2RotRK6b2Vec2
	.type	_Z6b2MulTRK5b2RotRK6b2Vec2, %function
_Z6b2MulTRK5b2RotRK6b2Vec2:
.LFB98:
	.loc 1 573 0
	.cfi_startproc
	@ args = 0, pretend = 0, frame = 8
	@ frame_needed = 0, uses_anonymous_args = 0
	stmfd	sp!, {r4, lr}
.LCFI30:
	.cfi_def_cfa_offset 8
	sub	sp, sp, #8
.LCFI31:
	.cfi_def_cfa_offset 16
	mov	r4, r0
	.cfi_offset 14, -4
	.cfi_offset 4, -8
	str	r1, [sp, #4]
	str	r2, [sp, #0]
	.loc 1 574 0
	ldr	r3, [sp, #4]
	flds	s14, [r3, #4]
	ldr	r3, [sp, #0]
	flds	s15, [r3, #0]
	fmuls	s14, s14, s15
	ldr	r3, [sp, #4]
	flds	s13, [r3, #0]
	ldr	r3, [sp, #0]
	flds	s15, [r3, #4]
	fmuls	s15, s13, s15
	fadds	s12, s14, s15
	ldr	r3, [sp, #4]
	flds	s15, [r3, #0]
	fnegs	s14, s15
	ldr	r3, [sp, #0]
	flds	s15, [r3, #0]
	fmuls	s14, s14, s15
	ldr	r3, [sp, #4]
	flds	s13, [r3, #4]
	ldr	r3, [sp, #0]
	flds	s15, [r3, #4]
	fmuls	s15, s13, s15
	fadds	s15, s14, s15
	mov	r0, r4
	fmrs	r1, s12
	fmrs	r2, s15
	bl	_ZN6b2Vec2C1Eff
	.loc 1 575 0
	mov	r0, r4
	add	sp, sp, #8
	ldmfd	sp!, {r4, pc}
	.cfi_endproc
.LFE98:
	.size	_Z6b2MulTRK5b2RotRK6b2Vec2, .-_Z6b2MulTRK5b2RotRK6b2Vec2
	.section	.text._Z5b2MulRK11b2TransformRK6b2Vec2,"axG",%progbits,_Z5b2MulRK11b2TransformRK6b2Vec2,comdat
	.align	2
	.weak	_Z5b2MulRK11b2TransformRK6b2Vec2
	.hidden	_Z5b2MulRK11b2TransformRK6b2Vec2
	.type	_Z5b2MulRK11b2TransformRK6b2Vec2, %function
_Z5b2MulRK11b2TransformRK6b2Vec2:
.LFB99:
	.loc 1 578 0
	.cfi_startproc
	@ args = 0, pretend = 0, frame = 16
	@ frame_needed = 0, uses_anonymous_args = 0
	stmfd	sp!, {r4, lr}
.LCFI32:
	.cfi_def_cfa_offset 8
	sub	sp, sp, #16
.LCFI33:
	.cfi_def_cfa_offset 24
	mov	r4, r0
	.cfi_offset 14, -4
	.cfi_offset 4, -8
	str	r1, [sp, #4]
	str	r2, [sp, #0]
.LBB4:
	.loc 1 579 0
	ldr	r3, [sp, #4]
	flds	s14, [r3, #12]
	ldr	r3, [sp, #0]
	flds	s15, [r3, #0]
	fmuls	s14, s14, s15
	ldr	r3, [sp, #4]
	flds	s13, [r3, #8]
	ldr	r3, [sp, #0]
	flds	s15, [r3, #4]
	fmuls	s15, s13, s15
	fsubs	s14, s14, s15
	ldr	r3, [sp, #4]
	flds	s15, [r3, #0]
	fadds	s15, s14, s15
	fsts	s15, [sp, #8]
	.loc 1 580 0
	ldr	r3, [sp, #4]
	flds	s14, [r3, #8]
	ldr	r3, [sp, #0]
	flds	s15, [r3, #0]
	fmuls	s14, s14, s15
	ldr	r3, [sp, #4]
	flds	s13, [r3, #12]
	ldr	r3, [sp, #0]
	flds	s15, [r3, #4]
	fmuls	s15, s13, s15
	fadds	s14, s14, s15
	ldr	r3, [sp, #4]
	flds	s15, [r3, #4]
	fadds	s15, s14, s15
	fsts	s15, [sp, #12]
	.loc 1 582 0
	mov	r0, r4
	ldr	r1, [sp, #8]	@ float
	ldr	r2, [sp, #12]	@ float
	bl	_ZN6b2Vec2C1Eff
.LBE4:
	.loc 1 583 0
	mov	r0, r4
	add	sp, sp, #16
	ldmfd	sp!, {r4, pc}
	.cfi_endproc
.LFE99:
	.size	_Z5b2MulRK11b2TransformRK6b2Vec2, .-_Z5b2MulRK11b2TransformRK6b2Vec2
	.section	.text._Z5b2MinRK6b2Vec2S1_,"axG",%progbits,_Z5b2MinRK6b2Vec2S1_,comdat
	.align	2
	.weak	_Z5b2MinRK6b2Vec2S1_
	.hidden	_Z5b2MinRK6b2Vec2S1_
	.type	_Z5b2MinRK6b2Vec2S1_, %function
_Z5b2MinRK6b2Vec2S1_:
.LFB107:
	.loc 1 638 0
	.cfi_startproc
	@ args = 0, pretend = 0, frame = 8
	@ frame_needed = 0, uses_anonymous_args = 0
	stmfd	sp!, {r4, r5, lr}
.LCFI34:
	.cfi_def_cfa_offset 12
	sub	sp, sp, #12
.LCFI35:
	.cfi_def_cfa_offset 24
	mov	r4, r0
	.cfi_offset 14, -4
	.cfi_offset 5, -8
	.cfi_offset 4, -12
	str	r1, [sp, #4]
	str	r2, [sp, #0]
	.loc 1 639 0
	ldr	r3, [sp, #4]
	ldr	r2, [r3, #0]	@ float
	ldr	r3, [sp, #0]
	ldr	r3, [r3, #0]	@ float
	mov	r0, r2	@ float
	mov	r1, r3	@ float
	bl	_Z5b2MinIfET_S0_S0_
	mov	r5, r0	@ float
	ldr	r3, [sp, #4]
	ldr	r2, [r3, #4]	@ float
	ldr	r3, [sp, #0]
	ldr	r3, [r3, #4]	@ float
	mov	r0, r2	@ float
	mov	r1, r3	@ float
	bl	_Z5b2MinIfET_S0_S0_
	mov	r3, r0	@ float
	mov	r0, r4
	mov	r1, r5	@ float
	mov	r2, r3	@ float
	bl	_ZN6b2Vec2C1Eff
	.loc 1 640 0
	mov	r0, r4
	add	sp, sp, #12
	ldmfd	sp!, {r4, r5, pc}
	.cfi_endproc
.LFE107:
	.size	_Z5b2MinRK6b2Vec2S1_, .-_Z5b2MinRK6b2Vec2S1_
	.section	.text._Z5b2MaxRK6b2Vec2S1_,"axG",%progbits,_Z5b2MaxRK6b2Vec2S1_,comdat
	.align	2
	.weak	_Z5b2MaxRK6b2Vec2S1_
	.hidden	_Z5b2MaxRK6b2Vec2S1_
	.type	_Z5b2MaxRK6b2Vec2S1_, %function
_Z5b2MaxRK6b2Vec2S1_:
.LFB109:
	.loc 1 649 0
	.cfi_startproc
	@ args = 0, pretend = 0, frame = 8
	@ frame_needed = 0, uses_anonymous_args = 0
	stmfd	sp!, {r4, r5, lr}
.LCFI36:
	.cfi_def_cfa_offset 12
	sub	sp, sp, #12
.LCFI37:
	.cfi_def_cfa_offset 24
	mov	r4, r0
	.cfi_offset 14, -4
	.cfi_offset 5, -8
	.cfi_offset 4, -12
	str	r1, [sp, #4]
	str	r2, [sp, #0]
	.loc 1 650 0
	ldr	r3, [sp, #4]
	ldr	r2, [r3, #0]	@ float
	ldr	r3, [sp, #0]
	ldr	r3, [r3, #0]	@ float
	mov	r0, r2	@ float
	mov	r1, r3	@ float
	bl	_Z5b2MaxIfET_S0_S0_
	mov	r5, r0	@ float
	ldr	r3, [sp, #4]
	ldr	r2, [r3, #4]	@ float
	ldr	r3, [sp, #0]
	ldr	r3, [r3, #4]	@ float
	mov	r0, r2	@ float
	mov	r1, r3	@ float
	bl	_Z5b2MaxIfET_S0_S0_
	mov	r3, r0	@ float
	mov	r0, r4
	mov	r1, r5	@ float
	mov	r2, r3	@ float
	bl	_ZN6b2Vec2C1Eff
	.loc 1 651 0
	mov	r0, r4
	add	sp, sp, #12
	ldmfd	sp!, {r4, r5, pc}
	.cfi_endproc
.LFE109:
	.size	_Z5b2MaxRK6b2Vec2S1_, .-_Z5b2MaxRK6b2Vec2S1_
	.section	.text._ZN7b2ShapeD2Ev,"axG",%progbits,_ZN7b2ShapeD2Ev,comdat
	.align	2
	.weak	_ZN7b2ShapeD2Ev
	.hidden	_ZN7b2ShapeD2Ev
	.type	_ZN7b2ShapeD2Ev, %function
_ZN7b2ShapeD2Ev:
.LFB127:
	.file 2 "v:/gigglingbits/box2d/Box2D/Collision/Shapes/b2Shape.h"
	.loc 2 55 0
	.cfi_startproc
	@ args = 0, pretend = 0, frame = 8
	@ frame_needed = 0, uses_anonymous_args = 0
	str	lr, [sp, #-4]!
.LCFI38:
	.cfi_def_cfa_offset 4
	sub	sp, sp, #12
.LCFI39:
	.cfi_def_cfa_offset 16
	str	r0, [sp, #4]
	.loc 2 55 0
	ldr	r3, [sp, #4]
	ldr	r2, .L64
	str	r2, [r3, #0]
	mov	r3, #0
	and	r3, r3, #255
	cmp	r3, #0
	beq	.L62
	.cfi_offset 14, -4
	ldr	r0, [sp, #4]
	bl	_ZdlPv
.L62:
	ldr	r3, [sp, #4]
	mov	r0, r3
	add	sp, sp, #12
	ldmfd	sp!, {pc}
.L65:
	.align	2
.L64:
	.word	_ZTV7b2Shape+8
	.cfi_endproc
.LFE127:
	.size	_ZN7b2ShapeD2Ev, .-_ZN7b2ShapeD2Ev
	.section	.text._ZN7b2ShapeD1Ev,"axG",%progbits,_ZN7b2ShapeD1Ev,comdat
	.align	2
	.weak	_ZN7b2ShapeD1Ev
	.hidden	_ZN7b2ShapeD1Ev
	.type	_ZN7b2ShapeD1Ev, %function
_ZN7b2ShapeD1Ev:
.LFB128:
	.loc 2 55 0
	.cfi_startproc
	@ args = 0, pretend = 0, frame = 8
	@ frame_needed = 0, uses_anonymous_args = 0
	str	lr, [sp, #-4]!
.LCFI40:
	.cfi_def_cfa_offset 4
	sub	sp, sp, #12
.LCFI41:
	.cfi_def_cfa_offset 16
	str	r0, [sp, #4]
	.loc 2 55 0
	ldr	r3, [sp, #4]
	ldr	r2, .L70
	str	r2, [r3, #0]
	mov	r3, #0
	and	r3, r3, #255
	cmp	r3, #0
	beq	.L68
	.cfi_offset 14, -4
	ldr	r0, [sp, #4]
	bl	_ZdlPv
.L68:
	ldr	r3, [sp, #4]
	mov	r0, r3
	add	sp, sp, #12
	ldmfd	sp!, {pc}
.L71:
	.align	2
.L70:
	.word	_ZTV7b2Shape+8
	.cfi_endproc
.LFE128:
	.size	_ZN7b2ShapeD1Ev, .-_ZN7b2ShapeD1Ev
	.section	.text._ZN7b2ShapeD0Ev,"axG",%progbits,_ZN7b2ShapeD0Ev,comdat
	.align	2
	.weak	_ZN7b2ShapeD0Ev
	.hidden	_ZN7b2ShapeD0Ev
	.type	_ZN7b2ShapeD0Ev, %function
_ZN7b2ShapeD0Ev:
.LFB129:
	.loc 2 55 0
	.cfi_startproc
	@ args = 0, pretend = 0, frame = 8
	@ frame_needed = 0, uses_anonymous_args = 0
	str	lr, [sp, #-4]!
.LCFI42:
	.cfi_def_cfa_offset 4
	sub	sp, sp, #12
.LCFI43:
	.cfi_def_cfa_offset 16
	str	r0, [sp, #4]
	.loc 2 55 0
	ldr	r3, [sp, #4]
	ldr	r2, .L76
	str	r2, [r3, #0]
	mov	r3, #1
	and	r3, r3, #255
	cmp	r3, #0
	beq	.L74
	.cfi_offset 14, -4
	ldr	r0, [sp, #4]
	bl	_ZdlPv
.L74:
	ldr	r3, [sp, #4]
	mov	r0, r3
	add	sp, sp, #12
	ldmfd	sp!, {pc}
.L77:
	.align	2
.L76:
	.word	_ZTV7b2Shape+8
	.cfi_endproc
.LFE129:
	.size	_ZN7b2ShapeD0Ev, .-_ZN7b2ShapeD0Ev
	.section	.text._ZN7b2ShapeC2Ev,"axG",%progbits,_ZN7b2ShapeC2Ev,comdat
	.align	2
	.weak	_ZN7b2ShapeC2Ev
	.hidden	_ZN7b2ShapeC2Ev
	.type	_ZN7b2ShapeC2Ev, %function
_ZN7b2ShapeC2Ev:
.LFB134:
	.loc 2 43 0
	.cfi_startproc
	@ args = 0, pretend = 0, frame = 8
	@ frame_needed = 0, uses_anonymous_args = 0
	@ link register save eliminated.
	sub	sp, sp, #8
.LCFI44:
	.cfi_def_cfa_offset 8
	str	r0, [sp, #4]
	.loc 2 43 0
	ldr	r3, [sp, #4]
	ldr	r2, .L81
	str	r2, [r3, #0]
	ldr	r3, [sp, #4]
	mov	r0, r3
	add	sp, sp, #8
	bx	lr
.L82:
	.align	2
.L81:
	.word	_ZTV7b2Shape+8
	.cfi_endproc
.LFE134:
	.size	_ZN7b2ShapeC2Ev, .-_ZN7b2ShapeC2Ev
	.section	.text._ZN14b2PolygonShapeC1Ev,"axG",%progbits,_ZN14b2PolygonShapeC1Ev,comdat
	.align	2
	.weak	_ZN14b2PolygonShapeC1Ev
	.hidden	_ZN14b2PolygonShapeC1Ev
	.type	_ZN14b2PolygonShapeC1Ev, %function
_ZN14b2PolygonShapeC1Ev:
.LFB137:
	.file 3 "v:/gigglingbits/box2d/Box2D/Collision/Shapes/b2PolygonShape.h"
	.loc 3 87 0
	.cfi_startproc
	@ args = 0, pretend = 0, frame = 8
	@ frame_needed = 0, uses_anonymous_args = 0
	stmfd	sp!, {r4, r5, lr}
.LCFI45:
	.cfi_def_cfa_offset 12
	sub	sp, sp, #12
.LCFI46:
	.cfi_def_cfa_offset 24
	str	r0, [sp, #4]
	.loc 3 87 0
	ldr	r3, [sp, #4]
	mov	r0, r3
	.cfi_offset 14, -4
	.cfi_offset 5, -8
	.cfi_offset 4, -12
	bl	_ZN7b2ShapeC2Ev
	ldr	r3, [sp, #4]
	ldr	r2, .L90+4
	str	r2, [r3, #0]
	ldr	r3, [sp, #4]
	add	r3, r3, #12
	mov	r0, r3
	bl	_ZN6b2Vec2C1Ev
	ldr	r3, [sp, #4]
	add	r3, r3, #20
	mov	r5, r3
	mov	r4, #7
	b	.L84
.L85:
	mov	r0, r5
	bl	_ZN6b2Vec2C1Ev
	add	r5, r5, #8
	sub	r4, r4, #1
.L84:
	cmn	r4, #1
	moveq	r3, #0
	movne	r3, #1
	and	r3, r3, #255
	cmp	r3, #0
	bne	.L85
	ldr	r3, [sp, #4]
	add	r3, r3, #84
	mov	r5, r3
	mov	r4, #7
	b	.L86
.L87:
	mov	r0, r5
	bl	_ZN6b2Vec2C1Ev
	add	r5, r5, #8
	sub	r4, r4, #1
.L86:
	cmn	r4, #1
	moveq	r3, #0
	movne	r3, #1
	and	r3, r3, #255
	cmp	r3, #0
	bne	.L87
	.loc 3 89 0
	ldr	r3, [sp, #4]
	mov	r2, #2
	str	r2, [r3, #4]
	.loc 3 90 0
	ldr	r3, [sp, #4]
	flds	s15, .L90
	fsts	s15, [r3, #8]
	.loc 3 91 0
	ldr	r3, [sp, #4]
	mov	r2, #0
	str	r2, [r3, #148]
	.loc 3 92 0
	ldr	r3, [sp, #4]
	add	r3, r3, #12
	mov	r0, r3
	bl	_ZN6b2Vec27SetZeroEv
	.loc 3 93 0
	ldr	r3, [sp, #4]
	mov	r0, r3
	add	sp, sp, #12
	ldmfd	sp!, {r4, r5, pc}
.L91:
	.align	2
.L90:
	.word	1008981770
	.word	_ZTV14b2PolygonShape+8
	.cfi_endproc
.LFE137:
	.size	_ZN14b2PolygonShapeC1Ev, .-_ZN14b2PolygonShapeC1Ev
	.section	.text._ZnwjPv,"axG",%progbits,_ZnwjPv,comdat
	.align	2
	.weak	_ZnwjPv
	.hidden	_ZnwjPv
	.type	_ZnwjPv, %function
_ZnwjPv:
.LFB139:
	.file 4 "c:/marmalade/6.3/s3e/h/std/c++/new.h"
	.loc 4 52 0
	.cfi_startproc
	@ args = 0, pretend = 0, frame = 8
	@ frame_needed = 0, uses_anonymous_args = 0
	@ link register save eliminated.
	sub	sp, sp, #8
.LCFI47:
	.cfi_def_cfa_offset 8
	str	r0, [sp, #4]
	str	r1, [sp, #0]
	.loc 4 52 0
	ldr	r3, [sp, #0]
	mov	r0, r3
	add	sp, sp, #8
	bx	lr
	.cfi_endproc
.LFE139:
	.size	_ZnwjPv, .-_ZnwjPv
	.section	.text._ZN7b2ShapeaSERKS_,"axG",%progbits,_ZN7b2ShapeaSERKS_,comdat
	.align	2
	.weak	_ZN7b2ShapeaSERKS_
	.hidden	_ZN7b2ShapeaSERKS_
	.type	_ZN7b2ShapeaSERKS_, %function
_ZN7b2ShapeaSERKS_:
.LFB165:
	.loc 2 43 0
	.cfi_startproc
	@ args = 0, pretend = 0, frame = 8
	@ frame_needed = 0, uses_anonymous_args = 0
	@ link register save eliminated.
	sub	sp, sp, #8
.LCFI48:
	.cfi_def_cfa_offset 8
	str	r0, [sp, #4]
	str	r1, [sp, #0]
	.loc 2 43 0
	ldr	r3, [sp, #0]
	ldr	r2, [r3, #4]
	ldr	r3, [sp, #4]
	str	r2, [r3, #4]
	ldr	r3, [sp, #0]
	flds	s15, [r3, #8]
	ldr	r3, [sp, #4]
	fsts	s15, [r3, #8]
	ldr	r3, [sp, #4]
	mov	r0, r3
	add	sp, sp, #8
	bx	lr
	.cfi_endproc
.LFE165:
	.size	_ZN7b2ShapeaSERKS_, .-_ZN7b2ShapeaSERKS_
	.section	.text._ZN14b2PolygonShapeaSERKS_,"axG",%progbits,_ZN14b2PolygonShapeaSERKS_,comdat
	.align	2
	.weak	_ZN14b2PolygonShapeaSERKS_
	.hidden	_ZN14b2PolygonShapeaSERKS_
	.type	_ZN14b2PolygonShapeaSERKS_, %function
_ZN14b2PolygonShapeaSERKS_:
.LFB164:
	.loc 3 29 0
	.cfi_startproc
	@ args = 0, pretend = 0, frame = 8
	@ frame_needed = 0, uses_anonymous_args = 0
	stmfd	sp!, {r4, lr}
.LCFI49:
	.cfi_def_cfa_offset 8
	sub	sp, sp, #8
.LCFI50:
	.cfi_def_cfa_offset 16
	str	r0, [sp, #4]
	str	r1, [sp, #0]
	.loc 3 29 0
	ldr	r2, [sp, #4]
	ldr	r3, [sp, #0]
	mov	r0, r2
	mov	r1, r3
	.cfi_offset 14, -4
	.cfi_offset 4, -8
	bl	_ZN7b2ShapeaSERKS_
	ldr	r3, [sp, #4]
	ldr	r2, [sp, #0]
	add	r3, r3, #12
	add	r2, r2, #12
	ldmia	r2, {r0, r1}
	stmia	r3, {r0, r1}
	ldr	r2, [sp, #4]
	ldr	r3, [sp, #0]
	add	ip, r2, #20
	add	r4, r3, #20
	ldmia	r4!, {r0, r1, r2, r3}
	stmia	ip!, {r0, r1, r2, r3}
	ldmia	r4!, {r0, r1, r2, r3}
	stmia	ip!, {r0, r1, r2, r3}
	ldmia	r4!, {r0, r1, r2, r3}
	stmia	ip!, {r0, r1, r2, r3}
	ldmia	r4, {r0, r1, r2, r3}
	stmia	ip, {r0, r1, r2, r3}
	ldr	r2, [sp, #4]
	ldr	r3, [sp, #0]
	add	ip, r2, #84
	add	r4, r3, #84
	ldmia	r4!, {r0, r1, r2, r3}
	stmia	ip!, {r0, r1, r2, r3}
	ldmia	r4!, {r0, r1, r2, r3}
	stmia	ip!, {r0, r1, r2, r3}
	ldmia	r4!, {r0, r1, r2, r3}
	stmia	ip!, {r0, r1, r2, r3}
	ldmia	r4, {r0, r1, r2, r3}
	stmia	ip, {r0, r1, r2, r3}
	ldr	r3, [sp, #0]
	ldr	r2, [r3, #148]
	ldr	r3, [sp, #4]
	str	r2, [r3, #148]
	ldr	r3, [sp, #4]
	mov	r0, r3
	add	sp, sp, #8
	ldmfd	sp!, {r4, pc}
	.cfi_endproc
.LFE164:
	.size	_ZN14b2PolygonShapeaSERKS_, .-_ZN14b2PolygonShapeaSERKS_
	.section	.text._ZNK14b2PolygonShape5CloneEP16b2BlockAllocator,"ax",%progbits
	.align	2
	.global	_ZNK14b2PolygonShape5CloneEP16b2BlockAllocator
	.hidden	_ZNK14b2PolygonShape5CloneEP16b2BlockAllocator
	.type	_ZNK14b2PolygonShape5CloneEP16b2BlockAllocator, %function
_ZNK14b2PolygonShape5CloneEP16b2BlockAllocator:
.LFB163:
	.file 5 "v:/gigglingbits/box2d/Box2D/Collision/Shapes/b2PolygonShape.cpp"
	.loc 5 23 0
	.cfi_startproc
	@ args = 0, pretend = 0, frame = 16
	@ frame_needed = 0, uses_anonymous_args = 0
	stmfd	sp!, {r4, lr}
.LCFI51:
	.cfi_def_cfa_offset 8
	sub	sp, sp, #16
.LCFI52:
	.cfi_def_cfa_offset 24
	str	r0, [sp, #4]
	str	r1, [sp, #0]
.LBB5:
	.loc 5 24 0
	ldr	r0, [sp, #0]
	mov	r1, #152
	.cfi_offset 14, -4
	.cfi_offset 4, -8
	bl	_ZN16b2BlockAllocator8AllocateEi
	mov	r3, r0
	str	r3, [sp, #8]
	.loc 5 25 0
	ldr	r3, [sp, #8]
	mov	r0, #152
	mov	r1, r3
	bl	_ZnwjPv
	mov	r3, r0
	mov	r4, r3
	mov	r3, r4
	mov	r0, r3
	bl	_ZN14b2PolygonShapeC1Ev
	str	r4, [sp, #12]
	.loc 5 26 0
	ldr	r0, [sp, #12]
	ldr	r1, [sp, #4]
	bl	_ZN14b2PolygonShapeaSERKS_
	.loc 5 27 0
	ldr	r3, [sp, #12]
.LBE5:
	.loc 5 28 0
	mov	r0, r3
	add	sp, sp, #16
	ldmfd	sp!, {r4, pc}
	.cfi_endproc
.LFE163:
	.size	_ZNK14b2PolygonShape5CloneEP16b2BlockAllocator, .-_ZNK14b2PolygonShape5CloneEP16b2BlockAllocator
	.section	.text._ZN14b2PolygonShape8SetAsBoxEff,"ax",%progbits
	.align	2
	.global	_ZN14b2PolygonShape8SetAsBoxEff
	.hidden	_ZN14b2PolygonShape8SetAsBoxEff
	.type	_ZN14b2PolygonShape8SetAsBoxEff, %function
_ZN14b2PolygonShape8SetAsBoxEff:
.LFB166:
	.loc 5 31 0
	.cfi_startproc
	@ args = 0, pretend = 0, frame = 16
	@ frame_needed = 0, uses_anonymous_args = 0
	str	lr, [sp, #-4]!
.LCFI53:
	.cfi_def_cfa_offset 4
	sub	sp, sp, #20
.LCFI54:
	.cfi_def_cfa_offset 24
	str	r0, [sp, #12]
	str	r1, [sp, #8]	@ float
	str	r2, [sp, #4]	@ float
	.loc 5 32 0
	ldr	r3, [sp, #12]
	mov	r2, #4
	str	r2, [r3, #148]
	.loc 5 33 0
	ldr	r3, [sp, #12]
	add	r3, r3, #20
	flds	s15, [sp, #8]
	fnegs	s14, s15
	flds	s15, [sp, #4]
	fnegs	s15, s15
	mov	r0, r3
	fmrs	r1, s14
	fmrs	r2, s15
	.cfi_offset 14, -4
	bl	_ZN6b2Vec23SetEff
	.loc 5 34 0
	ldr	r3, [sp, #12]
	add	r3, r3, #28
	flds	s15, [sp, #4]
	fnegs	s15, s15
	mov	r0, r3
	ldr	r1, [sp, #8]	@ float
	fmrs	r2, s15
	bl	_ZN6b2Vec23SetEff
	.loc 5 35 0
	ldr	r3, [sp, #12]
	add	r3, r3, #36
	mov	r0, r3
	ldr	r1, [sp, #8]	@ float
	ldr	r2, [sp, #4]	@ float
	bl	_ZN6b2Vec23SetEff
	.loc 5 36 0
	ldr	r3, [sp, #12]
	add	r3, r3, #44
	flds	s15, [sp, #8]
	fnegs	s15, s15
	mov	r0, r3
	fmrs	r1, s15
	ldr	r2, [sp, #4]	@ float
	bl	_ZN6b2Vec23SetEff
	.loc 5 37 0
	ldr	r3, [sp, #12]
	add	r3, r3, #84
	mov	r0, r3
	ldr	r1, .L102	@ float
	ldr	r2, .L102+4	@ float
	bl	_ZN6b2Vec23SetEff
	.loc 5 38 0
	ldr	r3, [sp, #12]
	add	r3, r3, #92
	mov	r0, r3
	ldr	r1, .L102+8	@ float
	ldr	r2, .L102	@ float
	bl	_ZN6b2Vec23SetEff
	.loc 5 39 0
	ldr	r3, [sp, #12]
	add	r3, r3, #100
	mov	r0, r3
	ldr	r1, .L102	@ float
	ldr	r2, .L102+8	@ float
	bl	_ZN6b2Vec23SetEff
	.loc 5 40 0
	ldr	r3, [sp, #12]
	add	r3, r3, #108
	mov	r0, r3
	ldr	r1, .L102+4	@ float
	ldr	r2, .L102	@ float
	bl	_ZN6b2Vec23SetEff
	.loc 5 41 0
	ldr	r3, [sp, #12]
	add	r3, r3, #12
	mov	r0, r3
	bl	_ZN6b2Vec27SetZeroEv
	.loc 5 42 0
	add	sp, sp, #20
	ldmfd	sp!, {pc}
.L103:
	.align	2
.L102:
	.word	0
	.word	-1082130432
	.word	1065353216
	.cfi_endproc
.LFE166:
	.size	_ZN14b2PolygonShape8SetAsBoxEff, .-_ZN14b2PolygonShape8SetAsBoxEff
	.section	.text._ZN14b2PolygonShape8SetAsBoxEffRK6b2Vec2f,"ax",%progbits
	.align	2
	.global	_ZN14b2PolygonShape8SetAsBoxEffRK6b2Vec2f
	.hidden	_ZN14b2PolygonShape8SetAsBoxEffRK6b2Vec2f
	.type	_ZN14b2PolygonShape8SetAsBoxEffRK6b2Vec2f, %function
_ZN14b2PolygonShape8SetAsBoxEffRK6b2Vec2f:
.LFB167:
	.loc 5 45 0
	.cfi_startproc
	@ args = 4, pretend = 0, frame = 48
	@ frame_needed = 0, uses_anonymous_args = 0
	stmfd	sp!, {r4, lr}
.LCFI55:
	.cfi_def_cfa_offset 8
	sub	sp, sp, #48
.LCFI56:
	.cfi_def_cfa_offset 56
	str	r0, [sp, #20]
	str	r1, [sp, #16]	@ float
	str	r2, [sp, #12]	@ float
	str	r3, [sp, #8]
.LBB6:
	.loc 5 46 0
	ldr	r3, [sp, #20]
	mov	r2, #4
	str	r2, [r3, #148]
	.loc 5 47 0
	ldr	r3, [sp, #20]
	add	r3, r3, #20
	flds	s15, [sp, #16]
	fnegs	s14, s15
	flds	s15, [sp, #12]
	fnegs	s15, s15
	mov	r0, r3
	fmrs	r1, s14
	fmrs	r2, s15
	.cfi_offset 14, -4
	.cfi_offset 4, -8
	bl	_ZN6b2Vec23SetEff
	.loc 5 48 0
	ldr	r3, [sp, #20]
	add	r3, r3, #28
	flds	s15, [sp, #12]
	fnegs	s15, s15
	mov	r0, r3
	ldr	r1, [sp, #16]	@ float
	fmrs	r2, s15
	bl	_ZN6b2Vec23SetEff
	.loc 5 49 0
	ldr	r3, [sp, #20]
	add	r3, r3, #36
	mov	r0, r3
	ldr	r1, [sp, #16]	@ float
	ldr	r2, [sp, #12]	@ float
	bl	_ZN6b2Vec23SetEff
	.loc 5 50 0
	ldr	r3, [sp, #20]
	add	r3, r3, #44
	flds	s15, [sp, #16]
	fnegs	s15, s15
	mov	r0, r3
	fmrs	r1, s15
	ldr	r2, [sp, #12]	@ float
	bl	_ZN6b2Vec23SetEff
	.loc 5 51 0
	ldr	r3, [sp, #20]
	add	r3, r3, #84
	mov	r0, r3
	ldr	r1, .L108	@ float
	ldr	r2, .L108+4	@ float
	bl	_ZN6b2Vec23SetEff
	.loc 5 52 0
	ldr	r3, [sp, #20]
	add	r3, r3, #92
	mov	r0, r3
	ldr	r1, .L108+8	@ float
	ldr	r2, .L108	@ float
	bl	_ZN6b2Vec23SetEff
	.loc 5 53 0
	ldr	r3, [sp, #20]
	add	r3, r3, #100
	mov	r0, r3
	ldr	r1, .L108	@ float
	ldr	r2, .L108+8	@ float
	bl	_ZN6b2Vec23SetEff
	.loc 5 54 0
	ldr	r3, [sp, #20]
	add	r3, r3, #108
	mov	r0, r3
	ldr	r1, .L108+4	@ float
	ldr	r2, .L108	@ float
	bl	_ZN6b2Vec23SetEff
	.loc 5 55 0
	ldr	r3, [sp, #20]
	ldr	r2, [sp, #8]
	add	r3, r3, #12
	ldmia	r2, {r0, r1}
	stmia	r3, {r0, r1}
	.loc 5 57 0
	add	r3, sp, #28
	mov	r0, r3
	bl	_ZN11b2TransformC1Ev
	.loc 5 58 0
	ldr	r2, [sp, #8]
	add	r3, sp, #28
	ldmia	r2, {r0, r1}
	stmia	r3, {r0, r1}
	.loc 5 59 0
	add	r3, sp, #28
	add	r3, r3, #8
	mov	r0, r3
	ldr	r1, [sp, #56]	@ float
	bl	_ZN5b2Rot3SetEf
.LBB7:
	.loc 5 62 0
	mov	r3, #0
	str	r3, [sp, #44]
	b	.L105
.L106:
	.loc 5 64 0
	ldr	r2, [sp, #44]
	ldr	r3, [sp, #44]
	add	r3, r3, #2
	mov	r1, r3, asl #3
	ldr	r3, [sp, #20]
	add	r3, r1, r3
	add	r3, r3, #4
	ldr	r1, [sp, #20]
	add	r0, r2, #2
	mov	r2, #4
	mov	r0, r0, asl #3
	add	r1, r0, r1
	add	r4, r1, r2
	mov	r1, sp
	add	r2, sp, #28
	mov	r0, r1
	mov	r1, r2
	mov	r2, r3
	bl	_Z5b2MulRK11b2TransformRK6b2Vec2
	mov	r3, r4
	mov	r2, sp
	ldmia	r2, {r0, r1}
	stmia	r3, {r0, r1}
	.loc 5 65 0
	ldr	r2, [sp, #44]
	ldr	r3, [sp, #44]
	add	r3, r3, #10
	mov	r1, r3, asl #3
	ldr	r3, [sp, #20]
	add	r3, r1, r3
	add	r3, r3, #4
	ldr	r1, [sp, #20]
	add	r0, r2, #10
	mov	r2, #4
	mov	r0, r0, asl #3
	add	r1, r0, r1
	add	r4, r1, r2
	mov	r1, sp
	add	r2, sp, #28
	add	r2, r2, #8
	mov	r0, r1
	mov	r1, r2
	mov	r2, r3
	bl	_Z5b2MulRK5b2RotRK6b2Vec2
	mov	r3, r4
	mov	r2, sp
	ldmia	r2, {r0, r1}
	stmia	r3, {r0, r1}
	.loc 5 62 0
	ldr	r3, [sp, #44]
	add	r3, r3, #1
	str	r3, [sp, #44]
.L105:
	ldr	r3, [sp, #20]
	ldr	r2, [r3, #148]
	ldr	r3, [sp, #44]
	cmp	r2, r3
	movle	r3, #0
	movgt	r3, #1
	and	r3, r3, #255
	cmp	r3, #0
	bne	.L106
.LBE7:
.LBE6:
	.loc 5 67 0
	add	sp, sp, #48
	ldmfd	sp!, {r4, pc}
.L109:
	.align	2
.L108:
	.word	0
	.word	-1082130432
	.word	1065353216
	.cfi_endproc
.LFE167:
	.size	_ZN14b2PolygonShape8SetAsBoxEffRK6b2Vec2f, .-_ZN14b2PolygonShape8SetAsBoxEffRK6b2Vec2f
	.section	.text._ZNK14b2PolygonShape13GetChildCountEv,"ax",%progbits
	.align	2
	.global	_ZNK14b2PolygonShape13GetChildCountEv
	.hidden	_ZNK14b2PolygonShape13GetChildCountEv
	.type	_ZNK14b2PolygonShape13GetChildCountEv, %function
_ZNK14b2PolygonShape13GetChildCountEv:
.LFB168:
	.loc 5 70 0
	.cfi_startproc
	@ args = 0, pretend = 0, frame = 8
	@ frame_needed = 0, uses_anonymous_args = 0
	@ link register save eliminated.
	sub	sp, sp, #8
.LCFI57:
	.cfi_def_cfa_offset 8
	str	r0, [sp, #4]
	.loc 5 71 0
	mov	r3, #1
	.loc 5 72 0
	mov	r0, r3
	add	sp, sp, #8
	bx	lr
	.cfi_endproc
.LFE168:
	.size	_ZNK14b2PolygonShape13GetChildCountEv, .-_ZNK14b2PolygonShape13GetChildCountEv
	.section	.rodata
	.align	2
.LC0:
	.ascii	"v:/gigglingbits/box2d/Box2D/Collision/Shapes/b2Poly"
	.ascii	"gonShape.cpp\000"
	.align	2
.LC1:
	.ascii	"count >= 3\000"
	.align	2
.LC2:
	.ascii	"area > 1.19209290e-7F\000"
	.section	.text._ZL15ComputeCentroidPK6b2Vec2i,"ax",%progbits
	.align	2
	.type	_ZL15ComputeCentroidPK6b2Vec2i, %function
_ZL15ComputeCentroidPK6b2Vec2i:
.LFB169:
	.loc 5 75 0
	.cfi_startproc
	@ args = 0, pretend = 0, frame = 112
	@ frame_needed = 0, uses_anonymous_args = 0
	stmfd	sp!, {r4, lr}
.LCFI58:
	.cfi_def_cfa_offset 8
	fstmfdd	sp!, {d8}
.LCFI59:
	.cfi_def_cfa_offset 16
	sub	sp, sp, #112
.LCFI60:
	.cfi_def_cfa_offset 128
	mov	r4, r0
	.cfi_offset 80, -16
	.cfi_offset 14, -4
	.cfi_offset 4, -8
	str	r1, [sp, #4]
	str	r2, [sp, #0]
.LBB8:
	.loc 5 76 0
	ldr	r3, [sp, #0]
	cmp	r3, #2
	bgt	.L113
	ldr	r0, .L121+20
	mov	r1, #76
	ldr	r2, .L121+24
	bl	__assert
.L113:
	.loc 5 78 0
	mov	r0, r4
	bl	_ZN6b2Vec2C1Ev
	mov	r0, r4
	ldr	r1, .L121	@ float
	ldr	r2, .L121	@ float
	bl	_ZN6b2Vec23SetEff
	.loc 5 79 0
	flds	s15, .L121
	fsts	s15, [sp, #92]
	.loc 5 83 0
	add	r3, sp, #52
	mov	r0, r3
	ldr	r1, .L121	@ float
	ldr	r2, .L121	@ float
	bl	_ZN6b2Vec2C1Eff
	.loc 5 93 0
	flds	s15, .L121+4
	fsts	s15, [sp, #96]
.LBB9:
	.loc 5 95 0
	mov	r3, #0
	str	r3, [sp, #100]
	b	.L114
.L117:
.LBB10:
	.loc 5 98 0
	add	r3, sp, #44
	add	r2, sp, #52
	ldmia	r2, {r0, r1}
	stmia	r3, {r0, r1}
	.loc 5 99 0
	ldr	r3, [sp, #100]
	mov	r2, r3, asl #3
	ldr	r3, [sp, #4]
	add	r2, r2, r3
	add	r3, sp, #36
	ldmia	r2, {r0, r1}
	stmia	r3, {r0, r1}
	.loc 5 100 0
	ldr	r3, [sp, #100]
	add	r2, r3, #1
	ldr	r3, [sp, #0]
	cmp	r2, r3
	bge	.L115
	ldr	r3, [sp, #100]
	add	r3, r3, #1
	mov	r2, r3, asl #3
	ldr	r3, [sp, #4]
	add	r3, r2, r3
	b	.L116
.L115:
	ldr	r3, [sp, #4]
.L116:
	add	r2, sp, #28
	ldmia	r3, {r0, r1}
	stmia	r2, {r0, r1}
	.loc 5 102 0
	add	r1, sp, #20
	add	r2, sp, #36
	add	r3, sp, #44
	mov	r0, r1
	mov	r1, r2
	mov	r2, r3
	bl	_ZmiRK6b2Vec2S1_
	.loc 5 103 0
	add	r1, sp, #12
	add	r2, sp, #28
	add	r3, sp, #44
	mov	r0, r1
	mov	r1, r2
	mov	r2, r3
	bl	_ZmiRK6b2Vec2S1_
	.loc 5 105 0
	add	r2, sp, #20
	add	r3, sp, #12
	mov	r0, r2
	mov	r1, r3
	bl	_Z7b2CrossRK6b2Vec2S1_
	mov	r3, r0	@ float
	str	r3, [sp, #104]	@ float
	.loc 5 107 0
	flds	s14, [sp, #104]
	flds	s15, .L121+8
	fmuls	s15, s14, s15
	fsts	s15, [sp, #108]
	.loc 5 108 0
	flds	s14, [sp, #92]
	flds	s15, [sp, #108]
	fadds	s15, s14, s15
	fsts	s15, [sp, #92]
	.loc 5 111 0
	flds	s14, [sp, #108]
	flds	s15, .L121+4
	fmuls	s16, s14, s15
	add	r1, sp, #84
	add	r2, sp, #44
	add	r3, sp, #36
	mov	r0, r1
	mov	r1, r2
	mov	r2, r3
	bl	_ZplRK6b2Vec2S1_
	add	r1, sp, #76
	add	r2, sp, #84
	add	r3, sp, #28
	mov	r0, r1
	mov	r1, r2
	mov	r2, r3
	bl	_ZplRK6b2Vec2S1_
	add	r2, sp, #68
	add	r3, sp, #76
	mov	r0, r2
	fmrs	r1, s16
	mov	r2, r3
	bl	_ZmlfRK6b2Vec2
	add	r3, sp, #68
	mov	r0, r4
	mov	r1, r3
	bl	_ZN6b2Vec2pLERKS_
.LBE10:
	.loc 5 95 0
	ldr	r3, [sp, #100]
	add	r3, r3, #1
	str	r3, [sp, #100]
.L114:
	ldr	r2, [sp, #100]
	ldr	r3, [sp, #0]
	cmp	r2, r3
	movge	r3, #0
	movlt	r3, #1
	and	r3, r3, #255
	cmp	r3, #0
	bne	.L117
.LBE9:
	.loc 5 115 0
	flds	s14, [sp, #92]
	flds	s15, .L121+12
	fcmpes	s14, s15
	fmstat
	movle	r3, #0
	movgt	r3, #1
	and	r3, r3, #255
	cmp	r3, #0
	bne	.L119
.L118:
	ldr	r0, .L121+20
	mov	r1, #115
	ldr	r2, .L121+28
	bl	__assert
.L119:
	.loc 5 116 0
	flds	s14, .L121+16
	flds	s15, [sp, #92]
	fdivs	s15, s14, s15
	mov	r0, r4
	fmrs	r1, s15
	bl	_ZN6b2Vec2mLEf
.LBE8:
	.loc 5 118 0
	mov	r0, r4
	add	sp, sp, #112
	fldmfdd	sp!, {d8}
	ldmfd	sp!, {r4, pc}
.L122:
	.align	2
.L121:
	.word	0
	.word	1051372203
	.word	1056964608
	.word	872415232
	.word	1065353216
	.word	.LC0
	.word	.LC1
	.word	.LC2
	.cfi_endproc
.LFE169:
	.size	_ZL15ComputeCentroidPK6b2Vec2i, .-_ZL15ComputeCentroidPK6b2Vec2i
	.section	.rodata
	.align	2
.LC3:
	.ascii	"3 <= count && count <= 8\000"
	.align	2
.LC4:
	.ascii	"false\000"
	.align	2
.LC5:
	.ascii	"edge.LengthSquared() > 1.19209290e-7F * 1.19209290e"
	.ascii	"-7F\000"
	.section	.text._ZN14b2PolygonShape3SetEPK6b2Vec2i,"ax",%progbits
	.align	2
	.global	_ZN14b2PolygonShape3SetEPK6b2Vec2i
	.hidden	_ZN14b2PolygonShape3SetEPK6b2Vec2i
	.type	_ZN14b2PolygonShape3SetEPK6b2Vec2i, %function
_ZN14b2PolygonShape3SetEPK6b2Vec2i:
.LFB170:
	.loc 5 121 0
	.cfi_startproc
	@ args = 0, pretend = 0, frame = 224
	@ frame_needed = 0, uses_anonymous_args = 0
	stmfd	sp!, {r4, r5, lr}
.LCFI61:
	.cfi_def_cfa_offset 12
	fstmfdd	sp!, {d8}
.LCFI62:
	.cfi_def_cfa_offset 20
	sub	sp, sp, #228
.LCFI63:
	.cfi_def_cfa_offset 248
	str	r0, [sp, #20]
	str	r1, [sp, #16]
	str	r2, [sp, #12]
.LBB11:
	.loc 5 122 0
	ldr	r3, [sp, #12]
	cmp	r3, #2
	ble	.L124
	.cfi_offset 80, -20
	.cfi_offset 14, -4
	.cfi_offset 5, -8
	.cfi_offset 4, -12
	ldr	r3, [sp, #12]
	cmp	r3, #8
	ble	.L125
.L124:
	ldr	r0, .L165+12
	mov	r1, #122
	ldr	r2, .L165+4
	bl	__assert
.L125:
	.loc 5 123 0
	ldr	r3, [sp, #12]
	cmp	r3, #2
	bgt	.L126
	.loc 5 125 0
	ldr	r0, [sp, #20]
	ldr	r1, .L165+20	@ float
	ldr	r2, .L165+20	@ float
	bl	_ZN14b2PolygonShape8SetAsBoxEff
	.loc 5 126 0
	b	.L161
.L126:
	.loc 5 129 0
	ldr	r0, [sp, #12]
	mov	r1, #8
	bl	_Z5b2MinIiET_S0_S0_
	mov	r3, r0
	str	r3, [sp, #152]
	.loc 5 132 0
	add	r3, sp, #24
	mov	r5, r3
	mov	r4, #7
	b	.L128
.L129:
	mov	r0, r5
	bl	_ZN6b2Vec2C1Ev
	add	r5, r5, #8
	sub	r4, r4, #1
.L128:
	cmn	r4, #1
	moveq	r3, #0
	movne	r3, #1
	and	r3, r3, #255
	cmp	r3, #0
	bne	.L129
	.loc 5 133 0
	mov	r3, #0
	str	r3, [sp, #156]
.LBB12:
	.loc 5 134 0
	mov	r3, #0
	str	r3, [sp, #176]
	b	.L130
.L136:
.LBB13:
	.loc 5 136 0
	ldr	r3, [sp, #176]
	mov	r2, r3, asl #3
	ldr	r3, [sp, #16]
	add	r2, r2, r3
	add	r3, sp, #144
	ldmia	r2, {r0, r1}
	stmia	r3, {r0, r1}
	.loc 5 138 0
	mov	r3, #1
	strb	r3, [sp, #183]
.LBB14:
	.loc 5 139 0
	mov	r3, #0
	str	r3, [sp, #184]
	b	.L131
.L134:
	.loc 5 141 0
	ldr	r3, [sp, #184]
	add	r2, sp, #24
	mov	r3, r3, asl #3
	add	r3, r2, r3
	add	r2, sp, #144
	mov	r0, r2
	mov	r1, r3
	bl	_Z17b2DistanceSquaredRK6b2Vec2S1_
	fmsr	s14, r0
	flds	s15, .L165
	fcmpes	s14, s15
	fmstat
	movpl	r3, #0
	movmi	r3, #1
	and	r3, r3, #255
	cmp	r3, #0
	beq	.L132
	.loc 5 143 0
	mov	r3, #0
	strb	r3, [sp, #183]
	.loc 5 144 0
	b	.L133
.L132:
	.loc 5 139 0
	ldr	r3, [sp, #184]
	add	r3, r3, #1
	str	r3, [sp, #184]
.L131:
	ldr	r2, [sp, #184]
	ldr	r3, [sp, #156]
	cmp	r2, r3
	movge	r3, #0
	movlt	r3, #1
	and	r3, r3, #255
	cmp	r3, #0
	bne	.L134
.L133:
.LBE14:
	.loc 5 148 0
	ldrb	r3, [sp, #183]	@ zero_extendqisi2
	cmp	r3, #0
	beq	.L135
	.loc 5 150 0
	ldr	r3, [sp, #156]
	mov	r2, r3
	mvn	r3, #199
	mov	r2, r2, asl #3
	add	r0, sp, #224
	add	r2, r2, r0
	add	r3, r2, r3
	add	r2, sp, #144
	ldmia	r2, {r0, r1}
	stmia	r3, {r0, r1}
	ldr	r3, [sp, #156]
	add	r3, r3, #1
	str	r3, [sp, #156]
.L135:
.LBE13:
	.loc 5 134 0
	ldr	r3, [sp, #176]
	add	r3, r3, #1
	str	r3, [sp, #176]
.L130:
	ldr	r2, [sp, #176]
	ldr	r3, [sp, #152]
	cmp	r2, r3
	movge	r3, #0
	movlt	r3, #1
	and	r3, r3, #255
	cmp	r3, #0
	bne	.L136
.LBE12:
	.loc 5 154 0
	ldr	r3, [sp, #156]
	str	r3, [sp, #152]
	.loc 5 155 0
	ldr	r3, [sp, #152]
	cmp	r3, #2
	bgt	.L137
	.loc 5 158 0
	ldr	r0, .L165+12
	mov	r1, #158
	ldr	r2, .L165+8
	bl	__assert
	.loc 5 159 0
	ldr	r0, [sp, #20]
	ldr	r1, .L165+20	@ float
	ldr	r2, .L165+20	@ float
	bl	_ZN14b2PolygonShape8SetAsBoxEff
	.loc 5 160 0
	b	.L161
.L137:
	.loc 5 167 0
	mov	r3, #0
	str	r3, [sp, #160]
	.loc 5 168 0
	flds	s15, [sp, #24]
	fsts	s15, [sp, #164]
.LBB15:
	.loc 5 169 0
	mov	r3, #1
	str	r3, [sp, #188]
	b	.L138
.L142:
.LBB16:
	.loc 5 171 0
	ldr	r2, [sp, #188]
	mvn	r3, #199
	mov	r2, r2, asl #3
	add	r1, sp, #224
	add	r2, r2, r1
	add	r3, r2, r3
	flds	s15, [r3, #0]
	fsts	s15, [sp, #192]
	.loc 5 172 0
	flds	s14, [sp, #192]
	flds	s15, [sp, #164]
	fcmpes	s14, s15
	fmstat
	movle	r3, #0
	movgt	r3, #1
	and	r3, r3, #255
	cmp	r3, #0
	bne	.L139
	flds	s14, [sp, #192]
	flds	s15, [sp, #164]
	fcmps	s14, s15
	fmstat
	bne	.L140
.L162:
	ldr	r2, [sp, #188]
	mvn	r3, #199
	mov	r2, r2, asl #3
	add	r0, sp, #224
	add	r2, r2, r0
	add	r3, r2, r3
	flds	s14, [r3, #4]
	ldr	r2, [sp, #160]
	mvn	r3, #199
	mov	r2, r2, asl #3
	add	r1, sp, #224
	add	r2, r2, r1
	add	r3, r2, r3
	flds	s15, [r3, #4]
	fcmpes	s14, s15
	fmstat
	movpl	r3, #0
	movmi	r3, #1
	and	r3, r3, #255
	cmp	r3, #0
	beq	.L140
.L139:
	.loc 5 174 0
	ldr	r3, [sp, #188]
	str	r3, [sp, #160]
	.loc 5 175 0
	flds	s15, [sp, #192]
	fsts	s15, [sp, #164]
.L140:
.LBE16:
	.loc 5 169 0
	ldr	r3, [sp, #188]
	add	r3, r3, #1
	str	r3, [sp, #188]
.L138:
	ldr	r2, [sp, #188]
	ldr	r3, [sp, #152]
	cmp	r2, r3
	movge	r3, #0
	movlt	r3, #1
	and	r3, r3, #255
	cmp	r3, #0
	bne	.L142
.LBE15:
	.loc 5 180 0
	mov	r3, #0
	str	r3, [sp, #168]
	.loc 5 181 0
	ldr	r3, [sp, #160]
	str	r3, [sp, #172]
	b	.L153
.L164:
	.loc 5 183 0
	mov	r0, r0	@ nop
.L153:
.LBB17:
	.loc 5 185 0
	ldr	r2, [sp, #168]
	mvn	r3, #135
	mov	r2, r2, asl #2
	add	r0, sp, #224
	add	r2, r2, r0
	add	r3, r2, r3
	ldr	r2, [sp, #172]
	str	r2, [r3, #0]
	.loc 5 187 0
	mov	r3, #0
	str	r3, [sp, #196]
.LBB18:
	.loc 5 188 0
	mov	r3, #1
	str	r3, [sp, #200]
	b	.L143
.L150:
.LBB19:
	.loc 5 190 0
	ldr	r2, [sp, #196]
	ldr	r3, [sp, #172]
	cmp	r2, r3
	bne	.L144
	.loc 5 192 0
	ldr	r3, [sp, #200]
	str	r3, [sp, #196]
	.loc 5 193 0
	b	.L145
.L144:
	.loc 5 196 0
	ldr	r3, [sp, #196]
	add	r2, sp, #24
	mov	r3, r3, asl #3
	add	r2, r2, r3
	ldr	r1, [sp, #168]
	mvn	r3, #135
	mov	r1, r1, asl #2
	add	r0, sp, #224
	add	r1, r1, r0
	add	r3, r1, r3
	ldr	r3, [r3, #0]
	add	r1, sp, #24
	mov	r3, r3, asl #3
	add	r3, r1, r3
	add	r1, sp, #136
	mov	r0, r1
	mov	r1, r2
	mov	r2, r3
	bl	_ZmiRK6b2Vec2S1_
	.loc 5 197 0
	ldr	r3, [sp, #200]
	add	r2, sp, #24
	mov	r3, r3, asl #3
	add	r2, r2, r3
	ldr	r1, [sp, #168]
	mvn	r3, #135
	mov	r1, r1, asl #2
	add	r0, sp, #224
	add	r1, r1, r0
	add	r3, r1, r3
	ldr	r3, [r3, #0]
	add	r1, sp, #24
	mov	r3, r3, asl #3
	add	r3, r1, r3
	add	r1, sp, #128
	mov	r0, r1
	mov	r1, r2
	mov	r2, r3
	bl	_ZmiRK6b2Vec2S1_
	.loc 5 198 0
	add	r2, sp, #136
	add	r3, sp, #128
	mov	r0, r2
	mov	r1, r3
	bl	_Z7b2CrossRK6b2Vec2S1_
	mov	r3, r0	@ float
	str	r3, [sp, #204]	@ float
	.loc 5 199 0
	flds	s15, [sp, #204]
	fcmpezs	s15
	fmstat
	movpl	r3, #0
	movmi	r3, #1
	and	r3, r3, #255
	cmp	r3, #0
	beq	.L146
	.loc 5 201 0
	ldr	r3, [sp, #200]
	str	r3, [sp, #196]
.L146:
	.loc 5 205 0
	flds	s15, [sp, #204]
	fcmpzs	s15
	fmstat
	bne	.L147
.L163:
	add	r3, sp, #128
	mov	r0, r3
	bl	_ZNK6b2Vec213LengthSquaredEv
	fmsr	s16, r0
	add	r3, sp, #136
	mov	r0, r3
	bl	_ZNK6b2Vec213LengthSquaredEv
	fmsr	s15, r0
	fcmpes	s16, s15
	fmstat
	movle	r3, #0
	movgt	r3, #1
	and	r3, r3, #255
	cmp	r3, #0
	beq	.L147
	mov	r3, #1
	b	.L149
.L166:
	.align	2
.L165:
	.word	992204554
	.word	.LC3
	.word	.LC4
	.word	.LC0
	.word	.LC5
	.word	1065353216
	.word	679477248
.L147:
	mov	r3, #0
.L149:
	cmp	r3, #0
	beq	.L145
	.loc 5 207 0
	ldr	r3, [sp, #200]
	str	r3, [sp, #196]
.L145:
.LBE19:
	.loc 5 188 0
	ldr	r3, [sp, #200]
	add	r3, r3, #1
	str	r3, [sp, #200]
.L143:
	ldr	r2, [sp, #200]
	ldr	r3, [sp, #152]
	cmp	r2, r3
	movge	r3, #0
	movlt	r3, #1
	and	r3, r3, #255
	cmp	r3, #0
	bne	.L150
.LBE18:
	.loc 5 211 0
	ldr	r3, [sp, #168]
	add	r3, r3, #1
	str	r3, [sp, #168]
	.loc 5 212 0
	ldr	r3, [sp, #196]
	str	r3, [sp, #172]
	.loc 5 214 0
	ldr	r2, [sp, #196]
	ldr	r3, [sp, #160]
	cmp	r2, r3
	bne	.L164
.LBE17:
	.loc 5 220 0
	ldr	r3, [sp, #20]
	ldr	r2, [sp, #168]
	str	r2, [r3, #148]
.LBB20:
	.loc 5 223 0
	mov	r3, #0
	str	r3, [sp, #208]
	b	.L152
.L154:
	.loc 5 225 0
	ldr	r3, [sp, #208]
	ldr	r1, [sp, #208]
	mvn	r2, #135
	mov	r1, r1, asl #2
	add	r0, sp, #224
	add	r1, r1, r0
	add	r2, r1, r2
	ldr	r1, [r2, #0]
	ldr	r2, [sp, #20]
	add	r0, r3, #2
	mov	r3, #4
	mov	r0, r0, asl #3
	add	r2, r0, r2
	add	r3, r2, r3
	mvn	r2, #199
	mov	r1, r1, asl #3
	add	r0, sp, #224
	add	r1, r1, r0
	add	r2, r1, r2
	ldmia	r2, {r0, r1}
	stmia	r3, {r0, r1}
	.loc 5 223 0
	ldr	r3, [sp, #208]
	add	r3, r3, #1
	str	r3, [sp, #208]
.L152:
	ldr	r2, [sp, #208]
	ldr	r3, [sp, #168]
	cmp	r2, r3
	movge	r3, #0
	movlt	r3, #1
	and	r3, r3, #255
	cmp	r3, #0
	bne	.L154
.LBE20:
.LBB21:
	.loc 5 229 0
	mov	r3, #0
	str	r3, [sp, #212]
	b	.L155
.L160:
.LBB22:
	.loc 5 231 0
	ldr	r3, [sp, #212]
	str	r3, [sp, #216]
	.loc 5 232 0
	ldr	r3, [sp, #212]
	add	r2, r3, #1
	ldr	r3, [sp, #168]
	cmp	r2, r3
	bge	.L156
	ldr	r3, [sp, #212]
	add	r3, r3, #1
	b	.L157
.L156:
	mov	r3, #0
.L157:
	str	r3, [sp, #220]
	.loc 5 233 0
	ldr	r3, [sp, #220]
	add	r3, r3, #2
	mov	r2, r3, asl #3
	ldr	r3, [sp, #20]
	add	r3, r2, r3
	add	r2, r3, #4
	ldr	r3, [sp, #216]
	add	r3, r3, #2
	mov	r1, r3, asl #3
	ldr	r3, [sp, #20]
	add	r3, r1, r3
	add	r3, r3, #4
	add	r1, sp, #120
	mov	r0, r1
	mov	r1, r2
	mov	r2, r3
	bl	_ZmiRK6b2Vec2S1_
	.loc 5 234 0
	add	r3, sp, #120
	mov	r0, r3
	bl	_ZNK6b2Vec213LengthSquaredEv
	fmsr	s14, r0
	flds	s15, .L165+24
	fcmpes	s14, s15
	fmstat
	movle	r3, #0
	movgt	r3, #1
	and	r3, r3, #255
	cmp	r3, #0
	bne	.L159
.L158:
	ldr	r0, .L165+12
	mov	r1, #234
	ldr	r2, .L165+16
	bl	__assert
.L159:
	.loc 5 235 0
	ldr	r3, [sp, #212]
	ldr	r2, [sp, #20]
	add	r1, r3, #10
	mov	r3, #4
	mov	r1, r1, asl #3
	add	r2, r1, r2
	add	r4, r2, r3
	mov	r2, sp
	add	r3, sp, #120
	mov	r0, r2
	mov	r1, r3
	ldr	r2, .L165+20	@ float
	bl	_Z7b2CrossRK6b2Vec2f
	mov	r3, r4
	mov	r2, sp
	ldmia	r2, {r0, r1}
	stmia	r3, {r0, r1}
	.loc 5 236 0
	ldr	r3, [sp, #212]
	add	r3, r3, #10
	mov	r2, r3, asl #3
	ldr	r3, [sp, #20]
	add	r3, r2, r3
	add	r3, r3, #4
	mov	r0, r3
	bl	_ZN6b2Vec29NormalizeEv
.LBE22:
	.loc 5 229 0
	ldr	r3, [sp, #212]
	add	r3, r3, #1
	str	r3, [sp, #212]
.L155:
	ldr	r2, [sp, #212]
	ldr	r3, [sp, #168]
	cmp	r2, r3
	movge	r3, #0
	movlt	r3, #1
	and	r3, r3, #255
	cmp	r3, #0
	bne	.L160
.LBE21:
	.loc 5 240 0
	ldr	r3, [sp, #20]
	add	r3, r3, #20
	ldr	r4, [sp, #20]
	mov	r2, sp
	mov	r0, r2
	mov	r1, r3
	ldr	r2, [sp, #168]
	bl	_ZL15ComputeCentroidPK6b2Vec2i
	add	r3, r4, #12
	mov	r2, sp
	ldmia	r2, {r0, r1}
	stmia	r3, {r0, r1}
.L161:
.LBE11:
	.loc 5 241 0
	add	sp, sp, #228
	fldmfdd	sp!, {d8}
	ldmfd	sp!, {r4, r5, pc}
	.cfi_endproc
.LFE170:
	.size	_ZN14b2PolygonShape3SetEPK6b2Vec2i, .-_ZN14b2PolygonShape3SetEPK6b2Vec2i
	.section	.text._ZNK14b2PolygonShape9TestPointERK11b2TransformRK6b2Vec2,"ax",%progbits
	.align	2
	.global	_ZNK14b2PolygonShape9TestPointERK11b2TransformRK6b2Vec2
	.hidden	_ZNK14b2PolygonShape9TestPointERK11b2TransformRK6b2Vec2
	.type	_ZNK14b2PolygonShape9TestPointERK11b2TransformRK6b2Vec2, %function
_ZNK14b2PolygonShape9TestPointERK11b2TransformRK6b2Vec2:
.LFB171:
	.loc 5 244 0
	.cfi_startproc
	@ args = 0, pretend = 0, frame = 48
	@ frame_needed = 0, uses_anonymous_args = 0
	stmfd	sp!, {r4, lr}
.LCFI64:
	.cfi_def_cfa_offset 8
	sub	sp, sp, #48
.LCFI65:
	.cfi_def_cfa_offset 56
	str	r0, [sp, #12]
	str	r1, [sp, #8]
	str	r2, [sp, #4]
.LBB23:
	.loc 5 245 0
	ldr	r3, [sp, #8]
	add	r4, r3, #8
	.cfi_offset 14, -4
	.cfi_offset 4, -8
	ldr	r3, [sp, #8]
	add	r2, sp, #24
	mov	r0, r2
	ldr	r1, [sp, #4]
	mov	r2, r3
	bl	_ZmiRK6b2Vec2S1_
	add	r2, sp, #16
	add	r3, sp, #24
	mov	r0, r2
	mov	r1, r4
	mov	r2, r3
	bl	_Z6b2MulTRK5b2RotRK6b2Vec2
.LBB24:
	.loc 5 247 0
	mov	r3, #0
	str	r3, [sp, #40]
	b	.L168
.L171:
.LBB25:
	.loc 5 249 0
	ldr	r3, [sp, #40]
	add	r3, r3, #10
	mov	r2, r3, asl #3
	ldr	r3, [sp, #12]
	add	r3, r2, r3
	add	r4, r3, #4
	ldr	r3, [sp, #40]
	add	r3, r3, #2
	mov	r2, r3, asl #3
	ldr	r3, [sp, #12]
	add	r3, r2, r3
	add	r3, r3, #4
	add	r1, sp, #32
	add	r2, sp, #16
	mov	r0, r1
	mov	r1, r2
	mov	r2, r3
	bl	_ZmiRK6b2Vec2S1_
	add	r3, sp, #32
	mov	r0, r4
	mov	r1, r3
	bl	_Z5b2DotRK6b2Vec2S1_
	mov	r3, r0	@ float
	str	r3, [sp, #44]	@ float
	.loc 5 250 0
	flds	s15, [sp, #44]
	fcmpezs	s15
	fmstat
	movle	r3, #0
	movgt	r3, #1
	and	r3, r3, #255
	cmp	r3, #0
	beq	.L169
	.loc 5 252 0
	mov	r3, #0
	b	.L170
.L169:
.LBE25:
	.loc 5 247 0
	ldr	r3, [sp, #40]
	add	r3, r3, #1
	str	r3, [sp, #40]
.L168:
	ldr	r3, [sp, #12]
	ldr	r2, [r3, #148]
	ldr	r3, [sp, #40]
	cmp	r2, r3
	movle	r3, #0
	movgt	r3, #1
	and	r3, r3, #255
	cmp	r3, #0
	bne	.L171
.LBE24:
	.loc 5 256 0
	mov	r3, #1
.L170:
.LBE23:
	.loc 5 257 0
	mov	r0, r3
	add	sp, sp, #48
	ldmfd	sp!, {r4, pc}
	.cfi_endproc
.LFE171:
	.size	_ZNK14b2PolygonShape9TestPointERK11b2TransformRK6b2Vec2, .-_ZNK14b2PolygonShape9TestPointERK11b2TransformRK6b2Vec2
	.section	.rodata
	.align	2
.LC6:
	.ascii	"0.0f <= lower && lower <= input.maxFraction\000"
	.section	.text._ZNK14b2PolygonShape7RayCastEP15b2RayCastOutputRK14b2RayCastInputRK11b2Transformi,"ax",%progbits
	.align	2
	.global	_ZNK14b2PolygonShape7RayCastEP15b2RayCastOutputRK14b2RayCastInputRK11b2Transformi
	.hidden	_ZNK14b2PolygonShape7RayCastEP15b2RayCastOutputRK14b2RayCastInputRK11b2Transformi
	.type	_ZNK14b2PolygonShape7RayCastEP15b2RayCastOutputRK14b2RayCastInputRK11b2Transformi, %function
_ZNK14b2PolygonShape7RayCastEP15b2RayCastOutputRK14b2RayCastInputRK11b2Transformi:
.LFB172:
	.loc 5 261 0
	.cfi_startproc
	@ args = 4, pretend = 0, frame = 96
	@ frame_needed = 0, uses_anonymous_args = 0
	stmfd	sp!, {r4, lr}
.LCFI66:
	.cfi_def_cfa_offset 8
	sub	sp, sp, #96
.LCFI67:
	.cfi_def_cfa_offset 104
	str	r0, [sp, #20]
	str	r1, [sp, #16]
	str	r2, [sp, #12]
	str	r3, [sp, #8]
.LBB26:
	.loc 5 265 0
	ldr	r3, [sp, #8]
	add	r4, r3, #8
	.cfi_offset 14, -4
	.cfi_offset 4, -8
	ldr	r2, [sp, #12]
	ldr	r3, [sp, #8]
	add	r1, sp, #48
	mov	r0, r1
	mov	r1, r2
	mov	r2, r3
	bl	_ZmiRK6b2Vec2S1_
	add	r2, sp, #40
	add	r3, sp, #48
	mov	r0, r2
	mov	r1, r4
	mov	r2, r3
	bl	_Z6b2MulTRK5b2RotRK6b2Vec2
	.loc 5 266 0
	ldr	r3, [sp, #8]
	add	r4, r3, #8
	ldr	r3, [sp, #12]
	add	r2, r3, #8
	ldr	r3, [sp, #8]
	add	r1, sp, #56
	mov	r0, r1
	mov	r1, r2
	mov	r2, r3
	bl	_ZmiRK6b2Vec2S1_
	add	r2, sp, #32
	add	r3, sp, #56
	mov	r0, r2
	mov	r1, r4
	mov	r2, r3
	bl	_Z6b2MulTRK5b2RotRK6b2Vec2
	.loc 5 267 0
	add	r1, sp, #24
	add	r2, sp, #32
	add	r3, sp, #40
	mov	r0, r1
	mov	r1, r2
	mov	r2, r3
	bl	_ZmiRK6b2Vec2S1_
	.loc 5 269 0
	flds	s15, .L190
	fsts	s15, [sp, #72]
	ldr	r3, [sp, #12]
	flds	s15, [r3, #16]
	fsts	s15, [sp, #76]
	.loc 5 271 0
	mvn	r3, #0
	str	r3, [sp, #80]
.LBB27:
	.loc 5 273 0
	mov	r3, #0
	str	r3, [sp, #84]
	b	.L174
.L182:
.LBB28:
	.loc 5 278 0
	ldr	r3, [sp, #84]
	add	r3, r3, #10
	mov	r2, r3, asl #3
	ldr	r3, [sp, #20]
	add	r3, r2, r3
	add	r4, r3, #4
	ldr	r3, [sp, #84]
	add	r3, r3, #2
	mov	r2, r3, asl #3
	ldr	r3, [sp, #20]
	add	r3, r2, r3
	add	r2, r3, #4
	add	r1, sp, #64
	add	r3, sp, #40
	mov	r0, r1
	mov	r1, r2
	mov	r2, r3
	bl	_ZmiRK6b2Vec2S1_
	add	r3, sp, #64
	mov	r0, r4
	mov	r1, r3
	bl	_Z5b2DotRK6b2Vec2S1_
	mov	r3, r0	@ float
	str	r3, [sp, #88]	@ float
	.loc 5 279 0
	ldr	r3, [sp, #84]
	add	r3, r3, #10
	mov	r2, r3, asl #3
	ldr	r3, [sp, #20]
	add	r3, r2, r3
	add	r2, r3, #4
	add	r3, sp, #24
	mov	r0, r2
	mov	r1, r3
	bl	_Z5b2DotRK6b2Vec2S1_
	mov	r3, r0	@ float
	str	r3, [sp, #92]	@ float
	.loc 5 281 0
	flds	s15, [sp, #92]
	fcmpzs	s15
	fmstat
	bne	.L188
.L187:
	.loc 5 283 0
	flds	s15, [sp, #88]
	fcmpezs	s15
	fmstat
	movpl	r3, #0
	movmi	r3, #1
	and	r3, r3, #255
	cmp	r3, #0
	beq	.L189
	.loc 5 285 0
	mov	r3, #0
	b	.L178
.L188:
	.loc 5 294 0
	flds	s15, [sp, #92]
	fcmpezs	s15
	fmstat
	movpl	r3, #0
	movmi	r3, #1
	and	r3, r3, #255
	cmp	r3, #0
	beq	.L180
	flds	s14, [sp, #72]
	flds	s15, [sp, #92]
	fmuls	s15, s14, s15
	flds	s14, [sp, #88]
	fcmpes	s15, s14
	fmstat
	movle	r3, #0
	movgt	r3, #1
	and	r3, r3, #255
	cmp	r3, #0
	beq	.L180
	.loc 5 298 0
	flds	s14, [sp, #88]
	flds	s15, [sp, #92]
	fdivs	s15, s14, s15
	fsts	s15, [sp, #72]
	.loc 5 299 0
	ldr	r3, [sp, #84]
	str	r3, [sp, #80]
	.loc 5 294 0
	b	.L179
.L180:
	.loc 5 301 0
	flds	s15, [sp, #92]
	fcmpezs	s15
	fmstat
	movle	r3, #0
	movgt	r3, #1
	and	r3, r3, #255
	cmp	r3, #0
	beq	.L179
	flds	s14, [sp, #76]
	flds	s15, [sp, #92]
	fmuls	s15, s14, s15
	flds	s14, [sp, #88]
	fcmpes	s15, s14
	fmstat
	movle	r3, #0
	movgt	r3, #1
	and	r3, r3, #255
	cmp	r3, #0
	beq	.L179
	.loc 5 305 0
	flds	s14, [sp, #88]
	flds	s15, [sp, #92]
	fdivs	s15, s14, s15
	fsts	s15, [sp, #76]
	b	.L179
.L189:
	.loc 5 285 0
	mov	r0, r0	@ nop
.L179:
	.loc 5 313 0
	flds	s14, [sp, #76]
	flds	s15, [sp, #72]
	fcmpes	s14, s15
	fmstat
	movpl	r3, #0
	movmi	r3, #1
	and	r3, r3, #255
	cmp	r3, #0
	beq	.L181
	.loc 5 315 0
	mov	r3, #0
	b	.L178
.L181:
.LBE28:
	.loc 5 273 0
	ldr	r3, [sp, #84]
	add	r3, r3, #1
	str	r3, [sp, #84]
.L174:
	ldr	r3, [sp, #20]
	ldr	r2, [r3, #148]
	ldr	r3, [sp, #84]
	cmp	r2, r3
	movle	r3, #0
	movgt	r3, #1
	and	r3, r3, #255
	cmp	r3, #0
	bne	.L182
.LBE27:
	.loc 5 319 0
	flds	s15, [sp, #72]
	fcmpezs	s15
	fmstat
	movlt	r3, #0
	movge	r3, #1
	and	r3, r3, #255
	eor	r3, r3, #1
	and	r3, r3, #255
	cmp	r3, #0
	bne	.L183
	ldr	r3, [sp, #12]
	flds	s14, [r3, #16]
	flds	s15, [sp, #72]
	fcmpes	s14, s15
	fmstat
	movlt	r3, #0
	movge	r3, #1
	and	r3, r3, #255
	eor	r3, r3, #1
	and	r3, r3, #255
	cmp	r3, #0
	beq	.L184
.L183:
	ldr	r0, .L190+4
	ldr	r1, .L190+8
	ldr	r2, .L190+12
	bl	__assert
.L184:
	.loc 5 321 0
	ldr	r3, [sp, #80]
	cmp	r3, #0
	blt	.L185
	.loc 5 323 0
	ldr	r3, [sp, #16]
	flds	s15, [sp, #72]
	fsts	s15, [r3, #8]
	.loc 5 324 0
	ldr	r3, [sp, #8]
	add	r2, r3, #8
	ldr	r3, [sp, #80]
	add	r3, r3, #10
	mov	r1, r3, asl #3
	ldr	r3, [sp, #20]
	add	r3, r1, r3
	add	r3, r3, #4
	ldr	r4, [sp, #16]
	mov	r1, sp
	mov	r0, r1
	mov	r1, r2
	mov	r2, r3
	bl	_Z5b2MulRK5b2RotRK6b2Vec2
	mov	r3, r4
	mov	r2, sp
	ldmia	r2, {r0, r1}
	stmia	r3, {r0, r1}
	.loc 5 325 0
	mov	r3, #1
	b	.L178
.L185:
	.loc 5 328 0
	mov	r3, #0
.L178:
.LBE26:
	.loc 5 329 0
	mov	r0, r3
	add	sp, sp, #96
	ldmfd	sp!, {r4, pc}
.L191:
	.align	2
.L190:
	.word	0
	.word	.LC0
	.word	319
	.word	.LC6
	.cfi_endproc
.LFE172:
	.size	_ZNK14b2PolygonShape7RayCastEP15b2RayCastOutputRK14b2RayCastInputRK11b2Transformi, .-_ZNK14b2PolygonShape7RayCastEP15b2RayCastOutputRK14b2RayCastInputRK11b2Transformi
	.section	.text._ZNK14b2PolygonShape11ComputeAABBEP6b2AABBRK11b2Transformi,"ax",%progbits
	.align	2
	.global	_ZNK14b2PolygonShape11ComputeAABBEP6b2AABBRK11b2Transformi
	.hidden	_ZNK14b2PolygonShape11ComputeAABBEP6b2AABBRK11b2Transformi
	.type	_ZNK14b2PolygonShape11ComputeAABBEP6b2AABBRK11b2Transformi, %function
_ZNK14b2PolygonShape11ComputeAABBEP6b2AABBRK11b2Transformi:
.LFB173:
	.loc 5 332 0
	.cfi_startproc
	@ args = 0, pretend = 0, frame = 64
	@ frame_needed = 0, uses_anonymous_args = 0
	stmfd	sp!, {r4, lr}
.LCFI68:
	.cfi_def_cfa_offset 8
	sub	sp, sp, #64
.LCFI69:
	.cfi_def_cfa_offset 72
	str	r0, [sp, #20]
	str	r1, [sp, #16]
	str	r2, [sp, #12]
	str	r3, [sp, #8]
.LBB29:
	.loc 5 335 0
	ldr	r3, [sp, #20]
	add	r3, r3, #20
	add	r2, sp, #52
	mov	r0, r2
	ldr	r1, [sp, #12]
	mov	r2, r3
	.cfi_offset 14, -4
	.cfi_offset 4, -8
	bl	_Z5b2MulRK11b2TransformRK6b2Vec2
	.loc 5 336 0
	add	r3, sp, #44
	add	r2, sp, #52
	ldmia	r2, {r0, r1}
	stmia	r3, {r0, r1}
.LBB30:
	.loc 5 338 0
	mov	r3, #1
	str	r3, [sp, #60]
	b	.L193
.L194:
.LBB31:
	.loc 5 340 0
	ldr	r3, [sp, #60]
	add	r3, r3, #2
	mov	r2, r3, asl #3
	ldr	r3, [sp, #20]
	add	r3, r2, r3
	add	r3, r3, #4
	add	r2, sp, #28
	mov	r0, r2
	ldr	r1, [sp, #12]
	mov	r2, r3
	bl	_Z5b2MulRK11b2TransformRK6b2Vec2
	.loc 5 341 0
	mov	r1, sp
	add	r2, sp, #52
	add	r3, sp, #28
	mov	r0, r1
	mov	r1, r2
	mov	r2, r3
	bl	_Z5b2MinRK6b2Vec2S1_
	add	r3, sp, #52
	mov	r2, sp
	ldmia	r2, {r0, r1}
	stmia	r3, {r0, r1}
	.loc 5 342 0
	mov	r1, sp
	add	r2, sp, #44
	add	r3, sp, #28
	mov	r0, r1
	mov	r1, r2
	mov	r2, r3
	bl	_Z5b2MaxRK6b2Vec2S1_
	add	r3, sp, #44
	mov	r2, sp
	ldmia	r2, {r0, r1}
	stmia	r3, {r0, r1}
.LBE31:
	.loc 5 338 0
	ldr	r3, [sp, #60]
	add	r3, r3, #1
	str	r3, [sp, #60]
.L193:
	ldr	r3, [sp, #20]
	ldr	r2, [r3, #148]
	ldr	r3, [sp, #60]
	cmp	r2, r3
	movle	r3, #0
	movgt	r3, #1
	and	r3, r3, #255
	cmp	r3, #0
	bne	.L194
.LBE30:
	.loc 5 345 0
	ldr	r3, [sp, #20]
	ldr	r2, [r3, #8]	@ float
	ldr	r3, [sp, #20]
	ldr	r3, [r3, #8]	@ float
	add	r1, sp, #36
	mov	r0, r1
	mov	r1, r2	@ float
	mov	r2, r3	@ float
	bl	_ZN6b2Vec2C1Eff
	.loc 5 346 0
	ldr	r4, [sp, #16]
	mov	r1, sp
	add	r2, sp, #52
	add	r3, sp, #36
	mov	r0, r1
	mov	r1, r2
	mov	r2, r3
	bl	_ZmiRK6b2Vec2S1_
	mov	r3, r4
	mov	r2, sp
	ldmia	r2, {r0, r1}
	stmia	r3, {r0, r1}
	.loc 5 347 0
	ldr	r4, [sp, #16]
	mov	r1, sp
	add	r2, sp, #44
	add	r3, sp, #36
	mov	r0, r1
	mov	r1, r2
	mov	r2, r3
	bl	_ZplRK6b2Vec2S1_
	add	r3, r4, #8
	mov	r2, sp
	ldmia	r2, {r0, r1}
	stmia	r3, {r0, r1}
.LBE29:
	.loc 5 348 0
	add	sp, sp, #64
	ldmfd	sp!, {r4, pc}
	.cfi_endproc
.LFE173:
	.size	_ZNK14b2PolygonShape11ComputeAABBEP6b2AABBRK11b2Transformi, .-_ZNK14b2PolygonShape11ComputeAABBEP6b2AABBRK11b2Transformi
	.section	.rodata
	.align	2
.LC7:
	.ascii	"m_count >= 3\000"
	.section	.text._ZNK14b2PolygonShape11ComputeMassEP10b2MassDataf,"ax",%progbits
	.align	2
	.global	_ZNK14b2PolygonShape11ComputeMassEP10b2MassDataf
	.hidden	_ZNK14b2PolygonShape11ComputeMassEP10b2MassDataf
	.type	_ZNK14b2PolygonShape11ComputeMassEP10b2MassDataf, %function
_ZNK14b2PolygonShape11ComputeMassEP10b2MassDataf:
.LFB174:
	.loc 5 351 0
	.cfi_startproc
	@ args = 0, pretend = 0, frame = 128
	@ frame_needed = 0, uses_anonymous_args = 0
	stmfd	sp!, {r4, lr}
.LCFI70:
	.cfi_def_cfa_offset 8
	fstmfdd	sp!, {d8, d9, d10}
.LCFI71:
	.cfi_def_cfa_offset 32
	sub	sp, sp, #128
.LCFI72:
	.cfi_def_cfa_offset 160
	str	r0, [sp, #20]
	str	r1, [sp, #16]
	str	r2, [sp, #12]	@ float
.LBB32:
	.loc 5 376 0
	ldr	r3, [sp, #20]
	ldr	r3, [r3, #148]
	cmp	r3, #2
	bgt	.L197
	.cfi_offset 84, -16
	.cfi_offset 82, -24
	.cfi_offset 80, -32
	.cfi_offset 14, -4
	.cfi_offset 4, -8
	ldr	r0, .L207+8
	mov	r1, #376
	ldr	r2, .L207+4
	bl	__assert
.L197:
	.loc 5 378 0
	add	r3, sp, #52
	mov	r0, r3
	bl	_ZN6b2Vec2C1Ev
	add	r3, sp, #52
	mov	r0, r3
	ldr	r1, .L207	@ float
	ldr	r2, .L207	@ float
	bl	_ZN6b2Vec23SetEff
	.loc 5 379 0
	flds	s15, .L207
	fsts	s15, [sp, #76]
	.loc 5 380 0
	flds	s15, .L207
	fsts	s15, [sp, #80]
	.loc 5 384 0
	add	r3, sp, #44
	mov	r0, r3
	ldr	r1, .L207	@ float
	ldr	r2, .L207	@ float
	bl	_ZN6b2Vec2C1Eff
.LBB33:
	.loc 5 387 0
	mov	r3, #0
	str	r3, [sp, #88]
	b	.L198
.L199:
	.loc 5 389 0
	ldr	r3, [sp, #88]
	add	r3, r3, #2
	mov	r2, r3, asl #3
	ldr	r3, [sp, #20]
	add	r3, r2, r3
	add	r3, r3, #4
	add	r2, sp, #44
	mov	r0, r2
	mov	r1, r3
	bl	_ZN6b2Vec2pLERKS_
	.loc 5 387 0
	ldr	r3, [sp, #88]
	add	r3, r3, #1
	str	r3, [sp, #88]
.L198:
	ldr	r3, [sp, #20]
	ldr	r2, [r3, #148]
	ldr	r3, [sp, #88]
	cmp	r2, r3
	movle	r3, #0
	movgt	r3, #1
	and	r3, r3, #255
	cmp	r3, #0
	bne	.L199
.LBE33:
	.loc 5 391 0
	ldr	r3, [sp, #20]
	flds	s15, [r3, #148]	@ int
	fsitos	s15, s15
	flds	s14, .L207+36
	fdivs	s15, s14, s15
	add	r3, sp, #44
	mov	r0, r3
	fmrs	r1, s15
	bl	_ZN6b2Vec2mLEf
	.loc 5 393 0
	flds	s15, .L207+24
	fsts	s15, [sp, #84]
.LBB34:
	.loc 5 395 0
	mov	r3, #0
	str	r3, [sp, #92]
	b	.L200
.L203:
.LBB35:
	.loc 5 398 0
	ldr	r3, [sp, #92]
	add	r3, r3, #2
	mov	r2, r3, asl #3
	ldr	r3, [sp, #20]
	add	r3, r2, r3
	add	r2, r3, #4
	add	r1, sp, #36
	add	r3, sp, #44
	mov	r0, r1
	mov	r1, r2
	mov	r2, r3
	bl	_ZmiRK6b2Vec2S1_
	.loc 5 399 0
	ldr	r3, [sp, #92]
	add	r2, r3, #1
	ldr	r3, [sp, #20]
	ldr	r3, [r3, #148]
	cmp	r2, r3
	bge	.L201
	ldr	r3, [sp, #92]
	add	r3, r3, #1
	add	r3, r3, #2
	mov	r2, r3, asl #3
	ldr	r3, [sp, #20]
	add	r3, r2, r3
	add	r2, r3, #4
	add	r1, sp, #28
	add	r3, sp, #44
	mov	r0, r1
	mov	r1, r2
	mov	r2, r3
	bl	_ZmiRK6b2Vec2S1_
	b	.L202
.L208:
	.align	2
.L207:
	.word	0
	.word	.LC7
	.word	.LC0
	.word	422
	.word	.LC2
	.word	1056964608
	.word	1051372203
	.word	1034594987
	.word	872415232
	.word	1065353216
.L201:
	ldr	r3, [sp, #20]
	add	r2, r3, #20
	add	r1, sp, #28
	add	r3, sp, #44
	mov	r0, r1
	mov	r1, r2
	mov	r2, r3
	bl	_ZmiRK6b2Vec2S1_
.L202:
	.loc 5 401 0
	add	r2, sp, #36
	add	r3, sp, #28
	mov	r0, r2
	mov	r1, r3
	bl	_Z7b2CrossRK6b2Vec2S1_
	mov	r3, r0	@ float
	str	r3, [sp, #96]	@ float
	.loc 5 403 0
	flds	s14, [sp, #96]
	flds	s15, .L207+20
	fmuls	s15, s14, s15
	fsts	s15, [sp, #100]
	.loc 5 404 0
	flds	s14, [sp, #76]
	flds	s15, [sp, #100]
	fadds	s15, s14, s15
	fsts	s15, [sp, #76]
	.loc 5 407 0
	flds	s14, [sp, #100]
	flds	s15, .L207+24
	fmuls	s16, s14, s15
	add	r1, sp, #68
	add	r2, sp, #36
	add	r3, sp, #28
	mov	r0, r1
	mov	r1, r2
	mov	r2, r3
	bl	_ZplRK6b2Vec2S1_
	add	r2, sp, #60
	add	r3, sp, #68
	mov	r0, r2
	fmrs	r1, s16
	mov	r2, r3
	bl	_ZmlfRK6b2Vec2
	add	r2, sp, #52
	add	r3, sp, #60
	mov	r0, r2
	mov	r1, r3
	bl	_ZN6b2Vec2pLERKS_
	.loc 5 409 0
	flds	s15, [sp, #36]
	fsts	s15, [sp, #104]
	flds	s15, [sp, #40]
	fsts	s15, [sp, #108]
	.loc 5 410 0
	flds	s15, [sp, #28]
	fsts	s15, [sp, #112]
	flds	s15, [sp, #32]
	fsts	s15, [sp, #116]
	.loc 5 412 0
	flds	s14, [sp, #104]
	flds	s15, [sp, #104]
	fmuls	s14, s14, s15
	flds	s13, [sp, #112]
	flds	s15, [sp, #104]
	fmuls	s15, s13, s15
	fadds	s14, s14, s15
	flds	s13, [sp, #112]
	flds	s15, [sp, #112]
	fmuls	s15, s13, s15
	fadds	s15, s14, s15
	fsts	s15, [sp, #120]
	.loc 5 413 0
	flds	s14, [sp, #108]
	flds	s15, [sp, #108]
	fmuls	s14, s14, s15
	flds	s13, [sp, #116]
	flds	s15, [sp, #108]
	fmuls	s15, s13, s15
	fadds	s14, s14, s15
	flds	s13, [sp, #116]
	flds	s15, [sp, #116]
	fmuls	s15, s13, s15
	fadds	s15, s14, s15
	fsts	s15, [sp, #124]
	.loc 5 415 0
	flds	s14, [sp, #96]
	flds	s15, .L207+28
	fmuls	s15, s14, s15
	flds	s13, [sp, #120]
	flds	s14, [sp, #124]
	fadds	s14, s13, s14
	fmuls	s15, s15, s14
	flds	s14, [sp, #80]
	fadds	s15, s14, s15
	fsts	s15, [sp, #80]
.LBE35:
	.loc 5 395 0
	ldr	r3, [sp, #92]
	add	r3, r3, #1
	str	r3, [sp, #92]
.L200:
	ldr	r3, [sp, #20]
	ldr	r2, [r3, #148]
	ldr	r3, [sp, #92]
	cmp	r2, r3
	movle	r3, #0
	movgt	r3, #1
	and	r3, r3, #255
	cmp	r3, #0
	bne	.L203
.LBE34:
	.loc 5 419 0
	flds	s14, [sp, #12]
	flds	s15, [sp, #76]
	fmuls	s15, s14, s15
	ldr	r3, [sp, #16]
	fsts	s15, [r3, #0]
	.loc 5 422 0
	flds	s14, [sp, #76]
	flds	s15, .L207+32
	fcmpes	s14, s15
	fmstat
	movle	r3, #0
	movgt	r3, #1
	and	r3, r3, #255
	cmp	r3, #0
	bne	.L205
.L204:
	ldr	r0, .L207+8
	ldr	r1, .L207+12
	ldr	r2, .L207+16
	bl	__assert
.L205:
	.loc 5 423 0
	flds	s14, .L207+36
	flds	s15, [sp, #76]
	fdivs	s15, s14, s15
	add	r3, sp, #52
	mov	r0, r3
	fmrs	r1, s15
	bl	_ZN6b2Vec2mLEf
	.loc 5 424 0
	ldr	r4, [sp, #16]
	mov	r1, sp
	add	r2, sp, #52
	add	r3, sp, #44
	mov	r0, r1
	mov	r1, r2
	mov	r2, r3
	bl	_ZplRK6b2Vec2S1_
	add	r3, r4, #4
	mov	r2, sp
	ldmia	r2, {r0, r1}
	stmia	r3, {r0, r1}
	.loc 5 427 0
	flds	s14, [sp, #12]
	flds	s15, [sp, #80]
	fmuls	s15, s14, s15
	ldr	r3, [sp, #16]
	fsts	s15, [r3, #12]
	.loc 5 430 0
	ldr	r3, [sp, #16]
	flds	s16, [r3, #12]
	ldr	r3, [sp, #16]
	flds	s17, [r3, #0]
	ldr	r3, [sp, #16]
	add	r2, r3, #4
	ldr	r3, [sp, #16]
	add	r3, r3, #4
	mov	r0, r2
	mov	r1, r3
	bl	_Z5b2DotRK6b2Vec2S1_
	fmsr	s18, r0
	add	r2, sp, #52
	add	r3, sp, #52
	mov	r0, r2
	mov	r1, r3
	bl	_Z5b2DotRK6b2Vec2S1_
	fmsr	s15, r0
	fsubs	s15, s18, s15
	fmuls	s15, s17, s15
	fadds	s15, s16, s15
	ldr	r3, [sp, #16]
	fsts	s15, [r3, #12]
.LBE32:
	.loc 5 431 0
	add	sp, sp, #128
	fldmfdd	sp!, {d8, d9, d10}
	ldmfd	sp!, {r4, pc}
	.cfi_endproc
.LFE174:
	.size	_ZNK14b2PolygonShape11ComputeMassEP10b2MassDataf, .-_ZNK14b2PolygonShape11ComputeMassEP10b2MassDataf
	.section	.text._ZNK14b2PolygonShape8ValidateEv,"ax",%progbits
	.align	2
	.global	_ZNK14b2PolygonShape8ValidateEv
	.hidden	_ZNK14b2PolygonShape8ValidateEv
	.type	_ZNK14b2PolygonShape8ValidateEv, %function
_ZNK14b2PolygonShape8ValidateEv:
.LFB175:
	.loc 5 434 0
	.cfi_startproc
	@ args = 0, pretend = 0, frame = 56
	@ frame_needed = 0, uses_anonymous_args = 0
	str	lr, [sp, #-4]!
.LCFI73:
	.cfi_def_cfa_offset 4
	sub	sp, sp, #60
.LCFI74:
	.cfi_def_cfa_offset 64
	str	r0, [sp, #4]
.LBB36:
.LBB37:
	.loc 5 435 0
	mov	r3, #0
	str	r3, [sp, #36]
	b	.L210
	.cfi_offset 14, -4
.L219:
.LBB38:
	.loc 5 437 0
	ldr	r3, [sp, #36]
	str	r3, [sp, #40]
	.loc 5 438 0
	ldr	r3, [sp, #4]
	ldr	r3, [r3, #148]
	sub	r2, r3, #1
	ldr	r3, [sp, #36]
	cmp	r2, r3
	ble	.L211
	ldr	r3, [sp, #40]
	add	r3, r3, #1
	b	.L212
.L211:
	mov	r3, #0
.L212:
	str	r3, [sp, #44]
	.loc 5 439 0
	ldr	r3, [sp, #40]
	ldr	r2, [sp, #4]
	add	r1, r3, #2
	mov	r3, #4
	mov	r1, r1, asl #3
	add	r2, r1, r2
	add	r2, r2, r3
	add	r3, sp, #28
	ldmia	r2, {r0, r1}
	stmia	r3, {r0, r1}
	.loc 5 440 0
	ldr	r3, [sp, #44]
	add	r3, r3, #2
	mov	r2, r3, asl #3
	ldr	r3, [sp, #4]
	add	r3, r2, r3
	add	r2, r3, #4
	add	r1, sp, #20
	add	r3, sp, #28
	mov	r0, r1
	mov	r1, r2
	mov	r2, r3
	bl	_ZmiRK6b2Vec2S1_
.LBB39:
	.loc 5 442 0
	mov	r3, #0
	str	r3, [sp, #48]
	b	.L213
.L218:
.LBB40:
	.loc 5 444 0
	ldr	r2, [sp, #48]
	ldr	r3, [sp, #40]
	cmp	r2, r3
	beq	.L221
	ldr	r2, [sp, #48]
	ldr	r3, [sp, #44]
	cmp	r2, r3
	beq	.L222
.L215:
	.loc 5 449 0
	ldr	r3, [sp, #48]
	add	r3, r3, #2
	mov	r2, r3, asl #3
	ldr	r3, [sp, #4]
	add	r3, r2, r3
	add	r2, r3, #4
	add	r1, sp, #12
	add	r3, sp, #28
	mov	r0, r1
	mov	r1, r2
	mov	r2, r3
	bl	_ZmiRK6b2Vec2S1_
	.loc 5 450 0
	add	r2, sp, #20
	add	r3, sp, #12
	mov	r0, r2
	mov	r1, r3
	bl	_Z7b2CrossRK6b2Vec2S1_
	mov	r3, r0	@ float
	str	r3, [sp, #52]	@ float
	.loc 5 451 0
	flds	s15, [sp, #52]
	fcmpezs	s15
	fmstat
	movpl	r3, #0
	movmi	r3, #1
	and	r3, r3, #255
	cmp	r3, #0
	beq	.L216
	.loc 5 453 0
	mov	r3, #0
	b	.L217
.L221:
	.loc 5 446 0
	mov	r0, r0	@ nop
	b	.L216
.L222:
	mov	r0, r0	@ nop
.L216:
.LBE40:
	.loc 5 442 0
	ldr	r3, [sp, #48]
	add	r3, r3, #1
	str	r3, [sp, #48]
.L213:
	ldr	r3, [sp, #4]
	ldr	r2, [r3, #148]
	ldr	r3, [sp, #48]
	cmp	r2, r3
	movle	r3, #0
	movgt	r3, #1
	and	r3, r3, #255
	cmp	r3, #0
	bne	.L218
.LBE39:
.LBE38:
	.loc 5 435 0
	ldr	r3, [sp, #36]
	add	r3, r3, #1
	str	r3, [sp, #36]
.L210:
	ldr	r3, [sp, #4]
	ldr	r2, [r3, #148]
	ldr	r3, [sp, #36]
	cmp	r2, r3
	movle	r3, #0
	movgt	r3, #1
	and	r3, r3, #255
	cmp	r3, #0
	bne	.L219
.LBE37:
	.loc 5 458 0
	mov	r3, #1
.L217:
.LBE36:
	.loc 5 459 0
	mov	r0, r3
	add	sp, sp, #60
	ldmfd	sp!, {pc}
	.cfi_endproc
.LFE175:
	.size	_ZNK14b2PolygonShape8ValidateEv, .-_ZNK14b2PolygonShape8ValidateEv
	.section	.text._Z5b2MinIfET_S0_S0_,"axG",%progbits,_Z5b2MinIfET_S0_S0_,comdat
	.align	2
	.weak	_Z5b2MinIfET_S0_S0_
	.hidden	_Z5b2MinIfET_S0_S0_
	.type	_Z5b2MinIfET_S0_S0_, %function
_Z5b2MinIfET_S0_S0_:
.LFB177:
	.loc 1 632 0
	.cfi_startproc
	@ args = 0, pretend = 0, frame = 8
	@ frame_needed = 0, uses_anonymous_args = 0
	@ link register save eliminated.
	sub	sp, sp, #8
.LCFI75:
	.cfi_def_cfa_offset 8
	str	r0, [sp, #4]	@ float
	str	r1, [sp, #0]	@ float
	.loc 1 634 0
	flds	s14, [sp, #4]
	flds	s15, [sp, #0]
	fcmpes	s14, s15
	fmstat
	movpl	r3, #0
	movmi	r3, #1
	and	r3, r3, #255
	cmp	r3, #0
	beq	.L224
	flds	s15, [sp, #4]
	b	.L225
.L224:
	flds	s15, [sp, #0]
.L225:
	fmrs	r3, s15
	.loc 1 635 0
	mov	r0, r3	@ float
	add	sp, sp, #8
	bx	lr
	.cfi_endproc
.LFE177:
	.size	_Z5b2MinIfET_S0_S0_, .-_Z5b2MinIfET_S0_S0_
	.section	.text._Z5b2MaxIfET_S0_S0_,"axG",%progbits,_Z5b2MaxIfET_S0_S0_,comdat
	.align	2
	.weak	_Z5b2MaxIfET_S0_S0_
	.hidden	_Z5b2MaxIfET_S0_S0_
	.type	_Z5b2MaxIfET_S0_S0_, %function
_Z5b2MaxIfET_S0_S0_:
.LFB178:
	.loc 1 643 0
	.cfi_startproc
	@ args = 0, pretend = 0, frame = 8
	@ frame_needed = 0, uses_anonymous_args = 0
	@ link register save eliminated.
	sub	sp, sp, #8
.LCFI76:
	.cfi_def_cfa_offset 8
	str	r0, [sp, #4]	@ float
	str	r1, [sp, #0]	@ float
	.loc 1 645 0
	flds	s14, [sp, #4]
	flds	s15, [sp, #0]
	fcmpes	s14, s15
	fmstat
	movle	r3, #0
	movgt	r3, #1
	and	r3, r3, #255
	cmp	r3, #0
	beq	.L228
	flds	s15, [sp, #4]
	b	.L229
.L228:
	flds	s15, [sp, #0]
.L229:
	fmrs	r3, s15
	.loc 1 646 0
	mov	r0, r3	@ float
	add	sp, sp, #8
	bx	lr
	.cfi_endproc
.LFE178:
	.size	_Z5b2MaxIfET_S0_S0_, .-_Z5b2MaxIfET_S0_S0_
	.section	.text._Z5b2MinIiET_S0_S0_,"axG",%progbits,_Z5b2MinIiET_S0_S0_,comdat
	.align	2
	.weak	_Z5b2MinIiET_S0_S0_
	.hidden	_Z5b2MinIiET_S0_S0_
	.type	_Z5b2MinIiET_S0_S0_, %function
_Z5b2MinIiET_S0_S0_:
.LFB179:
	.loc 1 632 0
	.cfi_startproc
	@ args = 0, pretend = 0, frame = 8
	@ frame_needed = 0, uses_anonymous_args = 0
	@ link register save eliminated.
	sub	sp, sp, #8
.LCFI77:
	.cfi_def_cfa_offset 8
	str	r0, [sp, #4]
	str	r1, [sp, #0]
	.loc 1 634 0
	ldr	r2, [sp, #4]
	ldr	r3, [sp, #0]
	cmp	r2, r3
	bge	.L232
	ldr	r3, [sp, #4]
	b	.L233
.L232:
	ldr	r3, [sp, #0]
.L233:
	.loc 1 635 0
	mov	r0, r3
	add	sp, sp, #8
	bx	lr
	.cfi_endproc
.LFE179:
	.size	_Z5b2MinIiET_S0_S0_, .-_Z5b2MinIiET_S0_S0_
	.hidden	_ZTV14b2PolygonShape
	.global	_ZTV14b2PolygonShape
	.section	.rodata
	.align	3
	.type	_ZTV14b2PolygonShape, %object
	.size	_ZTV14b2PolygonShape, 40
_ZTV14b2PolygonShape:
	.word	0
	.word	_ZTI14b2PolygonShape
	.word	_ZN14b2PolygonShapeD1Ev
	.word	_ZN14b2PolygonShapeD0Ev
	.word	_ZNK14b2PolygonShape5CloneEP16b2BlockAllocator
	.word	_ZNK14b2PolygonShape13GetChildCountEv
	.word	_ZNK14b2PolygonShape9TestPointERK11b2TransformRK6b2Vec2
	.word	_ZNK14b2PolygonShape7RayCastEP15b2RayCastOutputRK14b2RayCastInputRK11b2Transformi
	.word	_ZNK14b2PolygonShape11ComputeAABBEP6b2AABBRK11b2Transformi
	.word	_ZNK14b2PolygonShape11ComputeMassEP10b2MassDataf
	.hidden	_ZTV7b2Shape
	.weak	_ZTV7b2Shape
	.section	.rodata._ZTV7b2Shape,"aG",%progbits,_ZTV7b2Shape,comdat
	.align	3
	.type	_ZTV7b2Shape, %object
	.size	_ZTV7b2Shape, 40
_ZTV7b2Shape:
	.word	0
	.word	_ZTI7b2Shape
	.word	_ZN7b2ShapeD1Ev
	.word	_ZN7b2ShapeD0Ev
	.word	__cxa_pure_virtual
	.word	__cxa_pure_virtual
	.word	__cxa_pure_virtual
	.word	__cxa_pure_virtual
	.word	__cxa_pure_virtual
	.word	__cxa_pure_virtual
	.hidden	_ZTI14b2PolygonShape
	.global	_ZTI14b2PolygonShape
	.section	.rodata
	.align	2
	.type	_ZTI14b2PolygonShape, %object
	.size	_ZTI14b2PolygonShape, 12
_ZTI14b2PolygonShape:
	.word	_ZTVN10__cxxabiv120__si_class_type_infoE+8
	.word	_ZTS14b2PolygonShape
	.word	_ZTI7b2Shape
	.hidden	_ZTS14b2PolygonShape
	.global	_ZTS14b2PolygonShape
	.align	2
	.type	_ZTS14b2PolygonShape, %object
	.size	_ZTS14b2PolygonShape, 17
_ZTS14b2PolygonShape:
	.ascii	"14b2PolygonShape\000"
	.hidden	_ZTS7b2Shape
	.weak	_ZTS7b2Shape
	.section	.rodata._ZTS7b2Shape,"aG",%progbits,_ZTS7b2Shape,comdat
	.align	2
	.type	_ZTS7b2Shape, %object
	.size	_ZTS7b2Shape, 9
_ZTS7b2Shape:
	.ascii	"7b2Shape\000"
	.hidden	_ZTI7b2Shape
	.weak	_ZTI7b2Shape
	.section	.rodata._ZTI7b2Shape,"aG",%progbits,_ZTI7b2Shape,comdat
	.align	2
	.type	_ZTI7b2Shape, %object
	.size	_ZTI7b2Shape, 8
_ZTI7b2Shape:
	.word	_ZTVN10__cxxabiv117__class_type_infoE+8
	.word	_ZTS7b2Shape
	.section	.text._ZN14b2PolygonShapeD1Ev,"axG",%progbits,_ZN14b2PolygonShapeD1Ev,comdat
	.align	2
	.weak	_ZN14b2PolygonShapeD1Ev
	.hidden	_ZN14b2PolygonShapeD1Ev
	.type	_ZN14b2PolygonShapeD1Ev, %function
_ZN14b2PolygonShapeD1Ev:
.LFB182:
	.loc 3 29 0
	.cfi_startproc
	@ args = 0, pretend = 0, frame = 8
	@ frame_needed = 0, uses_anonymous_args = 0
	str	lr, [sp, #-4]!
.LCFI78:
	.cfi_def_cfa_offset 4
	sub	sp, sp, #12
.LCFI79:
	.cfi_def_cfa_offset 16
	str	r0, [sp, #4]
	.loc 3 29 0
	ldr	r3, [sp, #4]
	ldr	r2, .L239
	str	r2, [r3, #0]
	ldr	r3, [sp, #4]
	mov	r0, r3
	.cfi_offset 14, -4
	bl	_ZN7b2ShapeD2Ev
	mov	r3, #0
	and	r3, r3, #255
	cmp	r3, #0
	beq	.L237
	ldr	r0, [sp, #4]
	bl	_ZdlPv
.L237:
	ldr	r3, [sp, #4]
	mov	r0, r3
	add	sp, sp, #12
	ldmfd	sp!, {pc}
.L240:
	.align	2
.L239:
	.word	_ZTV14b2PolygonShape+8
	.cfi_endproc
.LFE182:
	.size	_ZN14b2PolygonShapeD1Ev, .-_ZN14b2PolygonShapeD1Ev
	.section	.text._ZN14b2PolygonShapeD0Ev,"axG",%progbits,_ZN14b2PolygonShapeD0Ev,comdat
	.align	2
	.weak	_ZN14b2PolygonShapeD0Ev
	.hidden	_ZN14b2PolygonShapeD0Ev
	.type	_ZN14b2PolygonShapeD0Ev, %function
_ZN14b2PolygonShapeD0Ev:
.LFB183:
	.loc 3 29 0
	.cfi_startproc
	@ args = 0, pretend = 0, frame = 8
	@ frame_needed = 0, uses_anonymous_args = 0
	str	lr, [sp, #-4]!
.LCFI80:
	.cfi_def_cfa_offset 4
	sub	sp, sp, #12
.LCFI81:
	.cfi_def_cfa_offset 16
	str	r0, [sp, #4]
	.loc 3 29 0
	ldr	r3, [sp, #4]
	ldr	r2, .L245
	str	r2, [r3, #0]
	ldr	r3, [sp, #4]
	mov	r0, r3
	.cfi_offset 14, -4
	bl	_ZN7b2ShapeD2Ev
	mov	r3, #1
	and	r3, r3, #255
	cmp	r3, #0
	beq	.L243
	ldr	r0, [sp, #4]
	bl	_ZdlPv
.L243:
	ldr	r3, [sp, #4]
	mov	r0, r3
	add	sp, sp, #12
	ldmfd	sp!, {pc}
.L246:
	.align	2
.L245:
	.word	_ZTV14b2PolygonShape+8
	.cfi_endproc
.LFE183:
	.size	_ZN14b2PolygonShapeD0Ev, .-_ZN14b2PolygonShapeD0Ev
	.section	.rodata
	.align	2
	.type	_ZL12b2_chunkSize, %object
	.size	_ZL12b2_chunkSize, 4
_ZL12b2_chunkSize:
	.word	16384
	.align	2
	.type	_ZL15b2_maxBlockSize, %object
	.size	_ZL15b2_maxBlockSize, 4
_ZL15b2_maxBlockSize:
	.word	640
	.align	2
	.type	_ZL13b2_blockSizes, %object
	.size	_ZL13b2_blockSizes, 4
_ZL13b2_blockSizes:
	.word	14
	.align	2
	.type	_ZL22b2_chunkArrayIncrement, %object
	.size	_ZL22b2_chunkArrayIncrement, 4
_ZL22b2_chunkArrayIncrement:
	.word	128
	.type	_ZL14b2_nullFeature, %object
	.size	_ZL14b2_nullFeature, 1
_ZL14b2_nullFeature:
	.byte	-1
	.text
.Letext0: