	.arch armv5te
	.eabi_attribute 27, 3
	.fpu vfp
	.eabi_attribute 20, 1
	.eabi_attribute 21, 1
	.eabi_attribute 23, 3
	.eabi_attribute 24, 1
	.eabi_attribute 25, 1
	.eabi_attribute 26, 2
	.eabi_attribute 30, 6
	.eabi_attribute 18, 2
	.file	"b2PolygonContact.cpp"
	.text
.Ltext0:
	.cfi_sections	.debug_frame
	.section	.text._ZNK7b2Shape7GetTypeEv,"axG",%progbits,_ZNK7b2Shape7GetTypeEv,comdat
	.align	2
	.weak	_ZNK7b2Shape7GetTypeEv
	.hidden	_ZNK7b2Shape7GetTypeEv
	.type	_ZNK7b2Shape7GetTypeEv, %function
_ZNK7b2Shape7GetTypeEv:
.LFB130:
	.file 1 "v:/gigglingbits/box2d/Box2D/Collision/Shapes/b2Shape.h"
	.loc 1 97 0
	.cfi_startproc
	@ args = 0, pretend = 0, frame = 8
	@ frame_needed = 0, uses_anonymous_args = 0
	@ link register save eliminated.
	sub	sp, sp, #8
.LCFI0:
	.cfi_def_cfa_offset 8
	str	r0, [sp, #4]
	.loc 1 98 0
	ldr	r3, [sp, #4]
	ldr	r3, [r3, #4]
	.loc 1 99 0
	mov	r0, r3
	add	sp, sp, #8
	bx	lr
	.cfi_endproc
.LFE130:
	.size	_ZNK7b2Shape7GetTypeEv, .-_ZNK7b2Shape7GetTypeEv
	.section	.text._ZnwjPv,"axG",%progbits,_ZnwjPv,comdat
	.align	2
	.weak	_ZnwjPv
	.hidden	_ZnwjPv
	.type	_ZnwjPv, %function
_ZnwjPv:
.LFB151:
	.file 2 "c:/marmalade/6.3/s3e/h/std/c++/new.h"
	.loc 2 52 0
	.cfi_startproc
	@ args = 0, pretend = 0, frame = 8
	@ frame_needed = 0, uses_anonymous_args = 0
	@ link register save eliminated.
	sub	sp, sp, #8
.LCFI1:
	.cfi_def_cfa_offset 8
	str	r0, [sp, #4]
	str	r1, [sp, #0]
	.loc 2 52 0
	ldr	r3, [sp, #0]
	mov	r0, r3
	add	sp, sp, #8
	bx	lr
	.cfi_endproc
.LFE151:
	.size	_ZnwjPv, .-_ZnwjPv
	.section	.text._ZNK9b2Fixture7GetTypeEv,"axG",%progbits,_ZNK9b2Fixture7GetTypeEv,comdat
	.align	2
	.weak	_ZNK9b2Fixture7GetTypeEv
	.hidden	_ZNK9b2Fixture7GetTypeEv
	.type	_ZNK9b2Fixture7GetTypeEv, %function
_ZNK9b2Fixture7GetTypeEv:
.LFB490:
	.file 3 "v:/gigglingbits/box2d/Box2D/Dynamics/b2Fixture.h"
	.loc 3 239 0
	.cfi_startproc
	@ args = 0, pretend = 0, frame = 8
	@ frame_needed = 0, uses_anonymous_args = 0
	str	lr, [sp, #-4]!
.LCFI2:
	.cfi_def_cfa_offset 4
	sub	sp, sp, #12
.LCFI3:
	.cfi_def_cfa_offset 16
	str	r0, [sp, #4]
	.loc 3 240 0
	ldr	r3, [sp, #4]
	ldr	r3, [r3, #12]
	mov	r0, r3
	.cfi_offset 14, -4
	bl	_ZNK7b2Shape7GetTypeEv
	mov	r3, r0
	.loc 3 241 0
	mov	r0, r3
	add	sp, sp, #12
	ldmfd	sp!, {pc}
	.cfi_endproc
.LFE490:
	.size	_ZNK9b2Fixture7GetTypeEv, .-_ZNK9b2Fixture7GetTypeEv
	.section	.text._ZN9b2Fixture8GetShapeEv,"axG",%progbits,_ZN9b2Fixture8GetShapeEv,comdat
	.align	2
	.weak	_ZN9b2Fixture8GetShapeEv
	.hidden	_ZN9b2Fixture8GetShapeEv
	.type	_ZN9b2Fixture8GetShapeEv, %function
_ZN9b2Fixture8GetShapeEv:
.LFB491:
	.loc 3 244 0
	.cfi_startproc
	@ args = 0, pretend = 0, frame = 8
	@ frame_needed = 0, uses_anonymous_args = 0
	@ link register save eliminated.
	sub	sp, sp, #8
.LCFI4:
	.cfi_def_cfa_offset 8
	str	r0, [sp, #4]
	.loc 3 245 0
	ldr	r3, [sp, #4]
	ldr	r3, [r3, #12]
	.loc 3 246 0
	mov	r0, r3
	add	sp, sp, #8
	bx	lr
	.cfi_endproc
.LFE491:
	.size	_ZN9b2Fixture8GetShapeEv, .-_ZN9b2Fixture8GetShapeEv
	.section	.text._ZN9b2ContactD2Ev,"axG",%progbits,_ZN9b2ContactD2Ev,comdat
	.align	2
	.weak	_ZN9b2ContactD2Ev
	.hidden	_ZN9b2ContactD2Ev
	.type	_ZN9b2ContactD2Ev, %function
_ZN9b2ContactD2Ev:
.LFB523:
	.file 4 "v:/gigglingbits/box2d/Box2D/Dynamics/Contacts/b2Contact.h"
	.loc 4 188 0
	.cfi_startproc
	@ args = 0, pretend = 0, frame = 8
	@ frame_needed = 0, uses_anonymous_args = 0
	str	lr, [sp, #-4]!
.LCFI5:
	.cfi_def_cfa_offset 4
	sub	sp, sp, #12
.LCFI6:
	.cfi_def_cfa_offset 16
	str	r0, [sp, #4]
	.loc 4 188 0
	ldr	r3, [sp, #4]
	ldr	r2, .L13
	str	r2, [r3, #0]
	mov	r3, #0
	and	r3, r3, #255
	cmp	r3, #0
	beq	.L11
	.cfi_offset 14, -4
	ldr	r0, [sp, #4]
	bl	_ZdlPv
.L11:
	ldr	r3, [sp, #4]
	mov	r0, r3
	add	sp, sp, #12
	ldmfd	sp!, {pc}
.L14:
	.align	2
.L13:
	.word	_ZTV9b2Contact+8
	.cfi_endproc
.LFE523:
	.size	_ZN9b2ContactD2Ev, .-_ZN9b2ContactD2Ev
	.section	.text._ZN9b2ContactD1Ev,"axG",%progbits,_ZN9b2ContactD1Ev,comdat
	.align	2
	.weak	_ZN9b2ContactD1Ev
	.hidden	_ZN9b2ContactD1Ev
	.type	_ZN9b2ContactD1Ev, %function
_ZN9b2ContactD1Ev:
.LFB524:
	.loc 4 188 0
	.cfi_startproc
	@ args = 0, pretend = 0, frame = 8
	@ frame_needed = 0, uses_anonymous_args = 0
	str	lr, [sp, #-4]!
.LCFI7:
	.cfi_def_cfa_offset 4
	sub	sp, sp, #12
.LCFI8:
	.cfi_def_cfa_offset 16
	str	r0, [sp, #4]
	.loc 4 188 0
	ldr	r3, [sp, #4]
	ldr	r2, .L19
	str	r2, [r3, #0]
	mov	r3, #0
	and	r3, r3, #255
	cmp	r3, #0
	beq	.L17
	.cfi_offset 14, -4
	ldr	r0, [sp, #4]
	bl	_ZdlPv
.L17:
	ldr	r3, [sp, #4]
	mov	r0, r3
	add	sp, sp, #12
	ldmfd	sp!, {pc}
.L20:
	.align	2
.L19:
	.word	_ZTV9b2Contact+8
	.cfi_endproc
.LFE524:
	.size	_ZN9b2ContactD1Ev, .-_ZN9b2ContactD1Ev
	.section	.text._ZN9b2ContactD0Ev,"axG",%progbits,_ZN9b2ContactD0Ev,comdat
	.align	2
	.weak	_ZN9b2ContactD0Ev
	.hidden	_ZN9b2ContactD0Ev
	.type	_ZN9b2ContactD0Ev, %function
_ZN9b2ContactD0Ev:
.LFB525:
	.loc 4 188 0
	.cfi_startproc
	@ args = 0, pretend = 0, frame = 8
	@ frame_needed = 0, uses_anonymous_args = 0
	str	lr, [sp, #-4]!
.LCFI9:
	.cfi_def_cfa_offset 4
	sub	sp, sp, #12
.LCFI10:
	.cfi_def_cfa_offset 16
	str	r0, [sp, #4]
	.loc 4 188 0
	ldr	r3, [sp, #4]
	ldr	r2, .L25
	str	r2, [r3, #0]
	mov	r3, #1
	and	r3, r3, #255
	cmp	r3, #0
	beq	.L23
	.cfi_offset 14, -4
	ldr	r0, [sp, #4]
	bl	_ZdlPv
.L23:
	ldr	r3, [sp, #4]
	mov	r0, r3
	add	sp, sp, #12
	ldmfd	sp!, {pc}
.L26:
	.align	2
.L25:
	.word	_ZTV9b2Contact+8
	.cfi_endproc
.LFE525:
	.size	_ZN9b2ContactD0Ev, .-_ZN9b2ContactD0Ev
	.section	.text._ZN16b2PolygonContactD1Ev,"axG",%progbits,_ZN16b2PolygonContactD1Ev,comdat
	.align	2
	.weak	_ZN16b2PolygonContactD1Ev
	.hidden	_ZN16b2PolygonContactD1Ev
	.type	_ZN16b2PolygonContactD1Ev, %function
_ZN16b2PolygonContactD1Ev:
.LFB551:
	.file 5 "v:/gigglingbits/box2d/Box2D/Dynamics/Contacts/b2PolygonContact.h"
	.loc 5 34 0
	.cfi_startproc
	@ args = 0, pretend = 0, frame = 8
	@ frame_needed = 0, uses_anonymous_args = 0
	str	lr, [sp, #-4]!
.LCFI11:
	.cfi_def_cfa_offset 4
	sub	sp, sp, #12
.LCFI12:
	.cfi_def_cfa_offset 16
	str	r0, [sp, #4]
	.loc 5 34 0
	ldr	r3, [sp, #4]
	ldr	r2, .L31
	str	r2, [r3, #0]
	ldr	r3, [sp, #4]
	mov	r0, r3
	.cfi_offset 14, -4
	bl	_ZN9b2ContactD2Ev
	mov	r3, #0
	and	r3, r3, #255
	cmp	r3, #0
	beq	.L29
	ldr	r0, [sp, #4]
	bl	_ZdlPv
.L29:
	ldr	r3, [sp, #4]
	mov	r0, r3
	add	sp, sp, #12
	ldmfd	sp!, {pc}
.L32:
	.align	2
.L31:
	.word	_ZTV16b2PolygonContact+8
	.cfi_endproc
.LFE551:
	.size	_ZN16b2PolygonContactD1Ev, .-_ZN16b2PolygonContactD1Ev
	.section	.text._ZN16b2PolygonContactD0Ev,"axG",%progbits,_ZN16b2PolygonContactD0Ev,comdat
	.align	2
	.weak	_ZN16b2PolygonContactD0Ev
	.hidden	_ZN16b2PolygonContactD0Ev
	.type	_ZN16b2PolygonContactD0Ev, %function
_ZN16b2PolygonContactD0Ev:
.LFB552:
	.loc 5 34 0
	.cfi_startproc
	@ args = 0, pretend = 0, frame = 8
	@ frame_needed = 0, uses_anonymous_args = 0
	str	lr, [sp, #-4]!
.LCFI13:
	.cfi_def_cfa_offset 4
	sub	sp, sp, #12
.LCFI14:
	.cfi_def_cfa_offset 16
	str	r0, [sp, #4]
	.loc 5 34 0
	ldr	r3, [sp, #4]
	ldr	r2, .L37
	str	r2, [r3, #0]
	ldr	r3, [sp, #4]
	mov	r0, r3
	.cfi_offset 14, -4
	bl	_ZN9b2ContactD2Ev
	mov	r3, #1
	and	r3, r3, #255
	cmp	r3, #0
	beq	.L35
	ldr	r0, [sp, #4]
	bl	_ZdlPv
.L35:
	ldr	r3, [sp, #4]
	mov	r0, r3
	add	sp, sp, #12
	ldmfd	sp!, {pc}
.L38:
	.align	2
.L37:
	.word	_ZTV16b2PolygonContact+8
	.cfi_endproc
.LFE552:
	.size	_ZN16b2PolygonContactD0Ev, .-_ZN16b2PolygonContactD0Ev
	.section	.text._ZN16b2PolygonContact6CreateEP9b2FixtureiS1_iP16b2BlockAllocator,"ax",%progbits
	.align	2
	.global	_ZN16b2PolygonContact6CreateEP9b2FixtureiS1_iP16b2BlockAllocator
	.hidden	_ZN16b2PolygonContact6CreateEP9b2FixtureiS1_iP16b2BlockAllocator
	.type	_ZN16b2PolygonContact6CreateEP9b2FixtureiS1_iP16b2BlockAllocator, %function
_ZN16b2PolygonContact6CreateEP9b2FixtureiS1_iP16b2BlockAllocator:
.LFB584:
	.file 6 "v:/gigglingbits/box2d/Box2D/Dynamics/Contacts/b2PolygonContact.cpp"
	.loc 6 29 0
	.cfi_startproc
	@ args = 4, pretend = 0, frame = 24
	@ frame_needed = 0, uses_anonymous_args = 0
	stmfd	sp!, {r4, lr}
.LCFI15:
	.cfi_def_cfa_offset 8
	sub	sp, sp, #24
.LCFI16:
	.cfi_def_cfa_offset 32
	str	r0, [sp, #12]
	str	r1, [sp, #8]
	str	r2, [sp, #4]
	str	r3, [sp, #0]
.LBB2:
	.loc 6 30 0
	ldr	r0, [sp, #32]
	mov	r1, #148
	.cfi_offset 14, -4
	.cfi_offset 4, -8
	bl	_ZN16b2BlockAllocator8AllocateEi
	mov	r3, r0
	str	r3, [sp, #20]
	.loc 6 31 0
	ldr	r3, [sp, #20]
	mov	r0, #148
	mov	r1, r3
	bl	_ZnwjPv
	mov	r3, r0
	mov	r4, r3
	mov	r3, r4
	mov	r0, r3
	ldr	r1, [sp, #12]
	ldr	r2, [sp, #4]
	bl	_ZN16b2PolygonContactC1EP9b2FixtureS1_
	mov	r3, r4
.LBE2:
	.loc 6 32 0
	mov	r0, r3
	add	sp, sp, #24
	ldmfd	sp!, {r4, pc}
	.cfi_endproc
.LFE584:
	.size	_ZN16b2PolygonContact6CreateEP9b2FixtureiS1_iP16b2BlockAllocator, .-_ZN16b2PolygonContact6CreateEP9b2FixtureiS1_iP16b2BlockAllocator
	.section	.text._ZN16b2PolygonContact7DestroyEP9b2ContactP16b2BlockAllocator,"ax",%progbits
	.align	2
	.global	_ZN16b2PolygonContact7DestroyEP9b2ContactP16b2BlockAllocator
	.hidden	_ZN16b2PolygonContact7DestroyEP9b2ContactP16b2BlockAllocator
	.type	_ZN16b2PolygonContact7DestroyEP9b2ContactP16b2BlockAllocator, %function
_ZN16b2PolygonContact7DestroyEP9b2ContactP16b2BlockAllocator:
.LFB585:
	.loc 6 35 0
	.cfi_startproc
	@ args = 0, pretend = 0, frame = 8
	@ frame_needed = 0, uses_anonymous_args = 0
	str	lr, [sp, #-4]!
.LCFI17:
	.cfi_def_cfa_offset 4
	sub	sp, sp, #12
.LCFI18:
	.cfi_def_cfa_offset 16
	str	r0, [sp, #4]
	str	r1, [sp, #0]
	.loc 6 36 0
	ldr	r3, [sp, #4]
	ldr	r3, [r3, #0]
	add	r3, r3, #4
	ldr	r3, [r3, #0]
	ldr	r2, [sp, #4]
	mov	r0, r2
	.cfi_offset 14, -4
	blx	r3
	.loc 6 37 0
	ldr	r0, [sp, #0]
	ldr	r1, [sp, #4]
	mov	r2, #148
	bl	_ZN16b2BlockAllocator4FreeEPvi
	.loc 6 38 0
	add	sp, sp, #12
	ldmfd	sp!, {pc}
	.cfi_endproc
.LFE585:
	.size	_ZN16b2PolygonContact7DestroyEP9b2ContactP16b2BlockAllocator, .-_ZN16b2PolygonContact7DestroyEP9b2ContactP16b2BlockAllocator
	.section	.rodata
	.align	2
.LC0:
	.ascii	"v:/gigglingbits/box2d/Box2D/Dynamics/Contacts/b2Pol"
	.ascii	"ygonContact.cpp\000"
	.align	2
.LC1:
	.ascii	"m_fixtureA->GetType() == b2Shape::e_polygon\000"
	.align	2
.LC2:
	.ascii	"m_fixtureB->GetType() == b2Shape::e_polygon\000"
	.section	.text._ZN16b2PolygonContactC2EP9b2FixtureS1_,"ax",%progbits
	.align	2
	.global	_ZN16b2PolygonContactC2EP9b2FixtureS1_
	.hidden	_ZN16b2PolygonContactC2EP9b2FixtureS1_
	.type	_ZN16b2PolygonContactC2EP9b2FixtureS1_, %function
_ZN16b2PolygonContactC2EP9b2FixtureS1_:
.LFB587:
	.loc 6 40 0
	.cfi_startproc
	@ args = 0, pretend = 0, frame = 16
	@ frame_needed = 0, uses_anonymous_args = 0
	str	lr, [sp, #-4]!
.LCFI19:
	.cfi_def_cfa_offset 4
	sub	sp, sp, #28
.LCFI20:
	.cfi_def_cfa_offset 32
	str	r0, [sp, #20]
	str	r1, [sp, #16]
	str	r2, [sp, #12]
	.loc 6 41 0
	ldr	r3, [sp, #20]
	mov	r2, #0
	str	r2, [sp, #0]
	mov	r0, r3
	ldr	r1, [sp, #16]
	mov	r2, #0
	ldr	r3, [sp, #12]
	.cfi_offset 14, -4
	bl	_ZN9b2ContactC2EP9b2FixtureiS1_i
	ldr	r3, [sp, #20]
	ldr	r2, .L47
	str	r2, [r3, #0]
	.loc 6 43 0
	ldr	r3, [sp, #20]
	ldr	r3, [r3, #48]
	mov	r0, r3
	bl	_ZNK9b2Fixture7GetTypeEv
	mov	r3, r0
	cmp	r3, #2
	beq	.L44
	ldr	r0, .L47+4
	mov	r1, #43
	ldr	r2, .L47+8
	bl	__assert
.L44:
	.loc 6 44 0
	ldr	r3, [sp, #20]
	ldr	r3, [r3, #52]
	mov	r0, r3
	bl	_ZNK9b2Fixture7GetTypeEv
	mov	r3, r0
	cmp	r3, #2
	beq	.L45
	ldr	r0, .L47+4
	mov	r1, #44
	ldr	r2, .L47+12
	bl	__assert
.L45:
	.loc 6 45 0
	ldr	r3, [sp, #20]
	mov	r0, r3
	add	sp, sp, #28
	ldmfd	sp!, {pc}
.L48:
	.align	2
.L47:
	.word	_ZTV16b2PolygonContact+8
	.word	.LC0
	.word	.LC1
	.word	.LC2
	.cfi_endproc
.LFE587:
	.size	_ZN16b2PolygonContactC2EP9b2FixtureS1_, .-_ZN16b2PolygonContactC2EP9b2FixtureS1_
	.section	.text._ZN16b2PolygonContactC1EP9b2FixtureS1_,"ax",%progbits
	.align	2
	.global	_ZN16b2PolygonContactC1EP9b2FixtureS1_
	.hidden	_ZN16b2PolygonContactC1EP9b2FixtureS1_
	.type	_ZN16b2PolygonContactC1EP9b2FixtureS1_, %function
_ZN16b2PolygonContactC1EP9b2FixtureS1_:
.LFB588:
	.loc 6 40 0
	.cfi_startproc
	@ args = 0, pretend = 0, frame = 16
	@ frame_needed = 0, uses_anonymous_args = 0
	str	lr, [sp, #-4]!
.LCFI21:
	.cfi_def_cfa_offset 4
	sub	sp, sp, #28
.LCFI22:
	.cfi_def_cfa_offset 32
	str	r0, [sp, #20]
	str	r1, [sp, #16]
	str	r2, [sp, #12]
	.loc 6 41 0
	ldr	r3, [sp, #20]
	mov	r2, #0
	str	r2, [sp, #0]
	mov	r0, r3
	ldr	r1, [sp, #16]
	mov	r2, #0
	ldr	r3, [sp, #12]
	.cfi_offset 14, -4
	bl	_ZN9b2ContactC2EP9b2FixtureiS1_i
	ldr	r3, [sp, #20]
	ldr	r2, .L53
	str	r2, [r3, #0]
	.loc 6 43 0
	ldr	r3, [sp, #20]
	ldr	r3, [r3, #48]
	mov	r0, r3
	bl	_ZNK9b2Fixture7GetTypeEv
	mov	r3, r0
	cmp	r3, #2
	beq	.L50
	ldr	r0, .L53+4
	mov	r1, #43
	ldr	r2, .L53+8
	bl	__assert
.L50:
	.loc 6 44 0
	ldr	r3, [sp, #20]
	ldr	r3, [r3, #52]
	mov	r0, r3
	bl	_ZNK9b2Fixture7GetTypeEv
	mov	r3, r0
	cmp	r3, #2
	beq	.L51
	ldr	r0, .L53+4
	mov	r1, #44
	ldr	r2, .L53+12
	bl	__assert
.L51:
	.loc 6 45 0
	ldr	r3, [sp, #20]
	mov	r0, r3
	add	sp, sp, #28
	ldmfd	sp!, {pc}
.L54:
	.align	2
.L53:
	.word	_ZTV16b2PolygonContact+8
	.word	.LC0
	.word	.LC1
	.word	.LC2
	.cfi_endproc
.LFE588:
	.size	_ZN16b2PolygonContactC1EP9b2FixtureS1_, .-_ZN16b2PolygonContactC1EP9b2FixtureS1_
	.section	.text._ZN16b2PolygonContact8EvaluateEP10b2ManifoldRK11b2TransformS4_,"ax",%progbits
	.align	2
	.global	_ZN16b2PolygonContact8EvaluateEP10b2ManifoldRK11b2TransformS4_
	.hidden	_ZN16b2PolygonContact8EvaluateEP10b2ManifoldRK11b2TransformS4_
	.type	_ZN16b2PolygonContact8EvaluateEP10b2ManifoldRK11b2TransformS4_, %function
_ZN16b2PolygonContact8EvaluateEP10b2ManifoldRK11b2TransformS4_:
.LFB589:
	.loc 6 48 0
	.cfi_startproc
	@ args = 0, pretend = 0, frame = 16
	@ frame_needed = 0, uses_anonymous_args = 0
	stmfd	sp!, {r4, lr}
.LCFI23:
	.cfi_def_cfa_offset 8
	sub	sp, sp, #24
.LCFI24:
	.cfi_def_cfa_offset 32
	str	r0, [sp, #20]
	str	r1, [sp, #16]
	str	r2, [sp, #12]
	str	r3, [sp, #8]
	.loc 6 51 0
	ldr	r3, [sp, #20]
	ldr	r3, [r3, #48]
	mov	r0, r3
	.cfi_offset 14, -4
	.cfi_offset 4, -8
	bl	_ZN9b2Fixture8GetShapeEv
	mov	r3, r0
	mov	r4, r3
	ldr	r3, [sp, #20]
	ldr	r3, [r3, #52]
	mov	r0, r3
	bl	_ZN9b2Fixture8GetShapeEv
	mov	r3, r0
	ldr	r2, [sp, #8]
	str	r2, [sp, #0]
	ldr	r0, [sp, #16]
	mov	r1, r4
	ldr	r2, [sp, #12]
	bl	_Z17b2CollidePolygonsP10b2ManifoldPK14b2PolygonShapeRK11b2TransformS3_S6_
	.loc 6 52 0
	add	sp, sp, #24
	ldmfd	sp!, {r4, pc}
	.cfi_endproc
.LFE589:
	.size	_ZN16b2PolygonContact8EvaluateEP10b2ManifoldRK11b2TransformS4_, .-_ZN16b2PolygonContact8EvaluateEP10b2ManifoldRK11b2TransformS4_
	.hidden	_ZTV16b2PolygonContact
	.global	_ZTV16b2PolygonContact
	.section	.rodata
	.align	3
	.type	_ZTV16b2PolygonContact, %object
	.size	_ZTV16b2PolygonContact, 20
_ZTV16b2PolygonContact:
	.word	0
	.word	_ZTI16b2PolygonContact
	.word	_ZN16b2PolygonContact8EvaluateEP10b2ManifoldRK11b2TransformS4_
	.word	_ZN16b2PolygonContactD1Ev
	.word	_ZN16b2PolygonContactD0Ev
	.hidden	_ZTV9b2Contact
	.weak	_ZTV9b2Contact
	.section	.rodata._ZTV9b2Contact,"aG",%progbits,_ZTV9b2Contact,comdat
	.align	3
	.type	_ZTV9b2Contact, %object
	.size	_ZTV9b2Contact, 20
_ZTV9b2Contact:
	.word	0
	.word	_ZTI9b2Contact
	.word	__cxa_pure_virtual
	.word	_ZN9b2ContactD1Ev
	.word	_ZN9b2ContactD0Ev
	.hidden	_ZTI16b2PolygonContact
	.global	_ZTI16b2PolygonContact
	.section	.rodata
	.align	2
	.type	_ZTI16b2PolygonContact, %object
	.size	_ZTI16b2PolygonContact, 12
_ZTI16b2PolygonContact:
	.word	_ZTVN10__cxxabiv120__si_class_type_infoE+8
	.word	_ZTS16b2PolygonContact
	.word	_ZTI9b2Contact
	.hidden	_ZTS16b2PolygonContact
	.global	_ZTS16b2PolygonContact
	.align	2
	.type	_ZTS16b2PolygonContact, %object
	.size	_ZTS16b2PolygonContact, 19
_ZTS16b2PolygonContact:
	.ascii	"16b2PolygonContact\000"
	.hidden	_ZTS9b2Contact
	.weak	_ZTS9b2Contact
	.section	.rodata._ZTS9b2Contact,"aG",%progbits,_ZTS9b2Contact,comdat
	.align	2
	.type	_ZTS9b2Contact, %object
	.size	_ZTS9b2Contact, 11
_ZTS9b2Contact:
	.ascii	"9b2Contact\000"
	.hidden	_ZTI9b2Contact
	.weak	_ZTI9b2Contact
	.section	.rodata._ZTI9b2Contact,"aG",%progbits,_ZTI9b2Contact,comdat
	.align	2
	.type	_ZTI9b2Contact, %object
	.size	_ZTI9b2Contact, 8
_ZTI9b2Contact:
	.word	_ZTVN10__cxxabiv117__class_type_infoE+8
	.word	_ZTS9b2Contact
	.section	.rodata
	.type	_ZL14b2_nullFeature, %object
	.size	_ZL14b2_nullFeature, 1
_ZL14b2_nullFeature:
	.byte	-1
	.align	2
	.type	_ZL12b2_chunkSize, %object
	.size	_ZL12b2_chunkSize, 4
_ZL12b2_chunkSize:
	.word	16384
	.align	2
	.type	_ZL15b2_maxBlockSize, %object
	.size	_ZL15b2_maxBlockSize, 4
_ZL15b2_maxBlockSize:
	.word	640
	.align	2
	.type	_ZL13b2_blockSizes, %object
	.size	_ZL13b2_blockSizes, 4
_ZL13b2_blockSizes:
	.word	14
	.align	2
	.type	_ZL22b2_chunkArrayIncrement, %object
	.size	_ZL22b2_chunkArrayIncrement, 4
_ZL22b2_chunkArrayIncrement:
	.word	128
	.text
.Letext0: