	.arch armv5te
	.eabi_attribute 27, 3
	.fpu vfp
	.eabi_attribute 20, 1
	.eabi_attribute 21, 1
	.eabi_attribute 23, 3
	.eabi_attribute 24, 1
	.eabi_attribute 25, 1
	.eabi_attribute 26, 2
	.eabi_attribute 30, 6
	.eabi_attribute 18, 2
	.file	"b2PrismaticJoint.cpp"
	.text
.Ltext0:
	.cfi_sections	.debug_frame
	.section	.text._ZN6b2Vec2C1Ev,"axG",%progbits,_ZN6b2Vec2C1Ev,comdat
	.align	2
	.weak	_ZN6b2Vec2C1Ev
	.hidden	_ZN6b2Vec2C1Ev
	.type	_ZN6b2Vec2C1Ev, %function
_ZN6b2Vec2C1Ev:
.LFB4:
	.file 1 "v:/gigglingbits/box2d/Box2D/Common/b2Math.h"
	.loc 1 56 0
	.cfi_startproc
	@ args = 0, pretend = 0, frame = 8
	@ frame_needed = 0, uses_anonymous_args = 0
	@ link register save eliminated.
	sub	sp, sp, #8
.LCFI0:
	.cfi_def_cfa_offset 8
	str	r0, [sp, #4]
	.loc 1 56 0
	ldr	r3, [sp, #4]
	mov	r0, r3
	add	sp, sp, #8
	bx	lr
	.cfi_endproc
.LFE4:
	.size	_ZN6b2Vec2C1Ev, .-_ZN6b2Vec2C1Ev
	.section	.text._ZN6b2Vec2C1Eff,"axG",%progbits,_ZN6b2Vec2C1Eff,comdat
	.align	2
	.weak	_ZN6b2Vec2C1Eff
	.hidden	_ZN6b2Vec2C1Eff
	.type	_ZN6b2Vec2C1Eff, %function
_ZN6b2Vec2C1Eff:
.LFB7:
	.loc 1 59 0
	.cfi_startproc
	@ args = 0, pretend = 0, frame = 16
	@ frame_needed = 0, uses_anonymous_args = 0
	@ link register save eliminated.
	sub	sp, sp, #16
.LCFI1:
	.cfi_def_cfa_offset 16
	str	r0, [sp, #12]
	str	r1, [sp, #8]	@ float
	str	r2, [sp, #4]	@ float
	.loc 1 59 0
	ldr	r3, [sp, #12]
	flds	s15, [sp, #8]
	fsts	s15, [r3, #0]
	ldr	r3, [sp, #12]
	flds	s15, [sp, #4]
	fsts	s15, [r3, #4]
	ldr	r3, [sp, #12]
	mov	r0, r3
	add	sp, sp, #16
	bx	lr
	.cfi_endproc
.LFE7:
	.size	_ZN6b2Vec2C1Eff, .-_ZN6b2Vec2C1Eff
	.section	.text._ZN6b2Vec27SetZeroEv,"axG",%progbits,_ZN6b2Vec27SetZeroEv,comdat
	.align	2
	.weak	_ZN6b2Vec27SetZeroEv
	.hidden	_ZN6b2Vec27SetZeroEv
	.type	_ZN6b2Vec27SetZeroEv, %function
_ZN6b2Vec27SetZeroEv:
.LFB8:
	.loc 1 62 0
	.cfi_startproc
	@ args = 0, pretend = 0, frame = 8
	@ frame_needed = 0, uses_anonymous_args = 0
	@ link register save eliminated.
	sub	sp, sp, #8
.LCFI2:
	.cfi_def_cfa_offset 8
	str	r0, [sp, #4]
	.loc 1 62 0
	ldr	r3, [sp, #4]
	flds	s15, .L9
	fsts	s15, [r3, #0]
	ldr	r3, [sp, #4]
	flds	s15, .L9
	fsts	s15, [r3, #4]
	add	sp, sp, #8
	bx	lr
.L10:
	.align	2
.L9:
	.word	0
	.cfi_endproc
.LFE8:
	.size	_ZN6b2Vec27SetZeroEv, .-_ZN6b2Vec27SetZeroEv
	.section	.text._ZN6b2Vec23SetEff,"axG",%progbits,_ZN6b2Vec23SetEff,comdat
	.align	2
	.weak	_ZN6b2Vec23SetEff
	.hidden	_ZN6b2Vec23SetEff
	.type	_ZN6b2Vec23SetEff, %function
_ZN6b2Vec23SetEff:
.LFB9:
	.loc 1 65 0
	.cfi_startproc
	@ args = 0, pretend = 0, frame = 16
	@ frame_needed = 0, uses_anonymous_args = 0
	@ link register save eliminated.
	sub	sp, sp, #16
.LCFI3:
	.cfi_def_cfa_offset 16
	str	r0, [sp, #12]
	str	r1, [sp, #8]	@ float
	str	r2, [sp, #4]	@ float
	.loc 1 65 0
	ldr	r3, [sp, #12]
	flds	s15, [sp, #8]
	fsts	s15, [r3, #0]
	ldr	r3, [sp, #12]
	flds	s15, [sp, #4]
	fsts	s15, [r3, #4]
	add	sp, sp, #16
	bx	lr
	.cfi_endproc
.LFE9:
	.size	_ZN6b2Vec23SetEff, .-_ZN6b2Vec23SetEff
	.section	.text._ZNK6b2Vec2ngEv,"axG",%progbits,_ZNK6b2Vec2ngEv,comdat
	.align	2
	.weak	_ZNK6b2Vec2ngEv
	.hidden	_ZNK6b2Vec2ngEv
	.type	_ZNK6b2Vec2ngEv, %function
_ZNK6b2Vec2ngEv:
.LFB10:
	.loc 1 68 0
	.cfi_startproc
	@ args = 0, pretend = 0, frame = 16
	@ frame_needed = 0, uses_anonymous_args = 0
	stmfd	sp!, {r4, lr}
.LCFI4:
	.cfi_def_cfa_offset 8
	sub	sp, sp, #16
.LCFI5:
	.cfi_def_cfa_offset 24
	mov	r4, r0
	.cfi_offset 14, -4
	.cfi_offset 4, -8
	str	r1, [sp, #4]
.LBB2:
	.loc 1 68 0
	mov	r0, r4
	bl	_ZN6b2Vec2C1Ev
	ldr	r3, [sp, #4]
	flds	s15, [r3, #0]
	fnegs	s14, s15
	ldr	r3, [sp, #4]
	flds	s15, [r3, #4]
	fnegs	s15, s15
	mov	r0, r4
	fmrs	r1, s14
	fmrs	r2, s15
	bl	_ZN6b2Vec23SetEff
.LBE2:
	mov	r0, r4
	add	sp, sp, #16
	ldmfd	sp!, {r4, pc}
	.cfi_endproc
.LFE10:
	.size	_ZNK6b2Vec2ngEv, .-_ZNK6b2Vec2ngEv
	.section	.text._ZN6b2Vec2pLERKS_,"axG",%progbits,_ZN6b2Vec2pLERKS_,comdat
	.align	2
	.weak	_ZN6b2Vec2pLERKS_
	.hidden	_ZN6b2Vec2pLERKS_
	.type	_ZN6b2Vec2pLERKS_, %function
_ZN6b2Vec2pLERKS_:
.LFB13:
	.loc 1 83 0
	.cfi_startproc
	@ args = 0, pretend = 0, frame = 8
	@ frame_needed = 0, uses_anonymous_args = 0
	@ link register save eliminated.
	sub	sp, sp, #8
.LCFI6:
	.cfi_def_cfa_offset 8
	str	r0, [sp, #4]
	str	r1, [sp, #0]
	.loc 1 85 0
	ldr	r3, [sp, #4]
	flds	s14, [r3, #0]
	ldr	r3, [sp, #0]
	flds	s15, [r3, #0]
	fadds	s15, s14, s15
	ldr	r3, [sp, #4]
	fsts	s15, [r3, #0]
	ldr	r3, [sp, #4]
	flds	s14, [r3, #4]
	ldr	r3, [sp, #0]
	flds	s15, [r3, #4]
	fadds	s15, s14, s15
	ldr	r3, [sp, #4]
	fsts	s15, [r3, #4]
	.loc 1 86 0
	add	sp, sp, #8
	bx	lr
	.cfi_endproc
.LFE13:
	.size	_ZN6b2Vec2pLERKS_, .-_ZN6b2Vec2pLERKS_
	.section	.text._ZN6b2Vec2mIERKS_,"axG",%progbits,_ZN6b2Vec2mIERKS_,comdat
	.align	2
	.weak	_ZN6b2Vec2mIERKS_
	.hidden	_ZN6b2Vec2mIERKS_
	.type	_ZN6b2Vec2mIERKS_, %function
_ZN6b2Vec2mIERKS_:
.LFB14:
	.loc 1 89 0
	.cfi_startproc
	@ args = 0, pretend = 0, frame = 8
	@ frame_needed = 0, uses_anonymous_args = 0
	@ link register save eliminated.
	sub	sp, sp, #8
.LCFI7:
	.cfi_def_cfa_offset 8
	str	r0, [sp, #4]
	str	r1, [sp, #0]
	.loc 1 91 0
	ldr	r3, [sp, #4]
	flds	s14, [r3, #0]
	ldr	r3, [sp, #0]
	flds	s15, [r3, #0]
	fsubs	s15, s14, s15
	ldr	r3, [sp, #4]
	fsts	s15, [r3, #0]
	ldr	r3, [sp, #4]
	flds	s14, [r3, #4]
	ldr	r3, [sp, #0]
	flds	s15, [r3, #4]
	fsubs	s15, s14, s15
	ldr	r3, [sp, #4]
	fsts	s15, [r3, #4]
	.loc 1 92 0
	add	sp, sp, #8
	bx	lr
	.cfi_endproc
.LFE14:
	.size	_ZN6b2Vec2mIERKS_, .-_ZN6b2Vec2mIERKS_
	.section	.text._ZNK6b2Vec26LengthEv,"axG",%progbits,_ZNK6b2Vec26LengthEv,comdat
	.align	2
	.weak	_ZNK6b2Vec26LengthEv
	.hidden	_ZNK6b2Vec26LengthEv
	.type	_ZNK6b2Vec26LengthEv, %function
_ZNK6b2Vec26LengthEv:
.LFB16:
	.loc 1 101 0
	.cfi_startproc
	@ args = 0, pretend = 0, frame = 8
	@ frame_needed = 0, uses_anonymous_args = 0
	str	lr, [sp, #-4]!
.LCFI8:
	.cfi_def_cfa_offset 4
	sub	sp, sp, #12
.LCFI9:
	.cfi_def_cfa_offset 16
	str	r0, [sp, #4]
	.loc 1 103 0
	ldr	r3, [sp, #4]
	flds	s14, [r3, #0]
	ldr	r3, [sp, #4]
	flds	s15, [r3, #0]
	fmuls	s14, s14, s15
	ldr	r3, [sp, #4]
	flds	s13, [r3, #4]
	ldr	r3, [sp, #4]
	flds	s15, [r3, #4]
	fmuls	s15, s13, s15
	fadds	s14, s14, s15
	fsqrts	s15, s14
	fcmps	s15, s15
	fmstat
	beq	.L20
	.cfi_offset 14, -4
	fmrs	r0, s14
	bl	sqrtf
	fmsr	s15, r0
.L20:
	fmrs	r3, s15
	.loc 1 104 0
	mov	r0, r3	@ float
	add	sp, sp, #12
	ldmfd	sp!, {pc}
	.cfi_endproc
.LFE16:
	.size	_ZNK6b2Vec26LengthEv, .-_ZNK6b2Vec26LengthEv
	.section	.text._ZN6b2Vec29NormalizeEv,"axG",%progbits,_ZN6b2Vec29NormalizeEv,comdat
	.align	2
	.weak	_ZN6b2Vec29NormalizeEv
	.hidden	_ZN6b2Vec29NormalizeEv
	.type	_ZN6b2Vec29NormalizeEv, %function
_ZN6b2Vec29NormalizeEv:
.LFB18:
	.loc 1 114 0
	.cfi_startproc
	@ args = 0, pretend = 0, frame = 16
	@ frame_needed = 0, uses_anonymous_args = 0
	str	lr, [sp, #-4]!
.LCFI10:
	.cfi_def_cfa_offset 4
	sub	sp, sp, #20
.LCFI11:
	.cfi_def_cfa_offset 24
	str	r0, [sp, #4]
.LBB3:
	.loc 1 116 0
	ldr	r0, [sp, #4]
	.cfi_offset 14, -4
	bl	_ZNK6b2Vec26LengthEv
	mov	r3, r0	@ float
	str	r3, [sp, #8]	@ float
	.loc 1 117 0
	flds	s14, [sp, #8]
	flds	s15, .L26
	fcmpes	s14, s15
	fmstat
	movpl	r3, #0
	movmi	r3, #1
	and	r3, r3, #255
	cmp	r3, #0
	beq	.L23
	.loc 1 119 0
	flds	s15, .L26+4
	b	.L24
.L23:
	.loc 1 121 0
	flds	s14, .L26+8
	flds	s15, [sp, #8]
	fdivs	s15, s14, s15
	fsts	s15, [sp, #12]
	.loc 1 122 0
	ldr	r3, [sp, #4]
	flds	s14, [r3, #0]
	flds	s15, [sp, #12]
	fmuls	s15, s14, s15
	ldr	r3, [sp, #4]
	fsts	s15, [r3, #0]
	.loc 1 123 0
	ldr	r3, [sp, #4]
	flds	s14, [r3, #4]
	flds	s15, [sp, #12]
	fmuls	s15, s14, s15
	ldr	r3, [sp, #4]
	fsts	s15, [r3, #4]
	.loc 1 125 0
	flds	s15, [sp, #8]
.L24:
	fmrs	r3, s15
.LBE3:
	.loc 1 126 0
	mov	r0, r3	@ float
	add	sp, sp, #20
	ldmfd	sp!, {pc}
.L27:
	.align	2
.L26:
	.word	872415232
	.word	0
	.word	1065353216
	.cfi_endproc
.LFE18:
	.size	_ZN6b2Vec29NormalizeEv, .-_ZN6b2Vec29NormalizeEv
	.section	.text._ZN6b2Vec3C1Ev,"axG",%progbits,_ZN6b2Vec3C1Ev,comdat
	.align	2
	.weak	_ZN6b2Vec3C1Ev
	.hidden	_ZN6b2Vec3C1Ev
	.type	_ZN6b2Vec3C1Ev, %function
_ZN6b2Vec3C1Ev:
.LFB23:
	.loc 1 147 0
	.cfi_startproc
	@ args = 0, pretend = 0, frame = 8
	@ frame_needed = 0, uses_anonymous_args = 0
	@ link register save eliminated.
	sub	sp, sp, #8
.LCFI12:
	.cfi_def_cfa_offset 8
	str	r0, [sp, #4]
	.loc 1 147 0
	ldr	r3, [sp, #4]
	mov	r0, r3
	add	sp, sp, #8
	bx	lr
	.cfi_endproc
.LFE23:
	.size	_ZN6b2Vec3C1Ev, .-_ZN6b2Vec3C1Ev
	.section	.text._ZN6b2Vec3C1Efff,"axG",%progbits,_ZN6b2Vec3C1Efff,comdat
	.align	2
	.weak	_ZN6b2Vec3C1Efff
	.hidden	_ZN6b2Vec3C1Efff
	.type	_ZN6b2Vec3C1Efff, %function
_ZN6b2Vec3C1Efff:
.LFB26:
	.loc 1 150 0
	.cfi_startproc
	@ args = 0, pretend = 0, frame = 16
	@ frame_needed = 0, uses_anonymous_args = 0
	@ link register save eliminated.
	sub	sp, sp, #16
.LCFI13:
	.cfi_def_cfa_offset 16
	str	r0, [sp, #12]
	str	r1, [sp, #8]	@ float
	str	r2, [sp, #4]	@ float
	str	r3, [sp, #0]	@ float
	.loc 1 150 0
	ldr	r3, [sp, #12]
	flds	s15, [sp, #8]
	fsts	s15, [r3, #0]
	ldr	r3, [sp, #12]
	flds	s15, [sp, #4]
	fsts	s15, [r3, #4]
	ldr	r3, [sp, #12]
	flds	s15, [sp, #0]
	fsts	s15, [r3, #8]
	ldr	r3, [sp, #12]
	mov	r0, r3
	add	sp, sp, #16
	bx	lr
	.cfi_endproc
.LFE26:
	.size	_ZN6b2Vec3C1Efff, .-_ZN6b2Vec3C1Efff
	.section	.text._ZN6b2Vec37SetZeroEv,"axG",%progbits,_ZN6b2Vec37SetZeroEv,comdat
	.align	2
	.weak	_ZN6b2Vec37SetZeroEv
	.hidden	_ZN6b2Vec37SetZeroEv
	.type	_ZN6b2Vec37SetZeroEv, %function
_ZN6b2Vec37SetZeroEv:
.LFB27:
	.loc 1 153 0
	.cfi_startproc
	@ args = 0, pretend = 0, frame = 8
	@ frame_needed = 0, uses_anonymous_args = 0
	@ link register save eliminated.
	sub	sp, sp, #8
.LCFI14:
	.cfi_def_cfa_offset 8
	str	r0, [sp, #4]
	.loc 1 153 0
	ldr	r3, [sp, #4]
	flds	s15, .L36
	fsts	s15, [r3, #0]
	ldr	r3, [sp, #4]
	flds	s15, .L36
	fsts	s15, [r3, #4]
	ldr	r3, [sp, #4]
	flds	s15, .L36
	fsts	s15, [r3, #8]
	add	sp, sp, #8
	bx	lr
.L37:
	.align	2
.L36:
	.word	0
	.cfi_endproc
.LFE27:
	.size	_ZN6b2Vec37SetZeroEv, .-_ZN6b2Vec37SetZeroEv
	.section	.text._ZN6b2Vec33SetEfff,"axG",%progbits,_ZN6b2Vec33SetEfff,comdat
	.align	2
	.weak	_ZN6b2Vec33SetEfff
	.hidden	_ZN6b2Vec33SetEfff
	.type	_ZN6b2Vec33SetEfff, %function
_ZN6b2Vec33SetEfff:
.LFB28:
	.loc 1 156 0
	.cfi_startproc
	@ args = 0, pretend = 0, frame = 16
	@ frame_needed = 0, uses_anonymous_args = 0
	@ link register save eliminated.
	sub	sp, sp, #16
.LCFI15:
	.cfi_def_cfa_offset 16
	str	r0, [sp, #12]
	str	r1, [sp, #8]	@ float
	str	r2, [sp, #4]	@ float
	str	r3, [sp, #0]	@ float
	.loc 1 156 0
	ldr	r3, [sp, #12]
	flds	s15, [sp, #8]
	fsts	s15, [r3, #0]
	ldr	r3, [sp, #12]
	flds	s15, [sp, #4]
	fsts	s15, [r3, #4]
	ldr	r3, [sp, #12]
	flds	s15, [sp, #0]
	fsts	s15, [r3, #8]
	add	sp, sp, #16
	bx	lr
	.cfi_endproc
.LFE28:
	.size	_ZN6b2Vec33SetEfff, .-_ZN6b2Vec33SetEfff
	.section	.text._ZNK6b2Vec3ngEv,"axG",%progbits,_ZNK6b2Vec3ngEv,comdat
	.align	2
	.weak	_ZNK6b2Vec3ngEv
	.hidden	_ZNK6b2Vec3ngEv
	.type	_ZNK6b2Vec3ngEv, %function
_ZNK6b2Vec3ngEv:
.LFB29:
	.loc 1 159 0
	.cfi_startproc
	@ args = 0, pretend = 0, frame = 24
	@ frame_needed = 0, uses_anonymous_args = 0
	stmfd	sp!, {r4, lr}
.LCFI16:
	.cfi_def_cfa_offset 8
	sub	sp, sp, #24
.LCFI17:
	.cfi_def_cfa_offset 32
	mov	r4, r0
	.cfi_offset 14, -4
	.cfi_offset 4, -8
	str	r1, [sp, #4]
.LBB4:
	.loc 1 159 0
	mov	r0, r4
	bl	_ZN6b2Vec3C1Ev
	ldr	r3, [sp, #4]
	flds	s15, [r3, #0]
	fnegs	s13, s15
	ldr	r3, [sp, #4]
	flds	s15, [r3, #4]
	fnegs	s14, s15
	ldr	r3, [sp, #4]
	flds	s15, [r3, #8]
	fnegs	s15, s15
	mov	r0, r4
	fmrs	r1, s13
	fmrs	r2, s14
	fmrs	r3, s15
	bl	_ZN6b2Vec33SetEfff
.LBE4:
	mov	r0, r4
	add	sp, sp, #24
	ldmfd	sp!, {r4, pc}
	.cfi_endproc
.LFE29:
	.size	_ZNK6b2Vec3ngEv, .-_ZNK6b2Vec3ngEv
	.section	.text._ZN6b2Vec3pLERKS_,"axG",%progbits,_ZN6b2Vec3pLERKS_,comdat
	.align	2
	.weak	_ZN6b2Vec3pLERKS_
	.hidden	_ZN6b2Vec3pLERKS_
	.type	_ZN6b2Vec3pLERKS_, %function
_ZN6b2Vec3pLERKS_:
.LFB30:
	.loc 1 162 0
	.cfi_startproc
	@ args = 0, pretend = 0, frame = 8
	@ frame_needed = 0, uses_anonymous_args = 0
	@ link register save eliminated.
	sub	sp, sp, #8
.LCFI18:
	.cfi_def_cfa_offset 8
	str	r0, [sp, #4]
	str	r1, [sp, #0]
	.loc 1 164 0
	ldr	r3, [sp, #4]
	flds	s14, [r3, #0]
	ldr	r3, [sp, #0]
	flds	s15, [r3, #0]
	fadds	s15, s14, s15
	ldr	r3, [sp, #4]
	fsts	s15, [r3, #0]
	ldr	r3, [sp, #4]
	flds	s14, [r3, #4]
	ldr	r3, [sp, #0]
	flds	s15, [r3, #4]
	fadds	s15, s14, s15
	ldr	r3, [sp, #4]
	fsts	s15, [r3, #4]
	ldr	r3, [sp, #4]
	flds	s14, [r3, #8]
	ldr	r3, [sp, #0]
	flds	s15, [r3, #8]
	fadds	s15, s14, s15
	ldr	r3, [sp, #4]
	fsts	s15, [r3, #8]
	.loc 1 165 0
	add	sp, sp, #8
	bx	lr
	.cfi_endproc
.LFE30:
	.size	_ZN6b2Vec3pLERKS_, .-_ZN6b2Vec3pLERKS_
	.section	.text._ZN6b2Vec3mLEf,"axG",%progbits,_ZN6b2Vec3mLEf,comdat
	.align	2
	.weak	_ZN6b2Vec3mLEf
	.hidden	_ZN6b2Vec3mLEf
	.type	_ZN6b2Vec3mLEf, %function
_ZN6b2Vec3mLEf:
.LFB32:
	.loc 1 174 0
	.cfi_startproc
	@ args = 0, pretend = 0, frame = 8
	@ frame_needed = 0, uses_anonymous_args = 0
	@ link register save eliminated.
	sub	sp, sp, #8
.LCFI19:
	.cfi_def_cfa_offset 8
	str	r0, [sp, #4]
	str	r1, [sp, #0]	@ float
	.loc 1 176 0
	ldr	r3, [sp, #4]
	flds	s14, [r3, #0]
	flds	s15, [sp, #0]
	fmuls	s15, s14, s15
	ldr	r3, [sp, #4]
	fsts	s15, [r3, #0]
	ldr	r3, [sp, #4]
	flds	s14, [r3, #4]
	flds	s15, [sp, #0]
	fmuls	s15, s14, s15
	ldr	r3, [sp, #4]
	fsts	s15, [r3, #4]
	ldr	r3, [sp, #4]
	flds	s14, [r3, #8]
	flds	s15, [sp, #0]
	fmuls	s15, s14, s15
	ldr	r3, [sp, #4]
	fsts	s15, [r3, #8]
	.loc 1 177 0
	add	sp, sp, #8
	bx	lr
	.cfi_endproc
.LFE32:
	.size	_ZN6b2Vec3mLEf, .-_ZN6b2Vec3mLEf
	.section	.text._ZN7b2Mat22C1Ev,"axG",%progbits,_ZN7b2Mat22C1Ev,comdat
	.align	2
	.weak	_ZN7b2Mat22C1Ev
	.hidden	_ZN7b2Mat22C1Ev
	.type	_ZN7b2Mat22C1Ev, %function
_ZN7b2Mat22C1Ev:
.LFB35:
	.loc 1 186 0
	.cfi_startproc
	@ args = 0, pretend = 0, frame = 8
	@ frame_needed = 0, uses_anonymous_args = 0
	str	lr, [sp, #-4]!
.LCFI20:
	.cfi_def_cfa_offset 4
	sub	sp, sp, #12
.LCFI21:
	.cfi_def_cfa_offset 16
	str	r0, [sp, #4]
	.loc 1 186 0
	ldr	r3, [sp, #4]
	mov	r0, r3
	.cfi_offset 14, -4
	bl	_ZN6b2Vec2C1Ev
	ldr	r3, [sp, #4]
	add	r3, r3, #8
	mov	r0, r3
	bl	_ZN6b2Vec2C1Ev
	ldr	r3, [sp, #4]
	mov	r0, r3
	add	sp, sp, #12
	ldmfd	sp!, {pc}
	.cfi_endproc
.LFE35:
	.size	_ZN7b2Mat22C1Ev, .-_ZN7b2Mat22C1Ev
	.section	.text._ZNK7b2Mat225SolveERK6b2Vec2,"axG",%progbits,_ZNK7b2Mat225SolveERK6b2Vec2,comdat
	.align	2
	.weak	_ZNK7b2Mat225SolveERK6b2Vec2
	.hidden	_ZNK7b2Mat225SolveERK6b2Vec2
	.type	_ZNK7b2Mat225SolveERK6b2Vec2, %function
_ZNK7b2Mat225SolveERK6b2Vec2:
.LFB46:
	.loc 1 239 0
	.cfi_startproc
	@ args = 0, pretend = 0, frame = 40
	@ frame_needed = 0, uses_anonymous_args = 0
	stmfd	sp!, {r4, lr}
.LCFI22:
	.cfi_def_cfa_offset 8
	sub	sp, sp, #40
.LCFI23:
	.cfi_def_cfa_offset 48
	mov	r4, r0
	.cfi_offset 14, -4
	.cfi_offset 4, -8
	str	r1, [sp, #4]
	str	r2, [sp, #0]
.LBB5:
	.loc 1 241 0
	ldr	r3, [sp, #4]
	flds	s15, [r3, #0]
	fsts	s15, [sp, #20]
	ldr	r3, [sp, #4]
	flds	s15, [r3, #8]
	fsts	s15, [sp, #24]
	ldr	r3, [sp, #4]
	flds	s15, [r3, #4]
	fsts	s15, [sp, #28]
	ldr	r3, [sp, #4]
	flds	s15, [r3, #12]
	fsts	s15, [sp, #32]
	.loc 1 242 0
	flds	s14, [sp, #20]
	flds	s15, [sp, #32]
	fmuls	s14, s14, s15
	flds	s13, [sp, #24]
	flds	s15, [sp, #28]
	fmuls	s15, s13, s15
	fsubs	s15, s14, s15
	fsts	s15, [sp, #36]
	.loc 1 243 0
	flds	s15, [sp, #36]
	fcmpzs	s15
	fmstat
	beq	.L50
.L53:
	.loc 1 245 0
	flds	s14, .L54
	flds	s15, [sp, #36]
	fdivs	s15, s14, s15
	fsts	s15, [sp, #36]
.L50:
	.loc 1 247 0
	mov	r0, r4
	bl	_ZN6b2Vec2C1Ev
	.loc 1 248 0
	ldr	r3, [sp, #0]
	flds	s14, [r3, #0]
	flds	s15, [sp, #32]
	fmuls	s14, s14, s15
	ldr	r3, [sp, #0]
	flds	s13, [r3, #4]
	flds	s15, [sp, #24]
	fmuls	s15, s13, s15
	fsubs	s14, s14, s15
	flds	s15, [sp, #36]
	fmuls	s15, s14, s15
	fsts	s15, [r4, #0]
	.loc 1 249 0
	ldr	r3, [sp, #0]
	flds	s14, [r3, #4]
	flds	s15, [sp, #20]
	fmuls	s14, s14, s15
	ldr	r3, [sp, #0]
	flds	s13, [r3, #0]
	flds	s15, [sp, #28]
	fmuls	s15, s13, s15
	fsubs	s14, s14, s15
	flds	s15, [sp, #36]
	fmuls	s15, s14, s15
	fsts	s15, [r4, #4]
.LBE5:
	.loc 1 251 0
	mov	r0, r4
	add	sp, sp, #40
	ldmfd	sp!, {r4, pc}
.L55:
	.align	2
.L54:
	.word	1065353216
	.cfi_endproc
.LFE46:
	.size	_ZNK7b2Mat225SolveERK6b2Vec2, .-_ZNK7b2Mat225SolveERK6b2Vec2
	.section	.text._ZN7b2Mat33C1Ev,"axG",%progbits,_ZN7b2Mat33C1Ev,comdat
	.align	2
	.weak	_ZN7b2Mat33C1Ev
	.hidden	_ZN7b2Mat33C1Ev
	.type	_ZN7b2Mat33C1Ev, %function
_ZN7b2Mat33C1Ev:
.LFB49:
	.loc 1 260 0
	.cfi_startproc
	@ args = 0, pretend = 0, frame = 8
	@ frame_needed = 0, uses_anonymous_args = 0
	str	lr, [sp, #-4]!
.LCFI24:
	.cfi_def_cfa_offset 4
	sub	sp, sp, #12
.LCFI25:
	.cfi_def_cfa_offset 16
	str	r0, [sp, #4]
	.loc 1 260 0
	ldr	r3, [sp, #4]
	mov	r0, r3
	.cfi_offset 14, -4
	bl	_ZN6b2Vec3C1Ev
	ldr	r3, [sp, #4]
	add	r3, r3, #12
	mov	r0, r3
	bl	_ZN6b2Vec3C1Ev
	ldr	r3, [sp, #4]
	add	r3, r3, #24
	mov	r0, r3
	bl	_ZN6b2Vec3C1Ev
	ldr	r3, [sp, #4]
	mov	r0, r3
	add	sp, sp, #12
	ldmfd	sp!, {pc}
	.cfi_endproc
.LFE49:
	.size	_ZN7b2Mat33C1Ev, .-_ZN7b2Mat33C1Ev
	.section	.text._ZN5b2RotC1Ef,"axG",%progbits,_ZN5b2RotC1Ef,comdat
	.align	2
	.weak	_ZN5b2RotC1Ef
	.hidden	_ZN5b2RotC1Ef
	.type	_ZN5b2RotC1Ef, %function
_ZN5b2RotC1Ef:
.LFB59:
	.loc 1 304 0
	.cfi_startproc
	@ args = 0, pretend = 0, frame = 8
	@ frame_needed = 0, uses_anonymous_args = 0
	str	lr, [sp, #-4]!
.LCFI26:
	.cfi_def_cfa_offset 4
	sub	sp, sp, #12
.LCFI27:
	.cfi_def_cfa_offset 16
	str	r0, [sp, #4]
	str	r1, [sp, #0]	@ float
	.loc 1 307 0
	ldr	r0, [sp, #0]	@ float
	.cfi_offset 14, -4
	bl	sinf
	mov	r2, r0	@ float
	ldr	r3, [sp, #4]
	str	r2, [r3, #0]	@ float
	.loc 1 308 0
	ldr	r0, [sp, #0]	@ float
	bl	cosf
	mov	r2, r0	@ float
	ldr	r3, [sp, #4]
	str	r2, [r3, #4]	@ float
	.loc 1 309 0
	ldr	r3, [sp, #4]
	mov	r0, r3
	add	sp, sp, #12
	ldmfd	sp!, {pc}
	.cfi_endproc
.LFE59:
	.size	_ZN5b2RotC1Ef, .-_ZN5b2RotC1Ef
	.section	.text._Z5b2DotRK6b2Vec2S1_,"axG",%progbits,_Z5b2DotRK6b2Vec2S1_,comdat
	.align	2
	.weak	_Z5b2DotRK6b2Vec2S1_
	.hidden	_Z5b2DotRK6b2Vec2S1_
	.type	_Z5b2DotRK6b2Vec2S1_, %function
_Z5b2DotRK6b2Vec2S1_:
.LFB73:
	.loc 1 407 0
	.cfi_startproc
	@ args = 0, pretend = 0, frame = 8
	@ frame_needed = 0, uses_anonymous_args = 0
	@ link register save eliminated.
	sub	sp, sp, #8
.LCFI28:
	.cfi_def_cfa_offset 8
	str	r0, [sp, #4]
	str	r1, [sp, #0]
	.loc 1 408 0
	ldr	r3, [sp, #4]
	flds	s14, [r3, #0]
	ldr	r3, [sp, #0]
	flds	s15, [r3, #0]
	fmuls	s14, s14, s15
	ldr	r3, [sp, #4]
	flds	s13, [r3, #4]
	ldr	r3, [sp, #0]
	flds	s15, [r3, #4]
	fmuls	s15, s13, s15
	fadds	s15, s14, s15
	fmrs	r3, s15
	.loc 1 409 0
	mov	r0, r3	@ float
	add	sp, sp, #8
	bx	lr
	.cfi_endproc
.LFE73:
	.size	_Z5b2DotRK6b2Vec2S1_, .-_Z5b2DotRK6b2Vec2S1_
	.section	.text._Z7b2CrossRK6b2Vec2S1_,"axG",%progbits,_Z7b2CrossRK6b2Vec2S1_,comdat
	.align	2
	.weak	_Z7b2CrossRK6b2Vec2S1_
	.hidden	_Z7b2CrossRK6b2Vec2S1_
	.type	_Z7b2CrossRK6b2Vec2S1_, %function
_Z7b2CrossRK6b2Vec2S1_:
.LFB74:
	.loc 1 413 0
	.cfi_startproc
	@ args = 0, pretend = 0, frame = 8
	@ frame_needed = 0, uses_anonymous_args = 0
	@ link register save eliminated.
	sub	sp, sp, #8
.LCFI29:
	.cfi_def_cfa_offset 8
	str	r0, [sp, #4]
	str	r1, [sp, #0]
	.loc 1 414 0
	ldr	r3, [sp, #4]
	flds	s14, [r3, #0]
	ldr	r3, [sp, #0]
	flds	s15, [r3, #4]
	fmuls	s14, s14, s15
	ldr	r3, [sp, #4]
	flds	s13, [r3, #4]
	ldr	r3, [sp, #0]
	flds	s15, [r3, #0]
	fmuls	s15, s13, s15
	fsubs	s15, s14, s15
	fmrs	r3, s15
	.loc 1 415 0
	mov	r0, r3	@ float
	add	sp, sp, #8
	bx	lr
	.cfi_endproc
.LFE74:
	.size	_Z7b2CrossRK6b2Vec2S1_, .-_Z7b2CrossRK6b2Vec2S1_
	.section	.text._Z7b2CrossfRK6b2Vec2,"axG",%progbits,_Z7b2CrossfRK6b2Vec2,comdat
	.align	2
	.weak	_Z7b2CrossfRK6b2Vec2
	.hidden	_Z7b2CrossfRK6b2Vec2
	.type	_Z7b2CrossfRK6b2Vec2, %function
_Z7b2CrossfRK6b2Vec2:
.LFB76:
	.loc 1 427 0
	.cfi_startproc
	@ args = 0, pretend = 0, frame = 8
	@ frame_needed = 0, uses_anonymous_args = 0
	stmfd	sp!, {r4, lr}
.LCFI30:
	.cfi_def_cfa_offset 8
	sub	sp, sp, #8
.LCFI31:
	.cfi_def_cfa_offset 16
	mov	r4, r0
	.cfi_offset 14, -4
	.cfi_offset 4, -8
	str	r1, [sp, #4]	@ float
	str	r2, [sp, #0]
	.loc 1 428 0
	flds	s15, [sp, #4]
	fnegs	s14, s15
	ldr	r3, [sp, #0]
	flds	s15, [r3, #4]
	fmuls	s14, s14, s15
	ldr	r3, [sp, #0]
	flds	s13, [r3, #0]
	flds	s15, [sp, #4]
	fmuls	s15, s13, s15
	mov	r0, r4
	fmrs	r1, s14
	fmrs	r2, s15
	bl	_ZN6b2Vec2C1Eff
	.loc 1 429 0
	mov	r0, r4
	add	sp, sp, #8
	ldmfd	sp!, {r4, pc}
	.cfi_endproc
.LFE76:
	.size	_Z7b2CrossfRK6b2Vec2, .-_Z7b2CrossfRK6b2Vec2
	.section	.text._ZplRK6b2Vec2S1_,"axG",%progbits,_ZplRK6b2Vec2S1_,comdat
	.align	2
	.weak	_ZplRK6b2Vec2S1_
	.hidden	_ZplRK6b2Vec2S1_
	.type	_ZplRK6b2Vec2S1_, %function
_ZplRK6b2Vec2S1_:
.LFB79:
	.loc 1 447 0
	.cfi_startproc
	@ args = 0, pretend = 0, frame = 8
	@ frame_needed = 0, uses_anonymous_args = 0
	stmfd	sp!, {r4, lr}
.LCFI32:
	.cfi_def_cfa_offset 8
	sub	sp, sp, #8
.LCFI33:
	.cfi_def_cfa_offset 16
	mov	r4, r0
	.cfi_offset 14, -4
	.cfi_offset 4, -8
	str	r1, [sp, #4]
	str	r2, [sp, #0]
	.loc 1 448 0
	ldr	r3, [sp, #4]
	flds	s14, [r3, #0]
	ldr	r3, [sp, #0]
	flds	s15, [r3, #0]
	fadds	s13, s14, s15
	ldr	r3, [sp, #4]
	flds	s14, [r3, #4]
	ldr	r3, [sp, #0]
	flds	s15, [r3, #4]
	fadds	s15, s14, s15
	mov	r0, r4
	fmrs	r1, s13
	fmrs	r2, s15
	bl	_ZN6b2Vec2C1Eff
	.loc 1 449 0
	mov	r0, r4
	add	sp, sp, #8
	ldmfd	sp!, {r4, pc}
	.cfi_endproc
.LFE79:
	.size	_ZplRK6b2Vec2S1_, .-_ZplRK6b2Vec2S1_
	.section	.text._ZmiRK6b2Vec2S1_,"axG",%progbits,_ZmiRK6b2Vec2S1_,comdat
	.align	2
	.weak	_ZmiRK6b2Vec2S1_
	.hidden	_ZmiRK6b2Vec2S1_
	.type	_ZmiRK6b2Vec2S1_, %function
_ZmiRK6b2Vec2S1_:
.LFB80:
	.loc 1 453 0
	.cfi_startproc
	@ args = 0, pretend = 0, frame = 8
	@ frame_needed = 0, uses_anonymous_args = 0
	stmfd	sp!, {r4, lr}
.LCFI34:
	.cfi_def_cfa_offset 8
	sub	sp, sp, #8
.LCFI35:
	.cfi_def_cfa_offset 16
	mov	r4, r0
	.cfi_offset 14, -4
	.cfi_offset 4, -8
	str	r1, [sp, #4]
	str	r2, [sp, #0]
	.loc 1 454 0
	ldr	r3, [sp, #4]
	flds	s14, [r3, #0]
	ldr	r3, [sp, #0]
	flds	s15, [r3, #0]
	fsubs	s13, s14, s15
	ldr	r3, [sp, #4]
	flds	s14, [r3, #4]
	ldr	r3, [sp, #0]
	flds	s15, [r3, #4]
	fsubs	s15, s14, s15
	mov	r0, r4
	fmrs	r1, s13
	fmrs	r2, s15
	bl	_ZN6b2Vec2C1Eff
	.loc 1 455 0
	mov	r0, r4
	add	sp, sp, #8
	ldmfd	sp!, {r4, pc}
	.cfi_endproc
.LFE80:
	.size	_ZmiRK6b2Vec2S1_, .-_ZmiRK6b2Vec2S1_
	.section	.text._ZmlfRK6b2Vec2,"axG",%progbits,_ZmlfRK6b2Vec2,comdat
	.align	2
	.weak	_ZmlfRK6b2Vec2
	.hidden	_ZmlfRK6b2Vec2
	.type	_ZmlfRK6b2Vec2, %function
_ZmlfRK6b2Vec2:
.LFB81:
	.loc 1 458 0
	.cfi_startproc
	@ args = 0, pretend = 0, frame = 8
	@ frame_needed = 0, uses_anonymous_args = 0
	stmfd	sp!, {r4, lr}
.LCFI36:
	.cfi_def_cfa_offset 8
	sub	sp, sp, #8
.LCFI37:
	.cfi_def_cfa_offset 16
	mov	r4, r0
	.cfi_offset 14, -4
	.cfi_offset 4, -8
	str	r1, [sp, #4]	@ float
	str	r2, [sp, #0]
	.loc 1 459 0
	ldr	r3, [sp, #0]
	flds	s14, [r3, #0]
	flds	s15, [sp, #4]
	fmuls	s14, s14, s15
	ldr	r3, [sp, #0]
	flds	s13, [r3, #4]
	flds	s15, [sp, #4]
	fmuls	s15, s13, s15
	mov	r0, r4
	fmrs	r1, s14
	fmrs	r2, s15
	bl	_ZN6b2Vec2C1Eff
	.loc 1 460 0
	mov	r0, r4
	add	sp, sp, #8
	ldmfd	sp!, {r4, pc}
	.cfi_endproc
.LFE81:
	.size	_ZmlfRK6b2Vec2, .-_ZmlfRK6b2Vec2
	.section	.text._ZmiRK6b2Vec3S1_,"axG",%progbits,_ZmiRK6b2Vec3S1_,comdat
	.align	2
	.weak	_ZmiRK6b2Vec3S1_
	.hidden	_ZmiRK6b2Vec3S1_
	.type	_ZmiRK6b2Vec3S1_, %function
_ZmiRK6b2Vec3S1_:
.LFB87:
	.loc 1 492 0
	.cfi_startproc
	@ args = 0, pretend = 0, frame = 8
	@ frame_needed = 0, uses_anonymous_args = 0
	stmfd	sp!, {r4, lr}
.LCFI38:
	.cfi_def_cfa_offset 8
	sub	sp, sp, #8
.LCFI39:
	.cfi_def_cfa_offset 16
	mov	r4, r0
	.cfi_offset 14, -4
	.cfi_offset 4, -8
	str	r1, [sp, #4]
	str	r2, [sp, #0]
	.loc 1 493 0
	ldr	r3, [sp, #4]
	flds	s14, [r3, #0]
	ldr	r3, [sp, #0]
	flds	s15, [r3, #0]
	fsubs	s12, s14, s15
	ldr	r3, [sp, #4]
	flds	s14, [r3, #4]
	ldr	r3, [sp, #0]
	flds	s15, [r3, #4]
	fsubs	s13, s14, s15
	ldr	r3, [sp, #4]
	flds	s14, [r3, #8]
	ldr	r3, [sp, #0]
	flds	s15, [r3, #8]
	fsubs	s15, s14, s15
	mov	r0, r4
	fmrs	r1, s12
	fmrs	r2, s13
	fmrs	r3, s15
	bl	_ZN6b2Vec3C1Efff
	.loc 1 494 0
	mov	r0, r4
	add	sp, sp, #8
	ldmfd	sp!, {r4, pc}
	.cfi_endproc
.LFE87:
	.size	_ZmiRK6b2Vec3S1_, .-_ZmiRK6b2Vec3S1_
	.section	.text._Z5b2MulRK5b2RotRK6b2Vec2,"axG",%progbits,_Z5b2MulRK5b2RotRK6b2Vec2,comdat
	.align	2
	.weak	_Z5b2MulRK5b2RotRK6b2Vec2
	.hidden	_Z5b2MulRK5b2RotRK6b2Vec2
	.type	_Z5b2MulRK5b2RotRK6b2Vec2, %function
_Z5b2MulRK5b2RotRK6b2Vec2:
.LFB97:
	.loc 1 567 0
	.cfi_startproc
	@ args = 0, pretend = 0, frame = 8
	@ frame_needed = 0, uses_anonymous_args = 0
	stmfd	sp!, {r4, lr}
.LCFI40:
	.cfi_def_cfa_offset 8
	sub	sp, sp, #8
.LCFI41:
	.cfi_def_cfa_offset 16
	mov	r4, r0
	.cfi_offset 14, -4
	.cfi_offset 4, -8
	str	r1, [sp, #4]
	str	r2, [sp, #0]
	.loc 1 568 0
	ldr	r3, [sp, #4]
	flds	s14, [r3, #4]
	ldr	r3, [sp, #0]
	flds	s15, [r3, #0]
	fmuls	s14, s14, s15
	ldr	r3, [sp, #4]
	flds	s13, [r3, #0]
	ldr	r3, [sp, #0]
	flds	s15, [r3, #4]
	fmuls	s15, s13, s15
	fsubs	s12, s14, s15
	ldr	r3, [sp, #4]
	flds	s14, [r3, #0]
	ldr	r3, [sp, #0]
	flds	s15, [r3, #0]
	fmuls	s14, s14, s15
	ldr	r3, [sp, #4]
	flds	s13, [r3, #4]
	ldr	r3, [sp, #0]
	flds	s15, [r3, #4]
	fmuls	s15, s13, s15
	fadds	s15, s14, s15
	mov	r0, r4
	fmrs	r1, s12
	fmrs	r2, s15
	bl	_ZN6b2Vec2C1Eff
	.loc 1 569 0
	mov	r0, r4
	add	sp, sp, #8
	ldmfd	sp!, {r4, pc}
	.cfi_endproc
.LFE97:
	.size	_Z5b2MulRK5b2RotRK6b2Vec2, .-_Z5b2MulRK5b2RotRK6b2Vec2
	.section	.text._Z6b2MulTRK5b2RotRK6b2Vec2,"axG",%progbits,_Z6b2MulTRK5b2RotRK6b2Vec2,comdat
	.align	2
	.weak	_Z6b2MulTRK5b2RotRK6b2Vec2
	.hidden	_Z6b2MulTRK5b2RotRK6b2Vec2
	.type	_Z6b2MulTRK5b2RotRK6b2Vec2, %function
_Z6b2MulTRK5b2RotRK6b2Vec2:
.LFB98:
	.loc 1 573 0
	.cfi_startproc
	@ args = 0, pretend = 0, frame = 8
	@ frame_needed = 0, uses_anonymous_args = 0
	stmfd	sp!, {r4, lr}
.LCFI42:
	.cfi_def_cfa_offset 8
	sub	sp, sp, #8
.LCFI43:
	.cfi_def_cfa_offset 16
	mov	r4, r0
	.cfi_offset 14, -4
	.cfi_offset 4, -8
	str	r1, [sp, #4]
	str	r2, [sp, #0]
	.loc 1 574 0
	ldr	r3, [sp, #4]
	flds	s14, [r3, #4]
	ldr	r3, [sp, #0]
	flds	s15, [r3, #0]
	fmuls	s14, s14, s15
	ldr	r3, [sp, #4]
	flds	s13, [r3, #0]
	ldr	r3, [sp, #0]
	flds	s15, [r3, #4]
	fmuls	s15, s13, s15
	fadds	s12, s14, s15
	ldr	r3, [sp, #4]
	flds	s15, [r3, #0]
	fnegs	s14, s15
	ldr	r3, [sp, #0]
	flds	s15, [r3, #0]
	fmuls	s14, s14, s15
	ldr	r3, [sp, #4]
	flds	s13, [r3, #4]
	ldr	r3, [sp, #0]
	flds	s15, [r3, #4]
	fmuls	s15, s13, s15
	fadds	s15, s14, s15
	mov	r0, r4
	fmrs	r1, s12
	fmrs	r2, s15
	bl	_ZN6b2Vec2C1Eff
	.loc 1 575 0
	mov	r0, r4
	add	sp, sp, #8
	ldmfd	sp!, {r4, pc}
	.cfi_endproc
.LFE98:
	.size	_Z6b2MulTRK5b2RotRK6b2Vec2, .-_Z6b2MulTRK5b2RotRK6b2Vec2
	.section	.text._Z5b2MulRK11b2TransformRK6b2Vec2,"axG",%progbits,_Z5b2MulRK11b2TransformRK6b2Vec2,comdat
	.align	2
	.weak	_Z5b2MulRK11b2TransformRK6b2Vec2
	.hidden	_Z5b2MulRK11b2TransformRK6b2Vec2
	.type	_Z5b2MulRK11b2TransformRK6b2Vec2, %function
_Z5b2MulRK11b2TransformRK6b2Vec2:
.LFB99:
	.loc 1 578 0
	.cfi_startproc
	@ args = 0, pretend = 0, frame = 16
	@ frame_needed = 0, uses_anonymous_args = 0
	stmfd	sp!, {r4, lr}
.LCFI44:
	.cfi_def_cfa_offset 8
	sub	sp, sp, #16
.LCFI45:
	.cfi_def_cfa_offset 24
	mov	r4, r0
	.cfi_offset 14, -4
	.cfi_offset 4, -8
	str	r1, [sp, #4]
	str	r2, [sp, #0]
.LBB6:
	.loc 1 579 0
	ldr	r3, [sp, #4]
	flds	s14, [r3, #12]
	ldr	r3, [sp, #0]
	flds	s15, [r3, #0]
	fmuls	s14, s14, s15
	ldr	r3, [sp, #4]
	flds	s13, [r3, #8]
	ldr	r3, [sp, #0]
	flds	s15, [r3, #4]
	fmuls	s15, s13, s15
	fsubs	s14, s14, s15
	ldr	r3, [sp, #4]
	flds	s15, [r3, #0]
	fadds	s15, s14, s15
	fsts	s15, [sp, #8]
	.loc 1 580 0
	ldr	r3, [sp, #4]
	flds	s14, [r3, #8]
	ldr	r3, [sp, #0]
	flds	s15, [r3, #0]
	fmuls	s14, s14, s15
	ldr	r3, [sp, #4]
	flds	s13, [r3, #12]
	ldr	r3, [sp, #0]
	flds	s15, [r3, #4]
	fmuls	s15, s13, s15
	fadds	s14, s14, s15
	ldr	r3, [sp, #4]
	flds	s15, [r3, #4]
	fadds	s15, s14, s15
	fsts	s15, [sp, #12]
	.loc 1 582 0
	mov	r0, r4
	ldr	r1, [sp, #8]	@ float
	ldr	r2, [sp, #12]	@ float
	bl	_ZN6b2Vec2C1Eff
.LBE6:
	.loc 1 583 0
	mov	r0, r4
	add	sp, sp, #16
	ldmfd	sp!, {r4, pc}
	.cfi_endproc
.LFE99:
	.size	_Z5b2MulRK11b2TransformRK6b2Vec2, .-_Z5b2MulRK11b2TransformRK6b2Vec2
	.section	.text._Z6b2MulTRK11b2TransformRK6b2Vec2,"axG",%progbits,_Z6b2MulTRK11b2TransformRK6b2Vec2,comdat
	.align	2
	.weak	_Z6b2MulTRK11b2TransformRK6b2Vec2
	.hidden	_Z6b2MulTRK11b2TransformRK6b2Vec2
	.type	_Z6b2MulTRK11b2TransformRK6b2Vec2, %function
_Z6b2MulTRK11b2TransformRK6b2Vec2:
.LFB100:
	.loc 1 586 0
	.cfi_startproc
	@ args = 0, pretend = 0, frame = 24
	@ frame_needed = 0, uses_anonymous_args = 0
	stmfd	sp!, {r4, lr}
.LCFI46:
	.cfi_def_cfa_offset 8
	sub	sp, sp, #24
.LCFI47:
	.cfi_def_cfa_offset 32
	mov	r4, r0
	.cfi_offset 14, -4
	.cfi_offset 4, -8
	str	r1, [sp, #4]
	str	r2, [sp, #0]
.LBB7:
	.loc 1 587 0
	ldr	r3, [sp, #0]
	flds	s14, [r3, #0]
	ldr	r3, [sp, #4]
	flds	s15, [r3, #0]
	fsubs	s15, s14, s15
	fsts	s15, [sp, #8]
	.loc 1 588 0
	ldr	r3, [sp, #0]
	flds	s14, [r3, #4]
	ldr	r3, [sp, #4]
	flds	s15, [r3, #4]
	fsubs	s15, s14, s15
	fsts	s15, [sp, #12]
	.loc 1 589 0
	ldr	r3, [sp, #4]
	flds	s14, [r3, #12]
	flds	s15, [sp, #8]
	fmuls	s14, s14, s15
	ldr	r3, [sp, #4]
	flds	s13, [r3, #8]
	flds	s15, [sp, #12]
	fmuls	s15, s13, s15
	fadds	s15, s14, s15
	fsts	s15, [sp, #16]
	.loc 1 590 0
	ldr	r3, [sp, #4]
	flds	s15, [r3, #8]
	fnegs	s14, s15
	flds	s15, [sp, #8]
	fmuls	s14, s14, s15
	ldr	r3, [sp, #4]
	flds	s13, [r3, #12]
	flds	s15, [sp, #12]
	fmuls	s15, s13, s15
	fadds	s15, s14, s15
	fsts	s15, [sp, #20]
	.loc 1 592 0
	mov	r0, r4
	ldr	r1, [sp, #16]	@ float
	ldr	r2, [sp, #20]	@ float
	bl	_ZN6b2Vec2C1Eff
.LBE7:
	.loc 1 593 0
	mov	r0, r4
	add	sp, sp, #24
	ldmfd	sp!, {r4, pc}
	.cfi_endproc
.LFE100:
	.size	_Z6b2MulTRK11b2TransformRK6b2Vec2, .-_Z6b2MulTRK11b2TransformRK6b2Vec2
	.section	.rodata
	.align	2
.LC0:
	.ascii	"// Dump is not supported for this joint type.\012\000"
	.section	.text._ZN7b2Joint4DumpEv,"axG",%progbits,_ZN7b2Joint4DumpEv,comdat
	.align	2
	.weak	_ZN7b2Joint4DumpEv
	.hidden	_ZN7b2Joint4DumpEv
	.type	_ZN7b2Joint4DumpEv, %function
_ZN7b2Joint4DumpEv:
.LFB121:
	.file 2 "v:/gigglingbits/box2d/Box2D/Dynamics/Joints/b2Joint.h"
	.loc 2 147 0
	.cfi_startproc
	@ args = 0, pretend = 0, frame = 8
	@ frame_needed = 0, uses_anonymous_args = 0
	str	lr, [sp, #-4]!
.LCFI48:
	.cfi_def_cfa_offset 4
	sub	sp, sp, #12
.LCFI49:
	.cfi_def_cfa_offset 16
	str	r0, [sp, #4]
	.loc 2 147 0
	ldr	r0, .L86
	.cfi_offset 14, -4
	bl	_Z5b2LogPKcz
	add	sp, sp, #12
	ldmfd	sp!, {pc}
.L87:
	.align	2
.L86:
	.word	.LC0
	.cfi_endproc
.LFE121:
	.size	_ZN7b2Joint4DumpEv, .-_ZN7b2Joint4DumpEv
	.section	.text._ZN7b2Joint11ShiftOriginERK6b2Vec2,"axG",%progbits,_ZN7b2Joint11ShiftOriginERK6b2Vec2,comdat
	.align	2
	.weak	_ZN7b2Joint11ShiftOriginERK6b2Vec2
	.hidden	_ZN7b2Joint11ShiftOriginERK6b2Vec2
	.type	_ZN7b2Joint11ShiftOriginERK6b2Vec2, %function
_ZN7b2Joint11ShiftOriginERK6b2Vec2:
.LFB122:
	.loc 2 150 0
	.cfi_startproc
	@ args = 0, pretend = 0, frame = 8
	@ frame_needed = 0, uses_anonymous_args = 0
	@ link register save eliminated.
	sub	sp, sp, #8
.LCFI50:
	.cfi_def_cfa_offset 8
	str	r0, [sp, #4]
	str	r1, [sp, #0]
	.loc 2 150 0
	add	sp, sp, #8
	bx	lr
	.cfi_endproc
.LFE122:
	.size	_ZN7b2Joint11ShiftOriginERK6b2Vec2, .-_ZN7b2Joint11ShiftOriginERK6b2Vec2
	.section	.text._ZN7b2JointD2Ev,"axG",%progbits,_ZN7b2JointD2Ev,comdat
	.align	2
	.weak	_ZN7b2JointD2Ev
	.hidden	_ZN7b2JointD2Ev
	.type	_ZN7b2JointD2Ev, %function
_ZN7b2JointD2Ev:
.LFB124:
	.loc 2 162 0
	.cfi_startproc
	@ args = 0, pretend = 0, frame = 8
	@ frame_needed = 0, uses_anonymous_args = 0
	str	lr, [sp, #-4]!
.LCFI51:
	.cfi_def_cfa_offset 4
	sub	sp, sp, #12
.LCFI52:
	.cfi_def_cfa_offset 16
	str	r0, [sp, #4]
	.loc 2 162 0
	ldr	r3, [sp, #4]
	ldr	r2, .L94
	str	r2, [r3, #0]
	mov	r3, #0
	and	r3, r3, #255
	cmp	r3, #0
	beq	.L92
	.cfi_offset 14, -4
	ldr	r0, [sp, #4]
	bl	_ZdlPv
.L92:
	ldr	r3, [sp, #4]
	mov	r0, r3
	add	sp, sp, #12
	ldmfd	sp!, {pc}
.L95:
	.align	2
.L94:
	.word	_ZTV7b2Joint+8
	.cfi_endproc
.LFE124:
	.size	_ZN7b2JointD2Ev, .-_ZN7b2JointD2Ev
	.section	.text._ZN7b2JointD1Ev,"axG",%progbits,_ZN7b2JointD1Ev,comdat
	.align	2
	.weak	_ZN7b2JointD1Ev
	.hidden	_ZN7b2JointD1Ev
	.type	_ZN7b2JointD1Ev, %function
_ZN7b2JointD1Ev:
.LFB125:
	.loc 2 162 0
	.cfi_startproc
	@ args = 0, pretend = 0, frame = 8
	@ frame_needed = 0, uses_anonymous_args = 0
	str	lr, [sp, #-4]!
.LCFI53:
	.cfi_def_cfa_offset 4
	sub	sp, sp, #12
.LCFI54:
	.cfi_def_cfa_offset 16
	str	r0, [sp, #4]
	.loc 2 162 0
	ldr	r3, [sp, #4]
	ldr	r2, .L100
	str	r2, [r3, #0]
	mov	r3, #0
	and	r3, r3, #255
	cmp	r3, #0
	beq	.L98
	.cfi_offset 14, -4
	ldr	r0, [sp, #4]
	bl	_ZdlPv
.L98:
	ldr	r3, [sp, #4]
	mov	r0, r3
	add	sp, sp, #12
	ldmfd	sp!, {pc}
.L101:
	.align	2
.L100:
	.word	_ZTV7b2Joint+8
	.cfi_endproc
.LFE125:
	.size	_ZN7b2JointD1Ev, .-_ZN7b2JointD1Ev
	.section	.text._ZN7b2JointD0Ev,"axG",%progbits,_ZN7b2JointD0Ev,comdat
	.align	2
	.weak	_ZN7b2JointD0Ev
	.hidden	_ZN7b2JointD0Ev
	.type	_ZN7b2JointD0Ev, %function
_ZN7b2JointD0Ev:
.LFB126:
	.loc 2 162 0
	.cfi_startproc
	@ args = 0, pretend = 0, frame = 8
	@ frame_needed = 0, uses_anonymous_args = 0
	str	lr, [sp, #-4]!
.LCFI55:
	.cfi_def_cfa_offset 4
	sub	sp, sp, #12
.LCFI56:
	.cfi_def_cfa_offset 16
	str	r0, [sp, #4]
	.loc 2 162 0
	ldr	r3, [sp, #4]
	ldr	r2, .L106
	str	r2, [r3, #0]
	mov	r3, #1
	and	r3, r3, #255
	cmp	r3, #0
	beq	.L104
	.cfi_offset 14, -4
	ldr	r0, [sp, #4]
	bl	_ZdlPv
.L104:
	ldr	r3, [sp, #4]
	mov	r0, r3
	add	sp, sp, #12
	ldmfd	sp!, {pc}
.L107:
	.align	2
.L106:
	.word	_ZTV7b2Joint+8
	.cfi_endproc
.LFE126:
	.size	_ZN7b2JointD0Ev, .-_ZN7b2JointD0Ev
	.section	.text._ZNK6b2Body8GetAngleEv,"axG",%progbits,_ZNK6b2Body8GetAngleEv,comdat
	.align	2
	.weak	_ZNK6b2Body8GetAngleEv
	.hidden	_ZNK6b2Body8GetAngleEv
	.type	_ZNK6b2Body8GetAngleEv, %function
_ZNK6b2Body8GetAngleEv:
.LFB461:
	.file 3 "v:/gigglingbits/box2d/Box2D/Dynamics/b2Body.h"
	.loc 3 485 0
	.cfi_startproc
	@ args = 0, pretend = 0, frame = 8
	@ frame_needed = 0, uses_anonymous_args = 0
	@ link register save eliminated.
	sub	sp, sp, #8
.LCFI57:
	.cfi_def_cfa_offset 8
	str	r0, [sp, #4]
	.loc 3 486 0
	ldr	r3, [sp, #4]
	flds	s15, [r3, #56]
	fmrs	r3, s15
	.loc 3 487 0
	mov	r0, r3	@ float
	add	sp, sp, #8
	bx	lr
	.cfi_endproc
.LFE461:
	.size	_ZNK6b2Body8GetAngleEv, .-_ZNK6b2Body8GetAngleEv
	.section	.text._ZNK6b2Body13GetWorldPointERK6b2Vec2,"axG",%progbits,_ZNK6b2Body13GetWorldPointERK6b2Vec2,comdat
	.align	2
	.weak	_ZNK6b2Body13GetWorldPointERK6b2Vec2
	.hidden	_ZNK6b2Body13GetWorldPointERK6b2Vec2
	.type	_ZNK6b2Body13GetWorldPointERK6b2Vec2, %function
_ZNK6b2Body13GetWorldPointERK6b2Vec2:
.LFB471:
	.loc 3 557 0
	.cfi_startproc
	@ args = 0, pretend = 0, frame = 8
	@ frame_needed = 0, uses_anonymous_args = 0
	stmfd	sp!, {r4, lr}
.LCFI58:
	.cfi_def_cfa_offset 8
	sub	sp, sp, #8
.LCFI59:
	.cfi_def_cfa_offset 16
	mov	r4, r0
	.cfi_offset 14, -4
	.cfi_offset 4, -8
	str	r1, [sp, #4]
	str	r2, [sp, #0]
	.loc 3 558 0
	ldr	r3, [sp, #4]
	add	r3, r3, #12
	mov	r0, r4
	mov	r1, r3
	ldr	r2, [sp, #0]
	bl	_Z5b2MulRK11b2TransformRK6b2Vec2
	.loc 3 559 0
	mov	r0, r4
	add	sp, sp, #8
	ldmfd	sp!, {r4, pc}
	.cfi_endproc
.LFE471:
	.size	_ZNK6b2Body13GetWorldPointERK6b2Vec2, .-_ZNK6b2Body13GetWorldPointERK6b2Vec2
	.section	.text._ZNK6b2Body14GetWorldVectorERK6b2Vec2,"axG",%progbits,_ZNK6b2Body14GetWorldVectorERK6b2Vec2,comdat
	.align	2
	.weak	_ZNK6b2Body14GetWorldVectorERK6b2Vec2
	.hidden	_ZNK6b2Body14GetWorldVectorERK6b2Vec2
	.type	_ZNK6b2Body14GetWorldVectorERK6b2Vec2, %function
_ZNK6b2Body14GetWorldVectorERK6b2Vec2:
.LFB472:
	.loc 3 562 0
	.cfi_startproc
	@ args = 0, pretend = 0, frame = 8
	@ frame_needed = 0, uses_anonymous_args = 0
	stmfd	sp!, {r4, lr}
.LCFI60:
	.cfi_def_cfa_offset 8
	sub	sp, sp, #8
.LCFI61:
	.cfi_def_cfa_offset 16
	mov	r4, r0
	.cfi_offset 14, -4
	.cfi_offset 4, -8
	str	r1, [sp, #4]
	str	r2, [sp, #0]
	.loc 3 563 0
	ldr	r3, [sp, #4]
	add	r3, r3, #20
	mov	r0, r4
	mov	r1, r3
	ldr	r2, [sp, #0]
	bl	_Z5b2MulRK5b2RotRK6b2Vec2
	.loc 3 564 0
	mov	r0, r4
	add	sp, sp, #8
	ldmfd	sp!, {r4, pc}
	.cfi_endproc
.LFE472:
	.size	_ZNK6b2Body14GetWorldVectorERK6b2Vec2, .-_ZNK6b2Body14GetWorldVectorERK6b2Vec2
	.section	.text._ZNK6b2Body13GetLocalPointERK6b2Vec2,"axG",%progbits,_ZNK6b2Body13GetLocalPointERK6b2Vec2,comdat
	.align	2
	.weak	_ZNK6b2Body13GetLocalPointERK6b2Vec2
	.hidden	_ZNK6b2Body13GetLocalPointERK6b2Vec2
	.type	_ZNK6b2Body13GetLocalPointERK6b2Vec2, %function
_ZNK6b2Body13GetLocalPointERK6b2Vec2:
.LFB473:
	.loc 3 567 0
	.cfi_startproc
	@ args = 0, pretend = 0, frame = 8
	@ frame_needed = 0, uses_anonymous_args = 0
	stmfd	sp!, {r4, lr}
.LCFI62:
	.cfi_def_cfa_offset 8
	sub	sp, sp, #8
.LCFI63:
	.cfi_def_cfa_offset 16
	mov	r4, r0
	.cfi_offset 14, -4
	.cfi_offset 4, -8
	str	r1, [sp, #4]
	str	r2, [sp, #0]
	.loc 3 568 0
	ldr	r3, [sp, #4]
	add	r3, r3, #12
	mov	r0, r4
	mov	r1, r3
	ldr	r2, [sp, #0]
	bl	_Z6b2MulTRK11b2TransformRK6b2Vec2
	.loc 3 569 0
	mov	r0, r4
	add	sp, sp, #8
	ldmfd	sp!, {r4, pc}
	.cfi_endproc
.LFE473:
	.size	_ZNK6b2Body13GetLocalPointERK6b2Vec2, .-_ZNK6b2Body13GetLocalPointERK6b2Vec2
	.section	.text._ZNK6b2Body14GetLocalVectorERK6b2Vec2,"axG",%progbits,_ZNK6b2Body14GetLocalVectorERK6b2Vec2,comdat
	.align	2
	.weak	_ZNK6b2Body14GetLocalVectorERK6b2Vec2
	.hidden	_ZNK6b2Body14GetLocalVectorERK6b2Vec2
	.type	_ZNK6b2Body14GetLocalVectorERK6b2Vec2, %function
_ZNK6b2Body14GetLocalVectorERK6b2Vec2:
.LFB474:
	.loc 3 572 0
	.cfi_startproc
	@ args = 0, pretend = 0, frame = 8
	@ frame_needed = 0, uses_anonymous_args = 0
	stmfd	sp!, {r4, lr}
.LCFI64:
	.cfi_def_cfa_offset 8
	sub	sp, sp, #8
.LCFI65:
	.cfi_def_cfa_offset 16
	mov	r4, r0
	.cfi_offset 14, -4
	.cfi_offset 4, -8
	str	r1, [sp, #4]
	str	r2, [sp, #0]
	.loc 3 573 0
	ldr	r3, [sp, #4]
	add	r3, r3, #20
	mov	r0, r4
	mov	r1, r3
	ldr	r2, [sp, #0]
	bl	_Z6b2MulTRK5b2RotRK6b2Vec2
	.loc 3 574 0
	mov	r0, r4
	add	sp, sp, #8
	ldmfd	sp!, {r4, pc}
	.cfi_endproc
.LFE474:
	.size	_ZNK6b2Body14GetLocalVectorERK6b2Vec2, .-_ZNK6b2Body14GetLocalVectorERK6b2Vec2
	.section	.text._ZN6b2Body8SetAwakeEb,"axG",%progbits,_ZN6b2Body8SetAwakeEb,comdat
	.align	2
	.weak	_ZN6b2Body8SetAwakeEb
	.hidden	_ZN6b2Body8SetAwakeEb
	.type	_ZN6b2Body8SetAwakeEb, %function
_ZN6b2Body8SetAwakeEb:
.LFB485:
	.loc 3 634 0
	.cfi_startproc
	@ args = 0, pretend = 0, frame = 8
	@ frame_needed = 0, uses_anonymous_args = 0
	str	lr, [sp, #-4]!
.LCFI66:
	.cfi_def_cfa_offset 4
	sub	sp, sp, #12
.LCFI67:
	.cfi_def_cfa_offset 16
	str	r0, [sp, #4]
	mov	r3, r1
	strb	r3, [sp, #3]
	.loc 3 635 0
	ldrb	r3, [sp, #3]	@ zero_extendqisi2
	cmp	r3, #0
	beq	.L119
	.cfi_offset 14, -4
	.loc 3 637 0
	ldr	r3, [sp, #4]
	ldrh	r3, [r3, #4]
	and	r3, r3, #2
	cmp	r3, #0
	bne	.L123
	.loc 3 639 0
	ldr	r3, [sp, #4]
	ldrh	r3, [r3, #4]
	orr	r3, r3, #2
	mov	r3, r3, asl #16
	mov	r2, r3, lsr #16
	ldr	r3, [sp, #4]
	strh	r2, [r3, #4]	@ movhi
	.loc 3 640 0
	ldr	r3, [sp, #4]
	flds	s15, .L124
	fsts	s15, [r3, #144]
	b	.L122
.L119:
	.loc 3 645 0
	ldr	r3, [sp, #4]
	ldrh	r3, [r3, #4]
	ldr	r2, .L124+4
	and	r2, r3, r2
	mov	r3, r2
	ldr	r2, [sp, #4]
	strh	r3, [r2, #4]	@ movhi
	.loc 3 646 0
	ldr	r3, [sp, #4]
	flds	s15, .L124
	fsts	s15, [r3, #144]
	.loc 3 647 0
	ldr	r3, [sp, #4]
	add	r3, r3, #64
	mov	r0, r3
	bl	_ZN6b2Vec27SetZeroEv
	.loc 3 648 0
	ldr	r3, [sp, #4]
	flds	s15, .L124
	fsts	s15, [r3, #72]
	.loc 3 649 0
	ldr	r3, [sp, #4]
	add	r3, r3, #76
	mov	r0, r3
	bl	_ZN6b2Vec27SetZeroEv
	.loc 3 650 0
	ldr	r3, [sp, #4]
	flds	s15, .L124
	fsts	s15, [r3, #84]
	b	.L122
.L123:
	.loc 3 640 0
	mov	r0, r0	@ nop
.L122:
	.loc 3 652 0
	add	sp, sp, #12
	ldmfd	sp!, {pc}
.L125:
	.align	2
.L124:
	.word	0
	.word	65533
	.cfi_endproc
.LFE485:
	.size	_ZN6b2Body8SetAwakeEb, .-_ZN6b2Body8SetAwakeEb
	.section	.text._ZN19b2PrismaticJointDef10InitializeEP6b2BodyS1_RK6b2Vec2S4_,"ax",%progbits
	.align	2
	.global	_ZN19b2PrismaticJointDef10InitializeEP6b2BodyS1_RK6b2Vec2S4_
	.hidden	_ZN19b2PrismaticJointDef10InitializeEP6b2BodyS1_RK6b2Vec2S4_
	.type	_ZN19b2PrismaticJointDef10InitializeEP6b2BodyS1_RK6b2Vec2S4_, %function
_ZN19b2PrismaticJointDef10InitializeEP6b2BodyS1_RK6b2Vec2S4_:
.LFB510:
	.file 4 "v:/gigglingbits/box2d/Box2D/Dynamics/Joints/b2PrismaticJoint.cpp"
	.loc 4 91 0
	.cfi_startproc
	@ args = 4, pretend = 0, frame = 24
	@ frame_needed = 0, uses_anonymous_args = 0
	stmfd	sp!, {r4, lr}
.LCFI68:
	.cfi_def_cfa_offset 8
	fstmfdd	sp!, {d8}
.LCFI69:
	.cfi_def_cfa_offset 16
	sub	sp, sp, #24
.LCFI70:
	.cfi_def_cfa_offset 40
	str	r0, [sp, #20]
	str	r1, [sp, #16]
	str	r2, [sp, #12]
	str	r3, [sp, #8]
	.loc 4 92 0
	ldr	r3, [sp, #20]
	ldr	r2, [sp, #16]
	str	r2, [r3, #8]
	.loc 4 93 0
	ldr	r3, [sp, #20]
	ldr	r2, [sp, #12]
	str	r2, [r3, #12]
	.loc 4 94 0
	ldr	r3, [sp, #20]
	ldr	r3, [r3, #8]
	ldr	r4, [sp, #20]
	.cfi_offset 80, -16
	.cfi_offset 14, -4
	.cfi_offset 4, -8
	mov	r2, sp
	mov	r0, r2
	mov	r1, r3
	ldr	r2, [sp, #8]
	bl	_ZNK6b2Body13GetLocalPointERK6b2Vec2
	add	r3, r4, #20
	mov	r2, sp
	ldmia	r2, {r0, r1}
	stmia	r3, {r0, r1}
	.loc 4 95 0
	ldr	r3, [sp, #20]
	ldr	r3, [r3, #12]
	ldr	r4, [sp, #20]
	mov	r2, sp
	mov	r0, r2
	mov	r1, r3
	ldr	r2, [sp, #8]
	bl	_ZNK6b2Body13GetLocalPointERK6b2Vec2
	add	r3, r4, #28
	mov	r2, sp
	ldmia	r2, {r0, r1}
	stmia	r3, {r0, r1}
	.loc 4 96 0
	ldr	r3, [sp, #20]
	ldr	r3, [r3, #8]
	ldr	r4, [sp, #20]
	mov	r2, sp
	mov	r0, r2
	mov	r1, r3
	ldr	r2, [sp, #40]
	bl	_ZNK6b2Body14GetLocalVectorERK6b2Vec2
	add	r3, r4, #36
	mov	r2, sp
	ldmia	r2, {r0, r1}
	stmia	r3, {r0, r1}
	.loc 4 97 0
	ldr	r3, [sp, #20]
	ldr	r3, [r3, #12]
	mov	r0, r3
	bl	_ZNK6b2Body8GetAngleEv
	fmsr	s16, r0
	ldr	r3, [sp, #20]
	ldr	r3, [r3, #8]
	mov	r0, r3
	bl	_ZNK6b2Body8GetAngleEv
	fmsr	s15, r0
	fsubs	s15, s16, s15
	ldr	r3, [sp, #20]
	fsts	s15, [r3, #44]
	.loc 4 98 0
	add	sp, sp, #24
	fldmfdd	sp!, {d8}
	ldmfd	sp!, {r4, pc}
	.cfi_endproc
.LFE510:
	.size	_ZN19b2PrismaticJointDef10InitializeEP6b2BodyS1_RK6b2Vec2S4_, .-_ZN19b2PrismaticJointDef10InitializeEP6b2BodyS1_RK6b2Vec2S4_
	.section	.text._ZN16b2PrismaticJointC2EPK19b2PrismaticJointDef,"ax",%progbits
	.align	2
	.global	_ZN16b2PrismaticJointC2EPK19b2PrismaticJointDef
	.hidden	_ZN16b2PrismaticJointC2EPK19b2PrismaticJointDef
	.type	_ZN16b2PrismaticJointC2EPK19b2PrismaticJointDef, %function
_ZN16b2PrismaticJointC2EPK19b2PrismaticJointDef:
.LFB512:
	.loc 4 100 0
	.cfi_startproc
	@ args = 0, pretend = 0, frame = 16
	@ frame_needed = 0, uses_anonymous_args = 0
	stmfd	sp!, {r4, lr}
.LCFI71:
	.cfi_def_cfa_offset 8
	sub	sp, sp, #16
.LCFI72:
	.cfi_def_cfa_offset 24
	str	r0, [sp, #12]
	str	r1, [sp, #8]
	.loc 4 101 0
	ldr	r2, [sp, #12]
	ldr	r3, [sp, #8]
	mov	r0, r2
	mov	r1, r3
	.cfi_offset 14, -4
	.cfi_offset 4, -8
	bl	_ZN7b2JointC2EPK10b2JointDef
	ldr	r3, [sp, #12]
	ldr	r2, .L131+4
	str	r2, [r3, #0]
	ldr	r3, [sp, #12]
	add	r3, r3, #68
	mov	r0, r3
	bl	_ZN6b2Vec2C1Ev
	ldr	r3, [sp, #12]
	add	r3, r3, #76
	mov	r0, r3
	bl	_ZN6b2Vec2C1Ev
	ldr	r3, [sp, #12]
	add	r3, r3, #84
	mov	r0, r3
	bl	_ZN6b2Vec2C1Ev
	ldr	r3, [sp, #12]
	add	r3, r3, #92
	mov	r0, r3
	bl	_ZN6b2Vec2C1Ev
	ldr	r3, [sp, #12]
	add	r3, r3, #104
	mov	r0, r3
	bl	_ZN6b2Vec3C1Ev
	ldr	r3, [sp, #12]
	add	r3, r3, #152
	mov	r0, r3
	bl	_ZN6b2Vec2C1Ev
	ldr	r3, [sp, #12]
	add	r3, r3, #160
	mov	r0, r3
	bl	_ZN6b2Vec2C1Ev
	ldr	r3, [sp, #12]
	add	r3, r3, #184
	mov	r0, r3
	bl	_ZN6b2Vec2C1Ev
	ldr	r3, [sp, #12]
	add	r3, r3, #192
	mov	r0, r3
	bl	_ZN6b2Vec2C1Ev
	ldr	r3, [sp, #12]
	add	r3, r3, #216
	mov	r0, r3
	bl	_ZN7b2Mat33C1Ev
	.loc 4 103 0
	ldr	r3, [sp, #12]
	ldr	r2, [sp, #8]
	add	r3, r3, #68
	add	r2, r2, #20
	ldmia	r2, {r0, r1}
	stmia	r3, {r0, r1}
	.loc 4 104 0
	ldr	r3, [sp, #12]
	ldr	r2, [sp, #8]
	add	r3, r3, #76
	add	r2, r2, #28
	ldmia	r2, {r0, r1}
	stmia	r3, {r0, r1}
	.loc 4 105 0
	ldr	r3, [sp, #12]
	ldr	r2, [sp, #8]
	add	r3, r3, #84
	add	r2, r2, #36
	ldmia	r2, {r0, r1}
	stmia	r3, {r0, r1}
	.loc 4 106 0
	ldr	r3, [sp, #12]
	add	r3, r3, #84
	mov	r0, r3
	bl	_ZN6b2Vec29NormalizeEv
	.loc 4 107 0
	ldr	r3, [sp, #12]
	add	r3, r3, #84
	ldr	r4, [sp, #12]
	mov	r2, sp
	mov	r0, r2
	ldr	r1, .L131+8	@ float
	mov	r2, r3
	bl	_Z7b2CrossfRK6b2Vec2
	add	r3, r4, #92
	mov	r2, sp
	ldmia	r2, {r0, r1}
	stmia	r3, {r0, r1}
	.loc 4 108 0
	ldr	r3, [sp, #8]
	flds	s15, [r3, #44]
	ldr	r3, [sp, #12]
	fsts	s15, [r3, #100]
	.loc 4 110 0
	ldr	r3, [sp, #12]
	add	r3, r3, #104
	mov	r0, r3
	bl	_ZN6b2Vec37SetZeroEv
	.loc 4 111 0
	ldr	r3, [sp, #12]
	flds	s15, .L131
	fsts	s15, [r3, #252]
	.loc 4 112 0
	ldr	r3, [sp, #12]
	flds	s15, .L131
	fsts	s15, [r3, #116]
	.loc 4 114 0
	ldr	r3, [sp, #8]
	flds	s15, [r3, #52]
	ldr	r3, [sp, #12]
	fsts	s15, [r3, #120]
	.loc 4 115 0
	ldr	r3, [sp, #8]
	flds	s15, [r3, #56]
	ldr	r3, [sp, #12]
	fsts	s15, [r3, #124]
	.loc 4 116 0
	ldr	r3, [sp, #8]
	flds	s15, [r3, #64]
	ldr	r3, [sp, #12]
	fsts	s15, [r3, #128]
	.loc 4 117 0
	ldr	r3, [sp, #8]
	flds	s15, [r3, #68]
	ldr	r3, [sp, #12]
	fsts	s15, [r3, #132]
	.loc 4 118 0
	ldr	r3, [sp, #8]
	ldrb	r2, [r3, #48]	@ zero_extendqisi2
	ldr	r3, [sp, #12]
	strb	r2, [r3, #136]
	.loc 4 119 0
	ldr	r3, [sp, #8]
	ldrb	r2, [r3, #60]	@ zero_extendqisi2
	ldr	r3, [sp, #12]
	strb	r2, [r3, #137]
	.loc 4 120 0
	ldr	r3, [sp, #12]
	mov	r2, #0
	str	r2, [r3, #140]
	.loc 4 122 0
	ldr	r3, [sp, #12]
	add	r3, r3, #184
	mov	r0, r3
	bl	_ZN6b2Vec27SetZeroEv
	.loc 4 123 0
	ldr	r3, [sp, #12]
	add	r3, r3, #192
	mov	r0, r3
	bl	_ZN6b2Vec27SetZeroEv
	.loc 4 124 0
	ldr	r3, [sp, #12]
	mov	r0, r3
	add	sp, sp, #16
	ldmfd	sp!, {r4, pc}
.L132:
	.align	2
.L131:
	.word	0
	.word	_ZTV16b2PrismaticJoint+8
	.word	1065353216
	.cfi_endproc
.LFE512:
	.size	_ZN16b2PrismaticJointC2EPK19b2PrismaticJointDef, .-_ZN16b2PrismaticJointC2EPK19b2PrismaticJointDef
	.section	.text._ZN16b2PrismaticJointC1EPK19b2PrismaticJointDef,"ax",%progbits
	.align	2
	.global	_ZN16b2PrismaticJointC1EPK19b2PrismaticJointDef
	.hidden	_ZN16b2PrismaticJointC1EPK19b2PrismaticJointDef
	.type	_ZN16b2PrismaticJointC1EPK19b2PrismaticJointDef, %function
_ZN16b2PrismaticJointC1EPK19b2PrismaticJointDef:
.LFB513:
	.loc 4 100 0
	.cfi_startproc
	@ args = 0, pretend = 0, frame = 16
	@ frame_needed = 0, uses_anonymous_args = 0
	stmfd	sp!, {r4, lr}
.LCFI73:
	.cfi_def_cfa_offset 8
	sub	sp, sp, #16
.LCFI74:
	.cfi_def_cfa_offset 24
	str	r0, [sp, #12]
	str	r1, [sp, #8]
	.loc 4 101 0
	ldr	r2, [sp, #12]
	ldr	r3, [sp, #8]
	mov	r0, r2
	mov	r1, r3
	.cfi_offset 14, -4
	.cfi_offset 4, -8
	bl	_ZN7b2JointC2EPK10b2JointDef
	ldr	r3, [sp, #12]
	ldr	r2, .L136+4
	str	r2, [r3, #0]
	ldr	r3, [sp, #12]
	add	r3, r3, #68
	mov	r0, r3
	bl	_ZN6b2Vec2C1Ev
	ldr	r3, [sp, #12]
	add	r3, r3, #76
	mov	r0, r3
	bl	_ZN6b2Vec2C1Ev
	ldr	r3, [sp, #12]
	add	r3, r3, #84
	mov	r0, r3
	bl	_ZN6b2Vec2C1Ev
	ldr	r3, [sp, #12]
	add	r3, r3, #92
	mov	r0, r3
	bl	_ZN6b2Vec2C1Ev
	ldr	r3, [sp, #12]
	add	r3, r3, #104
	mov	r0, r3
	bl	_ZN6b2Vec3C1Ev
	ldr	r3, [sp, #12]
	add	r3, r3, #152
	mov	r0, r3
	bl	_ZN6b2Vec2C1Ev
	ldr	r3, [sp, #12]
	add	r3, r3, #160
	mov	r0, r3
	bl	_ZN6b2Vec2C1Ev
	ldr	r3, [sp, #12]
	add	r3, r3, #184
	mov	r0, r3
	bl	_ZN6b2Vec2C1Ev
	ldr	r3, [sp, #12]
	add	r3, r3, #192
	mov	r0, r3
	bl	_ZN6b2Vec2C1Ev
	ldr	r3, [sp, #12]
	add	r3, r3, #216
	mov	r0, r3
	bl	_ZN7b2Mat33C1Ev
	.loc 4 103 0
	ldr	r3, [sp, #12]
	ldr	r2, [sp, #8]
	add	r3, r3, #68
	add	r2, r2, #20
	ldmia	r2, {r0, r1}
	stmia	r3, {r0, r1}
	.loc 4 104 0
	ldr	r3, [sp, #12]
	ldr	r2, [sp, #8]
	add	r3, r3, #76
	add	r2, r2, #28
	ldmia	r2, {r0, r1}
	stmia	r3, {r0, r1}
	.loc 4 105 0
	ldr	r3, [sp, #12]
	ldr	r2, [sp, #8]
	add	r3, r3, #84
	add	r2, r2, #36
	ldmia	r2, {r0, r1}
	stmia	r3, {r0, r1}
	.loc 4 106 0
	ldr	r3, [sp, #12]
	add	r3, r3, #84
	mov	r0, r3
	bl	_ZN6b2Vec29NormalizeEv
	.loc 4 107 0
	ldr	r3, [sp, #12]
	add	r3, r3, #84
	ldr	r4, [sp, #12]
	mov	r2, sp
	mov	r0, r2
	ldr	r1, .L136+8	@ float
	mov	r2, r3
	bl	_Z7b2CrossfRK6b2Vec2
	add	r3, r4, #92
	mov	r2, sp
	ldmia	r2, {r0, r1}
	stmia	r3, {r0, r1}
	.loc 4 108 0
	ldr	r3, [sp, #8]
	flds	s15, [r3, #44]
	ldr	r3, [sp, #12]
	fsts	s15, [r3, #100]
	.loc 4 110 0
	ldr	r3, [sp, #12]
	add	r3, r3, #104
	mov	r0, r3
	bl	_ZN6b2Vec37SetZeroEv
	.loc 4 111 0
	ldr	r3, [sp, #12]
	flds	s15, .L136
	fsts	s15, [r3, #252]
	.loc 4 112 0
	ldr	r3, [sp, #12]
	flds	s15, .L136
	fsts	s15, [r3, #116]
	.loc 4 114 0
	ldr	r3, [sp, #8]
	flds	s15, [r3, #52]
	ldr	r3, [sp, #12]
	fsts	s15, [r3, #120]
	.loc 4 115 0
	ldr	r3, [sp, #8]
	flds	s15, [r3, #56]
	ldr	r3, [sp, #12]
	fsts	s15, [r3, #124]
	.loc 4 116 0
	ldr	r3, [sp, #8]
	flds	s15, [r3, #64]
	ldr	r3, [sp, #12]
	fsts	s15, [r3, #128]
	.loc 4 117 0
	ldr	r3, [sp, #8]
	flds	s15, [r3, #68]
	ldr	r3, [sp, #12]
	fsts	s15, [r3, #132]
	.loc 4 118 0
	ldr	r3, [sp, #8]
	ldrb	r2, [r3, #48]	@ zero_extendqisi2
	ldr	r3, [sp, #12]
	strb	r2, [r3, #136]
	.loc 4 119 0
	ldr	r3, [sp, #8]
	ldrb	r2, [r3, #60]	@ zero_extendqisi2
	ldr	r3, [sp, #12]
	strb	r2, [r3, #137]
	.loc 4 120 0
	ldr	r3, [sp, #12]
	mov	r2, #0
	str	r2, [r3, #140]
	.loc 4 122 0
	ldr	r3, [sp, #12]
	add	r3, r3, #184
	mov	r0, r3
	bl	_ZN6b2Vec27SetZeroEv
	.loc 4 123 0
	ldr	r3, [sp, #12]
	add	r3, r3, #192
	mov	r0, r3
	bl	_ZN6b2Vec27SetZeroEv
	.loc 4 124 0
	ldr	r3, [sp, #12]
	mov	r0, r3
	add	sp, sp, #16
	ldmfd	sp!, {r4, pc}
.L137:
	.align	2
.L136:
	.word	0
	.word	_ZTV16b2PrismaticJoint+8
	.word	1065353216
	.cfi_endproc
.LFE513:
	.size	_ZN16b2PrismaticJointC1EPK19b2PrismaticJointDef, .-_ZN16b2PrismaticJointC1EPK19b2PrismaticJointDef
	.section	.text._ZN16b2PrismaticJoint23InitVelocityConstraintsERK12b2SolverData,"ax",%progbits
	.align	2
	.global	_ZN16b2PrismaticJoint23InitVelocityConstraintsERK12b2SolverData
	.hidden	_ZN16b2PrismaticJoint23InitVelocityConstraintsERK12b2SolverData
	.type	_ZN16b2PrismaticJoint23InitVelocityConstraintsERK12b2SolverData, %function
_ZN16b2PrismaticJoint23InitVelocityConstraintsERK12b2SolverData:
.LFB514:
	.loc 4 127 0
	.cfi_startproc
	@ args = 0, pretend = 0, frame = 248
	@ frame_needed = 0, uses_anonymous_args = 0
	stmfd	sp!, {r4, lr}
.LCFI75:
	.cfi_def_cfa_offset 8
	sub	sp, sp, #248
.LCFI76:
	.cfi_def_cfa_offset 256
	str	r0, [sp, #12]
	str	r1, [sp, #8]
.LBB8:
	.loc 4 128 0
	ldr	r3, [sp, #12]
	ldr	r3, [r3, #48]
	ldr	r2, [r3, #8]
	ldr	r3, [sp, #12]
	str	r2, [r3, #144]
	.loc 4 129 0
	ldr	r3, [sp, #12]
	ldr	r3, [r3, #52]
	ldr	r2, [r3, #8]
	ldr	r3, [sp, #12]
	str	r2, [r3, #148]
	.loc 4 130 0
	ldr	r3, [sp, #12]
	ldr	r2, [r3, #48]
	ldr	r3, [sp, #12]
	add	r3, r3, #152
	add	r2, r2, #28
	ldmia	r2, {r0, r1}
	stmia	r3, {r0, r1}
	.loc 4 131 0
	ldr	r3, [sp, #12]
	ldr	r2, [r3, #52]
	ldr	r3, [sp, #12]
	add	r3, r3, #160
	add	r2, r2, #28
	ldmia	r2, {r0, r1}
	stmia	r3, {r0, r1}
	.loc 4 132 0
	ldr	r3, [sp, #12]
	ldr	r3, [r3, #48]
	flds	s15, [r3, #120]
	ldr	r3, [sp, #12]
	fsts	s15, [r3, #168]
	.loc 4 133 0
	ldr	r3, [sp, #12]
	ldr	r3, [r3, #52]
	flds	s15, [r3, #120]
	ldr	r3, [sp, #12]
	fsts	s15, [r3, #172]
	.loc 4 134 0
	ldr	r3, [sp, #12]
	ldr	r3, [r3, #48]
	flds	s15, [r3, #128]
	ldr	r3, [sp, #12]
	fsts	s15, [r3, #176]
	.loc 4 135 0
	ldr	r3, [sp, #12]
	ldr	r3, [r3, #52]
	flds	s15, [r3, #128]
	ldr	r3, [sp, #12]
	fsts	s15, [r3, #180]
	.loc 4 137 0
	ldr	r3, [sp, #8]
	ldr	r1, [r3, #24]
	ldr	r3, [sp, #12]
	ldr	r3, [r3, #144]
	mov	r2, r3
	mov	r3, r2
	mov	r3, r3, asl #1
	add	r3, r3, r2
	mov	r3, r3, asl #2
	add	r2, r1, r3
	add	r3, sp, #92
	ldmia	r2, {r0, r1}
	stmia	r3, {r0, r1}
	.loc 4 138 0
	ldr	r3, [sp, #8]
	ldr	r1, [r3, #24]
	ldr	r3, [sp, #12]
	ldr	r3, [r3, #144]
	mov	r2, r3
	mov	r3, r2
	mov	r3, r3, asl #1
	add	r3, r3, r2
	mov	r3, r3, asl #2
	add	r3, r1, r3
	flds	s15, [r3, #8]
	fsts	s15, [sp, #180]
	.loc 4 139 0
	ldr	r3, [sp, #8]
	ldr	r1, [r3, #28]
	ldr	r3, [sp, #12]
	ldr	r3, [r3, #144]
	mov	r2, r3
	mov	r3, r2
	mov	r3, r3, asl #1
	add	r3, r3, r2
	mov	r3, r3, asl #2
	add	r2, r1, r3
	add	r3, sp, #84
	ldmia	r2, {r0, r1}
	stmia	r3, {r0, r1}
	.loc 4 140 0
	ldr	r3, [sp, #8]
	ldr	r1, [r3, #28]
	ldr	r3, [sp, #12]
	ldr	r3, [r3, #144]
	mov	r2, r3
	mov	r3, r2
	mov	r3, r3, asl #1
	add	r3, r3, r2
	mov	r3, r3, asl #2
	add	r3, r1, r3
	flds	s15, [r3, #8]
	fsts	s15, [sp, #184]
	.loc 4 142 0
	ldr	r3, [sp, #8]
	ldr	r1, [r3, #24]
	ldr	r3, [sp, #12]
	ldr	r3, [r3, #148]
	mov	r2, r3
	mov	r3, r2
	mov	r3, r3, asl #1
	add	r3, r3, r2
	mov	r3, r3, asl #2
	add	r2, r1, r3
	add	r3, sp, #76
	ldmia	r2, {r0, r1}
	stmia	r3, {r0, r1}
	.loc 4 143 0
	ldr	r3, [sp, #8]
	ldr	r1, [r3, #24]
	ldr	r3, [sp, #12]
	ldr	r3, [r3, #148]
	mov	r2, r3
	mov	r3, r2
	mov	r3, r3, asl #1
	add	r3, r3, r2
	mov	r3, r3, asl #2
	add	r3, r1, r3
	flds	s15, [r3, #8]
	fsts	s15, [sp, #188]
	.loc 4 144 0
	ldr	r3, [sp, #8]
	ldr	r1, [r3, #28]
	ldr	r3, [sp, #12]
	ldr	r3, [r3, #148]
	mov	r2, r3
	mov	r3, r2
	mov	r3, r3, asl #1
	add	r3, r3, r2
	mov	r3, r3, asl #2
	add	r2, r1, r3
	add	r3, sp, #68
	ldmia	r2, {r0, r1}
	stmia	r3, {r0, r1}
	.loc 4 145 0
	ldr	r3, [sp, #8]
	ldr	r1, [r3, #28]
	ldr	r3, [sp, #12]
	ldr	r3, [r3, #148]
	mov	r2, r3
	mov	r3, r2
	mov	r3, r3, asl #1
	add	r3, r3, r2
	mov	r3, r3, asl #2
	add	r3, r1, r3
	flds	s15, [r3, #8]
	fsts	s15, [sp, #192]
	.loc 4 147 0
	add	r3, sp, #60
	mov	r0, r3
	ldr	r1, [sp, #180]	@ float
	.cfi_offset 14, -4
	.cfi_offset 4, -8
	bl	_ZN5b2RotC1Ef
	add	r3, sp, #52
	mov	r0, r3
	ldr	r1, [sp, #188]	@ float
	bl	_ZN5b2RotC1Ef
	.loc 4 150 0
	ldr	r3, [sp, #12]
	add	r2, r3, #68
	ldr	r3, [sp, #12]
	add	r3, r3, #152
	add	r1, sp, #100
	mov	r0, r1
	mov	r1, r2
	mov	r2, r3
	bl	_ZmiRK6b2Vec2S1_
	add	r1, sp, #44
	add	r2, sp, #60
	add	r3, sp, #100
	mov	r0, r1
	mov	r1, r2
	mov	r2, r3
	bl	_Z5b2MulRK5b2RotRK6b2Vec2
	.loc 4 151 0
	ldr	r3, [sp, #12]
	add	r2, r3, #76
	ldr	r3, [sp, #12]
	add	r3, r3, #160
	add	r1, sp, #108
	mov	r0, r1
	mov	r1, r2
	mov	r2, r3
	bl	_ZmiRK6b2Vec2S1_
	add	r1, sp, #36
	add	r2, sp, #52
	add	r3, sp, #108
	mov	r0, r1
	mov	r1, r2
	mov	r2, r3
	bl	_Z5b2MulRK5b2RotRK6b2Vec2
	.loc 4 152 0
	add	r1, sp, #124
	add	r2, sp, #76
	add	r3, sp, #92
	mov	r0, r1
	mov	r1, r2
	mov	r2, r3
	bl	_ZmiRK6b2Vec2S1_
	add	r1, sp, #116
	add	r2, sp, #124
	add	r3, sp, #36
	mov	r0, r1
	mov	r1, r2
	mov	r2, r3
	bl	_ZplRK6b2Vec2S1_
	add	r1, sp, #28
	add	r2, sp, #116
	add	r3, sp, #44
	mov	r0, r1
	mov	r1, r2
	mov	r2, r3
	bl	_ZmiRK6b2Vec2S1_
	.loc 4 154 0
	ldr	r3, [sp, #12]
	flds	s15, [r3, #168]
	fsts	s15, [sp, #196]
	ldr	r3, [sp, #12]
	flds	s15, [r3, #172]
	fsts	s15, [sp, #200]
	.loc 4 155 0
	ldr	r3, [sp, #12]
	flds	s15, [r3, #176]
	fsts	s15, [sp, #204]
	ldr	r3, [sp, #12]
	flds	s15, [r3, #180]
	fsts	s15, [sp, #208]
	.loc 4 159 0
	ldr	r3, [sp, #12]
	add	r3, r3, #84
	ldr	r4, [sp, #12]
	mov	r1, sp
	add	r2, sp, #60
	mov	r0, r1
	mov	r1, r2
	mov	r2, r3
	bl	_Z5b2MulRK5b2RotRK6b2Vec2
	add	r3, r4, #184
	mov	r2, sp
	ldmia	r2, {r0, r1}
	stmia	r3, {r0, r1}
	.loc 4 160 0
	add	r1, sp, #132
	add	r2, sp, #28
	add	r3, sp, #44
	mov	r0, r1
	mov	r1, r2
	mov	r2, r3
	bl	_ZplRK6b2Vec2S1_
	ldr	r3, [sp, #12]
	add	r3, r3, #184
	add	r2, sp, #132
	mov	r0, r2
	mov	r1, r3
	bl	_Z7b2CrossRK6b2Vec2S1_
	mov	r2, r0	@ float
	ldr	r3, [sp, #12]
	str	r2, [r3, #208]	@ float
	.loc 4 161 0
	ldr	r3, [sp, #12]
	add	r3, r3, #184
	add	r2, sp, #36
	mov	r0, r2
	mov	r1, r3
	bl	_Z7b2CrossRK6b2Vec2S1_
	mov	r2, r0	@ float
	ldr	r3, [sp, #12]
	str	r2, [r3, #212]	@ float
	.loc 4 163 0
	flds	s14, [sp, #196]
	flds	s15, [sp, #200]
	fadds	s14, s14, s15
	ldr	r3, [sp, #12]
	flds	s13, [r3, #208]
	flds	s15, [sp, #204]
	fmuls	s15, s13, s15
	ldr	r3, [sp, #12]
	flds	s13, [r3, #208]
	fmuls	s15, s15, s13
	fadds	s14, s14, s15
	ldr	r3, [sp, #12]
	flds	s13, [r3, #212]
	flds	s15, [sp, #208]
	fmuls	s15, s13, s15
	ldr	r3, [sp, #12]
	flds	s13, [r3, #212]
	fmuls	s15, s15, s13
	fadds	s15, s14, s15
	ldr	r3, [sp, #12]
	fsts	s15, [r3, #252]
	.loc 4 164 0
	ldr	r3, [sp, #12]
	flds	s15, [r3, #252]
	fcmpezs	s15
	fmstat
	movle	r3, #0
	movgt	r3, #1
	and	r3, r3, #255
	cmp	r3, #0
	beq	.L139
	.loc 4 166 0
	ldr	r3, [sp, #12]
	flds	s15, [r3, #252]
	flds	s14, .L157
	fdivs	s15, s14, s15
	ldr	r3, [sp, #12]
	fsts	s15, [r3, #252]
.L139:
.LBB9:
	.loc 4 172 0
	ldr	r3, [sp, #12]
	add	r3, r3, #92
	ldr	r4, [sp, #12]
	mov	r1, sp
	add	r2, sp, #60
	mov	r0, r1
	mov	r1, r2
	mov	r2, r3
	bl	_Z5b2MulRK5b2RotRK6b2Vec2
	add	r3, r4, #192
	mov	r2, sp
	ldmia	r2, {r0, r1}
	stmia	r3, {r0, r1}
	.loc 4 174 0
	add	r1, sp, #140
	add	r2, sp, #28
	add	r3, sp, #44
	mov	r0, r1
	mov	r1, r2
	mov	r2, r3
	bl	_ZplRK6b2Vec2S1_
	ldr	r3, [sp, #12]
	add	r3, r3, #192
	add	r2, sp, #140
	mov	r0, r2
	mov	r1, r3
	bl	_Z7b2CrossRK6b2Vec2S1_
	mov	r2, r0	@ float
	ldr	r3, [sp, #12]
	str	r2, [r3, #200]	@ float
	.loc 4 175 0
	ldr	r3, [sp, #12]
	add	r3, r3, #192
	add	r2, sp, #36
	mov	r0, r2
	mov	r1, r3
	bl	_Z7b2CrossRK6b2Vec2S1_
	mov	r2, r0	@ float
	ldr	r3, [sp, #12]
	str	r2, [r3, #204]	@ float
	.loc 4 177 0
	flds	s14, [sp, #196]
	flds	s15, [sp, #200]
	fadds	s14, s14, s15
	ldr	r3, [sp, #12]
	flds	s13, [r3, #200]
	flds	s15, [sp, #204]
	fmuls	s15, s13, s15
	ldr	r3, [sp, #12]
	flds	s13, [r3, #200]
	fmuls	s15, s15, s13
	fadds	s14, s14, s15
	ldr	r3, [sp, #12]
	flds	s13, [r3, #204]
	flds	s15, [sp, #208]
	fmuls	s15, s13, s15
	ldr	r3, [sp, #12]
	flds	s13, [r3, #204]
	fmuls	s15, s15, s13
	fadds	s15, s14, s15
	fsts	s15, [sp, #212]
	.loc 4 178 0
	ldr	r3, [sp, #12]
	flds	s14, [r3, #200]
	flds	s15, [sp, #204]
	fmuls	s14, s14, s15
	ldr	r3, [sp, #12]
	flds	s13, [r3, #204]
	flds	s15, [sp, #208]
	fmuls	s15, s13, s15
	fadds	s15, s14, s15
	fsts	s15, [sp, #216]
	.loc 4 179 0
	ldr	r3, [sp, #12]
	flds	s14, [r3, #200]
	flds	s15, [sp, #204]
	fmuls	s15, s14, s15
	ldr	r3, [sp, #12]
	flds	s14, [r3, #208]
	fmuls	s14, s15, s14
	ldr	r3, [sp, #12]
	flds	s13, [r3, #204]
	flds	s15, [sp, #208]
	fmuls	s15, s13, s15
	ldr	r3, [sp, #12]
	flds	s13, [r3, #212]
	fmuls	s15, s15, s13
	fadds	s15, s14, s15
	fsts	s15, [sp, #220]
	.loc 4 180 0
	flds	s14, [sp, #204]
	flds	s15, [sp, #208]
	fadds	s15, s14, s15
	fsts	s15, [sp, #224]
	.loc 4 181 0
	flds	s15, [sp, #224]
	fcmpzs	s15
	fmstat
	bne	.L140
.L154:
	.loc 4 184 0
	flds	s15, .L157
	fsts	s15, [sp, #224]
.L140:
	.loc 4 186 0
	ldr	r3, [sp, #12]
	flds	s14, [r3, #208]
	flds	s15, [sp, #204]
	fmuls	s14, s14, s15
	ldr	r3, [sp, #12]
	flds	s13, [r3, #212]
	flds	s15, [sp, #208]
	fmuls	s15, s13, s15
	fadds	s15, s14, s15
	fsts	s15, [sp, #228]
	.loc 4 187 0
	flds	s14, [sp, #196]
	flds	s15, [sp, #200]
	fadds	s14, s14, s15
	ldr	r3, [sp, #12]
	flds	s13, [r3, #208]
	flds	s15, [sp, #204]
	fmuls	s15, s13, s15
	ldr	r3, [sp, #12]
	flds	s13, [r3, #208]
	fmuls	s15, s15, s13
	fadds	s14, s14, s15
	ldr	r3, [sp, #12]
	flds	s13, [r3, #212]
	flds	s15, [sp, #208]
	fmuls	s15, s13, s15
	ldr	r3, [sp, #12]
	flds	s13, [r3, #212]
	fmuls	s15, s15, s13
	fadds	s15, s14, s15
	fsts	s15, [sp, #232]
	.loc 4 189 0
	ldr	r3, [sp, #12]
	add	r3, r3, #216
	mov	r0, r3
	ldr	r1, [sp, #212]	@ float
	ldr	r2, [sp, #216]	@ float
	ldr	r3, [sp, #220]	@ float
	bl	_ZN6b2Vec33SetEfff
	.loc 4 190 0
	ldr	r3, [sp, #12]
	add	r3, r3, #228
	mov	r0, r3
	ldr	r1, [sp, #216]	@ float
	ldr	r2, [sp, #224]	@ float
	ldr	r3, [sp, #228]	@ float
	bl	_ZN6b2Vec33SetEfff
	.loc 4 191 0
	ldr	r3, [sp, #12]
	add	r3, r3, #240
	mov	r0, r3
	ldr	r1, [sp, #220]	@ float
	ldr	r2, [sp, #228]	@ float
	ldr	r3, [sp, #232]	@ float
	bl	_ZN6b2Vec33SetEfff
.LBE9:
	.loc 4 195 0
	ldr	r3, [sp, #12]
	ldrb	r3, [r3, #136]	@ zero_extendqisi2
	cmp	r3, #0
	beq	.L142
.LBB10:
	.loc 4 197 0
	ldr	r3, [sp, #12]
	add	r2, r3, #184
	add	r3, sp, #28
	mov	r0, r2
	mov	r1, r3
	bl	_Z5b2DotRK6b2Vec2S1_
	mov	r3, r0	@ float
	str	r3, [sp, #236]	@ float
	.loc 4 198 0
	ldr	r3, [sp, #12]
	flds	s14, [r3, #124]
	ldr	r3, [sp, #12]
	flds	s15, [r3, #120]
	fsubs	s15, s14, s15
	fmrs	r0, s15
	bl	_Z5b2AbsIfET_S0_
	fmsr	s14, r0
	flds	s15, .L157+4
	fcmpes	s14, s15
	fmstat
	movpl	r3, #0
	movmi	r3, #1
	and	r3, r3, #255
	cmp	r3, #0
	beq	.L143
	.loc 4 200 0
	ldr	r3, [sp, #12]
	mov	r2, #3
	str	r2, [r3, #140]
	.loc 4 221 0
	b	.L149
.L143:
	.loc 4 202 0
	ldr	r3, [sp, #12]
	flds	s14, [r3, #120]
	flds	s15, [sp, #236]
	fcmpes	s14, s15
	fmstat
	movlt	r3, #0
	movge	r3, #1
	and	r3, r3, #255
	cmp	r3, #0
	beq	.L145
	.loc 4 204 0
	ldr	r3, [sp, #12]
	ldr	r3, [r3, #140]
	cmp	r3, #1
	beq	.L155
	.loc 4 206 0
	ldr	r3, [sp, #12]
	mov	r2, #1
	str	r2, [r3, #140]
	.loc 4 207 0
	ldr	r3, [sp, #12]
	flds	s15, .L157+8
	fsts	s15, [r3, #112]
	.loc 4 221 0
	b	.L149
.L145:
	.loc 4 210 0
	ldr	r3, [sp, #12]
	flds	s14, [r3, #124]
	flds	s15, [sp, #236]
	fcmpes	s14, s15
	fmstat
	movhi	r3, #0
	movls	r3, #1
	and	r3, r3, #255
	cmp	r3, #0
	beq	.L147
	.loc 4 212 0
	ldr	r3, [sp, #12]
	ldr	r3, [r3, #140]
	cmp	r3, #2
	beq	.L156
	.loc 4 214 0
	ldr	r3, [sp, #12]
	mov	r2, #2
	str	r2, [r3, #140]
	.loc 4 215 0
	ldr	r3, [sp, #12]
	flds	s15, .L157+8
	fsts	s15, [r3, #112]
	.loc 4 221 0
	b	.L149
.L147:
	.loc 4 220 0
	ldr	r3, [sp, #12]
	mov	r2, #0
	str	r2, [r3, #140]
	.loc 4 221 0
	ldr	r3, [sp, #12]
	flds	s15, .L157+8
	fsts	s15, [r3, #112]
	b	.L149
.L142:
.LBE10:
	.loc 4 226 0
	ldr	r3, [sp, #12]
	mov	r2, #0
	str	r2, [r3, #140]
	.loc 4 227 0
	ldr	r3, [sp, #12]
	flds	s15, .L157+8
	fsts	s15, [r3, #112]
	b	.L149
.L155:
.LBB11:
	.loc 4 221 0
	mov	r0, r0	@ nop
	b	.L149
.L158:
	.align	2
.L157:
	.word	1065353216
	.word	1008981770
	.word	0
.L156:
	mov	r0, r0	@ nop
.L149:
.LBE11:
	.loc 4 230 0
	ldr	r3, [sp, #12]
	ldrb	r3, [r3, #137]	@ zero_extendqisi2
	eor	r3, r3, #1
	and	r3, r3, #255
	cmp	r3, #0
	beq	.L150
	.loc 4 232 0
	ldr	r3, [sp, #12]
	flds	s15, .L157+8
	fsts	s15, [r3, #116]
.L150:
	.loc 4 235 0
	ldr	r3, [sp, #8]
	ldrb	r3, [r3, #20]	@ zero_extendqisi2
	cmp	r3, #0
	beq	.L151
.LBB12:
	.loc 4 238 0
	ldr	r3, [sp, #12]
	add	r2, r3, #104
	ldr	r3, [sp, #8]
	ldr	r3, [r3, #8]	@ float
	mov	r0, r2
	mov	r1, r3	@ float
	bl	_ZN6b2Vec3mLEf
	.loc 4 239 0
	ldr	r3, [sp, #12]
	flds	s14, [r3, #116]
	ldr	r3, [sp, #8]
	flds	s15, [r3, #8]
	fmuls	s15, s14, s15
	ldr	r3, [sp, #12]
	fsts	s15, [r3, #116]
	.loc 4 241 0
	ldr	r3, [sp, #12]
	ldr	r2, [r3, #104]	@ float
	ldr	r3, [sp, #12]
	add	r3, r3, #192
	add	r1, sp, #148
	mov	r0, r1
	mov	r1, r2	@ float
	mov	r2, r3
	bl	_ZmlfRK6b2Vec2
	ldr	r3, [sp, #12]
	flds	s14, [r3, #116]
	ldr	r3, [sp, #12]
	flds	s15, [r3, #112]
	fadds	s15, s14, s15
	ldr	r3, [sp, #12]
	add	r3, r3, #184
	add	r2, sp, #156
	mov	r0, r2
	fmrs	r1, s15
	mov	r2, r3
	bl	_ZmlfRK6b2Vec2
	add	r1, sp, #20
	add	r2, sp, #148
	add	r3, sp, #156
	mov	r0, r1
	mov	r1, r2
	mov	r2, r3
	bl	_ZplRK6b2Vec2S1_
	.loc 4 242 0
	ldr	r3, [sp, #12]
	flds	s14, [r3, #104]
	ldr	r3, [sp, #12]
	flds	s15, [r3, #200]
	fmuls	s15, s14, s15
	ldr	r3, [sp, #12]
	flds	s14, [r3, #108]
	fadds	s14, s15, s14
	ldr	r3, [sp, #12]
	flds	s13, [r3, #116]
	ldr	r3, [sp, #12]
	flds	s15, [r3, #112]
	fadds	s13, s13, s15
	ldr	r3, [sp, #12]
	flds	s15, [r3, #208]
	fmuls	s15, s13, s15
	fadds	s15, s14, s15
	fsts	s15, [sp, #240]
	.loc 4 243 0
	ldr	r3, [sp, #12]
	flds	s14, [r3, #104]
	ldr	r3, [sp, #12]
	flds	s15, [r3, #204]
	fmuls	s15, s14, s15
	ldr	r3, [sp, #12]
	flds	s14, [r3, #108]
	fadds	s14, s15, s14
	ldr	r3, [sp, #12]
	flds	s13, [r3, #116]
	ldr	r3, [sp, #12]
	flds	s15, [r3, #112]
	fadds	s13, s13, s15
	ldr	r3, [sp, #12]
	flds	s15, [r3, #212]
	fmuls	s15, s13, s15
	fadds	s15, s14, s15
	fsts	s15, [sp, #244]
	.loc 4 245 0
	add	r2, sp, #164
	add	r3, sp, #20
	mov	r0, r2
	ldr	r1, [sp, #196]	@ float
	mov	r2, r3
	bl	_ZmlfRK6b2Vec2
	add	r2, sp, #84
	add	r3, sp, #164
	mov	r0, r2
	mov	r1, r3
	bl	_ZN6b2Vec2mIERKS_
	.loc 4 246 0
	flds	s14, [sp, #204]
	flds	s15, [sp, #240]
	fmuls	s15, s14, s15
	flds	s14, [sp, #184]
	fsubs	s15, s14, s15
	fsts	s15, [sp, #184]
	.loc 4 248 0
	add	r2, sp, #172
	add	r3, sp, #20
	mov	r0, r2
	ldr	r1, [sp, #200]	@ float
	mov	r2, r3
	bl	_ZmlfRK6b2Vec2
	add	r2, sp, #68
	add	r3, sp, #172
	mov	r0, r2
	mov	r1, r3
	bl	_ZN6b2Vec2pLERKS_
	.loc 4 249 0
	flds	s14, [sp, #208]
	flds	s15, [sp, #244]
	fmuls	s15, s14, s15
	flds	s14, [sp, #192]
	fadds	s15, s14, s15
	fsts	s15, [sp, #192]
	b	.L152
.L151:
.LBE12:
	.loc 4 253 0
	ldr	r3, [sp, #12]
	add	r3, r3, #104
	mov	r0, r3
	bl	_ZN6b2Vec37SetZeroEv
	.loc 4 254 0
	ldr	r3, [sp, #12]
	flds	s15, .L157+8
	fsts	s15, [r3, #116]
.L152:
	.loc 4 257 0
	ldr	r3, [sp, #8]
	ldr	r1, [r3, #28]
	ldr	r3, [sp, #12]
	ldr	r3, [r3, #144]
	mov	r2, r3
	mov	r3, r2
	mov	r3, r3, asl #1
	add	r3, r3, r2
	mov	r3, r3, asl #2
	add	r3, r1, r3
	add	r2, sp, #84
	ldmia	r2, {r0, r1}
	stmia	r3, {r0, r1}
	.loc 4 258 0
	ldr	r3, [sp, #8]
	ldr	r1, [r3, #28]
	ldr	r3, [sp, #12]
	ldr	r3, [r3, #144]
	mov	r2, r3
	mov	r3, r2
	mov	r3, r3, asl #1
	add	r3, r3, r2
	mov	r3, r3, asl #2
	add	r3, r1, r3
	flds	s15, [sp, #184]
	fsts	s15, [r3, #8]
	.loc 4 259 0
	ldr	r3, [sp, #8]
	ldr	r1, [r3, #28]
	ldr	r3, [sp, #12]
	ldr	r3, [r3, #148]
	mov	r2, r3
	mov	r3, r2
	mov	r3, r3, asl #1
	add	r3, r3, r2
	mov	r3, r3, asl #2
	add	r3, r1, r3
	add	r2, sp, #68
	ldmia	r2, {r0, r1}
	stmia	r3, {r0, r1}
	.loc 4 260 0
	ldr	r3, [sp, #8]
	ldr	r1, [r3, #28]
	ldr	r3, [sp, #12]
	ldr	r3, [r3, #148]
	mov	r2, r3
	mov	r3, r2
	mov	r3, r3, asl #1
	add	r3, r3, r2
	mov	r3, r3, asl #2
	add	r3, r1, r3
	flds	s15, [sp, #192]
	fsts	s15, [r3, #8]
.LBE8:
	.loc 4 261 0
	add	sp, sp, #248
	ldmfd	sp!, {r4, pc}
	.cfi_endproc
.LFE514:
	.size	_ZN16b2PrismaticJoint23InitVelocityConstraintsERK12b2SolverData, .-_ZN16b2PrismaticJoint23InitVelocityConstraintsERK12b2SolverData
	.section	.text._ZN16b2PrismaticJoint24SolveVelocityConstraintsERK12b2SolverData,"ax",%progbits
	.align	2
	.global	_ZN16b2PrismaticJoint24SolveVelocityConstraintsERK12b2SolverData
	.hidden	_ZN16b2PrismaticJoint24SolveVelocityConstraintsERK12b2SolverData
	.type	_ZN16b2PrismaticJoint24SolveVelocityConstraintsERK12b2SolverData, %function
_ZN16b2PrismaticJoint24SolveVelocityConstraintsERK12b2SolverData:
.LFB515:
	.loc 4 264 0
	.cfi_startproc
	@ args = 0, pretend = 0, frame = 352
	@ frame_needed = 0, uses_anonymous_args = 0
	stmfd	sp!, {r4, lr}
.LCFI77:
	.cfi_def_cfa_offset 8
	fstmfdd	sp!, {d8}
.LCFI78:
	.cfi_def_cfa_offset 16
	sub	sp, sp, #352
.LCFI79:
	.cfi_def_cfa_offset 368
	str	r0, [sp, #20]
	str	r1, [sp, #16]
.LBB13:
	.loc 4 265 0
	ldr	r3, [sp, #16]
	ldr	r1, [r3, #28]
	ldr	r3, [sp, #20]
	ldr	r3, [r3, #144]
	mov	r2, r3
	mov	r3, r2
	mov	r3, r3, asl #1
	add	r3, r3, r2
	mov	r3, r3, asl #2
	add	r2, r1, r3
	add	r3, sp, #128
	ldmia	r2, {r0, r1}
	stmia	r3, {r0, r1}
	.loc 4 266 0
	ldr	r3, [sp, #16]
	ldr	r1, [r3, #28]
	ldr	r3, [sp, #20]
	ldr	r3, [r3, #144]
	mov	r2, r3
	mov	r3, r2
	mov	r3, r3, asl #1
	add	r3, r3, r2
	mov	r3, r3, asl #2
	add	r3, r1, r3
	flds	s15, [r3, #8]
	fsts	s15, [sp, #284]
	.loc 4 267 0
	ldr	r3, [sp, #16]
	ldr	r1, [r3, #28]
	ldr	r3, [sp, #20]
	ldr	r3, [r3, #148]
	mov	r2, r3
	mov	r3, r2
	mov	r3, r3, asl #1
	add	r3, r3, r2
	mov	r3, r3, asl #2
	add	r2, r1, r3
	add	r3, sp, #120
	ldmia	r2, {r0, r1}
	stmia	r3, {r0, r1}
	.loc 4 268 0
	ldr	r3, [sp, #16]
	ldr	r1, [r3, #28]
	ldr	r3, [sp, #20]
	ldr	r3, [r3, #148]
	mov	r2, r3
	mov	r3, r2
	mov	r3, r3, asl #1
	add	r3, r3, r2
	mov	r3, r3, asl #2
	add	r3, r1, r3
	flds	s15, [r3, #8]
	fsts	s15, [sp, #288]
	.loc 4 270 0
	ldr	r3, [sp, #20]
	flds	s15, [r3, #168]
	fsts	s15, [sp, #292]
	ldr	r3, [sp, #20]
	flds	s15, [r3, #172]
	fsts	s15, [sp, #296]
	.loc 4 271 0
	ldr	r3, [sp, #20]
	flds	s15, [r3, #176]
	fsts	s15, [sp, #300]
	ldr	r3, [sp, #20]
	flds	s15, [r3, #180]
	fsts	s15, [sp, #304]
	.loc 4 274 0
	ldr	r3, [sp, #20]
	ldrb	r3, [r3, #137]	@ zero_extendqisi2
	cmp	r3, #0
	beq	.L160
	.cfi_offset 80, -16
	.cfi_offset 14, -4
	.cfi_offset 4, -8
	ldr	r3, [sp, #20]
	ldr	r3, [r3, #140]
	cmp	r3, #3
	beq	.L160
.LBB14:
	.loc 4 276 0
	ldr	r3, [sp, #20]
	add	r4, r3, #184
	add	r1, sp, #136
	add	r2, sp, #120
	add	r3, sp, #128
	mov	r0, r1
	mov	r1, r2
	mov	r2, r3
	bl	_ZmiRK6b2Vec2S1_
	add	r3, sp, #136
	mov	r0, r4
	mov	r1, r3
	bl	_Z5b2DotRK6b2Vec2S1_
	fmsr	s13, r0
	ldr	r3, [sp, #20]
	flds	s14, [r3, #212]
	flds	s15, [sp, #288]
	fmuls	s15, s14, s15
	fadds	s14, s13, s15
	ldr	r3, [sp, #20]
	flds	s13, [r3, #208]
	flds	s15, [sp, #284]
	fmuls	s15, s13, s15
	fsubs	s15, s14, s15
	fsts	s15, [sp, #308]
	.loc 4 277 0
	ldr	r3, [sp, #20]
	flds	s14, [r3, #252]
	ldr	r3, [sp, #20]
	flds	s13, [r3, #132]
	flds	s15, [sp, #308]
	fsubs	s15, s13, s15
	fmuls	s15, s14, s15
	fsts	s15, [sp, #312]
	.loc 4 278 0
	ldr	r3, [sp, #20]
	flds	s15, [r3, #116]
	fsts	s15, [sp, #316]
	.loc 4 279 0
	ldr	r3, [sp, #16]
	flds	s14, [r3, #0]
	ldr	r3, [sp, #20]
	flds	s15, [r3, #128]
	fmuls	s15, s14, s15
	fsts	s15, [sp, #320]
	.loc 4 280 0
	ldr	r3, [sp, #20]
	flds	s14, [r3, #116]
	flds	s15, [sp, #312]
	fadds	s14, s14, s15
	flds	s15, [sp, #320]
	fnegs	s15, s15
	fmrs	r0, s14
	fmrs	r1, s15
	ldr	r2, [sp, #320]	@ float
	bl	_Z7b2ClampIfET_S0_S0_S0_
	mov	r2, r0	@ float
	ldr	r3, [sp, #20]
	str	r2, [r3, #116]	@ float
	.loc 4 281 0
	ldr	r3, [sp, #20]
	flds	s14, [r3, #116]
	flds	s15, [sp, #316]
	fsubs	s15, s14, s15
	fsts	s15, [sp, #312]
	.loc 4 283 0
	ldr	r3, [sp, #20]
	add	r3, r3, #184
	add	r2, sp, #104
	mov	r0, r2
	ldr	r1, [sp, #312]	@ float
	mov	r2, r3
	bl	_ZmlfRK6b2Vec2
	.loc 4 284 0
	ldr	r3, [sp, #20]
	flds	s14, [r3, #208]
	flds	s15, [sp, #312]
	fmuls	s15, s14, s15
	fsts	s15, [sp, #324]
	.loc 4 285 0
	ldr	r3, [sp, #20]
	flds	s14, [r3, #212]
	flds	s15, [sp, #312]
	fmuls	s15, s14, s15
	fsts	s15, [sp, #328]
	.loc 4 287 0
	add	r2, sp, #144
	add	r3, sp, #104
	mov	r0, r2
	ldr	r1, [sp, #292]	@ float
	mov	r2, r3
	bl	_ZmlfRK6b2Vec2
	add	r2, sp, #128
	add	r3, sp, #144
	mov	r0, r2
	mov	r1, r3
	bl	_ZN6b2Vec2mIERKS_
	.loc 4 288 0
	flds	s14, [sp, #300]
	flds	s15, [sp, #324]
	fmuls	s15, s14, s15
	flds	s14, [sp, #284]
	fsubs	s15, s14, s15
	fsts	s15, [sp, #284]
	.loc 4 290 0
	add	r2, sp, #152
	add	r3, sp, #104
	mov	r0, r2
	ldr	r1, [sp, #296]	@ float
	mov	r2, r3
	bl	_ZmlfRK6b2Vec2
	add	r2, sp, #120
	add	r3, sp, #152
	mov	r0, r2
	mov	r1, r3
	bl	_ZN6b2Vec2pLERKS_
	.loc 4 291 0
	flds	s14, [sp, #304]
	flds	s15, [sp, #328]
	fmuls	s15, s14, s15
	flds	s14, [sp, #288]
	fadds	s15, s14, s15
	fsts	s15, [sp, #288]
.L160:
.LBE14:
	.loc 4 294 0
	add	r3, sp, #112
	mov	r0, r3
	bl	_ZN6b2Vec2C1Ev
	.loc 4 295 0
	ldr	r3, [sp, #20]
	add	r4, r3, #192
	add	r1, sp, #160
	add	r2, sp, #120
	add	r3, sp, #128
	mov	r0, r1
	mov	r1, r2
	mov	r2, r3
	bl	_ZmiRK6b2Vec2S1_
	add	r3, sp, #160
	mov	r0, r4
	mov	r1, r3
	bl	_Z5b2DotRK6b2Vec2S1_
	fmsr	s13, r0
	ldr	r3, [sp, #20]
	flds	s14, [r3, #204]
	flds	s15, [sp, #288]
	fmuls	s15, s14, s15
	fadds	s14, s13, s15
	ldr	r3, [sp, #20]
	flds	s13, [r3, #200]
	flds	s15, [sp, #284]
	fmuls	s15, s13, s15
	fsubs	s15, s14, s15
	fsts	s15, [sp, #112]
	.loc 4 296 0
	flds	s14, [sp, #288]
	flds	s15, [sp, #284]
	fsubs	s15, s14, s15
	fsts	s15, [sp, #116]
	.loc 4 298 0
	ldr	r3, [sp, #20]
	ldrb	r3, [r3, #136]	@ zero_extendqisi2
	cmp	r3, #0
	beq	.L161
	ldr	r3, [sp, #20]
	ldr	r3, [r3, #140]
	cmp	r3, #0
	beq	.L161
.LBB15:
	.loc 4 302 0
	ldr	r3, [sp, #20]
	add	r4, r3, #184
	add	r1, sp, #168
	add	r2, sp, #120
	add	r3, sp, #128
	mov	r0, r1
	mov	r1, r2
	mov	r2, r3
	bl	_ZmiRK6b2Vec2S1_
	add	r3, sp, #168
	mov	r0, r4
	mov	r1, r3
	bl	_Z5b2DotRK6b2Vec2S1_
	fmsr	s13, r0
	ldr	r3, [sp, #20]
	flds	s14, [r3, #212]
	flds	s15, [sp, #288]
	fmuls	s15, s14, s15
	fadds	s14, s13, s15
	ldr	r3, [sp, #20]
	flds	s13, [r3, #208]
	flds	s15, [sp, #284]
	fmuls	s15, s13, s15
	fsubs	s15, s14, s15
	fsts	s15, [sp, #332]
	.loc 4 303 0
	ldr	r2, [sp, #112]	@ float
	ldr	r3, [sp, #116]	@ float
	add	r1, sp, #92
	mov	r0, r1
	mov	r1, r2	@ float
	mov	r2, r3	@ float
	ldr	r3, [sp, #332]	@ float
	bl	_ZN6b2Vec3C1Efff
	.loc 4 305 0
	ldr	r2, [sp, #20]
	add	r3, sp, #80
	add	r2, r2, #104
	ldmia	r2, {r0, r1, r2}
	stmia	r3, {r0, r1, r2}
	.loc 4 306 0
	ldr	r3, [sp, #20]
	add	r4, r3, #216
	add	r2, sp, #176
	add	r3, sp, #92
	mov	r0, r2
	mov	r1, r3
	bl	_ZNK6b2Vec3ngEv
	add	r2, sp, #68
	add	r3, sp, #176
	mov	r0, r2
	mov	r1, r4
	mov	r2, r3
	bl	_ZNK7b2Mat337Solve33ERK6b2Vec3
	.loc 4 307 0
	ldr	r3, [sp, #20]
	add	r2, r3, #104
	add	r3, sp, #68
	mov	r0, r2
	mov	r1, r3
	bl	_ZN6b2Vec3pLERKS_
	.loc 4 309 0
	ldr	r3, [sp, #20]
	ldr	r3, [r3, #140]
	cmp	r3, #1
	bne	.L162
	.loc 4 311 0
	ldr	r3, [sp, #20]
	ldr	r3, [r3, #112]	@ float
	mov	r0, r3	@ float
	ldr	r1, .L166	@ float
	bl	_Z5b2MaxIfET_S0_S0_
	mov	r2, r0	@ float
	ldr	r3, [sp, #20]
	str	r2, [r3, #112]	@ float
	b	.L163
.L162:
	.loc 4 313 0
	ldr	r3, [sp, #20]
	ldr	r3, [r3, #140]
	cmp	r3, #2
	bne	.L163
	.loc 4 315 0
	ldr	r3, [sp, #20]
	ldr	r3, [r3, #112]	@ float
	mov	r0, r3	@ float
	ldr	r1, .L166	@ float
	bl	_Z5b2MinIfET_S0_S0_
	mov	r2, r0	@ float
	ldr	r3, [sp, #20]
	str	r2, [r3, #112]	@ float
.L163:
	.loc 4 319 0
	add	r2, sp, #188
	add	r3, sp, #112
	mov	r0, r2
	mov	r1, r3
	bl	_ZNK6b2Vec2ngEv
	ldr	r3, [sp, #20]
	flds	s14, [r3, #112]
	flds	s15, [sp, #88]
	fsubs	s16, s14, s15
	ldr	r3, [sp, #20]
	ldr	r2, [r3, #240]	@ float
	ldr	r3, [sp, #20]
	ldr	r3, [r3, #244]	@ float
	add	r1, sp, #204
	mov	r0, r1
	mov	r1, r2	@ float
	mov	r2, r3	@ float
	bl	_ZN6b2Vec2C1Eff
	add	r2, sp, #196
	add	r3, sp, #204
	mov	r0, r2
	fmrs	r1, s16
	mov	r2, r3
	bl	_ZmlfRK6b2Vec2
	add	r1, sp, #60
	add	r2, sp, #188
	add	r3, sp, #196
	mov	r0, r1
	mov	r1, r2
	mov	r2, r3
	bl	_ZmiRK6b2Vec2S1_
	.loc 4 320 0
	ldr	r3, [sp, #20]
	add	r2, r3, #216
	add	r1, sp, #212
	add	r3, sp, #60
	mov	r0, r1
	mov	r1, r2
	mov	r2, r3
	bl	_ZNK7b2Mat337Solve22ERK6b2Vec2
	ldr	r2, [sp, #80]	@ float
	ldr	r3, [sp, #84]	@ float
	add	r1, sp, #220
	mov	r0, r1
	mov	r1, r2	@ float
	mov	r2, r3	@ float
	bl	_ZN6b2Vec2C1Eff
	add	r1, sp, #52
	add	r2, sp, #212
	add	r3, sp, #220
	mov	r0, r1
	mov	r1, r2
	mov	r2, r3
	bl	_ZplRK6b2Vec2S1_
	.loc 4 321 0
	flds	s15, [sp, #52]
	ldr	r3, [sp, #20]
	fsts	s15, [r3, #104]
	.loc 4 322 0
	flds	s15, [sp, #56]
	ldr	r3, [sp, #20]
	fsts	s15, [r3, #108]
	.loc 4 324 0
	ldr	r3, [sp, #20]
	add	r2, r3, #104
	mov	r1, sp
	add	r3, sp, #80
	mov	r0, r1
	mov	r1, r2
	mov	r2, r3
	bl	_ZmiRK6b2Vec3S1_
	add	r3, sp, #68
	mov	r2, sp
	ldmia	r2, {r0, r1, r2}
	stmia	r3, {r0, r1, r2}
	.loc 4 326 0
	ldr	r2, [sp, #68]	@ float
	ldr	r3, [sp, #20]
	add	r3, r3, #192
	add	r1, sp, #228
	mov	r0, r1
	mov	r1, r2	@ float
	mov	r2, r3
	bl	_ZmlfRK6b2Vec2
	ldr	r2, [sp, #76]	@ float
	ldr	r3, [sp, #20]
	add	r3, r3, #184
	add	r1, sp, #236
	mov	r0, r1
	mov	r1, r2	@ float
	mov	r2, r3
	bl	_ZmlfRK6b2Vec2
	add	r1, sp, #44
	add	r2, sp, #228
	add	r3, sp, #236
	mov	r0, r1
	mov	r1, r2
	mov	r2, r3
	bl	_ZplRK6b2Vec2S1_
	.loc 4 327 0
	flds	s14, [sp, #68]
	ldr	r3, [sp, #20]
	flds	s15, [r3, #200]
	fmuls	s15, s14, s15
	flds	s14, [sp, #72]
	fadds	s14, s15, s14
	flds	s13, [sp, #76]
	ldr	r3, [sp, #20]
	flds	s15, [r3, #208]
	fmuls	s15, s13, s15
	fadds	s15, s14, s15
	fsts	s15, [sp, #336]
	.loc 4 328 0
	flds	s14, [sp, #68]
	ldr	r3, [sp, #20]
	flds	s15, [r3, #204]
	fmuls	s15, s14, s15
	flds	s14, [sp, #72]
	fadds	s14, s15, s14
	flds	s13, [sp, #76]
	ldr	r3, [sp, #20]
	flds	s15, [r3, #212]
	fmuls	s15, s13, s15
	fadds	s15, s14, s15
	fsts	s15, [sp, #340]
	.loc 4 330 0
	add	r2, sp, #244
	add	r3, sp, #44
	mov	r0, r2
	ldr	r1, [sp, #292]	@ float
	mov	r2, r3
	bl	_ZmlfRK6b2Vec2
	add	r2, sp, #128
	add	r3, sp, #244
	mov	r0, r2
	mov	r1, r3
	bl	_ZN6b2Vec2mIERKS_
	.loc 4 331 0
	flds	s14, [sp, #300]
	flds	s15, [sp, #336]
	fmuls	s15, s14, s15
	flds	s14, [sp, #284]
	fsubs	s15, s14, s15
	fsts	s15, [sp, #284]
	.loc 4 333 0
	add	r2, sp, #252
	add	r3, sp, #44
	mov	r0, r2
	ldr	r1, [sp, #296]	@ float
	mov	r2, r3
	bl	_ZmlfRK6b2Vec2
	add	r2, sp, #120
	add	r3, sp, #252
	mov	r0, r2
	mov	r1, r3
	bl	_ZN6b2Vec2pLERKS_
	.loc 4 334 0
	flds	s14, [sp, #304]
	flds	s15, [sp, #340]
	fmuls	s15, s14, s15
	flds	s14, [sp, #288]
	fadds	s15, s14, s15
	fsts	s15, [sp, #288]
.LBE15:
	.loc 4 298 0
	b	.L164
.L161:
.LBB16:
	.loc 4 339 0
	ldr	r3, [sp, #20]
	add	r4, r3, #216
	add	r2, sp, #260
	add	r3, sp, #112
	mov	r0, r2
	mov	r1, r3
	bl	_ZNK6b2Vec2ngEv
	add	r2, sp, #36
	add	r3, sp, #260
	mov	r0, r2
	mov	r1, r4
	mov	r2, r3
	bl	_ZNK7b2Mat337Solve22ERK6b2Vec2
	.loc 4 340 0
	ldr	r3, [sp, #20]
	flds	s14, [r3, #104]
	flds	s15, [sp, #36]
	fadds	s15, s14, s15
	ldr	r3, [sp, #20]
	fsts	s15, [r3, #104]
	.loc 4 341 0
	ldr	r3, [sp, #20]
	flds	s14, [r3, #108]
	flds	s15, [sp, #40]
	fadds	s15, s14, s15
	ldr	r3, [sp, #20]
	fsts	s15, [r3, #108]
	.loc 4 343 0
	ldr	r2, [sp, #36]	@ float
	ldr	r3, [sp, #20]
	add	r3, r3, #192
	add	r1, sp, #28
	mov	r0, r1
	mov	r1, r2	@ float
	mov	r2, r3
	bl	_ZmlfRK6b2Vec2
	.loc 4 344 0
	flds	s14, [sp, #36]
	ldr	r3, [sp, #20]
	flds	s15, [r3, #200]
	fmuls	s15, s14, s15
	flds	s14, [sp, #40]
	fadds	s15, s15, s14
	fsts	s15, [sp, #344]
	.loc 4 345 0
	flds	s14, [sp, #36]
	ldr	r3, [sp, #20]
	flds	s15, [r3, #204]
	fmuls	s15, s14, s15
	flds	s14, [sp, #40]
	fadds	s15, s15, s14
	fsts	s15, [sp, #348]
	.loc 4 347 0
	add	r2, sp, #268
	add	r3, sp, #28
	mov	r0, r2
	ldr	r1, [sp, #292]	@ float
	mov	r2, r3
	bl	_ZmlfRK6b2Vec2
	add	r2, sp, #128
	add	r3, sp, #268
	mov	r0, r2
	mov	r1, r3
	bl	_ZN6b2Vec2mIERKS_
	.loc 4 348 0
	flds	s14, [sp, #300]
	flds	s15, [sp, #344]
	fmuls	s15, s14, s15
	flds	s14, [sp, #284]
	fsubs	s15, s14, s15
	fsts	s15, [sp, #284]
	.loc 4 350 0
	add	r2, sp, #276
	add	r3, sp, #28
	mov	r0, r2
	ldr	r1, [sp, #296]	@ float
	mov	r2, r3
	bl	_ZmlfRK6b2Vec2
	add	r2, sp, #120
	add	r3, sp, #276
	mov	r0, r2
	mov	r1, r3
	bl	_ZN6b2Vec2pLERKS_
	.loc 4 351 0
	flds	s14, [sp, #304]
	flds	s15, [sp, #348]
	fmuls	s15, s14, s15
	flds	s14, [sp, #288]
	fadds	s15, s14, s15
	fsts	s15, [sp, #288]
.L164:
.LBE16:
	.loc 4 354 0
	ldr	r3, [sp, #16]
	ldr	r1, [r3, #28]
	ldr	r3, [sp, #20]
	ldr	r3, [r3, #144]
	mov	r2, r3
	mov	r3, r2
	mov	r3, r3, asl #1
	add	r3, r3, r2
	mov	r3, r3, asl #2
	add	r3, r1, r3
	add	r2, sp, #128
	ldmia	r2, {r0, r1}
	stmia	r3, {r0, r1}
	.loc 4 355 0
	ldr	r3, [sp, #16]
	ldr	r1, [r3, #28]
	ldr	r3, [sp, #20]
	ldr	r3, [r3, #144]
	mov	r2, r3
	mov	r3, r2
	mov	r3, r3, asl #1
	add	r3, r3, r2
	mov	r3, r3, asl #2
	add	r3, r1, r3
	flds	s15, [sp, #284]
	fsts	s15, [r3, #8]
	.loc 4 356 0
	ldr	r3, [sp, #16]
	ldr	r1, [r3, #28]
	ldr	r3, [sp, #20]
	ldr	r3, [r3, #148]
	mov	r2, r3
	mov	r3, r2
	mov	r3, r3, asl #1
	add	r3, r3, r2
	mov	r3, r3, asl #2
	add	r3, r1, r3
	add	r2, sp, #120
	ldmia	r2, {r0, r1}
	stmia	r3, {r0, r1}
	.loc 4 357 0
	ldr	r3, [sp, #16]
	ldr	r1, [r3, #28]
	ldr	r3, [sp, #20]
	ldr	r3, [r3, #148]
	mov	r2, r3
	mov	r3, r2
	mov	r3, r3, asl #1
	add	r3, r3, r2
	mov	r3, r3, asl #2
	add	r3, r1, r3
	flds	s15, [sp, #288]
	fsts	s15, [r3, #8]
.LBE13:
	.loc 4 358 0
	add	sp, sp, #352
	fldmfdd	sp!, {d8}
	ldmfd	sp!, {r4, pc}
.L167:
	.align	2
.L166:
	.word	0
	.cfi_endproc
.LFE515:
	.size	_ZN16b2PrismaticJoint24SolveVelocityConstraintsERK12b2SolverData, .-_ZN16b2PrismaticJoint24SolveVelocityConstraintsERK12b2SolverData
	.section	.text._ZN16b2PrismaticJoint24SolvePositionConstraintsERK12b2SolverData,"ax",%progbits
	.align	2
	.global	_ZN16b2PrismaticJoint24SolvePositionConstraintsERK12b2SolverData
	.hidden	_ZN16b2PrismaticJoint24SolvePositionConstraintsERK12b2SolverData
	.type	_ZN16b2PrismaticJoint24SolvePositionConstraintsERK12b2SolverData, %function
_ZN16b2PrismaticJoint24SolvePositionConstraintsERK12b2SolverData:
.LFB516:
	.loc 4 361 0
	.cfi_startproc
	@ args = 0, pretend = 0, frame = 400
	@ frame_needed = 0, uses_anonymous_args = 0
	str	lr, [sp, #-4]!
.LCFI80:
	.cfi_def_cfa_offset 4
	sub	sp, sp, #404
.LCFI81:
	.cfi_def_cfa_offset 408
	str	r0, [sp, #20]
	str	r1, [sp, #16]
.LBB17:
	.loc 4 362 0
	ldr	r3, [sp, #16]
	ldr	r1, [r3, #24]
	ldr	r3, [sp, #20]
	ldr	r3, [r3, #144]
	mov	r2, r3
	mov	r3, r2
	mov	r3, r3, asl #1
	add	r3, r3, r2
	mov	r3, r3, asl #2
	add	r2, r1, r3
	add	r3, sp, #188
	ldmia	r2, {r0, r1}
	stmia	r3, {r0, r1}
	.loc 4 363 0
	ldr	r3, [sp, #16]
	ldr	r1, [r3, #24]
	ldr	r3, [sp, #20]
	ldr	r3, [r3, #144]
	mov	r2, r3
	mov	r3, r2
	mov	r3, r3, asl #1
	add	r3, r3, r2
	mov	r3, r3, asl #2
	add	r3, r1, r3
	flds	s15, [r3, #8]
	fsts	s15, [sp, #296]
	.loc 4 364 0
	ldr	r3, [sp, #16]
	ldr	r1, [r3, #24]
	ldr	r3, [sp, #20]
	ldr	r3, [r3, #148]
	mov	r2, r3
	mov	r3, r2
	mov	r3, r3, asl #1
	add	r3, r3, r2
	mov	r3, r3, asl #2
	add	r2, r1, r3
	add	r3, sp, #180
	ldmia	r2, {r0, r1}
	stmia	r3, {r0, r1}
	.loc 4 365 0
	ldr	r3, [sp, #16]
	ldr	r1, [r3, #24]
	ldr	r3, [sp, #20]
	ldr	r3, [r3, #148]
	mov	r2, r3
	mov	r3, r2
	mov	r3, r3, asl #1
	add	r3, r3, r2
	mov	r3, r3, asl #2
	add	r3, r1, r3
	flds	s15, [r3, #8]
	fsts	s15, [sp, #300]
	.loc 4 367 0
	add	r3, sp, #172
	mov	r0, r3
	ldr	r1, [sp, #296]	@ float
	.cfi_offset 14, -4
	bl	_ZN5b2RotC1Ef
	add	r3, sp, #164
	mov	r0, r3
	ldr	r1, [sp, #300]	@ float
	bl	_ZN5b2RotC1Ef
	.loc 4 369 0
	ldr	r3, [sp, #20]
	flds	s15, [r3, #168]
	fsts	s15, [sp, #304]
	ldr	r3, [sp, #20]
	flds	s15, [r3, #172]
	fsts	s15, [sp, #308]
	.loc 4 370 0
	ldr	r3, [sp, #20]
	flds	s15, [r3, #176]
	fsts	s15, [sp, #312]
	ldr	r3, [sp, #20]
	flds	s15, [r3, #180]
	fsts	s15, [sp, #316]
	.loc 4 373 0
	ldr	r3, [sp, #20]
	add	r2, r3, #68
	ldr	r3, [sp, #20]
	add	r3, r3, #152
	add	r1, sp, #196
	mov	r0, r1
	mov	r1, r2
	mov	r2, r3
	bl	_ZmiRK6b2Vec2S1_
	add	r1, sp, #156
	add	r2, sp, #172
	add	r3, sp, #196
	mov	r0, r1
	mov	r1, r2
	mov	r2, r3
	bl	_Z5b2MulRK5b2RotRK6b2Vec2
	.loc 4 374 0
	ldr	r3, [sp, #20]
	add	r2, r3, #76
	ldr	r3, [sp, #20]
	add	r3, r3, #160
	add	r1, sp, #204
	mov	r0, r1
	mov	r1, r2
	mov	r2, r3
	bl	_ZmiRK6b2Vec2S1_
	add	r1, sp, #148
	add	r2, sp, #164
	add	r3, sp, #204
	mov	r0, r1
	mov	r1, r2
	mov	r2, r3
	bl	_Z5b2MulRK5b2RotRK6b2Vec2
	.loc 4 375 0
	add	r1, sp, #220
	add	r2, sp, #180
	add	r3, sp, #148
	mov	r0, r1
	mov	r1, r2
	mov	r2, r3
	bl	_ZplRK6b2Vec2S1_
	add	r1, sp, #212
	add	r2, sp, #220
	add	r3, sp, #188
	mov	r0, r1
	mov	r1, r2
	mov	r2, r3
	bl	_ZmiRK6b2Vec2S1_
	add	r1, sp, #140
	add	r2, sp, #212
	add	r3, sp, #156
	mov	r0, r1
	mov	r1, r2
	mov	r2, r3
	bl	_ZmiRK6b2Vec2S1_
	.loc 4 377 0
	ldr	r3, [sp, #20]
	add	r3, r3, #84
	add	r1, sp, #132
	add	r2, sp, #172
	mov	r0, r1
	mov	r1, r2
	mov	r2, r3
	bl	_Z5b2MulRK5b2RotRK6b2Vec2
	.loc 4 378 0
	add	r1, sp, #228
	add	r2, sp, #140
	add	r3, sp, #156
	mov	r0, r1
	mov	r1, r2
	mov	r2, r3
	bl	_ZplRK6b2Vec2S1_
	add	r2, sp, #228
	add	r3, sp, #132
	mov	r0, r2
	mov	r1, r3
	bl	_Z7b2CrossRK6b2Vec2S1_
	mov	r3, r0	@ float
	str	r3, [sp, #320]	@ float
	.loc 4 379 0
	add	r2, sp, #148
	add	r3, sp, #132
	mov	r0, r2
	mov	r1, r3
	bl	_Z7b2CrossRK6b2Vec2S1_
	mov	r3, r0	@ float
	str	r3, [sp, #324]	@ float
	.loc 4 380 0
	ldr	r3, [sp, #20]
	add	r3, r3, #92
	add	r1, sp, #124
	add	r2, sp, #172
	mov	r0, r1
	mov	r1, r2
	mov	r2, r3
	bl	_Z5b2MulRK5b2RotRK6b2Vec2
	.loc 4 382 0
	add	r1, sp, #236
	add	r2, sp, #140
	add	r3, sp, #156
	mov	r0, r1
	mov	r1, r2
	mov	r2, r3
	bl	_ZplRK6b2Vec2S1_
	add	r2, sp, #236
	add	r3, sp, #124
	mov	r0, r2
	mov	r1, r3
	bl	_Z7b2CrossRK6b2Vec2S1_
	mov	r3, r0	@ float
	str	r3, [sp, #328]	@ float
	.loc 4 383 0
	add	r2, sp, #148
	add	r3, sp, #124
	mov	r0, r2
	mov	r1, r3
	bl	_Z7b2CrossRK6b2Vec2S1_
	mov	r3, r0	@ float
	str	r3, [sp, #332]	@ float
	.loc 4 385 0
	add	r3, sp, #112
	mov	r0, r3
	bl	_ZN6b2Vec3C1Ev
	.loc 4 386 0
	add	r3, sp, #104
	mov	r0, r3
	bl	_ZN6b2Vec2C1Ev
	.loc 4 387 0
	add	r2, sp, #124
	add	r3, sp, #140
	mov	r0, r2
	mov	r1, r3
	bl	_Z5b2DotRK6b2Vec2S1_
	mov	r3, r0	@ float
	str	r3, [sp, #104]	@ float
	.loc 4 388 0
	flds	s14, [sp, #300]
	flds	s15, [sp, #296]
	fsubs	s14, s14, s15
	ldr	r3, [sp, #20]
	flds	s15, [r3, #100]
	fsubs	s15, s14, s15
	fsts	s15, [sp, #108]
	.loc 4 390 0
	ldr	r3, [sp, #104]	@ float
	mov	r0, r3	@ float
	bl	_Z5b2AbsIfET_S0_
	mov	r3, r0	@ float
	str	r3, [sp, #336]	@ float
	.loc 4 391 0
	ldr	r3, [sp, #108]	@ float
	mov	r0, r3	@ float
	bl	_Z5b2AbsIfET_S0_
	mov	r3, r0	@ float
	str	r3, [sp, #340]	@ float
	.loc 4 393 0
	mov	r3, #0
	strb	r3, [sp, #347]
	.loc 4 394 0
	flds	s15, .L183+16
	fsts	s15, [sp, #348]
	.loc 4 395 0
	ldr	r3, [sp, #20]
	ldrb	r3, [r3, #136]	@ zero_extendqisi2
	cmp	r3, #0
	beq	.L169
.LBB18:
	.loc 4 397 0
	add	r2, sp, #132
	add	r3, sp, #140
	mov	r0, r2
	mov	r1, r3
	bl	_Z5b2DotRK6b2Vec2S1_
	mov	r3, r0	@ float
	str	r3, [sp, #360]	@ float
	.loc 4 398 0
	ldr	r3, [sp, #20]
	flds	s14, [r3, #124]
	ldr	r3, [sp, #20]
	flds	s15, [r3, #120]
	fsubs	s15, s14, s15
	fmrs	r0, s15
	bl	_Z5b2AbsIfET_S0_
	fmsr	s14, r0
	flds	s15, .L183
	fcmpes	s14, s15
	fmstat
	movpl	r3, #0
	movmi	r3, #1
	and	r3, r3, #255
	cmp	r3, #0
	beq	.L170
	.loc 4 401 0
	ldr	r0, [sp, #360]	@ float
	ldr	r1, .L183+4	@ float
	ldr	r2, .L183+8	@ float
	bl	_Z7b2ClampIfET_S0_S0_S0_
	mov	r3, r0	@ float
	str	r3, [sp, #348]	@ float
	.loc 4 402 0
	ldr	r0, [sp, #360]	@ float
	bl	_Z5b2AbsIfET_S0_
	mov	r3, r0	@ float
	ldr	r0, [sp, #336]	@ float
	mov	r1, r3	@ float
	bl	_Z5b2MaxIfET_S0_S0_
	mov	r3, r0	@ float
	str	r3, [sp, #336]	@ float
	.loc 4 403 0
	mov	r3, #1
	strb	r3, [sp, #347]
	b	.L169
.L170:
	.loc 4 405 0
	ldr	r3, [sp, #20]
	flds	s14, [r3, #120]
	flds	s15, [sp, #360]
	fcmpes	s14, s15
	fmstat
	movlt	r3, #0
	movge	r3, #1
	and	r3, r3, #255
	cmp	r3, #0
	beq	.L171
	.loc 4 408 0
	ldr	r3, [sp, #20]
	flds	s15, [r3, #120]
	flds	s14, [sp, #360]
	fsubs	s14, s14, s15
	flds	s15, .L183+20
	fadds	s15, s14, s15
	fmrs	r0, s15
	ldr	r1, .L183+4	@ float
	ldr	r2, .L183+16	@ float
	bl	_Z7b2ClampIfET_S0_S0_S0_
	mov	r3, r0	@ float
	str	r3, [sp, #348]	@ float
	.loc 4 409 0
	ldr	r3, [sp, #20]
	flds	s14, [r3, #120]
	flds	s15, [sp, #360]
	fsubs	s15, s14, s15
	ldr	r0, [sp, #336]	@ float
	fmrs	r1, s15
	bl	_Z5b2MaxIfET_S0_S0_
	mov	r3, r0	@ float
	str	r3, [sp, #336]	@ float
	.loc 4 410 0
	mov	r3, #1
	strb	r3, [sp, #347]
	b	.L169
.L171:
	.loc 4 412 0
	ldr	r3, [sp, #20]
	flds	s14, [r3, #124]
	flds	s15, [sp, #360]
	fcmpes	s14, s15
	fmstat
	movhi	r3, #0
	movls	r3, #1
	and	r3, r3, #255
	cmp	r3, #0
	beq	.L169
	.loc 4 415 0
	ldr	r3, [sp, #20]
	flds	s15, [r3, #124]
	flds	s14, [sp, #360]
	fsubs	s14, s14, s15
	flds	s15, .L183+20
	fsubs	s15, s14, s15
	fmrs	r0, s15
	ldr	r1, .L183+16	@ float
	ldr	r2, .L183+8	@ float
	bl	_Z7b2ClampIfET_S0_S0_S0_
	mov	r3, r0	@ float
	str	r3, [sp, #348]	@ float
	.loc 4 416 0
	ldr	r3, [sp, #20]
	flds	s15, [r3, #124]
	flds	s14, [sp, #360]
	fsubs	s15, s14, s15
	ldr	r0, [sp, #336]	@ float
	fmrs	r1, s15
	bl	_Z5b2MaxIfET_S0_S0_
	mov	r3, r0	@ float
	str	r3, [sp, #336]	@ float
	.loc 4 417 0
	mov	r3, #1
	strb	r3, [sp, #347]
.L169:
.LBE18:
	.loc 4 421 0
	ldrb	r3, [sp, #347]	@ zero_extendqisi2
	cmp	r3, #0
	beq	.L172
.LBB19:
	.loc 4 423 0
	flds	s14, [sp, #304]
	flds	s15, [sp, #308]
	fadds	s14, s14, s15
	flds	s13, [sp, #312]
	flds	s15, [sp, #328]
	fmuls	s15, s13, s15
	flds	s13, [sp, #328]
	fmuls	s15, s15, s13
	fadds	s14, s14, s15
	flds	s13, [sp, #316]
	flds	s15, [sp, #332]
	fmuls	s15, s13, s15
	flds	s13, [sp, #332]
	fmuls	s15, s15, s13
	fadds	s15, s14, s15
	fsts	s15, [sp, #364]
	.loc 4 424 0
	flds	s14, [sp, #312]
	flds	s15, [sp, #328]
	fmuls	s14, s14, s15
	flds	s13, [sp, #316]
	flds	s15, [sp, #332]
	fmuls	s15, s13, s15
	fadds	s15, s14, s15
	fsts	s15, [sp, #368]
	.loc 4 425 0
	flds	s14, [sp, #312]
	flds	s15, [sp, #328]
	fmuls	s15, s14, s15
	flds	s14, [sp, #320]
	fmuls	s14, s15, s14
	flds	s13, [sp, #316]
	flds	s15, [sp, #332]
	fmuls	s15, s13, s15
	flds	s13, [sp, #324]
	fmuls	s15, s15, s13
	fadds	s15, s14, s15
	fsts	s15, [sp, #372]
	.loc 4 426 0
	flds	s14, [sp, #312]
	flds	s15, [sp, #316]
	fadds	s15, s14, s15
	fsts	s15, [sp, #376]
	.loc 4 427 0
	flds	s15, [sp, #376]
	fcmpzs	s15
	fmstat
	bne	.L173
.L181:
	.loc 4 430 0
	flds	s15, .L183+12
	fsts	s15, [sp, #376]
.L173:
	.loc 4 432 0
	flds	s14, [sp, #312]
	flds	s15, [sp, #320]
	fmuls	s14, s14, s15
	flds	s13, [sp, #316]
	flds	s15, [sp, #324]
	fmuls	s15, s13, s15
	fadds	s15, s14, s15
	fsts	s15, [sp, #380]
	.loc 4 433 0
	flds	s14, [sp, #304]
	flds	s15, [sp, #308]
	fadds	s14, s14, s15
	flds	s13, [sp, #312]
	flds	s15, [sp, #320]
	fmuls	s15, s13, s15
	flds	s13, [sp, #320]
	fmuls	s15, s15, s13
	fadds	s14, s14, s15
	flds	s13, [sp, #316]
	flds	s15, [sp, #324]
	fmuls	s15, s13, s15
	flds	s13, [sp, #324]
	fmuls	s15, s15, s13
	fadds	s15, s14, s15
	fsts	s15, [sp, #384]
	.loc 4 435 0
	add	r3, sp, #24
	mov	r0, r3
	bl	_ZN7b2Mat33C1Ev
	.loc 4 436 0
	add	r3, sp, #24
	mov	r0, r3
	ldr	r1, [sp, #364]	@ float
	ldr	r2, [sp, #368]	@ float
	ldr	r3, [sp, #372]	@ float
	bl	_ZN6b2Vec33SetEfff
	.loc 4 437 0
	add	r3, sp, #24
	add	r3, r3, #12
	mov	r0, r3
	ldr	r1, [sp, #368]	@ float
	ldr	r2, [sp, #376]	@ float
	ldr	r3, [sp, #380]	@ float
	bl	_ZN6b2Vec33SetEfff
	.loc 4 438 0
	add	r3, sp, #24
	add	r3, r3, #24
	mov	r0, r3
	ldr	r1, [sp, #372]	@ float
	ldr	r2, [sp, #380]	@ float
	ldr	r3, [sp, #384]	@ float
	bl	_ZN6b2Vec33SetEfff
	.loc 4 440 0
	add	r3, sp, #84
	mov	r0, r3
	bl	_ZN6b2Vec3C1Ev
	.loc 4 441 0
	flds	s15, [sp, #104]
	fsts	s15, [sp, #84]
	.loc 4 442 0
	flds	s15, [sp, #108]
	fsts	s15, [sp, #88]
	.loc 4 443 0
	flds	s15, [sp, #348]
	fsts	s15, [sp, #92]
	.loc 4 445 0
	add	r2, sp, #244
	add	r3, sp, #84
	mov	r0, r2
	mov	r1, r3
	bl	_ZNK6b2Vec3ngEv
	mov	r1, sp
	add	r2, sp, #24
	add	r3, sp, #244
	mov	r0, r1
	mov	r1, r2
	mov	r2, r3
	bl	_ZNK7b2Mat337Solve33ERK6b2Vec3
	add	r3, sp, #112
	mov	r2, sp
	ldmia	r2, {r0, r1, r2}
	stmia	r3, {r0, r1, r2}
	b	.L175
.L184:
	.align	2
.L183:
	.word	1008981770
	.word	-1102263091
	.word	1045220557
	.word	1065353216
	.word	0
	.word	1000593162
	.word	1024391734
.L172:
.LBE19:
.LBB20:
	.loc 4 449 0
	flds	s14, [sp, #304]
	flds	s15, [sp, #308]
	fadds	s14, s14, s15
	flds	s13, [sp, #312]
	flds	s15, [sp, #328]
	fmuls	s15, s13, s15
	flds	s13, [sp, #328]
	fmuls	s15, s15, s13
	fadds	s14, s14, s15
	flds	s13, [sp, #316]
	flds	s15, [sp, #332]
	fmuls	s15, s13, s15
	flds	s13, [sp, #332]
	fmuls	s15, s15, s13
	fadds	s15, s14, s15
	fsts	s15, [sp, #388]
	.loc 4 450 0
	flds	s14, [sp, #312]
	flds	s15, [sp, #328]
	fmuls	s14, s14, s15
	flds	s13, [sp, #316]
	flds	s15, [sp, #332]
	fmuls	s15, s13, s15
	fadds	s15, s14, s15
	fsts	s15, [sp, #392]
	.loc 4 451 0
	flds	s14, [sp, #312]
	flds	s15, [sp, #316]
	fadds	s15, s14, s15
	fsts	s15, [sp, #396]
	.loc 4 452 0
	flds	s15, [sp, #396]
	fcmpzs	s15
	fmstat
	bne	.L176
.L182:
	.loc 4 454 0
	flds	s15, .L183+12
	fsts	s15, [sp, #396]
.L176:
	.loc 4 457 0
	add	r3, sp, #68
	mov	r0, r3
	bl	_ZN7b2Mat22C1Ev
	.loc 4 458 0
	add	r3, sp, #68
	mov	r0, r3
	ldr	r1, [sp, #388]	@ float
	ldr	r2, [sp, #392]	@ float
	bl	_ZN6b2Vec23SetEff
	.loc 4 459 0
	add	r3, sp, #68
	add	r3, r3, #8
	mov	r0, r3
	ldr	r1, [sp, #392]	@ float
	ldr	r2, [sp, #396]	@ float
	bl	_ZN6b2Vec23SetEff
	.loc 4 461 0
	add	r2, sp, #256
	add	r3, sp, #104
	mov	r0, r2
	mov	r1, r3
	bl	_ZNK6b2Vec2ngEv
	add	r1, sp, #60
	add	r2, sp, #68
	add	r3, sp, #256
	mov	r0, r1
	mov	r1, r2
	mov	r2, r3
	bl	_ZNK7b2Mat225SolveERK6b2Vec2
	.loc 4 462 0
	flds	s15, [sp, #60]
	fsts	s15, [sp, #112]
	.loc 4 463 0
	flds	s15, [sp, #64]
	fsts	s15, [sp, #116]
	.loc 4 464 0
	flds	s15, .L183+16
	fsts	s15, [sp, #120]
.L175:
.LBE20:
	.loc 4 467 0
	ldr	r2, [sp, #112]	@ float
	add	r1, sp, #264
	add	r3, sp, #124
	mov	r0, r1
	mov	r1, r2	@ float
	mov	r2, r3
	bl	_ZmlfRK6b2Vec2
	ldr	r2, [sp, #120]	@ float
	add	r1, sp, #272
	add	r3, sp, #132
	mov	r0, r1
	mov	r1, r2	@ float
	mov	r2, r3
	bl	_ZmlfRK6b2Vec2
	add	r1, sp, #96
	add	r2, sp, #264
	add	r3, sp, #272
	mov	r0, r1
	mov	r1, r2
	mov	r2, r3
	bl	_ZplRK6b2Vec2S1_
	.loc 4 468 0
	flds	s14, [sp, #112]
	flds	s15, [sp, #328]
	fmuls	s15, s14, s15
	flds	s14, [sp, #116]
	fadds	s14, s15, s14
	flds	s13, [sp, #120]
	flds	s15, [sp, #320]
	fmuls	s15, s13, s15
	fadds	s15, s14, s15
	fsts	s15, [sp, #352]
	.loc 4 469 0
	flds	s14, [sp, #112]
	flds	s15, [sp, #332]
	fmuls	s15, s14, s15
	flds	s14, [sp, #116]
	fadds	s14, s15, s14
	flds	s13, [sp, #120]
	flds	s15, [sp, #324]
	fmuls	s15, s13, s15
	fadds	s15, s14, s15
	fsts	s15, [sp, #356]
	.loc 4 471 0
	add	r2, sp, #280
	add	r3, sp, #96
	mov	r0, r2
	ldr	r1, [sp, #304]	@ float
	mov	r2, r3
	bl	_ZmlfRK6b2Vec2
	add	r2, sp, #188
	add	r3, sp, #280
	mov	r0, r2
	mov	r1, r3
	bl	_ZN6b2Vec2mIERKS_
	.loc 4 472 0
	flds	s14, [sp, #312]
	flds	s15, [sp, #352]
	fmuls	s15, s14, s15
	flds	s14, [sp, #296]
	fsubs	s15, s14, s15
	fsts	s15, [sp, #296]
	.loc 4 473 0
	add	r2, sp, #288
	add	r3, sp, #96
	mov	r0, r2
	ldr	r1, [sp, #308]	@ float
	mov	r2, r3
	bl	_ZmlfRK6b2Vec2
	add	r2, sp, #180
	add	r3, sp, #288
	mov	r0, r2
	mov	r1, r3
	bl	_ZN6b2Vec2pLERKS_
	.loc 4 474 0
	flds	s14, [sp, #316]
	flds	s15, [sp, #356]
	fmuls	s15, s14, s15
	flds	s14, [sp, #300]
	fadds	s15, s14, s15
	fsts	s15, [sp, #300]
	.loc 4 476 0
	ldr	r3, [sp, #16]
	ldr	r1, [r3, #24]
	ldr	r3, [sp, #20]
	ldr	r3, [r3, #144]
	mov	r2, r3
	mov	r3, r2
	mov	r3, r3, asl #1
	add	r3, r3, r2
	mov	r3, r3, asl #2
	add	r3, r1, r3
	add	r2, sp, #188
	ldmia	r2, {r0, r1}
	stmia	r3, {r0, r1}
	.loc 4 477 0
	ldr	r3, [sp, #16]
	ldr	r1, [r3, #24]
	ldr	r3, [sp, #20]
	ldr	r3, [r3, #144]
	mov	r2, r3
	mov	r3, r2
	mov	r3, r3, asl #1
	add	r3, r3, r2
	mov	r3, r3, asl #2
	add	r3, r1, r3
	flds	s15, [sp, #296]
	fsts	s15, [r3, #8]
	.loc 4 478 0
	ldr	r3, [sp, #16]
	ldr	r1, [r3, #24]
	ldr	r3, [sp, #20]
	ldr	r3, [r3, #148]
	mov	r2, r3
	mov	r3, r2
	mov	r3, r3, asl #1
	add	r3, r3, r2
	mov	r3, r3, asl #2
	add	r3, r1, r3
	add	r2, sp, #180
	ldmia	r2, {r0, r1}
	stmia	r3, {r0, r1}
	.loc 4 479 0
	ldr	r3, [sp, #16]
	ldr	r1, [r3, #24]
	ldr	r3, [sp, #20]
	ldr	r3, [r3, #148]
	mov	r2, r3
	mov	r3, r2
	mov	r3, r3, asl #1
	add	r3, r3, r2
	mov	r3, r3, asl #2
	add	r3, r1, r3
	flds	s15, [sp, #300]
	fsts	s15, [r3, #8]
	.loc 4 481 0
	flds	s14, [sp, #336]
	flds	s15, .L183+20
	fcmpes	s14, s15
	fmstat
	movhi	r3, #0
	movls	r3, #1
	and	r3, r3, #255
	cmp	r3, #0
	beq	.L178
	flds	s14, [sp, #340]
	flds	s15, .L183+24
	fcmpes	s14, s15
	fmstat
	movhi	r3, #0
	movls	r3, #1
	and	r3, r3, #255
	cmp	r3, #0
	beq	.L178
	mov	r3, #1
	b	.L179
.L178:
	mov	r3, #0
.L179:
.LBE17:
	.loc 4 482 0
	mov	r0, r3
	add	sp, sp, #404
	ldmfd	sp!, {pc}
	.cfi_endproc
.LFE516:
	.size	_ZN16b2PrismaticJoint24SolvePositionConstraintsERK12b2SolverData, .-_ZN16b2PrismaticJoint24SolvePositionConstraintsERK12b2SolverData
	.section	.text._ZNK16b2PrismaticJoint10GetAnchorAEv,"ax",%progbits
	.align	2
	.global	_ZNK16b2PrismaticJoint10GetAnchorAEv
	.hidden	_ZNK16b2PrismaticJoint10GetAnchorAEv
	.type	_ZNK16b2PrismaticJoint10GetAnchorAEv, %function
_ZNK16b2PrismaticJoint10GetAnchorAEv:
.LFB517:
	.loc 4 485 0
	.cfi_startproc
	@ args = 0, pretend = 0, frame = 8
	@ frame_needed = 0, uses_anonymous_args = 0
	stmfd	sp!, {r4, lr}
.LCFI82:
	.cfi_def_cfa_offset 8
	sub	sp, sp, #8
.LCFI83:
	.cfi_def_cfa_offset 16
	mov	r4, r0
	.cfi_offset 14, -4
	.cfi_offset 4, -8
	str	r1, [sp, #4]
	.loc 4 486 0
	ldr	r3, [sp, #4]
	ldr	r2, [r3, #48]
	ldr	r3, [sp, #4]
	add	r3, r3, #68
	mov	r0, r4
	mov	r1, r2
	mov	r2, r3
	bl	_ZNK6b2Body13GetWorldPointERK6b2Vec2
	.loc 4 487 0
	mov	r0, r4
	add	sp, sp, #8
	ldmfd	sp!, {r4, pc}
	.cfi_endproc
.LFE517:
	.size	_ZNK16b2PrismaticJoint10GetAnchorAEv, .-_ZNK16b2PrismaticJoint10GetAnchorAEv
	.section	.text._ZNK16b2PrismaticJoint10GetAnchorBEv,"ax",%progbits
	.align	2
	.global	_ZNK16b2PrismaticJoint10GetAnchorBEv
	.hidden	_ZNK16b2PrismaticJoint10GetAnchorBEv
	.type	_ZNK16b2PrismaticJoint10GetAnchorBEv, %function
_ZNK16b2PrismaticJoint10GetAnchorBEv:
.LFB518:
	.loc 4 490 0
	.cfi_startproc
	@ args = 0, pretend = 0, frame = 8
	@ frame_needed = 0, uses_anonymous_args = 0
	stmfd	sp!, {r4, lr}
.LCFI84:
	.cfi_def_cfa_offset 8
	sub	sp, sp, #8
.LCFI85:
	.cfi_def_cfa_offset 16
	mov	r4, r0
	.cfi_offset 14, -4
	.cfi_offset 4, -8
	str	r1, [sp, #4]
	.loc 4 491 0
	ldr	r3, [sp, #4]
	ldr	r2, [r3, #52]
	ldr	r3, [sp, #4]
	add	r3, r3, #76
	mov	r0, r4
	mov	r1, r2
	mov	r2, r3
	bl	_ZNK6b2Body13GetWorldPointERK6b2Vec2
	.loc 4 492 0
	mov	r0, r4
	add	sp, sp, #8
	ldmfd	sp!, {r4, pc}
	.cfi_endproc
.LFE518:
	.size	_ZNK16b2PrismaticJoint10GetAnchorBEv, .-_ZNK16b2PrismaticJoint10GetAnchorBEv
	.section	.text._ZNK16b2PrismaticJoint16GetReactionForceEf,"ax",%progbits
	.align	2
	.global	_ZNK16b2PrismaticJoint16GetReactionForceEf
	.hidden	_ZNK16b2PrismaticJoint16GetReactionForceEf
	.type	_ZNK16b2PrismaticJoint16GetReactionForceEf, %function
_ZNK16b2PrismaticJoint16GetReactionForceEf:
.LFB519:
	.loc 4 495 0
	.cfi_startproc
	@ args = 0, pretend = 0, frame = 32
	@ frame_needed = 0, uses_anonymous_args = 0
	stmfd	sp!, {r4, lr}
.LCFI86:
	.cfi_def_cfa_offset 8
	sub	sp, sp, #32
.LCFI87:
	.cfi_def_cfa_offset 40
	mov	r4, r0
	.cfi_offset 14, -4
	.cfi_offset 4, -8
	str	r1, [sp, #4]
	str	r2, [sp, #0]	@ float
	.loc 4 496 0
	ldr	r3, [sp, #4]
	ldr	r2, [r3, #104]	@ float
	ldr	r3, [sp, #4]
	add	r3, r3, #192
	add	r1, sp, #16
	mov	r0, r1
	mov	r1, r2	@ float
	mov	r2, r3
	bl	_ZmlfRK6b2Vec2
	ldr	r3, [sp, #4]
	flds	s14, [r3, #116]
	ldr	r3, [sp, #4]
	flds	s15, [r3, #112]
	fadds	s15, s14, s15
	ldr	r3, [sp, #4]
	add	r3, r3, #184
	add	r2, sp, #24
	mov	r0, r2
	fmrs	r1, s15
	mov	r2, r3
	bl	_ZmlfRK6b2Vec2
	add	r1, sp, #8
	add	r2, sp, #16
	add	r3, sp, #24
	mov	r0, r1
	mov	r1, r2
	mov	r2, r3
	bl	_ZplRK6b2Vec2S1_
	add	r3, sp, #8
	mov	r0, r4
	ldr	r1, [sp, #0]	@ float
	mov	r2, r3
	bl	_ZmlfRK6b2Vec2
	.loc 4 497 0
	mov	r0, r4
	add	sp, sp, #32
	ldmfd	sp!, {r4, pc}
	.cfi_endproc
.LFE519:
	.size	_ZNK16b2PrismaticJoint16GetReactionForceEf, .-_ZNK16b2PrismaticJoint16GetReactionForceEf
	.section	.text._ZNK16b2PrismaticJoint17GetReactionTorqueEf,"ax",%progbits
	.align	2
	.global	_ZNK16b2PrismaticJoint17GetReactionTorqueEf
	.hidden	_ZNK16b2PrismaticJoint17GetReactionTorqueEf
	.type	_ZNK16b2PrismaticJoint17GetReactionTorqueEf, %function
_ZNK16b2PrismaticJoint17GetReactionTorqueEf:
.LFB520:
	.loc 4 500 0
	.cfi_startproc
	@ args = 0, pretend = 0, frame = 8
	@ frame_needed = 0, uses_anonymous_args = 0
	@ link register save eliminated.
	sub	sp, sp, #8
.LCFI88:
	.cfi_def_cfa_offset 8
	str	r0, [sp, #4]
	str	r1, [sp, #0]	@ float
	.loc 4 501 0
	ldr	r3, [sp, #4]
	flds	s14, [r3, #108]
	flds	s15, [sp, #0]
	fmuls	s15, s14, s15
	fmrs	r3, s15
	.loc 4 502 0
	mov	r0, r3	@ float
	add	sp, sp, #8
	bx	lr
	.cfi_endproc
.LFE520:
	.size	_ZNK16b2PrismaticJoint17GetReactionTorqueEf, .-_ZNK16b2PrismaticJoint17GetReactionTorqueEf
	.section	.text._ZNK16b2PrismaticJoint19GetJointTranslationEv,"ax",%progbits
	.align	2
	.global	_ZNK16b2PrismaticJoint19GetJointTranslationEv
	.hidden	_ZNK16b2PrismaticJoint19GetJointTranslationEv
	.type	_ZNK16b2PrismaticJoint19GetJointTranslationEv, %function
_ZNK16b2PrismaticJoint19GetJointTranslationEv:
.LFB521:
	.loc 4 505 0
	.cfi_startproc
	@ args = 0, pretend = 0, frame = 48
	@ frame_needed = 0, uses_anonymous_args = 0
	str	lr, [sp, #-4]!
.LCFI89:
	.cfi_def_cfa_offset 4
	sub	sp, sp, #52
.LCFI90:
	.cfi_def_cfa_offset 56
	str	r0, [sp, #4]
.LBB21:
	.loc 4 506 0
	ldr	r3, [sp, #4]
	ldr	r2, [r3, #48]
	ldr	r3, [sp, #4]
	add	r3, r3, #68
	add	r1, sp, #36
	mov	r0, r1
	mov	r1, r2
	mov	r2, r3
	.cfi_offset 14, -4
	bl	_ZNK6b2Body13GetWorldPointERK6b2Vec2
	.loc 4 507 0
	ldr	r3, [sp, #4]
	ldr	r2, [r3, #52]
	ldr	r3, [sp, #4]
	add	r3, r3, #76
	add	r1, sp, #28
	mov	r0, r1
	mov	r1, r2
	mov	r2, r3
	bl	_ZNK6b2Body13GetWorldPointERK6b2Vec2
	.loc 4 508 0
	add	r1, sp, #20
	add	r2, sp, #28
	add	r3, sp, #36
	mov	r0, r1
	mov	r1, r2
	mov	r2, r3
	bl	_ZmiRK6b2Vec2S1_
	.loc 4 509 0
	ldr	r3, [sp, #4]
	ldr	r2, [r3, #48]
	ldr	r3, [sp, #4]
	add	r3, r3, #84
	add	r1, sp, #12
	mov	r0, r1
	mov	r1, r2
	mov	r2, r3
	bl	_ZNK6b2Body14GetWorldVectorERK6b2Vec2
	.loc 4 511 0
	add	r2, sp, #20
	add	r3, sp, #12
	mov	r0, r2
	mov	r1, r3
	bl	_Z5b2DotRK6b2Vec2S1_
	mov	r3, r0	@ float
	str	r3, [sp, #44]	@ float
	.loc 4 512 0
	flds	s15, [sp, #44]
	fmrs	r3, s15
.LBE21:
	.loc 4 513 0
	mov	r0, r3	@ float
	add	sp, sp, #52
	ldmfd	sp!, {pc}
	.cfi_endproc
.LFE521:
	.size	_ZNK16b2PrismaticJoint19GetJointTranslationEv, .-_ZNK16b2PrismaticJoint19GetJointTranslationEv
	.section	.text._ZNK16b2PrismaticJoint13GetJointSpeedEv,"ax",%progbits
	.align	2
	.global	_ZNK16b2PrismaticJoint13GetJointSpeedEv
	.hidden	_ZNK16b2PrismaticJoint13GetJointSpeedEv
	.type	_ZNK16b2PrismaticJoint13GetJointSpeedEv, %function
_ZNK16b2PrismaticJoint13GetJointSpeedEv:
.LFB522:
	.loc 4 516 0
	.cfi_startproc
	@ args = 0, pretend = 0, frame = 160
	@ frame_needed = 0, uses_anonymous_args = 0
	stmfd	sp!, {r4, lr}
.LCFI91:
	.cfi_def_cfa_offset 8
	fstmfdd	sp!, {d8}
.LCFI92:
	.cfi_def_cfa_offset 16
	sub	sp, sp, #160
.LCFI93:
	.cfi_def_cfa_offset 176
	str	r0, [sp, #4]
.LBB22:
	.loc 4 517 0
	ldr	r3, [sp, #4]
	ldr	r3, [r3, #48]
	str	r3, [sp, #140]
	.loc 4 518 0
	ldr	r3, [sp, #4]
	ldr	r3, [r3, #52]
	str	r3, [sp, #144]
	.loc 4 520 0
	ldr	r3, [sp, #140]
	add	r4, r3, #20
	.cfi_offset 80, -16
	.cfi_offset 14, -4
	.cfi_offset 4, -8
	ldr	r3, [sp, #4]
	add	r2, r3, #68
	ldr	r3, [sp, #140]
	add	r3, r3, #28
	add	r1, sp, #76
	mov	r0, r1
	mov	r1, r2
	mov	r2, r3
	bl	_ZmiRK6b2Vec2S1_
	add	r2, sp, #68
	add	r3, sp, #76
	mov	r0, r2
	mov	r1, r4
	mov	r2, r3
	bl	_Z5b2MulRK5b2RotRK6b2Vec2
	.loc 4 521 0
	ldr	r3, [sp, #144]
	add	r4, r3, #20
	ldr	r3, [sp, #4]
	add	r2, r3, #76
	ldr	r3, [sp, #144]
	add	r3, r3, #28
	add	r1, sp, #84
	mov	r0, r1
	mov	r1, r2
	mov	r2, r3
	bl	_ZmiRK6b2Vec2S1_
	add	r2, sp, #60
	add	r3, sp, #84
	mov	r0, r2
	mov	r1, r4
	mov	r2, r3
	bl	_Z5b2MulRK5b2RotRK6b2Vec2
	.loc 4 522 0
	ldr	r3, [sp, #140]
	add	r2, r3, #44
	add	r1, sp, #52
	add	r3, sp, #68
	mov	r0, r1
	mov	r1, r2
	mov	r2, r3
	bl	_ZplRK6b2Vec2S1_
	.loc 4 523 0
	ldr	r3, [sp, #144]
	add	r2, r3, #44
	add	r1, sp, #44
	add	r3, sp, #60
	mov	r0, r1
	mov	r1, r2
	mov	r2, r3
	bl	_ZplRK6b2Vec2S1_
	.loc 4 524 0
	add	r1, sp, #36
	add	r2, sp, #44
	add	r3, sp, #52
	mov	r0, r1
	mov	r1, r2
	mov	r2, r3
	bl	_ZmiRK6b2Vec2S1_
	.loc 4 525 0
	ldr	r3, [sp, #140]
	add	r2, r3, #20
	ldr	r3, [sp, #4]
	add	r3, r3, #84
	add	r1, sp, #28
	mov	r0, r1
	mov	r1, r2
	mov	r2, r3
	bl	_Z5b2MulRK5b2RotRK6b2Vec2
	.loc 4 527 0
	ldr	r2, [sp, #140]
	add	r3, sp, #20
	add	r2, r2, #64
	ldmia	r2, {r0, r1}
	stmia	r3, {r0, r1}
	.loc 4 528 0
	ldr	r2, [sp, #144]
	add	r3, sp, #12
	add	r2, r2, #64
	ldmia	r2, {r0, r1}
	stmia	r3, {r0, r1}
	.loc 4 529 0
	ldr	r3, [sp, #140]
	flds	s15, [r3, #72]
	fsts	s15, [sp, #148]
	.loc 4 530 0
	ldr	r3, [sp, #144]
	flds	s15, [r3, #72]
	fsts	s15, [sp, #152]
	.loc 4 532 0
	add	r2, sp, #92
	add	r3, sp, #28
	mov	r0, r2
	ldr	r1, [sp, #148]	@ float
	mov	r2, r3
	bl	_Z7b2CrossfRK6b2Vec2
	add	r2, sp, #36
	add	r3, sp, #92
	mov	r0, r2
	mov	r1, r3
	bl	_Z5b2DotRK6b2Vec2S1_
	fmsr	s16, r0
	add	r2, sp, #124
	add	r3, sp, #60
	mov	r0, r2
	ldr	r1, [sp, #152]	@ float
	mov	r2, r3
	bl	_Z7b2CrossfRK6b2Vec2
	add	r1, sp, #116
	add	r2, sp, #12
	add	r3, sp, #124
	mov	r0, r1
	mov	r1, r2
	mov	r2, r3
	bl	_ZplRK6b2Vec2S1_
	add	r1, sp, #108
	add	r2, sp, #116
	add	r3, sp, #20
	mov	r0, r1
	mov	r1, r2
	mov	r2, r3
	bl	_ZmiRK6b2Vec2S1_
	add	r2, sp, #132
	add	r3, sp, #68
	mov	r0, r2
	ldr	r1, [sp, #148]	@ float
	mov	r2, r3
	bl	_Z7b2CrossfRK6b2Vec2
	add	r1, sp, #100
	add	r2, sp, #108
	add	r3, sp, #132
	mov	r0, r1
	mov	r1, r2
	mov	r2, r3
	bl	_ZmiRK6b2Vec2S1_
	add	r2, sp, #28
	add	r3, sp, #100
	mov	r0, r2
	mov	r1, r3
	bl	_Z5b2DotRK6b2Vec2S1_
	fmsr	s15, r0
	fadds	s15, s16, s15
	fsts	s15, [sp, #156]
	.loc 4 533 0
	flds	s15, [sp, #156]
	fmrs	r3, s15
.LBE22:
	.loc 4 534 0
	mov	r0, r3	@ float
	add	sp, sp, #160
	fldmfdd	sp!, {d8}
	ldmfd	sp!, {r4, pc}
	.cfi_endproc
.LFE522:
	.size	_ZNK16b2PrismaticJoint13GetJointSpeedEv, .-_ZNK16b2PrismaticJoint13GetJointSpeedEv
	.section	.text._ZNK16b2PrismaticJoint14IsLimitEnabledEv,"ax",%progbits
	.align	2
	.global	_ZNK16b2PrismaticJoint14IsLimitEnabledEv
	.hidden	_ZNK16b2PrismaticJoint14IsLimitEnabledEv
	.type	_ZNK16b2PrismaticJoint14IsLimitEnabledEv, %function
_ZNK16b2PrismaticJoint14IsLimitEnabledEv:
.LFB523:
	.loc 4 537 0
	.cfi_startproc
	@ args = 0, pretend = 0, frame = 8
	@ frame_needed = 0, uses_anonymous_args = 0
	@ link register save eliminated.
	sub	sp, sp, #8
.LCFI94:
	.cfi_def_cfa_offset 8
	str	r0, [sp, #4]
	.loc 4 538 0
	ldr	r3, [sp, #4]
	ldrb	r3, [r3, #136]	@ zero_extendqisi2
	.loc 4 539 0
	mov	r0, r3
	add	sp, sp, #8
	bx	lr
	.cfi_endproc
.LFE523:
	.size	_ZNK16b2PrismaticJoint14IsLimitEnabledEv, .-_ZNK16b2PrismaticJoint14IsLimitEnabledEv
	.section	.text._ZN16b2PrismaticJoint11EnableLimitEb,"ax",%progbits
	.align	2
	.global	_ZN16b2PrismaticJoint11EnableLimitEb
	.hidden	_ZN16b2PrismaticJoint11EnableLimitEb
	.type	_ZN16b2PrismaticJoint11EnableLimitEb, %function
_ZN16b2PrismaticJoint11EnableLimitEb:
.LFB524:
	.loc 4 542 0
	.cfi_startproc
	@ args = 0, pretend = 0, frame = 8
	@ frame_needed = 0, uses_anonymous_args = 0
	str	lr, [sp, #-4]!
.LCFI95:
	.cfi_def_cfa_offset 4
	sub	sp, sp, #12
.LCFI96:
	.cfi_def_cfa_offset 16
	str	r0, [sp, #4]
	mov	r3, r1
	strb	r3, [sp, #3]
	.loc 4 543 0
	ldr	r3, [sp, #4]
	ldrb	r3, [r3, #136]	@ zero_extendqisi2
	ldrb	r2, [sp, #3]	@ zero_extendqisi2
	cmp	r2, r3
	beq	.L201
	.cfi_offset 14, -4
	.loc 4 545 0
	ldr	r3, [sp, #4]
	ldr	r3, [r3, #48]
	mov	r0, r3
	mov	r1, #1
	bl	_ZN6b2Body8SetAwakeEb
	.loc 4 546 0
	ldr	r3, [sp, #4]
	ldr	r3, [r3, #52]
	mov	r0, r3
	mov	r1, #1
	bl	_ZN6b2Body8SetAwakeEb
	.loc 4 547 0
	ldr	r3, [sp, #4]
	ldrb	r2, [sp, #3]
	strb	r2, [r3, #136]
	.loc 4 548 0
	ldr	r3, [sp, #4]
	flds	s15, .L202
	fsts	s15, [r3, #112]
.L201:
	.loc 4 550 0
	add	sp, sp, #12
	ldmfd	sp!, {pc}
.L203:
	.align	2
.L202:
	.word	0
	.cfi_endproc
.LFE524:
	.size	_ZN16b2PrismaticJoint11EnableLimitEb, .-_ZN16b2PrismaticJoint11EnableLimitEb
	.section	.text._ZNK16b2PrismaticJoint13GetLowerLimitEv,"ax",%progbits
	.align	2
	.global	_ZNK16b2PrismaticJoint13GetLowerLimitEv
	.hidden	_ZNK16b2PrismaticJoint13GetLowerLimitEv
	.type	_ZNK16b2PrismaticJoint13GetLowerLimitEv, %function
_ZNK16b2PrismaticJoint13GetLowerLimitEv:
.LFB525:
	.loc 4 553 0
	.cfi_startproc
	@ args = 0, pretend = 0, frame = 8
	@ frame_needed = 0, uses_anonymous_args = 0
	@ link register save eliminated.
	sub	sp, sp, #8
.LCFI97:
	.cfi_def_cfa_offset 8
	str	r0, [sp, #4]
	.loc 4 554 0
	ldr	r3, [sp, #4]
	flds	s15, [r3, #120]
	fmrs	r3, s15
	.loc 4 555 0
	mov	r0, r3	@ float
	add	sp, sp, #8
	bx	lr
	.cfi_endproc
.LFE525:
	.size	_ZNK16b2PrismaticJoint13GetLowerLimitEv, .-_ZNK16b2PrismaticJoint13GetLowerLimitEv
	.section	.text._ZNK16b2PrismaticJoint13GetUpperLimitEv,"ax",%progbits
	.align	2
	.global	_ZNK16b2PrismaticJoint13GetUpperLimitEv
	.hidden	_ZNK16b2PrismaticJoint13GetUpperLimitEv
	.type	_ZNK16b2PrismaticJoint13GetUpperLimitEv, %function
_ZNK16b2PrismaticJoint13GetUpperLimitEv:
.LFB526:
	.loc 4 558 0
	.cfi_startproc
	@ args = 0, pretend = 0, frame = 8
	@ frame_needed = 0, uses_anonymous_args = 0
	@ link register save eliminated.
	sub	sp, sp, #8
.LCFI98:
	.cfi_def_cfa_offset 8
	str	r0, [sp, #4]
	.loc 4 559 0
	ldr	r3, [sp, #4]
	flds	s15, [r3, #124]
	fmrs	r3, s15
	.loc 4 560 0
	mov	r0, r3	@ float
	add	sp, sp, #8
	bx	lr
	.cfi_endproc
.LFE526:
	.size	_ZNK16b2PrismaticJoint13GetUpperLimitEv, .-_ZNK16b2PrismaticJoint13GetUpperLimitEv
	.section	.rodata
	.align	2
.LC1:
	.ascii	"v:/gigglingbits/box2d/Box2D/Dynamics/Joints/b2Prism"
	.ascii	"aticJoint.cpp\000"
	.align	2
.LC2:
	.ascii	"lower <= upper\000"
	.section	.text._ZN16b2PrismaticJoint9SetLimitsEff,"ax",%progbits
	.align	2
	.global	_ZN16b2PrismaticJoint9SetLimitsEff
	.hidden	_ZN16b2PrismaticJoint9SetLimitsEff
	.type	_ZN16b2PrismaticJoint9SetLimitsEff, %function
_ZN16b2PrismaticJoint9SetLimitsEff:
.LFB527:
	.loc 4 563 0
	.cfi_startproc
	@ args = 0, pretend = 0, frame = 16
	@ frame_needed = 0, uses_anonymous_args = 0
	str	lr, [sp, #-4]!
.LCFI99:
	.cfi_def_cfa_offset 4
	sub	sp, sp, #20
.LCFI100:
	.cfi_def_cfa_offset 24
	str	r0, [sp, #12]
	str	r1, [sp, #8]	@ float
	str	r2, [sp, #4]	@ float
	.loc 4 564 0
	flds	s14, [sp, #8]
	flds	s15, [sp, #4]
	fcmpes	s14, s15
	fmstat
	movhi	r3, #0
	movls	r3, #1
	and	r3, r3, #255
	cmp	r3, #0
	bne	.L210
	.cfi_offset 14, -4
.L209:
	ldr	r0, .L215+4
	mov	r1, #564
	ldr	r2, .L215+8
	bl	__assert
.L210:
	.loc 4 565 0
	ldr	r3, [sp, #12]
	flds	s14, [r3, #120]
	flds	s15, [sp, #8]
	fcmps	s14, s15
	fmstat
	bne	.L211
	ldr	r3, [sp, #12]
	flds	s14, [r3, #124]
	flds	s15, [sp, #4]
	fcmps	s14, s15
	fmstat
	beq	.L214
.L211:
	.loc 4 567 0
	ldr	r3, [sp, #12]
	ldr	r3, [r3, #48]
	mov	r0, r3
	mov	r1, #1
	bl	_ZN6b2Body8SetAwakeEb
	.loc 4 568 0
	ldr	r3, [sp, #12]
	ldr	r3, [r3, #52]
	mov	r0, r3
	mov	r1, #1
	bl	_ZN6b2Body8SetAwakeEb
	.loc 4 569 0
	ldr	r3, [sp, #12]
	flds	s15, [sp, #8]
	fsts	s15, [r3, #120]
	.loc 4 570 0
	ldr	r3, [sp, #12]
	flds	s15, [sp, #4]
	fsts	s15, [r3, #124]
	.loc 4 571 0
	ldr	r3, [sp, #12]
	flds	s15, .L215
	fsts	s15, [r3, #112]
.L214:
	.loc 4 573 0
	add	sp, sp, #20
	ldmfd	sp!, {pc}
.L216:
	.align	2
.L215:
	.word	0
	.word	.LC1
	.word	.LC2
	.cfi_endproc
.LFE527:
	.size	_ZN16b2PrismaticJoint9SetLimitsEff, .-_ZN16b2PrismaticJoint9SetLimitsEff
	.section	.text._ZNK16b2PrismaticJoint14IsMotorEnabledEv,"ax",%progbits
	.align	2
	.global	_ZNK16b2PrismaticJoint14IsMotorEnabledEv
	.hidden	_ZNK16b2PrismaticJoint14IsMotorEnabledEv
	.type	_ZNK16b2PrismaticJoint14IsMotorEnabledEv, %function
_ZNK16b2PrismaticJoint14IsMotorEnabledEv:
.LFB528:
	.loc 4 576 0
	.cfi_startproc
	@ args = 0, pretend = 0, frame = 8
	@ frame_needed = 0, uses_anonymous_args = 0
	@ link register save eliminated.
	sub	sp, sp, #8
.LCFI101:
	.cfi_def_cfa_offset 8
	str	r0, [sp, #4]
	.loc 4 577 0
	ldr	r3, [sp, #4]
	ldrb	r3, [r3, #137]	@ zero_extendqisi2
	.loc 4 578 0
	mov	r0, r3
	add	sp, sp, #8
	bx	lr
	.cfi_endproc
.LFE528:
	.size	_ZNK16b2PrismaticJoint14IsMotorEnabledEv, .-_ZNK16b2PrismaticJoint14IsMotorEnabledEv
	.section	.text._ZN16b2PrismaticJoint11EnableMotorEb,"ax",%progbits
	.align	2
	.global	_ZN16b2PrismaticJoint11EnableMotorEb
	.hidden	_ZN16b2PrismaticJoint11EnableMotorEb
	.type	_ZN16b2PrismaticJoint11EnableMotorEb, %function
_ZN16b2PrismaticJoint11EnableMotorEb:
.LFB529:
	.loc 4 581 0
	.cfi_startproc
	@ args = 0, pretend = 0, frame = 8
	@ frame_needed = 0, uses_anonymous_args = 0
	str	lr, [sp, #-4]!
.LCFI102:
	.cfi_def_cfa_offset 4
	sub	sp, sp, #12
.LCFI103:
	.cfi_def_cfa_offset 16
	str	r0, [sp, #4]
	mov	r3, r1
	strb	r3, [sp, #3]
	.loc 4 582 0
	ldr	r3, [sp, #4]
	ldr	r3, [r3, #48]
	mov	r0, r3
	mov	r1, #1
	.cfi_offset 14, -4
	bl	_ZN6b2Body8SetAwakeEb
	.loc 4 583 0
	ldr	r3, [sp, #4]
	ldr	r3, [r3, #52]
	mov	r0, r3
	mov	r1, #1
	bl	_ZN6b2Body8SetAwakeEb
	.loc 4 584 0
	ldr	r3, [sp, #4]
	ldrb	r2, [sp, #3]
	strb	r2, [r3, #137]
	.loc 4 585 0
	add	sp, sp, #12
	ldmfd	sp!, {pc}
	.cfi_endproc
.LFE529:
	.size	_ZN16b2PrismaticJoint11EnableMotorEb, .-_ZN16b2PrismaticJoint11EnableMotorEb
	.section	.text._ZN16b2PrismaticJoint13SetMotorSpeedEf,"ax",%progbits
	.align	2
	.global	_ZN16b2PrismaticJoint13SetMotorSpeedEf
	.hidden	_ZN16b2PrismaticJoint13SetMotorSpeedEf
	.type	_ZN16b2PrismaticJoint13SetMotorSpeedEf, %function
_ZN16b2PrismaticJoint13SetMotorSpeedEf:
.LFB530:
	.loc 4 588 0
	.cfi_startproc
	@ args = 0, pretend = 0, frame = 8
	@ frame_needed = 0, uses_anonymous_args = 0
	str	lr, [sp, #-4]!
.LCFI104:
	.cfi_def_cfa_offset 4
	sub	sp, sp, #12
.LCFI105:
	.cfi_def_cfa_offset 16
	str	r0, [sp, #4]
	str	r1, [sp, #0]	@ float
	.loc 4 589 0
	ldr	r3, [sp, #4]
	ldr	r3, [r3, #48]
	mov	r0, r3
	mov	r1, #1
	.cfi_offset 14, -4
	bl	_ZN6b2Body8SetAwakeEb
	.loc 4 590 0
	ldr	r3, [sp, #4]
	ldr	r3, [r3, #52]
	mov	r0, r3
	mov	r1, #1
	bl	_ZN6b2Body8SetAwakeEb
	.loc 4 591 0
	ldr	r3, [sp, #4]
	flds	s15, [sp, #0]
	fsts	s15, [r3, #132]
	.loc 4 592 0
	add	sp, sp, #12
	ldmfd	sp!, {pc}
	.cfi_endproc
.LFE530:
	.size	_ZN16b2PrismaticJoint13SetMotorSpeedEf, .-_ZN16b2PrismaticJoint13SetMotorSpeedEf
	.section	.text._ZN16b2PrismaticJoint16SetMaxMotorForceEf,"ax",%progbits
	.align	2
	.global	_ZN16b2PrismaticJoint16SetMaxMotorForceEf
	.hidden	_ZN16b2PrismaticJoint16SetMaxMotorForceEf
	.type	_ZN16b2PrismaticJoint16SetMaxMotorForceEf, %function
_ZN16b2PrismaticJoint16SetMaxMotorForceEf:
.LFB531:
	.loc 4 595 0
	.cfi_startproc
	@ args = 0, pretend = 0, frame = 8
	@ frame_needed = 0, uses_anonymous_args = 0
	str	lr, [sp, #-4]!
.LCFI106:
	.cfi_def_cfa_offset 4
	sub	sp, sp, #12
.LCFI107:
	.cfi_def_cfa_offset 16
	str	r0, [sp, #4]
	str	r1, [sp, #0]	@ float
	.loc 4 596 0
	ldr	r3, [sp, #4]
	ldr	r3, [r3, #48]
	mov	r0, r3
	mov	r1, #1
	.cfi_offset 14, -4
	bl	_ZN6b2Body8SetAwakeEb
	.loc 4 597 0
	ldr	r3, [sp, #4]
	ldr	r3, [r3, #52]
	mov	r0, r3
	mov	r1, #1
	bl	_ZN6b2Body8SetAwakeEb
	.loc 4 598 0
	ldr	r3, [sp, #4]
	flds	s15, [sp, #0]
	fsts	s15, [r3, #128]
	.loc 4 599 0
	add	sp, sp, #12
	ldmfd	sp!, {pc}
	.cfi_endproc
.LFE531:
	.size	_ZN16b2PrismaticJoint16SetMaxMotorForceEf, .-_ZN16b2PrismaticJoint16SetMaxMotorForceEf
	.section	.text._ZNK16b2PrismaticJoint13GetMotorForceEf,"ax",%progbits
	.align	2
	.global	_ZNK16b2PrismaticJoint13GetMotorForceEf
	.hidden	_ZNK16b2PrismaticJoint13GetMotorForceEf
	.type	_ZNK16b2PrismaticJoint13GetMotorForceEf, %function
_ZNK16b2PrismaticJoint13GetMotorForceEf:
.LFB532:
	.loc 4 602 0
	.cfi_startproc
	@ args = 0, pretend = 0, frame = 8
	@ frame_needed = 0, uses_anonymous_args = 0
	@ link register save eliminated.
	sub	sp, sp, #8
.LCFI108:
	.cfi_def_cfa_offset 8
	str	r0, [sp, #4]
	str	r1, [sp, #0]	@ float
	.loc 4 603 0
	ldr	r3, [sp, #4]
	flds	s14, [r3, #116]
	flds	s15, [sp, #0]
	fmuls	s15, s14, s15
	fmrs	r3, s15
	.loc 4 604 0
	mov	r0, r3	@ float
	add	sp, sp, #8
	bx	lr
	.cfi_endproc
.LFE532:
	.size	_ZNK16b2PrismaticJoint13GetMotorForceEf, .-_ZNK16b2PrismaticJoint13GetMotorForceEf
	.section	.rodata
	.align	2
.LC3:
	.ascii	"  b2PrismaticJointDef jd;\012\000"
	.align	2
.LC4:
	.ascii	"  jd.bodyA = bodies[%d];\012\000"
	.align	2
.LC5:
	.ascii	"  jd.bodyB = bodies[%d];\012\000"
	.align	2
.LC6:
	.ascii	"  jd.collideConnected = bool(%d);\012\000"
	.align	2
.LC7:
	.ascii	"  jd.localAnchorA.Set(%.15lef, %.15lef);\012\000"
	.align	2
.LC8:
	.ascii	"  jd.localAnchorB.Set(%.15lef, %.15lef);\012\000"
	.align	2
.LC9:
	.ascii	"  jd.localAxisA.Set(%.15lef, %.15lef);\012\000"
	.align	2
.LC10:
	.ascii	"  jd.referenceAngle = %.15lef;\012\000"
	.align	2
.LC11:
	.ascii	"  jd.enableLimit = bool(%d);\012\000"
	.align	2
.LC12:
	.ascii	"  jd.lowerTranslation = %.15lef;\012\000"
	.align	2
.LC13:
	.ascii	"  jd.upperTranslation = %.15lef;\012\000"
	.align	2
.LC14:
	.ascii	"  jd.enableMotor = bool(%d);\012\000"
	.align	2
.LC15:
	.ascii	"  jd.motorSpeed = %.15lef;\012\000"
	.align	2
.LC16:
	.ascii	"  jd.maxMotorForce = %.15lef;\012\000"
	.align	2
.LC17:
	.ascii	"  joints[%d] = m_world->CreateJoint(&jd);\012\000"
	.section	.text._ZN16b2PrismaticJoint4DumpEv,"ax",%progbits
	.align	2
	.global	_ZN16b2PrismaticJoint4DumpEv
	.hidden	_ZN16b2PrismaticJoint4DumpEv
	.type	_ZN16b2PrismaticJoint4DumpEv, %function
_ZN16b2PrismaticJoint4DumpEv:
.LFB533:
	.loc 4 607 0
	.cfi_startproc
	@ args = 0, pretend = 0, frame = 16
	@ frame_needed = 0, uses_anonymous_args = 0
	str	lr, [sp, #-4]!
.LCFI109:
	.cfi_def_cfa_offset 4
	sub	sp, sp, #28
.LCFI110:
	.cfi_def_cfa_offset 32
	str	r0, [sp, #12]
.LBB23:
	.loc 4 608 0
	ldr	r3, [sp, #12]
	ldr	r3, [r3, #48]
	ldr	r3, [r3, #8]
	str	r3, [sp, #16]
	.loc 4 609 0
	ldr	r3, [sp, #12]
	ldr	r3, [r3, #52]
	ldr	r3, [r3, #8]
	str	r3, [sp, #20]
	.loc 4 611 0
	ldr	r0, .L229
	.cfi_offset 14, -4
	bl	_Z5b2LogPKcz
	.loc 4 612 0
	ldr	r0, .L229+4
	ldr	r1, [sp, #16]
	bl	_Z5b2LogPKcz
	.loc 4 613 0
	ldr	r0, .L229+8
	ldr	r1, [sp, #20]
	bl	_Z5b2LogPKcz
	.loc 4 614 0
	ldr	r3, [sp, #12]
	ldrb	r3, [r3, #61]	@ zero_extendqisi2
	ldr	r0, .L229+12
	mov	r1, r3
	bl	_Z5b2LogPKcz
	.loc 4 615 0
	ldr	r3, [sp, #12]
	flds	s15, [r3, #68]
	fcvtds	d6, s15
	ldr	r3, [sp, #12]
	flds	s15, [r3, #72]
	fcvtds	d7, s15
	fstd	d7, [sp, #0]
	ldr	r0, .L229+16
	fmrrd	r2, r3, d6
	bl	_Z5b2LogPKcz
	.loc 4 616 0
	ldr	r3, [sp, #12]
	flds	s15, [r3, #76]
	fcvtds	d6, s15
	ldr	r3, [sp, #12]
	flds	s15, [r3, #80]
	fcvtds	d7, s15
	fstd	d7, [sp, #0]
	ldr	r0, .L229+20
	fmrrd	r2, r3, d6
	bl	_Z5b2LogPKcz
	.loc 4 617 0
	ldr	r3, [sp, #12]
	flds	s15, [r3, #84]
	fcvtds	d6, s15
	ldr	r3, [sp, #12]
	flds	s15, [r3, #88]
	fcvtds	d7, s15
	fstd	d7, [sp, #0]
	ldr	r0, .L229+24
	fmrrd	r2, r3, d6
	bl	_Z5b2LogPKcz
	.loc 4 618 0
	ldr	r3, [sp, #12]
	flds	s15, [r3, #100]
	fcvtds	d7, s15
	ldr	r0, .L229+28
	fmrrd	r2, r3, d7
	bl	_Z5b2LogPKcz
	.loc 4 619 0
	ldr	r3, [sp, #12]
	ldrb	r3, [r3, #136]	@ zero_extendqisi2
	ldr	r0, .L229+32
	mov	r1, r3
	bl	_Z5b2LogPKcz
	.loc 4 620 0
	ldr	r3, [sp, #12]
	flds	s15, [r3, #120]
	fcvtds	d7, s15
	ldr	r0, .L229+36
	fmrrd	r2, r3, d7
	bl	_Z5b2LogPKcz
	.loc 4 621 0
	ldr	r3, [sp, #12]
	flds	s15, [r3, #124]
	fcvtds	d7, s15
	ldr	r0, .L229+40
	fmrrd	r2, r3, d7
	bl	_Z5b2LogPKcz
	.loc 4 622 0
	ldr	r3, [sp, #12]
	ldrb	r3, [r3, #137]	@ zero_extendqisi2
	ldr	r0, .L229+44
	mov	r1, r3
	bl	_Z5b2LogPKcz
	.loc 4 623 0
	ldr	r3, [sp, #12]
	flds	s15, [r3, #132]
	fcvtds	d7, s15
	ldr	r0, .L229+48
	fmrrd	r2, r3, d7
	bl	_Z5b2LogPKcz
	.loc 4 624 0
	ldr	r3, [sp, #12]
	flds	s15, [r3, #128]
	fcvtds	d7, s15
	ldr	r0, .L229+52
	fmrrd	r2, r3, d7
	bl	_Z5b2LogPKcz
	.loc 4 625 0
	ldr	r3, [sp, #12]
	ldr	r3, [r3, #56]
	ldr	r0, .L229+56
	mov	r1, r3
	bl	_Z5b2LogPKcz
.LBE23:
	.loc 4 626 0
	add	sp, sp, #28
	ldmfd	sp!, {pc}
.L230:
	.align	2
.L229:
	.word	.LC3
	.word	.LC4
	.word	.LC5
	.word	.LC6
	.word	.LC7
	.word	.LC8
	.word	.LC9
	.word	.LC10
	.word	.LC11
	.word	.LC12
	.word	.LC13
	.word	.LC14
	.word	.LC15
	.word	.LC16
	.word	.LC17
	.cfi_endproc
.LFE533:
	.size	_ZN16b2PrismaticJoint4DumpEv, .-_ZN16b2PrismaticJoint4DumpEv
	.section	.text._Z5b2AbsIfET_S0_,"axG",%progbits,_Z5b2AbsIfET_S0_,comdat
	.align	2
	.weak	_Z5b2AbsIfET_S0_
	.hidden	_Z5b2AbsIfET_S0_
	.type	_Z5b2AbsIfET_S0_, %function
_Z5b2AbsIfET_S0_:
.LFB534:
	.loc 1 616 0
	.cfi_startproc
	@ args = 0, pretend = 0, frame = 8
	@ frame_needed = 0, uses_anonymous_args = 0
	@ link register save eliminated.
	sub	sp, sp, #8
.LCFI111:
	.cfi_def_cfa_offset 8
	str	r0, [sp, #4]	@ float
	.loc 1 618 0
	flds	s15, [sp, #4]
	fcmpezs	s15
	fmstat
	movle	r3, #0
	movgt	r3, #1
	and	r3, r3, #255
	cmp	r3, #0
	beq	.L232
	flds	s15, [sp, #4]
	b	.L233
.L232:
	flds	s15, [sp, #4]
	fnegs	s15, s15
.L233:
	fmrs	r3, s15
	.loc 1 619 0
	mov	r0, r3	@ float
	add	sp, sp, #8
	bx	lr
	.cfi_endproc
.LFE534:
	.size	_Z5b2AbsIfET_S0_, .-_Z5b2AbsIfET_S0_
	.section	.text._Z5b2MinIfET_S0_S0_,"axG",%progbits,_Z5b2MinIfET_S0_S0_,comdat
	.align	2
	.weak	_Z5b2MinIfET_S0_S0_
	.hidden	_Z5b2MinIfET_S0_S0_
	.type	_Z5b2MinIfET_S0_S0_, %function
_Z5b2MinIfET_S0_S0_:
.LFB535:
	.loc 1 632 0
	.cfi_startproc
	@ args = 0, pretend = 0, frame = 8
	@ frame_needed = 0, uses_anonymous_args = 0
	@ link register save eliminated.
	sub	sp, sp, #8
.LCFI112:
	.cfi_def_cfa_offset 8
	str	r0, [sp, #4]	@ float
	str	r1, [sp, #0]	@ float
	.loc 1 634 0
	flds	s14, [sp, #4]
	flds	s15, [sp, #0]
	fcmpes	s14, s15
	fmstat
	movpl	r3, #0
	movmi	r3, #1
	and	r3, r3, #255
	cmp	r3, #0
	beq	.L236
	flds	s15, [sp, #4]
	b	.L237
.L236:
	flds	s15, [sp, #0]
.L237:
	fmrs	r3, s15
	.loc 1 635 0
	mov	r0, r3	@ float
	add	sp, sp, #8
	bx	lr
	.cfi_endproc
.LFE535:
	.size	_Z5b2MinIfET_S0_S0_, .-_Z5b2MinIfET_S0_S0_
	.section	.text._Z5b2MaxIfET_S0_S0_,"axG",%progbits,_Z5b2MaxIfET_S0_S0_,comdat
	.align	2
	.weak	_Z5b2MaxIfET_S0_S0_
	.hidden	_Z5b2MaxIfET_S0_S0_
	.type	_Z5b2MaxIfET_S0_S0_, %function
_Z5b2MaxIfET_S0_S0_:
.LFB536:
	.loc 1 643 0
	.cfi_startproc
	@ args = 0, pretend = 0, frame = 8
	@ frame_needed = 0, uses_anonymous_args = 0
	@ link register save eliminated.
	sub	sp, sp, #8
.LCFI113:
	.cfi_def_cfa_offset 8
	str	r0, [sp, #4]	@ float
	str	r1, [sp, #0]	@ float
	.loc 1 645 0
	flds	s14, [sp, #4]
	flds	s15, [sp, #0]
	fcmpes	s14, s15
	fmstat
	movle	r3, #0
	movgt	r3, #1
	and	r3, r3, #255
	cmp	r3, #0
	beq	.L240
	flds	s15, [sp, #4]
	b	.L241
.L240:
	flds	s15, [sp, #0]
.L241:
	fmrs	r3, s15
	.loc 1 646 0
	mov	r0, r3	@ float
	add	sp, sp, #8
	bx	lr
	.cfi_endproc
.LFE536:
	.size	_Z5b2MaxIfET_S0_S0_, .-_Z5b2MaxIfET_S0_S0_
	.section	.text._Z7b2ClampIfET_S0_S0_S0_,"axG",%progbits,_Z7b2ClampIfET_S0_S0_S0_,comdat
	.align	2
	.weak	_Z7b2ClampIfET_S0_S0_S0_
	.hidden	_Z7b2ClampIfET_S0_S0_S0_
	.type	_Z7b2ClampIfET_S0_S0_S0_, %function
_Z7b2ClampIfET_S0_S0_S0_:
.LFB539:
	.loc 1 654 0
	.cfi_startproc
	@ args = 0, pretend = 0, frame = 16
	@ frame_needed = 0, uses_anonymous_args = 0
	str	lr, [sp, #-4]!
.LCFI114:
	.cfi_def_cfa_offset 4
	sub	sp, sp, #20
.LCFI115:
	.cfi_def_cfa_offset 24
	str	r0, [sp, #12]	@ float
	str	r1, [sp, #8]	@ float
	str	r2, [sp, #4]	@ float
	.loc 1 656 0
	ldr	r0, [sp, #12]	@ float
	ldr	r1, [sp, #4]	@ float
	.cfi_offset 14, -4
	bl	_Z5b2MinIfET_S0_S0_
	mov	r3, r0	@ float
	ldr	r0, [sp, #8]	@ float
	mov	r1, r3	@ float
	bl	_Z5b2MaxIfET_S0_S0_
	mov	r3, r0	@ float
	fmsr	s15, r3
	fmrs	r3, s15
	.loc 1 657 0
	mov	r0, r3	@ float
	add	sp, sp, #20
	ldmfd	sp!, {pc}
	.cfi_endproc
.LFE539:
	.size	_Z7b2ClampIfET_S0_S0_S0_, .-_Z7b2ClampIfET_S0_S0_S0_
	.hidden	_ZTV16b2PrismaticJoint
	.global	_ZTV16b2PrismaticJoint
	.section	.rodata
	.align	3
	.type	_ZTV16b2PrismaticJoint, %object
	.size	_ZTV16b2PrismaticJoint, 52
_ZTV16b2PrismaticJoint:
	.word	0
	.word	_ZTI16b2PrismaticJoint
	.word	_ZNK16b2PrismaticJoint10GetAnchorAEv
	.word	_ZNK16b2PrismaticJoint10GetAnchorBEv
	.word	_ZNK16b2PrismaticJoint16GetReactionForceEf
	.word	_ZNK16b2PrismaticJoint17GetReactionTorqueEf
	.word	_ZN16b2PrismaticJoint4DumpEv
	.word	_ZN7b2Joint11ShiftOriginERK6b2Vec2
	.word	_ZN16b2PrismaticJointD1Ev
	.word	_ZN16b2PrismaticJointD0Ev
	.word	_ZN16b2PrismaticJoint23InitVelocityConstraintsERK12b2SolverData
	.word	_ZN16b2PrismaticJoint24SolveVelocityConstraintsERK12b2SolverData
	.word	_ZN16b2PrismaticJoint24SolvePositionConstraintsERK12b2SolverData
	.hidden	_ZTV7b2Joint
	.weak	_ZTV7b2Joint
	.section	.rodata._ZTV7b2Joint,"aG",%progbits,_ZTV7b2Joint,comdat
	.align	3
	.type	_ZTV7b2Joint, %object
	.size	_ZTV7b2Joint, 52
_ZTV7b2Joint:
	.word	0
	.word	_ZTI7b2Joint
	.word	__cxa_pure_virtual
	.word	__cxa_pure_virtual
	.word	__cxa_pure_virtual
	.word	__cxa_pure_virtual
	.word	_ZN7b2Joint4DumpEv
	.word	_ZN7b2Joint11ShiftOriginERK6b2Vec2
	.word	_ZN7b2JointD1Ev
	.word	_ZN7b2JointD0Ev
	.word	__cxa_pure_virtual
	.word	__cxa_pure_virtual
	.word	__cxa_pure_virtual
	.hidden	_ZTI16b2PrismaticJoint
	.global	_ZTI16b2PrismaticJoint
	.section	.rodata
	.align	2
	.type	_ZTI16b2PrismaticJoint, %object
	.size	_ZTI16b2PrismaticJoint, 12
_ZTI16b2PrismaticJoint:
	.word	_ZTVN10__cxxabiv120__si_class_type_infoE+8
	.word	_ZTS16b2PrismaticJoint
	.word	_ZTI7b2Joint
	.hidden	_ZTS16b2PrismaticJoint
	.global	_ZTS16b2PrismaticJoint
	.align	2
	.type	_ZTS16b2PrismaticJoint, %object
	.size	_ZTS16b2PrismaticJoint, 19
_ZTS16b2PrismaticJoint:
	.ascii	"16b2PrismaticJoint\000"
	.hidden	_ZTS7b2Joint
	.weak	_ZTS7b2Joint
	.section	.rodata._ZTS7b2Joint,"aG",%progbits,_ZTS7b2Joint,comdat
	.align	2
	.type	_ZTS7b2Joint, %object
	.size	_ZTS7b2Joint, 9
_ZTS7b2Joint:
	.ascii	"7b2Joint\000"
	.hidden	_ZTI7b2Joint
	.weak	_ZTI7b2Joint
	.section	.rodata._ZTI7b2Joint,"aG",%progbits,_ZTI7b2Joint,comdat
	.align	2
	.type	_ZTI7b2Joint, %object
	.size	_ZTI7b2Joint, 8
_ZTI7b2Joint:
	.word	_ZTVN10__cxxabiv117__class_type_infoE+8
	.word	_ZTS7b2Joint
	.section	.text._ZN16b2PrismaticJointD1Ev,"axG",%progbits,_ZN16b2PrismaticJointD1Ev,comdat
	.align	2
	.weak	_ZN16b2PrismaticJointD1Ev
	.hidden	_ZN16b2PrismaticJointD1Ev
	.type	_ZN16b2PrismaticJointD1Ev, %function
_ZN16b2PrismaticJointD1Ev:
.LFB542:
	.file 5 "v:/gigglingbits/box2d/Box2D/Dynamics/Joints/b2PrismaticJoint.h"
	.loc 5 87 0
	.cfi_startproc
	@ args = 0, pretend = 0, frame = 8
	@ frame_needed = 0, uses_anonymous_args = 0
	str	lr, [sp, #-4]!
.LCFI116:
	.cfi_def_cfa_offset 4
	sub	sp, sp, #12
.LCFI117:
	.cfi_def_cfa_offset 16
	str	r0, [sp, #4]
	.loc 5 87 0
	ldr	r3, [sp, #4]
	ldr	r2, .L249
	str	r2, [r3, #0]
	ldr	r3, [sp, #4]
	mov	r0, r3
	.cfi_offset 14, -4
	bl	_ZN7b2JointD2Ev
	mov	r3, #0
	and	r3, r3, #255
	cmp	r3, #0
	beq	.L247
	ldr	r0, [sp, #4]
	bl	_ZdlPv
.L247:
	ldr	r3, [sp, #4]
	mov	r0, r3
	add	sp, sp, #12
	ldmfd	sp!, {pc}
.L250:
	.align	2
.L249:
	.word	_ZTV16b2PrismaticJoint+8
	.cfi_endproc
.LFE542:
	.size	_ZN16b2PrismaticJointD1Ev, .-_ZN16b2PrismaticJointD1Ev
	.section	.text._ZN16b2PrismaticJointD0Ev,"axG",%progbits,_ZN16b2PrismaticJointD0Ev,comdat
	.align	2
	.weak	_ZN16b2PrismaticJointD0Ev
	.hidden	_ZN16b2PrismaticJointD0Ev
	.type	_ZN16b2PrismaticJointD0Ev, %function
_ZN16b2PrismaticJointD0Ev:
.LFB543:
	.loc 5 87 0
	.cfi_startproc
	@ args = 0, pretend = 0, frame = 8
	@ frame_needed = 0, uses_anonymous_args = 0
	str	lr, [sp, #-4]!
.LCFI118:
	.cfi_def_cfa_offset 4
	sub	sp, sp, #12
.LCFI119:
	.cfi_def_cfa_offset 16
	str	r0, [sp, #4]
	.loc 5 87 0
	ldr	r3, [sp, #4]
	ldr	r2, .L255
	str	r2, [r3, #0]
	ldr	r3, [sp, #4]
	mov	r0, r3
	.cfi_offset 14, -4
	bl	_ZN7b2JointD2Ev
	mov	r3, #1
	and	r3, r3, #255
	cmp	r3, #0
	beq	.L253
	ldr	r0, [sp, #4]
	bl	_ZdlPv
.L253:
	ldr	r3, [sp, #4]
	mov	r0, r3
	add	sp, sp, #12
	ldmfd	sp!, {pc}
.L256:
	.align	2
.L255:
	.word	_ZTV16b2PrismaticJoint+8
	.cfi_endproc
.LFE543:
	.size	_ZN16b2PrismaticJointD0Ev, .-_ZN16b2PrismaticJointD0Ev
	.section	.rodata
	.align	2
	.type	_ZL12b2_chunkSize, %object
	.size	_ZL12b2_chunkSize, 4
_ZL12b2_chunkSize:
	.word	16384
	.align	2
	.type	_ZL15b2_maxBlockSize, %object
	.size	_ZL15b2_maxBlockSize, 4
_ZL15b2_maxBlockSize:
	.word	640
	.align	2
	.type	_ZL13b2_blockSizes, %object
	.size	_ZL13b2_blockSizes, 4
_ZL13b2_blockSizes:
	.word	14
	.align	2
	.type	_ZL22b2_chunkArrayIncrement, %object
	.size	_ZL22b2_chunkArrayIncrement, 4
_ZL22b2_chunkArrayIncrement:
	.word	128
	.type	_ZL14b2_nullFeature, %object
	.size	_ZL14b2_nullFeature, 1
_ZL14b2_nullFeature:
	.byte	-1
	.text
.Letext0: