	.arch armv5te
	.eabi_attribute 27, 3
	.fpu vfp
	.eabi_attribute 20, 1
	.eabi_attribute 21, 1
	.eabi_attribute 23, 3
	.eabi_attribute 24, 1
	.eabi_attribute 25, 1
	.eabi_attribute 26, 2
	.eabi_attribute 30, 6
	.eabi_attribute 18, 2
	.file	"b2RevoluteJoint.cpp"
	.text
.Ltext0:
	.cfi_sections	.debug_frame
	.section	.text._ZN6b2Vec2C1Ev,"axG",%progbits,_ZN6b2Vec2C1Ev,comdat
	.align	2
	.weak	_ZN6b2Vec2C1Ev
	.hidden	_ZN6b2Vec2C1Ev
	.type	_ZN6b2Vec2C1Ev, %function
_ZN6b2Vec2C1Ev:
.LFB4:
	.file 1 "v:/gigglingbits/box2d/Box2D/Common/b2Math.h"
	.loc 1 56 0
	.cfi_startproc
	@ args = 0, pretend = 0, frame = 8
	@ frame_needed = 0, uses_anonymous_args = 0
	@ link register save eliminated.
	sub	sp, sp, #8
.LCFI0:
	.cfi_def_cfa_offset 8
	str	r0, [sp, #4]
	.loc 1 56 0
	ldr	r3, [sp, #4]
	mov	r0, r3
	add	sp, sp, #8
	bx	lr
	.cfi_endproc
.LFE4:
	.size	_ZN6b2Vec2C1Ev, .-_ZN6b2Vec2C1Ev
	.section	.text._ZN6b2Vec2C1Eff,"axG",%progbits,_ZN6b2Vec2C1Eff,comdat
	.align	2
	.weak	_ZN6b2Vec2C1Eff
	.hidden	_ZN6b2Vec2C1Eff
	.type	_ZN6b2Vec2C1Eff, %function
_ZN6b2Vec2C1Eff:
.LFB7:
	.loc 1 59 0
	.cfi_startproc
	@ args = 0, pretend = 0, frame = 16
	@ frame_needed = 0, uses_anonymous_args = 0
	@ link register save eliminated.
	sub	sp, sp, #16
.LCFI1:
	.cfi_def_cfa_offset 16
	str	r0, [sp, #12]
	str	r1, [sp, #8]	@ float
	str	r2, [sp, #4]	@ float
	.loc 1 59 0
	ldr	r3, [sp, #12]
	flds	s15, [sp, #8]
	fsts	s15, [r3, #0]
	ldr	r3, [sp, #12]
	flds	s15, [sp, #4]
	fsts	s15, [r3, #4]
	ldr	r3, [sp, #12]
	mov	r0, r3
	add	sp, sp, #16
	bx	lr
	.cfi_endproc
.LFE7:
	.size	_ZN6b2Vec2C1Eff, .-_ZN6b2Vec2C1Eff
	.section	.text._ZN6b2Vec27SetZeroEv,"axG",%progbits,_ZN6b2Vec27SetZeroEv,comdat
	.align	2
	.weak	_ZN6b2Vec27SetZeroEv
	.hidden	_ZN6b2Vec27SetZeroEv
	.type	_ZN6b2Vec27SetZeroEv, %function
_ZN6b2Vec27SetZeroEv:
.LFB8:
	.loc 1 62 0
	.cfi_startproc
	@ args = 0, pretend = 0, frame = 8
	@ frame_needed = 0, uses_anonymous_args = 0
	@ link register save eliminated.
	sub	sp, sp, #8
.LCFI2:
	.cfi_def_cfa_offset 8
	str	r0, [sp, #4]
	.loc 1 62 0
	ldr	r3, [sp, #4]
	flds	s15, .L9
	fsts	s15, [r3, #0]
	ldr	r3, [sp, #4]
	flds	s15, .L9
	fsts	s15, [r3, #4]
	add	sp, sp, #8
	bx	lr
.L10:
	.align	2
.L9:
	.word	0
	.cfi_endproc
.LFE8:
	.size	_ZN6b2Vec27SetZeroEv, .-_ZN6b2Vec27SetZeroEv
	.section	.text._ZN6b2Vec23SetEff,"axG",%progbits,_ZN6b2Vec23SetEff,comdat
	.align	2
	.weak	_ZN6b2Vec23SetEff
	.hidden	_ZN6b2Vec23SetEff
	.type	_ZN6b2Vec23SetEff, %function
_ZN6b2Vec23SetEff:
.LFB9:
	.loc 1 65 0
	.cfi_startproc
	@ args = 0, pretend = 0, frame = 16
	@ frame_needed = 0, uses_anonymous_args = 0
	@ link register save eliminated.
	sub	sp, sp, #16
.LCFI3:
	.cfi_def_cfa_offset 16
	str	r0, [sp, #12]
	str	r1, [sp, #8]	@ float
	str	r2, [sp, #4]	@ float
	.loc 1 65 0
	ldr	r3, [sp, #12]
	flds	s15, [sp, #8]
	fsts	s15, [r3, #0]
	ldr	r3, [sp, #12]
	flds	s15, [sp, #4]
	fsts	s15, [r3, #4]
	add	sp, sp, #16
	bx	lr
	.cfi_endproc
.LFE9:
	.size	_ZN6b2Vec23SetEff, .-_ZN6b2Vec23SetEff
	.section	.text._ZNK6b2Vec2ngEv,"axG",%progbits,_ZNK6b2Vec2ngEv,comdat
	.align	2
	.weak	_ZNK6b2Vec2ngEv
	.hidden	_ZNK6b2Vec2ngEv
	.type	_ZNK6b2Vec2ngEv, %function
_ZNK6b2Vec2ngEv:
.LFB10:
	.loc 1 68 0
	.cfi_startproc
	@ args = 0, pretend = 0, frame = 16
	@ frame_needed = 0, uses_anonymous_args = 0
	stmfd	sp!, {r4, lr}
.LCFI4:
	.cfi_def_cfa_offset 8
	sub	sp, sp, #16
.LCFI5:
	.cfi_def_cfa_offset 24
	mov	r4, r0
	.cfi_offset 14, -4
	.cfi_offset 4, -8
	str	r1, [sp, #4]
.LBB2:
	.loc 1 68 0
	mov	r0, r4
	bl	_ZN6b2Vec2C1Ev
	ldr	r3, [sp, #4]
	flds	s15, [r3, #0]
	fnegs	s14, s15
	ldr	r3, [sp, #4]
	flds	s15, [r3, #4]
	fnegs	s15, s15
	mov	r0, r4
	fmrs	r1, s14
	fmrs	r2, s15
	bl	_ZN6b2Vec23SetEff
.LBE2:
	mov	r0, r4
	add	sp, sp, #16
	ldmfd	sp!, {r4, pc}
	.cfi_endproc
.LFE10:
	.size	_ZNK6b2Vec2ngEv, .-_ZNK6b2Vec2ngEv
	.section	.text._ZN6b2Vec2pLERKS_,"axG",%progbits,_ZN6b2Vec2pLERKS_,comdat
	.align	2
	.weak	_ZN6b2Vec2pLERKS_
	.hidden	_ZN6b2Vec2pLERKS_
	.type	_ZN6b2Vec2pLERKS_, %function
_ZN6b2Vec2pLERKS_:
.LFB13:
	.loc 1 83 0
	.cfi_startproc
	@ args = 0, pretend = 0, frame = 8
	@ frame_needed = 0, uses_anonymous_args = 0
	@ link register save eliminated.
	sub	sp, sp, #8
.LCFI6:
	.cfi_def_cfa_offset 8
	str	r0, [sp, #4]
	str	r1, [sp, #0]
	.loc 1 85 0
	ldr	r3, [sp, #4]
	flds	s14, [r3, #0]
	ldr	r3, [sp, #0]
	flds	s15, [r3, #0]
	fadds	s15, s14, s15
	ldr	r3, [sp, #4]
	fsts	s15, [r3, #0]
	ldr	r3, [sp, #4]
	flds	s14, [r3, #4]
	ldr	r3, [sp, #0]
	flds	s15, [r3, #4]
	fadds	s15, s14, s15
	ldr	r3, [sp, #4]
	fsts	s15, [r3, #4]
	.loc 1 86 0
	add	sp, sp, #8
	bx	lr
	.cfi_endproc
.LFE13:
	.size	_ZN6b2Vec2pLERKS_, .-_ZN6b2Vec2pLERKS_
	.section	.text._ZN6b2Vec2mIERKS_,"axG",%progbits,_ZN6b2Vec2mIERKS_,comdat
	.align	2
	.weak	_ZN6b2Vec2mIERKS_
	.hidden	_ZN6b2Vec2mIERKS_
	.type	_ZN6b2Vec2mIERKS_, %function
_ZN6b2Vec2mIERKS_:
.LFB14:
	.loc 1 89 0
	.cfi_startproc
	@ args = 0, pretend = 0, frame = 8
	@ frame_needed = 0, uses_anonymous_args = 0
	@ link register save eliminated.
	sub	sp, sp, #8
.LCFI7:
	.cfi_def_cfa_offset 8
	str	r0, [sp, #4]
	str	r1, [sp, #0]
	.loc 1 91 0
	ldr	r3, [sp, #4]
	flds	s14, [r3, #0]
	ldr	r3, [sp, #0]
	flds	s15, [r3, #0]
	fsubs	s15, s14, s15
	ldr	r3, [sp, #4]
	fsts	s15, [r3, #0]
	ldr	r3, [sp, #4]
	flds	s14, [r3, #4]
	ldr	r3, [sp, #0]
	flds	s15, [r3, #4]
	fsubs	s15, s14, s15
	ldr	r3, [sp, #4]
	fsts	s15, [r3, #4]
	.loc 1 92 0
	add	sp, sp, #8
	bx	lr
	.cfi_endproc
.LFE14:
	.size	_ZN6b2Vec2mIERKS_, .-_ZN6b2Vec2mIERKS_
	.section	.text._ZNK6b2Vec26LengthEv,"axG",%progbits,_ZNK6b2Vec26LengthEv,comdat
	.align	2
	.weak	_ZNK6b2Vec26LengthEv
	.hidden	_ZNK6b2Vec26LengthEv
	.type	_ZNK6b2Vec26LengthEv, %function
_ZNK6b2Vec26LengthEv:
.LFB16:
	.loc 1 101 0
	.cfi_startproc
	@ args = 0, pretend = 0, frame = 8
	@ frame_needed = 0, uses_anonymous_args = 0
	str	lr, [sp, #-4]!
.LCFI8:
	.cfi_def_cfa_offset 4
	sub	sp, sp, #12
.LCFI9:
	.cfi_def_cfa_offset 16
	str	r0, [sp, #4]
	.loc 1 103 0
	ldr	r3, [sp, #4]
	flds	s14, [r3, #0]
	ldr	r3, [sp, #4]
	flds	s15, [r3, #0]
	fmuls	s14, s14, s15
	ldr	r3, [sp, #4]
	flds	s13, [r3, #4]
	ldr	r3, [sp, #4]
	flds	s15, [r3, #4]
	fmuls	s15, s13, s15
	fadds	s14, s14, s15
	fsqrts	s15, s14
	fcmps	s15, s15
	fmstat
	beq	.L20
	.cfi_offset 14, -4
	fmrs	r0, s14
	bl	sqrtf
	fmsr	s15, r0
.L20:
	fmrs	r3, s15
	.loc 1 104 0
	mov	r0, r3	@ float
	add	sp, sp, #12
	ldmfd	sp!, {pc}
	.cfi_endproc
.LFE16:
	.size	_ZNK6b2Vec26LengthEv, .-_ZNK6b2Vec26LengthEv
	.section	.text._ZN6b2Vec3C1Ev,"axG",%progbits,_ZN6b2Vec3C1Ev,comdat
	.align	2
	.weak	_ZN6b2Vec3C1Ev
	.hidden	_ZN6b2Vec3C1Ev
	.type	_ZN6b2Vec3C1Ev, %function
_ZN6b2Vec3C1Ev:
.LFB23:
	.loc 1 147 0
	.cfi_startproc
	@ args = 0, pretend = 0, frame = 8
	@ frame_needed = 0, uses_anonymous_args = 0
	@ link register save eliminated.
	sub	sp, sp, #8
.LCFI10:
	.cfi_def_cfa_offset 8
	str	r0, [sp, #4]
	.loc 1 147 0
	ldr	r3, [sp, #4]
	mov	r0, r3
	add	sp, sp, #8
	bx	lr
	.cfi_endproc
.LFE23:
	.size	_ZN6b2Vec3C1Ev, .-_ZN6b2Vec3C1Ev
	.section	.text._ZN6b2Vec3C1Efff,"axG",%progbits,_ZN6b2Vec3C1Efff,comdat
	.align	2
	.weak	_ZN6b2Vec3C1Efff
	.hidden	_ZN6b2Vec3C1Efff
	.type	_ZN6b2Vec3C1Efff, %function
_ZN6b2Vec3C1Efff:
.LFB26:
	.loc 1 150 0
	.cfi_startproc
	@ args = 0, pretend = 0, frame = 16
	@ frame_needed = 0, uses_anonymous_args = 0
	@ link register save eliminated.
	sub	sp, sp, #16
.LCFI11:
	.cfi_def_cfa_offset 16
	str	r0, [sp, #12]
	str	r1, [sp, #8]	@ float
	str	r2, [sp, #4]	@ float
	str	r3, [sp, #0]	@ float
	.loc 1 150 0
	ldr	r3, [sp, #12]
	flds	s15, [sp, #8]
	fsts	s15, [r3, #0]
	ldr	r3, [sp, #12]
	flds	s15, [sp, #4]
	fsts	s15, [r3, #4]
	ldr	r3, [sp, #12]
	flds	s15, [sp, #0]
	fsts	s15, [r3, #8]
	ldr	r3, [sp, #12]
	mov	r0, r3
	add	sp, sp, #16
	bx	lr
	.cfi_endproc
.LFE26:
	.size	_ZN6b2Vec3C1Efff, .-_ZN6b2Vec3C1Efff
	.section	.text._ZN6b2Vec37SetZeroEv,"axG",%progbits,_ZN6b2Vec37SetZeroEv,comdat
	.align	2
	.weak	_ZN6b2Vec37SetZeroEv
	.hidden	_ZN6b2Vec37SetZeroEv
	.type	_ZN6b2Vec37SetZeroEv, %function
_ZN6b2Vec37SetZeroEv:
.LFB27:
	.loc 1 153 0
	.cfi_startproc
	@ args = 0, pretend = 0, frame = 8
	@ frame_needed = 0, uses_anonymous_args = 0
	@ link register save eliminated.
	sub	sp, sp, #8
.LCFI12:
	.cfi_def_cfa_offset 8
	str	r0, [sp, #4]
	.loc 1 153 0
	ldr	r3, [sp, #4]
	flds	s15, .L30
	fsts	s15, [r3, #0]
	ldr	r3, [sp, #4]
	flds	s15, .L30
	fsts	s15, [r3, #4]
	ldr	r3, [sp, #4]
	flds	s15, .L30
	fsts	s15, [r3, #8]
	add	sp, sp, #8
	bx	lr
.L31:
	.align	2
.L30:
	.word	0
	.cfi_endproc
.LFE27:
	.size	_ZN6b2Vec37SetZeroEv, .-_ZN6b2Vec37SetZeroEv
	.section	.text._ZN6b2Vec33SetEfff,"axG",%progbits,_ZN6b2Vec33SetEfff,comdat
	.align	2
	.weak	_ZN6b2Vec33SetEfff
	.hidden	_ZN6b2Vec33SetEfff
	.type	_ZN6b2Vec33SetEfff, %function
_ZN6b2Vec33SetEfff:
.LFB28:
	.loc 1 156 0
	.cfi_startproc
	@ args = 0, pretend = 0, frame = 16
	@ frame_needed = 0, uses_anonymous_args = 0
	@ link register save eliminated.
	sub	sp, sp, #16
.LCFI13:
	.cfi_def_cfa_offset 16
	str	r0, [sp, #12]
	str	r1, [sp, #8]	@ float
	str	r2, [sp, #4]	@ float
	str	r3, [sp, #0]	@ float
	.loc 1 156 0
	ldr	r3, [sp, #12]
	flds	s15, [sp, #8]
	fsts	s15, [r3, #0]
	ldr	r3, [sp, #12]
	flds	s15, [sp, #4]
	fsts	s15, [r3, #4]
	ldr	r3, [sp, #12]
	flds	s15, [sp, #0]
	fsts	s15, [r3, #8]
	add	sp, sp, #16
	bx	lr
	.cfi_endproc
.LFE28:
	.size	_ZN6b2Vec33SetEfff, .-_ZN6b2Vec33SetEfff
	.section	.text._ZNK6b2Vec3ngEv,"axG",%progbits,_ZNK6b2Vec3ngEv,comdat
	.align	2
	.weak	_ZNK6b2Vec3ngEv
	.hidden	_ZNK6b2Vec3ngEv
	.type	_ZNK6b2Vec3ngEv, %function
_ZNK6b2Vec3ngEv:
.LFB29:
	.loc 1 159 0
	.cfi_startproc
	@ args = 0, pretend = 0, frame = 24
	@ frame_needed = 0, uses_anonymous_args = 0
	stmfd	sp!, {r4, lr}
.LCFI14:
	.cfi_def_cfa_offset 8
	sub	sp, sp, #24
.LCFI15:
	.cfi_def_cfa_offset 32
	mov	r4, r0
	.cfi_offset 14, -4
	.cfi_offset 4, -8
	str	r1, [sp, #4]
.LBB3:
	.loc 1 159 0
	mov	r0, r4
	bl	_ZN6b2Vec3C1Ev
	ldr	r3, [sp, #4]
	flds	s15, [r3, #0]
	fnegs	s13, s15
	ldr	r3, [sp, #4]
	flds	s15, [r3, #4]
	fnegs	s14, s15
	ldr	r3, [sp, #4]
	flds	s15, [r3, #8]
	fnegs	s15, s15
	mov	r0, r4
	fmrs	r1, s13
	fmrs	r2, s14
	fmrs	r3, s15
	bl	_ZN6b2Vec33SetEfff
.LBE3:
	mov	r0, r4
	add	sp, sp, #24
	ldmfd	sp!, {r4, pc}
	.cfi_endproc
.LFE29:
	.size	_ZNK6b2Vec3ngEv, .-_ZNK6b2Vec3ngEv
	.section	.text._ZN6b2Vec3pLERKS_,"axG",%progbits,_ZN6b2Vec3pLERKS_,comdat
	.align	2
	.weak	_ZN6b2Vec3pLERKS_
	.hidden	_ZN6b2Vec3pLERKS_
	.type	_ZN6b2Vec3pLERKS_, %function
_ZN6b2Vec3pLERKS_:
.LFB30:
	.loc 1 162 0
	.cfi_startproc
	@ args = 0, pretend = 0, frame = 8
	@ frame_needed = 0, uses_anonymous_args = 0
	@ link register save eliminated.
	sub	sp, sp, #8
.LCFI16:
	.cfi_def_cfa_offset 8
	str	r0, [sp, #4]
	str	r1, [sp, #0]
	.loc 1 164 0
	ldr	r3, [sp, #4]
	flds	s14, [r3, #0]
	ldr	r3, [sp, #0]
	flds	s15, [r3, #0]
	fadds	s15, s14, s15
	ldr	r3, [sp, #4]
	fsts	s15, [r3, #0]
	ldr	r3, [sp, #4]
	flds	s14, [r3, #4]
	ldr	r3, [sp, #0]
	flds	s15, [r3, #4]
	fadds	s15, s14, s15
	ldr	r3, [sp, #4]
	fsts	s15, [r3, #4]
	ldr	r3, [sp, #4]
	flds	s14, [r3, #8]
	ldr	r3, [sp, #0]
	flds	s15, [r3, #8]
	fadds	s15, s14, s15
	ldr	r3, [sp, #4]
	fsts	s15, [r3, #8]
	.loc 1 165 0
	add	sp, sp, #8
	bx	lr
	.cfi_endproc
.LFE30:
	.size	_ZN6b2Vec3pLERKS_, .-_ZN6b2Vec3pLERKS_
	.section	.text._ZN6b2Vec3mLEf,"axG",%progbits,_ZN6b2Vec3mLEf,comdat
	.align	2
	.weak	_ZN6b2Vec3mLEf
	.hidden	_ZN6b2Vec3mLEf
	.type	_ZN6b2Vec3mLEf, %function
_ZN6b2Vec3mLEf:
.LFB32:
	.loc 1 174 0
	.cfi_startproc
	@ args = 0, pretend = 0, frame = 8
	@ frame_needed = 0, uses_anonymous_args = 0
	@ link register save eliminated.
	sub	sp, sp, #8
.LCFI17:
	.cfi_def_cfa_offset 8
	str	r0, [sp, #4]
	str	r1, [sp, #0]	@ float
	.loc 1 176 0
	ldr	r3, [sp, #4]
	flds	s14, [r3, #0]
	flds	s15, [sp, #0]
	fmuls	s15, s14, s15
	ldr	r3, [sp, #4]
	fsts	s15, [r3, #0]
	ldr	r3, [sp, #4]
	flds	s14, [r3, #4]
	flds	s15, [sp, #0]
	fmuls	s15, s14, s15
	ldr	r3, [sp, #4]
	fsts	s15, [r3, #4]
	ldr	r3, [sp, #4]
	flds	s14, [r3, #8]
	flds	s15, [sp, #0]
	fmuls	s15, s14, s15
	ldr	r3, [sp, #4]
	fsts	s15, [r3, #8]
	.loc 1 177 0
	add	sp, sp, #8
	bx	lr
	.cfi_endproc
.LFE32:
	.size	_ZN6b2Vec3mLEf, .-_ZN6b2Vec3mLEf
	.section	.text._ZN7b2Mat22C1Ev,"axG",%progbits,_ZN7b2Mat22C1Ev,comdat
	.align	2
	.weak	_ZN7b2Mat22C1Ev
	.hidden	_ZN7b2Mat22C1Ev
	.type	_ZN7b2Mat22C1Ev, %function
_ZN7b2Mat22C1Ev:
.LFB35:
	.loc 1 186 0
	.cfi_startproc
	@ args = 0, pretend = 0, frame = 8
	@ frame_needed = 0, uses_anonymous_args = 0
	str	lr, [sp, #-4]!
.LCFI18:
	.cfi_def_cfa_offset 4
	sub	sp, sp, #12
.LCFI19:
	.cfi_def_cfa_offset 16
	str	r0, [sp, #4]
	.loc 1 186 0
	ldr	r3, [sp, #4]
	mov	r0, r3
	.cfi_offset 14, -4
	bl	_ZN6b2Vec2C1Ev
	ldr	r3, [sp, #4]
	add	r3, r3, #8
	mov	r0, r3
	bl	_ZN6b2Vec2C1Ev
	ldr	r3, [sp, #4]
	mov	r0, r3
	add	sp, sp, #12
	ldmfd	sp!, {pc}
	.cfi_endproc
.LFE35:
	.size	_ZN7b2Mat22C1Ev, .-_ZN7b2Mat22C1Ev
	.section	.text._ZNK7b2Mat225SolveERK6b2Vec2,"axG",%progbits,_ZNK7b2Mat225SolveERK6b2Vec2,comdat
	.align	2
	.weak	_ZNK7b2Mat225SolveERK6b2Vec2
	.hidden	_ZNK7b2Mat225SolveERK6b2Vec2
	.type	_ZNK7b2Mat225SolveERK6b2Vec2, %function
_ZNK7b2Mat225SolveERK6b2Vec2:
.LFB46:
	.loc 1 239 0
	.cfi_startproc
	@ args = 0, pretend = 0, frame = 40
	@ frame_needed = 0, uses_anonymous_args = 0
	stmfd	sp!, {r4, lr}
.LCFI20:
	.cfi_def_cfa_offset 8
	sub	sp, sp, #40
.LCFI21:
	.cfi_def_cfa_offset 48
	mov	r4, r0
	.cfi_offset 14, -4
	.cfi_offset 4, -8
	str	r1, [sp, #4]
	str	r2, [sp, #0]
.LBB4:
	.loc 1 241 0
	ldr	r3, [sp, #4]
	flds	s15, [r3, #0]
	fsts	s15, [sp, #20]
	ldr	r3, [sp, #4]
	flds	s15, [r3, #8]
	fsts	s15, [sp, #24]
	ldr	r3, [sp, #4]
	flds	s15, [r3, #4]
	fsts	s15, [sp, #28]
	ldr	r3, [sp, #4]
	flds	s15, [r3, #12]
	fsts	s15, [sp, #32]
	.loc 1 242 0
	flds	s14, [sp, #20]
	flds	s15, [sp, #32]
	fmuls	s14, s14, s15
	flds	s13, [sp, #24]
	flds	s15, [sp, #28]
	fmuls	s15, s13, s15
	fsubs	s15, s14, s15
	fsts	s15, [sp, #36]
	.loc 1 243 0
	flds	s15, [sp, #36]
	fcmpzs	s15
	fmstat
	beq	.L44
.L47:
	.loc 1 245 0
	flds	s14, .L48
	flds	s15, [sp, #36]
	fdivs	s15, s14, s15
	fsts	s15, [sp, #36]
.L44:
	.loc 1 247 0
	mov	r0, r4
	bl	_ZN6b2Vec2C1Ev
	.loc 1 248 0
	ldr	r3, [sp, #0]
	flds	s14, [r3, #0]
	flds	s15, [sp, #32]
	fmuls	s14, s14, s15
	ldr	r3, [sp, #0]
	flds	s13, [r3, #4]
	flds	s15, [sp, #24]
	fmuls	s15, s13, s15
	fsubs	s14, s14, s15
	flds	s15, [sp, #36]
	fmuls	s15, s14, s15
	fsts	s15, [r4, #0]
	.loc 1 249 0
	ldr	r3, [sp, #0]
	flds	s14, [r3, #4]
	flds	s15, [sp, #20]
	fmuls	s14, s14, s15
	ldr	r3, [sp, #0]
	flds	s13, [r3, #0]
	flds	s15, [sp, #28]
	fmuls	s15, s13, s15
	fsubs	s14, s14, s15
	flds	s15, [sp, #36]
	fmuls	s15, s14, s15
	fsts	s15, [r4, #4]
.LBE4:
	.loc 1 251 0
	mov	r0, r4
	add	sp, sp, #40
	ldmfd	sp!, {r4, pc}
.L49:
	.align	2
.L48:
	.word	1065353216
	.cfi_endproc
.LFE46:
	.size	_ZNK7b2Mat225SolveERK6b2Vec2, .-_ZNK7b2Mat225SolveERK6b2Vec2
	.section	.text._ZN7b2Mat33C1Ev,"axG",%progbits,_ZN7b2Mat33C1Ev,comdat
	.align	2
	.weak	_ZN7b2Mat33C1Ev
	.hidden	_ZN7b2Mat33C1Ev
	.type	_ZN7b2Mat33C1Ev, %function
_ZN7b2Mat33C1Ev:
.LFB49:
	.loc 1 260 0
	.cfi_startproc
	@ args = 0, pretend = 0, frame = 8
	@ frame_needed = 0, uses_anonymous_args = 0
	str	lr, [sp, #-4]!
.LCFI22:
	.cfi_def_cfa_offset 4
	sub	sp, sp, #12
.LCFI23:
	.cfi_def_cfa_offset 16
	str	r0, [sp, #4]
	.loc 1 260 0
	ldr	r3, [sp, #4]
	mov	r0, r3
	.cfi_offset 14, -4
	bl	_ZN6b2Vec3C1Ev
	ldr	r3, [sp, #4]
	add	r3, r3, #12
	mov	r0, r3
	bl	_ZN6b2Vec3C1Ev
	ldr	r3, [sp, #4]
	add	r3, r3, #24
	mov	r0, r3
	bl	_ZN6b2Vec3C1Ev
	ldr	r3, [sp, #4]
	mov	r0, r3
	add	sp, sp, #12
	ldmfd	sp!, {pc}
	.cfi_endproc
.LFE49:
	.size	_ZN7b2Mat33C1Ev, .-_ZN7b2Mat33C1Ev
	.section	.text._ZN5b2RotC1Ef,"axG",%progbits,_ZN5b2RotC1Ef,comdat
	.align	2
	.weak	_ZN5b2RotC1Ef
	.hidden	_ZN5b2RotC1Ef
	.type	_ZN5b2RotC1Ef, %function
_ZN5b2RotC1Ef:
.LFB59:
	.loc 1 304 0
	.cfi_startproc
	@ args = 0, pretend = 0, frame = 8
	@ frame_needed = 0, uses_anonymous_args = 0
	str	lr, [sp, #-4]!
.LCFI24:
	.cfi_def_cfa_offset 4
	sub	sp, sp, #12
.LCFI25:
	.cfi_def_cfa_offset 16
	str	r0, [sp, #4]
	str	r1, [sp, #0]	@ float
	.loc 1 307 0
	ldr	r0, [sp, #0]	@ float
	.cfi_offset 14, -4
	bl	sinf
	mov	r2, r0	@ float
	ldr	r3, [sp, #4]
	str	r2, [r3, #0]	@ float
	.loc 1 308 0
	ldr	r0, [sp, #0]	@ float
	bl	cosf
	mov	r2, r0	@ float
	ldr	r3, [sp, #4]
	str	r2, [r3, #4]	@ float
	.loc 1 309 0
	ldr	r3, [sp, #4]
	mov	r0, r3
	add	sp, sp, #12
	ldmfd	sp!, {pc}
	.cfi_endproc
.LFE59:
	.size	_ZN5b2RotC1Ef, .-_ZN5b2RotC1Ef
	.section	.text._ZN5b2Rot3SetEf,"axG",%progbits,_ZN5b2Rot3SetEf,comdat
	.align	2
	.weak	_ZN5b2Rot3SetEf
	.hidden	_ZN5b2Rot3SetEf
	.type	_ZN5b2Rot3SetEf, %function
_ZN5b2Rot3SetEf:
.LFB60:
	.loc 1 312 0
	.cfi_startproc
	@ args = 0, pretend = 0, frame = 8
	@ frame_needed = 0, uses_anonymous_args = 0
	str	lr, [sp, #-4]!
.LCFI26:
	.cfi_def_cfa_offset 4
	sub	sp, sp, #12
.LCFI27:
	.cfi_def_cfa_offset 16
	str	r0, [sp, #4]
	str	r1, [sp, #0]	@ float
	.loc 1 315 0
	ldr	r0, [sp, #0]	@ float
	.cfi_offset 14, -4
	bl	sinf
	mov	r2, r0	@ float
	ldr	r3, [sp, #4]
	str	r2, [r3, #0]	@ float
	.loc 1 316 0
	ldr	r0, [sp, #0]	@ float
	bl	cosf
	mov	r2, r0	@ float
	ldr	r3, [sp, #4]
	str	r2, [r3, #4]	@ float
	.loc 1 317 0
	add	sp, sp, #12
	ldmfd	sp!, {pc}
	.cfi_endproc
.LFE60:
	.size	_ZN5b2Rot3SetEf, .-_ZN5b2Rot3SetEf
	.section	.text._Z7b2CrossRK6b2Vec2S1_,"axG",%progbits,_Z7b2CrossRK6b2Vec2S1_,comdat
	.align	2
	.weak	_Z7b2CrossRK6b2Vec2S1_
	.hidden	_Z7b2CrossRK6b2Vec2S1_
	.type	_Z7b2CrossRK6b2Vec2S1_, %function
_Z7b2CrossRK6b2Vec2S1_:
.LFB74:
	.loc 1 413 0
	.cfi_startproc
	@ args = 0, pretend = 0, frame = 8
	@ frame_needed = 0, uses_anonymous_args = 0
	@ link register save eliminated.
	sub	sp, sp, #8
.LCFI28:
	.cfi_def_cfa_offset 8
	str	r0, [sp, #4]
	str	r1, [sp, #0]
	.loc 1 414 0
	ldr	r3, [sp, #4]
	flds	s14, [r3, #0]
	ldr	r3, [sp, #0]
	flds	s15, [r3, #4]
	fmuls	s14, s14, s15
	ldr	r3, [sp, #4]
	flds	s13, [r3, #4]
	ldr	r3, [sp, #0]
	flds	s15, [r3, #0]
	fmuls	s15, s13, s15
	fsubs	s15, s14, s15
	fmrs	r3, s15
	.loc 1 415 0
	mov	r0, r3	@ float
	add	sp, sp, #8
	bx	lr
	.cfi_endproc
.LFE74:
	.size	_Z7b2CrossRK6b2Vec2S1_, .-_Z7b2CrossRK6b2Vec2S1_
	.section	.text._Z7b2CrossfRK6b2Vec2,"axG",%progbits,_Z7b2CrossfRK6b2Vec2,comdat
	.align	2
	.weak	_Z7b2CrossfRK6b2Vec2
	.hidden	_Z7b2CrossfRK6b2Vec2
	.type	_Z7b2CrossfRK6b2Vec2, %function
_Z7b2CrossfRK6b2Vec2:
.LFB76:
	.loc 1 427 0
	.cfi_startproc
	@ args = 0, pretend = 0, frame = 8
	@ frame_needed = 0, uses_anonymous_args = 0
	stmfd	sp!, {r4, lr}
.LCFI29:
	.cfi_def_cfa_offset 8
	sub	sp, sp, #8
.LCFI30:
	.cfi_def_cfa_offset 16
	mov	r4, r0
	.cfi_offset 14, -4
	.cfi_offset 4, -8
	str	r1, [sp, #4]	@ float
	str	r2, [sp, #0]
	.loc 1 428 0
	flds	s15, [sp, #4]
	fnegs	s14, s15
	ldr	r3, [sp, #0]
	flds	s15, [r3, #4]
	fmuls	s14, s14, s15
	ldr	r3, [sp, #0]
	flds	s13, [r3, #0]
	flds	s15, [sp, #4]
	fmuls	s15, s13, s15
	mov	r0, r4
	fmrs	r1, s14
	fmrs	r2, s15
	bl	_ZN6b2Vec2C1Eff
	.loc 1 429 0
	mov	r0, r4
	add	sp, sp, #8
	ldmfd	sp!, {r4, pc}
	.cfi_endproc
.LFE76:
	.size	_Z7b2CrossfRK6b2Vec2, .-_Z7b2CrossfRK6b2Vec2
	.section	.text._ZplRK6b2Vec2S1_,"axG",%progbits,_ZplRK6b2Vec2S1_,comdat
	.align	2
	.weak	_ZplRK6b2Vec2S1_
	.hidden	_ZplRK6b2Vec2S1_
	.type	_ZplRK6b2Vec2S1_, %function
_ZplRK6b2Vec2S1_:
.LFB79:
	.loc 1 447 0
	.cfi_startproc
	@ args = 0, pretend = 0, frame = 8
	@ frame_needed = 0, uses_anonymous_args = 0
	stmfd	sp!, {r4, lr}
.LCFI31:
	.cfi_def_cfa_offset 8
	sub	sp, sp, #8
.LCFI32:
	.cfi_def_cfa_offset 16
	mov	r4, r0
	.cfi_offset 14, -4
	.cfi_offset 4, -8
	str	r1, [sp, #4]
	str	r2, [sp, #0]
	.loc 1 448 0
	ldr	r3, [sp, #4]
	flds	s14, [r3, #0]
	ldr	r3, [sp, #0]
	flds	s15, [r3, #0]
	fadds	s13, s14, s15
	ldr	r3, [sp, #4]
	flds	s14, [r3, #4]
	ldr	r3, [sp, #0]
	flds	s15, [r3, #4]
	fadds	s15, s14, s15
	mov	r0, r4
	fmrs	r1, s13
	fmrs	r2, s15
	bl	_ZN6b2Vec2C1Eff
	.loc 1 449 0
	mov	r0, r4
	add	sp, sp, #8
	ldmfd	sp!, {r4, pc}
	.cfi_endproc
.LFE79:
	.size	_ZplRK6b2Vec2S1_, .-_ZplRK6b2Vec2S1_
	.section	.text._ZmiRK6b2Vec2S1_,"axG",%progbits,_ZmiRK6b2Vec2S1_,comdat
	.align	2
	.weak	_ZmiRK6b2Vec2S1_
	.hidden	_ZmiRK6b2Vec2S1_
	.type	_ZmiRK6b2Vec2S1_, %function
_ZmiRK6b2Vec2S1_:
.LFB80:
	.loc 1 453 0
	.cfi_startproc
	@ args = 0, pretend = 0, frame = 8
	@ frame_needed = 0, uses_anonymous_args = 0
	stmfd	sp!, {r4, lr}
.LCFI33:
	.cfi_def_cfa_offset 8
	sub	sp, sp, #8
.LCFI34:
	.cfi_def_cfa_offset 16
	mov	r4, r0
	.cfi_offset 14, -4
	.cfi_offset 4, -8
	str	r1, [sp, #4]
	str	r2, [sp, #0]
	.loc 1 454 0
	ldr	r3, [sp, #4]
	flds	s14, [r3, #0]
	ldr	r3, [sp, #0]
	flds	s15, [r3, #0]
	fsubs	s13, s14, s15
	ldr	r3, [sp, #4]
	flds	s14, [r3, #4]
	ldr	r3, [sp, #0]
	flds	s15, [r3, #4]
	fsubs	s15, s14, s15
	mov	r0, r4
	fmrs	r1, s13
	fmrs	r2, s15
	bl	_ZN6b2Vec2C1Eff
	.loc 1 455 0
	mov	r0, r4
	add	sp, sp, #8
	ldmfd	sp!, {r4, pc}
	.cfi_endproc
.LFE80:
	.size	_ZmiRK6b2Vec2S1_, .-_ZmiRK6b2Vec2S1_
	.section	.text._ZmlfRK6b2Vec2,"axG",%progbits,_ZmlfRK6b2Vec2,comdat
	.align	2
	.weak	_ZmlfRK6b2Vec2
	.hidden	_ZmlfRK6b2Vec2
	.type	_ZmlfRK6b2Vec2, %function
_ZmlfRK6b2Vec2:
.LFB81:
	.loc 1 458 0
	.cfi_startproc
	@ args = 0, pretend = 0, frame = 8
	@ frame_needed = 0, uses_anonymous_args = 0
	stmfd	sp!, {r4, lr}
.LCFI35:
	.cfi_def_cfa_offset 8
	sub	sp, sp, #8
.LCFI36:
	.cfi_def_cfa_offset 16
	mov	r4, r0
	.cfi_offset 14, -4
	.cfi_offset 4, -8
	str	r1, [sp, #4]	@ float
	str	r2, [sp, #0]
	.loc 1 459 0
	ldr	r3, [sp, #0]
	flds	s14, [r3, #0]
	flds	s15, [sp, #4]
	fmuls	s14, s14, s15
	ldr	r3, [sp, #0]
	flds	s13, [r3, #4]
	flds	s15, [sp, #4]
	fmuls	s15, s13, s15
	mov	r0, r4
	fmrs	r1, s14
	fmrs	r2, s15
	bl	_ZN6b2Vec2C1Eff
	.loc 1 460 0
	mov	r0, r4
	add	sp, sp, #8
	ldmfd	sp!, {r4, pc}
	.cfi_endproc
.LFE81:
	.size	_ZmlfRK6b2Vec2, .-_ZmlfRK6b2Vec2
	.section	.text._Z5b2MulRK5b2RotRK6b2Vec2,"axG",%progbits,_Z5b2MulRK5b2RotRK6b2Vec2,comdat
	.align	2
	.weak	_Z5b2MulRK5b2RotRK6b2Vec2
	.hidden	_Z5b2MulRK5b2RotRK6b2Vec2
	.type	_Z5b2MulRK5b2RotRK6b2Vec2, %function
_Z5b2MulRK5b2RotRK6b2Vec2:
.LFB97:
	.loc 1 567 0
	.cfi_startproc
	@ args = 0, pretend = 0, frame = 8
	@ frame_needed = 0, uses_anonymous_args = 0
	stmfd	sp!, {r4, lr}
.LCFI37:
	.cfi_def_cfa_offset 8
	sub	sp, sp, #8
.LCFI38:
	.cfi_def_cfa_offset 16
	mov	r4, r0
	.cfi_offset 14, -4
	.cfi_offset 4, -8
	str	r1, [sp, #4]
	str	r2, [sp, #0]
	.loc 1 568 0
	ldr	r3, [sp, #4]
	flds	s14, [r3, #4]
	ldr	r3, [sp, #0]
	flds	s15, [r3, #0]
	fmuls	s14, s14, s15
	ldr	r3, [sp, #4]
	flds	s13, [r3, #0]
	ldr	r3, [sp, #0]
	flds	s15, [r3, #4]
	fmuls	s15, s13, s15
	fsubs	s12, s14, s15
	ldr	r3, [sp, #4]
	flds	s14, [r3, #0]
	ldr	r3, [sp, #0]
	flds	s15, [r3, #0]
	fmuls	s14, s14, s15
	ldr	r3, [sp, #4]
	flds	s13, [r3, #4]
	ldr	r3, [sp, #0]
	flds	s15, [r3, #4]
	fmuls	s15, s13, s15
	fadds	s15, s14, s15
	mov	r0, r4
	fmrs	r1, s12
	fmrs	r2, s15
	bl	_ZN6b2Vec2C1Eff
	.loc 1 569 0
	mov	r0, r4
	add	sp, sp, #8
	ldmfd	sp!, {r4, pc}
	.cfi_endproc
.LFE97:
	.size	_Z5b2MulRK5b2RotRK6b2Vec2, .-_Z5b2MulRK5b2RotRK6b2Vec2
	.section	.text._Z5b2MulRK11b2TransformRK6b2Vec2,"axG",%progbits,_Z5b2MulRK11b2TransformRK6b2Vec2,comdat
	.align	2
	.weak	_Z5b2MulRK11b2TransformRK6b2Vec2
	.hidden	_Z5b2MulRK11b2TransformRK6b2Vec2
	.type	_Z5b2MulRK11b2TransformRK6b2Vec2, %function
_Z5b2MulRK11b2TransformRK6b2Vec2:
.LFB99:
	.loc 1 578 0
	.cfi_startproc
	@ args = 0, pretend = 0, frame = 16
	@ frame_needed = 0, uses_anonymous_args = 0
	stmfd	sp!, {r4, lr}
.LCFI39:
	.cfi_def_cfa_offset 8
	sub	sp, sp, #16
.LCFI40:
	.cfi_def_cfa_offset 24
	mov	r4, r0
	.cfi_offset 14, -4
	.cfi_offset 4, -8
	str	r1, [sp, #4]
	str	r2, [sp, #0]
.LBB5:
	.loc 1 579 0
	ldr	r3, [sp, #4]
	flds	s14, [r3, #12]
	ldr	r3, [sp, #0]
	flds	s15, [r3, #0]
	fmuls	s14, s14, s15
	ldr	r3, [sp, #4]
	flds	s13, [r3, #8]
	ldr	r3, [sp, #0]
	flds	s15, [r3, #4]
	fmuls	s15, s13, s15
	fsubs	s14, s14, s15
	ldr	r3, [sp, #4]
	flds	s15, [r3, #0]
	fadds	s15, s14, s15
	fsts	s15, [sp, #8]
	.loc 1 580 0
	ldr	r3, [sp, #4]
	flds	s14, [r3, #8]
	ldr	r3, [sp, #0]
	flds	s15, [r3, #0]
	fmuls	s14, s14, s15
	ldr	r3, [sp, #4]
	flds	s13, [r3, #12]
	ldr	r3, [sp, #0]
	flds	s15, [r3, #4]
	fmuls	s15, s13, s15
	fadds	s14, s14, s15
	ldr	r3, [sp, #4]
	flds	s15, [r3, #4]
	fadds	s15, s14, s15
	fsts	s15, [sp, #12]
	.loc 1 582 0
	mov	r0, r4
	ldr	r1, [sp, #8]	@ float
	ldr	r2, [sp, #12]	@ float
	bl	_ZN6b2Vec2C1Eff
.LBE5:
	.loc 1 583 0
	mov	r0, r4
	add	sp, sp, #16
	ldmfd	sp!, {r4, pc}
	.cfi_endproc
.LFE99:
	.size	_Z5b2MulRK11b2TransformRK6b2Vec2, .-_Z5b2MulRK11b2TransformRK6b2Vec2
	.section	.text._Z6b2MulTRK11b2TransformRK6b2Vec2,"axG",%progbits,_Z6b2MulTRK11b2TransformRK6b2Vec2,comdat
	.align	2
	.weak	_Z6b2MulTRK11b2TransformRK6b2Vec2
	.hidden	_Z6b2MulTRK11b2TransformRK6b2Vec2
	.type	_Z6b2MulTRK11b2TransformRK6b2Vec2, %function
_Z6b2MulTRK11b2TransformRK6b2Vec2:
.LFB100:
	.loc 1 586 0
	.cfi_startproc
	@ args = 0, pretend = 0, frame = 24
	@ frame_needed = 0, uses_anonymous_args = 0
	stmfd	sp!, {r4, lr}
.LCFI41:
	.cfi_def_cfa_offset 8
	sub	sp, sp, #24
.LCFI42:
	.cfi_def_cfa_offset 32
	mov	r4, r0
	.cfi_offset 14, -4
	.cfi_offset 4, -8
	str	r1, [sp, #4]
	str	r2, [sp, #0]
.LBB6:
	.loc 1 587 0
	ldr	r3, [sp, #0]
	flds	s14, [r3, #0]
	ldr	r3, [sp, #4]
	flds	s15, [r3, #0]
	fsubs	s15, s14, s15
	fsts	s15, [sp, #8]
	.loc 1 588 0
	ldr	r3, [sp, #0]
	flds	s14, [r3, #4]
	ldr	r3, [sp, #4]
	flds	s15, [r3, #4]
	fsubs	s15, s14, s15
	fsts	s15, [sp, #12]
	.loc 1 589 0
	ldr	r3, [sp, #4]
	flds	s14, [r3, #12]
	flds	s15, [sp, #8]
	fmuls	s14, s14, s15
	ldr	r3, [sp, #4]
	flds	s13, [r3, #8]
	flds	s15, [sp, #12]
	fmuls	s15, s13, s15
	fadds	s15, s14, s15
	fsts	s15, [sp, #16]
	.loc 1 590 0
	ldr	r3, [sp, #4]
	flds	s15, [r3, #8]
	fnegs	s14, s15
	flds	s15, [sp, #8]
	fmuls	s14, s14, s15
	ldr	r3, [sp, #4]
	flds	s13, [r3, #12]
	flds	s15, [sp, #12]
	fmuls	s15, s13, s15
	fadds	s15, s14, s15
	fsts	s15, [sp, #20]
	.loc 1 592 0
	mov	r0, r4
	ldr	r1, [sp, #16]	@ float
	ldr	r2, [sp, #20]	@ float
	bl	_ZN6b2Vec2C1Eff
.LBE6:
	.loc 1 593 0
	mov	r0, r4
	add	sp, sp, #24
	ldmfd	sp!, {r4, pc}
	.cfi_endproc
.LFE100:
	.size	_Z6b2MulTRK11b2TransformRK6b2Vec2, .-_Z6b2MulTRK11b2TransformRK6b2Vec2
	.section	.rodata
	.align	2
.LC0:
	.ascii	"// Dump is not supported for this joint type.\012\000"
	.section	.text._ZN7b2Joint4DumpEv,"axG",%progbits,_ZN7b2Joint4DumpEv,comdat
	.align	2
	.weak	_ZN7b2Joint4DumpEv
	.hidden	_ZN7b2Joint4DumpEv
	.type	_ZN7b2Joint4DumpEv, %function
_ZN7b2Joint4DumpEv:
.LFB121:
	.file 2 "v:/gigglingbits/box2d/Box2D/Dynamics/Joints/b2Joint.h"
	.loc 2 147 0
	.cfi_startproc
	@ args = 0, pretend = 0, frame = 8
	@ frame_needed = 0, uses_anonymous_args = 0
	str	lr, [sp, #-4]!
.LCFI43:
	.cfi_def_cfa_offset 4
	sub	sp, sp, #12
.LCFI44:
	.cfi_def_cfa_offset 16
	str	r0, [sp, #4]
	.loc 2 147 0
	ldr	r0, .L76
	.cfi_offset 14, -4
	bl	_Z5b2LogPKcz
	add	sp, sp, #12
	ldmfd	sp!, {pc}
.L77:
	.align	2
.L76:
	.word	.LC0
	.cfi_endproc
.LFE121:
	.size	_ZN7b2Joint4DumpEv, .-_ZN7b2Joint4DumpEv
	.section	.text._ZN7b2Joint11ShiftOriginERK6b2Vec2,"axG",%progbits,_ZN7b2Joint11ShiftOriginERK6b2Vec2,comdat
	.align	2
	.weak	_ZN7b2Joint11ShiftOriginERK6b2Vec2
	.hidden	_ZN7b2Joint11ShiftOriginERK6b2Vec2
	.type	_ZN7b2Joint11ShiftOriginERK6b2Vec2, %function
_ZN7b2Joint11ShiftOriginERK6b2Vec2:
.LFB122:
	.loc 2 150 0
	.cfi_startproc
	@ args = 0, pretend = 0, frame = 8
	@ frame_needed = 0, uses_anonymous_args = 0
	@ link register save eliminated.
	sub	sp, sp, #8
.LCFI45:
	.cfi_def_cfa_offset 8
	str	r0, [sp, #4]
	str	r1, [sp, #0]
	.loc 2 150 0
	add	sp, sp, #8
	bx	lr
	.cfi_endproc
.LFE122:
	.size	_ZN7b2Joint11ShiftOriginERK6b2Vec2, .-_ZN7b2Joint11ShiftOriginERK6b2Vec2
	.section	.text._ZN7b2JointD2Ev,"axG",%progbits,_ZN7b2JointD2Ev,comdat
	.align	2
	.weak	_ZN7b2JointD2Ev
	.hidden	_ZN7b2JointD2Ev
	.type	_ZN7b2JointD2Ev, %function
_ZN7b2JointD2Ev:
.LFB124:
	.loc 2 162 0
	.cfi_startproc
	@ args = 0, pretend = 0, frame = 8
	@ frame_needed = 0, uses_anonymous_args = 0
	str	lr, [sp, #-4]!
.LCFI46:
	.cfi_def_cfa_offset 4
	sub	sp, sp, #12
.LCFI47:
	.cfi_def_cfa_offset 16
	str	r0, [sp, #4]
	.loc 2 162 0
	ldr	r3, [sp, #4]
	ldr	r2, .L84
	str	r2, [r3, #0]
	mov	r3, #0
	and	r3, r3, #255
	cmp	r3, #0
	beq	.L82
	.cfi_offset 14, -4
	ldr	r0, [sp, #4]
	bl	_ZdlPv
.L82:
	ldr	r3, [sp, #4]
	mov	r0, r3
	add	sp, sp, #12
	ldmfd	sp!, {pc}
.L85:
	.align	2
.L84:
	.word	_ZTV7b2Joint+8
	.cfi_endproc
.LFE124:
	.size	_ZN7b2JointD2Ev, .-_ZN7b2JointD2Ev
	.section	.text._ZN7b2JointD1Ev,"axG",%progbits,_ZN7b2JointD1Ev,comdat
	.align	2
	.weak	_ZN7b2JointD1Ev
	.hidden	_ZN7b2JointD1Ev
	.type	_ZN7b2JointD1Ev, %function
_ZN7b2JointD1Ev:
.LFB125:
	.loc 2 162 0
	.cfi_startproc
	@ args = 0, pretend = 0, frame = 8
	@ frame_needed = 0, uses_anonymous_args = 0
	str	lr, [sp, #-4]!
.LCFI48:
	.cfi_def_cfa_offset 4
	sub	sp, sp, #12
.LCFI49:
	.cfi_def_cfa_offset 16
	str	r0, [sp, #4]
	.loc 2 162 0
	ldr	r3, [sp, #4]
	ldr	r2, .L90
	str	r2, [r3, #0]
	mov	r3, #0
	and	r3, r3, #255
	cmp	r3, #0
	beq	.L88
	.cfi_offset 14, -4
	ldr	r0, [sp, #4]
	bl	_ZdlPv
.L88:
	ldr	r3, [sp, #4]
	mov	r0, r3
	add	sp, sp, #12
	ldmfd	sp!, {pc}
.L91:
	.align	2
.L90:
	.word	_ZTV7b2Joint+8
	.cfi_endproc
.LFE125:
	.size	_ZN7b2JointD1Ev, .-_ZN7b2JointD1Ev
	.section	.text._ZN7b2JointD0Ev,"axG",%progbits,_ZN7b2JointD0Ev,comdat
	.align	2
	.weak	_ZN7b2JointD0Ev
	.hidden	_ZN7b2JointD0Ev
	.type	_ZN7b2JointD0Ev, %function
_ZN7b2JointD0Ev:
.LFB126:
	.loc 2 162 0
	.cfi_startproc
	@ args = 0, pretend = 0, frame = 8
	@ frame_needed = 0, uses_anonymous_args = 0
	str	lr, [sp, #-4]!
.LCFI50:
	.cfi_def_cfa_offset 4
	sub	sp, sp, #12
.LCFI51:
	.cfi_def_cfa_offset 16
	str	r0, [sp, #4]
	.loc 2 162 0
	ldr	r3, [sp, #4]
	ldr	r2, .L96
	str	r2, [r3, #0]
	mov	r3, #1
	and	r3, r3, #255
	cmp	r3, #0
	beq	.L94
	.cfi_offset 14, -4
	ldr	r0, [sp, #4]
	bl	_ZdlPv
.L94:
	ldr	r3, [sp, #4]
	mov	r0, r3
	add	sp, sp, #12
	ldmfd	sp!, {pc}
.L97:
	.align	2
.L96:
	.word	_ZTV7b2Joint+8
	.cfi_endproc
.LFE126:
	.size	_ZN7b2JointD0Ev, .-_ZN7b2JointD0Ev
	.section	.text._ZNK6b2Body8GetAngleEv,"axG",%progbits,_ZNK6b2Body8GetAngleEv,comdat
	.align	2
	.weak	_ZNK6b2Body8GetAngleEv
	.hidden	_ZNK6b2Body8GetAngleEv
	.type	_ZNK6b2Body8GetAngleEv, %function
_ZNK6b2Body8GetAngleEv:
.LFB460:
	.file 3 "v:/gigglingbits/box2d/Box2D/Dynamics/b2Body.h"
	.loc 3 485 0
	.cfi_startproc
	@ args = 0, pretend = 0, frame = 8
	@ frame_needed = 0, uses_anonymous_args = 0
	@ link register save eliminated.
	sub	sp, sp, #8
.LCFI52:
	.cfi_def_cfa_offset 8
	str	r0, [sp, #4]
	.loc 3 486 0
	ldr	r3, [sp, #4]
	flds	s15, [r3, #56]
	fmrs	r3, s15
	.loc 3 487 0
	mov	r0, r3	@ float
	add	sp, sp, #8
	bx	lr
	.cfi_endproc
.LFE460:
	.size	_ZNK6b2Body8GetAngleEv, .-_ZNK6b2Body8GetAngleEv
	.section	.text._ZNK6b2Body13GetWorldPointERK6b2Vec2,"axG",%progbits,_ZNK6b2Body13GetWorldPointERK6b2Vec2,comdat
	.align	2
	.weak	_ZNK6b2Body13GetWorldPointERK6b2Vec2
	.hidden	_ZNK6b2Body13GetWorldPointERK6b2Vec2
	.type	_ZNK6b2Body13GetWorldPointERK6b2Vec2, %function
_ZNK6b2Body13GetWorldPointERK6b2Vec2:
.LFB470:
	.loc 3 557 0
	.cfi_startproc
	@ args = 0, pretend = 0, frame = 8
	@ frame_needed = 0, uses_anonymous_args = 0
	stmfd	sp!, {r4, lr}
.LCFI53:
	.cfi_def_cfa_offset 8
	sub	sp, sp, #8
.LCFI54:
	.cfi_def_cfa_offset 16
	mov	r4, r0
	.cfi_offset 14, -4
	.cfi_offset 4, -8
	str	r1, [sp, #4]
	str	r2, [sp, #0]
	.loc 3 558 0
	ldr	r3, [sp, #4]
	add	r3, r3, #12
	mov	r0, r4
	mov	r1, r3
	ldr	r2, [sp, #0]
	bl	_Z5b2MulRK11b2TransformRK6b2Vec2
	.loc 3 559 0
	mov	r0, r4
	add	sp, sp, #8
	ldmfd	sp!, {r4, pc}
	.cfi_endproc
.LFE470:
	.size	_ZNK6b2Body13GetWorldPointERK6b2Vec2, .-_ZNK6b2Body13GetWorldPointERK6b2Vec2
	.section	.text._ZNK6b2Body13GetLocalPointERK6b2Vec2,"axG",%progbits,_ZNK6b2Body13GetLocalPointERK6b2Vec2,comdat
	.align	2
	.weak	_ZNK6b2Body13GetLocalPointERK6b2Vec2
	.hidden	_ZNK6b2Body13GetLocalPointERK6b2Vec2
	.type	_ZNK6b2Body13GetLocalPointERK6b2Vec2, %function
_ZNK6b2Body13GetLocalPointERK6b2Vec2:
.LFB472:
	.loc 3 567 0
	.cfi_startproc
	@ args = 0, pretend = 0, frame = 8
	@ frame_needed = 0, uses_anonymous_args = 0
	stmfd	sp!, {r4, lr}
.LCFI55:
	.cfi_def_cfa_offset 8
	sub	sp, sp, #8
.LCFI56:
	.cfi_def_cfa_offset 16
	mov	r4, r0
	.cfi_offset 14, -4
	.cfi_offset 4, -8
	str	r1, [sp, #4]
	str	r2, [sp, #0]
	.loc 3 568 0
	ldr	r3, [sp, #4]
	add	r3, r3, #12
	mov	r0, r4
	mov	r1, r3
	ldr	r2, [sp, #0]
	bl	_Z6b2MulTRK11b2TransformRK6b2Vec2
	.loc 3 569 0
	mov	r0, r4
	add	sp, sp, #8
	ldmfd	sp!, {r4, pc}
	.cfi_endproc
.LFE472:
	.size	_ZNK6b2Body13GetLocalPointERK6b2Vec2, .-_ZNK6b2Body13GetLocalPointERK6b2Vec2
	.section	.text._ZN6b2Body8SetAwakeEb,"axG",%progbits,_ZN6b2Body8SetAwakeEb,comdat
	.align	2
	.weak	_ZN6b2Body8SetAwakeEb
	.hidden	_ZN6b2Body8SetAwakeEb
	.type	_ZN6b2Body8SetAwakeEb, %function
_ZN6b2Body8SetAwakeEb:
.LFB484:
	.loc 3 634 0
	.cfi_startproc
	@ args = 0, pretend = 0, frame = 8
	@ frame_needed = 0, uses_anonymous_args = 0
	str	lr, [sp, #-4]!
.LCFI57:
	.cfi_def_cfa_offset 4
	sub	sp, sp, #12
.LCFI58:
	.cfi_def_cfa_offset 16
	str	r0, [sp, #4]
	mov	r3, r1
	strb	r3, [sp, #3]
	.loc 3 635 0
	ldrb	r3, [sp, #3]	@ zero_extendqisi2
	cmp	r3, #0
	beq	.L105
	.cfi_offset 14, -4
	.loc 3 637 0
	ldr	r3, [sp, #4]
	ldrh	r3, [r3, #4]
	and	r3, r3, #2
	cmp	r3, #0
	bne	.L109
	.loc 3 639 0
	ldr	r3, [sp, #4]
	ldrh	r3, [r3, #4]
	orr	r3, r3, #2
	mov	r3, r3, asl #16
	mov	r2, r3, lsr #16
	ldr	r3, [sp, #4]
	strh	r2, [r3, #4]	@ movhi
	.loc 3 640 0
	ldr	r3, [sp, #4]
	flds	s15, .L110
	fsts	s15, [r3, #144]
	b	.L108
.L105:
	.loc 3 645 0
	ldr	r3, [sp, #4]
	ldrh	r3, [r3, #4]
	ldr	r2, .L110+4
	and	r2, r3, r2
	mov	r3, r2
	ldr	r2, [sp, #4]
	strh	r3, [r2, #4]	@ movhi
	.loc 3 646 0
	ldr	r3, [sp, #4]
	flds	s15, .L110
	fsts	s15, [r3, #144]
	.loc 3 647 0
	ldr	r3, [sp, #4]
	add	r3, r3, #64
	mov	r0, r3
	bl	_ZN6b2Vec27SetZeroEv
	.loc 3 648 0
	ldr	r3, [sp, #4]
	flds	s15, .L110
	fsts	s15, [r3, #72]
	.loc 3 649 0
	ldr	r3, [sp, #4]
	add	r3, r3, #76
	mov	r0, r3
	bl	_ZN6b2Vec27SetZeroEv
	.loc 3 650 0
	ldr	r3, [sp, #4]
	flds	s15, .L110
	fsts	s15, [r3, #84]
	b	.L108
.L109:
	.loc 3 640 0
	mov	r0, r0	@ nop
.L108:
	.loc 3 652 0
	add	sp, sp, #12
	ldmfd	sp!, {pc}
.L111:
	.align	2
.L110:
	.word	0
	.word	65533
	.cfi_endproc
.LFE484:
	.size	_ZN6b2Body8SetAwakeEb, .-_ZN6b2Body8SetAwakeEb
	.section	.text._ZN18b2RevoluteJointDef10InitializeEP6b2BodyS1_RK6b2Vec2,"ax",%progbits
	.align	2
	.global	_ZN18b2RevoluteJointDef10InitializeEP6b2BodyS1_RK6b2Vec2
	.hidden	_ZN18b2RevoluteJointDef10InitializeEP6b2BodyS1_RK6b2Vec2
	.type	_ZN18b2RevoluteJointDef10InitializeEP6b2BodyS1_RK6b2Vec2, %function
_ZN18b2RevoluteJointDef10InitializeEP6b2BodyS1_RK6b2Vec2:
.LFB509:
	.file 4 "v:/gigglingbits/box2d/Box2D/Dynamics/Joints/b2RevoluteJoint.cpp"
	.loc 4 37 0
	.cfi_startproc
	@ args = 0, pretend = 0, frame = 24
	@ frame_needed = 0, uses_anonymous_args = 0
	stmfd	sp!, {r4, lr}
.LCFI59:
	.cfi_def_cfa_offset 8
	fstmfdd	sp!, {d8}
.LCFI60:
	.cfi_def_cfa_offset 16
	sub	sp, sp, #24
.LCFI61:
	.cfi_def_cfa_offset 40
	str	r0, [sp, #20]
	str	r1, [sp, #16]
	str	r2, [sp, #12]
	str	r3, [sp, #8]
	.loc 4 38 0
	ldr	r3, [sp, #20]
	ldr	r2, [sp, #16]
	str	r2, [r3, #8]
	.loc 4 39 0
	ldr	r3, [sp, #20]
	ldr	r2, [sp, #12]
	str	r2, [r3, #12]
	.loc 4 40 0
	ldr	r3, [sp, #20]
	ldr	r3, [r3, #8]
	ldr	r4, [sp, #20]
	.cfi_offset 80, -16
	.cfi_offset 14, -4
	.cfi_offset 4, -8
	mov	r2, sp
	mov	r0, r2
	mov	r1, r3
	ldr	r2, [sp, #8]
	bl	_ZNK6b2Body13GetLocalPointERK6b2Vec2
	add	r3, r4, #20
	mov	r2, sp
	ldmia	r2, {r0, r1}
	stmia	r3, {r0, r1}
	.loc 4 41 0
	ldr	r3, [sp, #20]
	ldr	r3, [r3, #12]
	ldr	r4, [sp, #20]
	mov	r2, sp
	mov	r0, r2
	mov	r1, r3
	ldr	r2, [sp, #8]
	bl	_ZNK6b2Body13GetLocalPointERK6b2Vec2
	add	r3, r4, #28
	mov	r2, sp
	ldmia	r2, {r0, r1}
	stmia	r3, {r0, r1}
	.loc 4 42 0
	ldr	r3, [sp, #20]
	ldr	r3, [r3, #12]
	mov	r0, r3
	bl	_ZNK6b2Body8GetAngleEv
	fmsr	s16, r0
	ldr	r3, [sp, #20]
	ldr	r3, [r3, #8]
	mov	r0, r3
	bl	_ZNK6b2Body8GetAngleEv
	fmsr	s15, r0
	fsubs	s15, s16, s15
	ldr	r3, [sp, #20]
	fsts	s15, [r3, #36]
	.loc 4 43 0
	add	sp, sp, #24
	fldmfdd	sp!, {d8}
	ldmfd	sp!, {r4, pc}
	.cfi_endproc
.LFE509:
	.size	_ZN18b2RevoluteJointDef10InitializeEP6b2BodyS1_RK6b2Vec2, .-_ZN18b2RevoluteJointDef10InitializeEP6b2BodyS1_RK6b2Vec2
	.section	.text._ZN15b2RevoluteJointC2EPK18b2RevoluteJointDef,"ax",%progbits
	.align	2
	.global	_ZN15b2RevoluteJointC2EPK18b2RevoluteJointDef
	.hidden	_ZN15b2RevoluteJointC2EPK18b2RevoluteJointDef
	.type	_ZN15b2RevoluteJointC2EPK18b2RevoluteJointDef, %function
_ZN15b2RevoluteJointC2EPK18b2RevoluteJointDef:
.LFB511:
	.loc 4 45 0
	.cfi_startproc
	@ args = 0, pretend = 0, frame = 8
	@ frame_needed = 0, uses_anonymous_args = 0
	str	lr, [sp, #-4]!
.LCFI62:
	.cfi_def_cfa_offset 4
	sub	sp, sp, #12
.LCFI63:
	.cfi_def_cfa_offset 16
	str	r0, [sp, #4]
	str	r1, [sp, #0]
	.loc 4 46 0
	ldr	r2, [sp, #4]
	ldr	r3, [sp, #0]
	mov	r0, r2
	mov	r1, r3
	.cfi_offset 14, -4
	bl	_ZN7b2JointC2EPK10b2JointDef
	ldr	r3, [sp, #4]
	ldr	r2, .L117+4
	str	r2, [r3, #0]
	ldr	r3, [sp, #4]
	add	r3, r3, #68
	mov	r0, r3
	bl	_ZN6b2Vec2C1Ev
	ldr	r3, [sp, #4]
	add	r3, r3, #76
	mov	r0, r3
	bl	_ZN6b2Vec2C1Ev
	ldr	r3, [sp, #4]
	add	r3, r3, #84
	mov	r0, r3
	bl	_ZN6b2Vec3C1Ev
	ldr	r3, [sp, #4]
	add	r3, r3, #136
	mov	r0, r3
	bl	_ZN6b2Vec2C1Ev
	ldr	r3, [sp, #4]
	add	r3, r3, #144
	mov	r0, r3
	bl	_ZN6b2Vec2C1Ev
	ldr	r3, [sp, #4]
	add	r3, r3, #152
	mov	r0, r3
	bl	_ZN6b2Vec2C1Ev
	ldr	r3, [sp, #4]
	add	r3, r3, #160
	mov	r0, r3
	bl	_ZN6b2Vec2C1Ev
	ldr	r3, [sp, #4]
	add	r3, r3, #184
	mov	r0, r3
	bl	_ZN7b2Mat33C1Ev
	.loc 4 48 0
	ldr	r3, [sp, #4]
	ldr	r2, [sp, #0]
	add	r3, r3, #68
	add	r2, r2, #20
	ldmia	r2, {r0, r1}
	stmia	r3, {r0, r1}
	.loc 4 49 0
	ldr	r3, [sp, #4]
	ldr	r2, [sp, #0]
	add	r3, r3, #76
	add	r2, r2, #28
	ldmia	r2, {r0, r1}
	stmia	r3, {r0, r1}
	.loc 4 50 0
	ldr	r3, [sp, #0]
	flds	s15, [r3, #36]
	ldr	r3, [sp, #4]
	fsts	s15, [r3, #116]
	.loc 4 52 0
	ldr	r3, [sp, #4]
	add	r3, r3, #84
	mov	r0, r3
	bl	_ZN6b2Vec37SetZeroEv
	.loc 4 53 0
	ldr	r3, [sp, #4]
	flds	s15, .L117
	fsts	s15, [r3, #96]
	.loc 4 55 0
	ldr	r3, [sp, #0]
	flds	s15, [r3, #44]
	ldr	r3, [sp, #4]
	fsts	s15, [r3, #120]
	.loc 4 56 0
	ldr	r3, [sp, #0]
	flds	s15, [r3, #48]
	ldr	r3, [sp, #4]
	fsts	s15, [r3, #124]
	.loc 4 57 0
	ldr	r3, [sp, #0]
	flds	s15, [r3, #60]
	ldr	r3, [sp, #4]
	fsts	s15, [r3, #104]
	.loc 4 58 0
	ldr	r3, [sp, #0]
	flds	s15, [r3, #56]
	ldr	r3, [sp, #4]
	fsts	s15, [r3, #108]
	.loc 4 59 0
	ldr	r3, [sp, #0]
	ldrb	r2, [r3, #40]	@ zero_extendqisi2
	ldr	r3, [sp, #4]
	strb	r2, [r3, #112]
	.loc 4 60 0
	ldr	r3, [sp, #0]
	ldrb	r2, [r3, #52]	@ zero_extendqisi2
	ldr	r3, [sp, #4]
	strb	r2, [r3, #100]
	.loc 4 61 0
	ldr	r3, [sp, #4]
	mov	r2, #0
	str	r2, [r3, #224]
	.loc 4 62 0
	ldr	r3, [sp, #4]
	mov	r0, r3
	add	sp, sp, #12
	ldmfd	sp!, {pc}
.L118:
	.align	2
.L117:
	.word	0
	.word	_ZTV15b2RevoluteJoint+8
	.cfi_endproc
.LFE511:
	.size	_ZN15b2RevoluteJointC2EPK18b2RevoluteJointDef, .-_ZN15b2RevoluteJointC2EPK18b2RevoluteJointDef
	.section	.text._ZN15b2RevoluteJointC1EPK18b2RevoluteJointDef,"ax",%progbits
	.align	2
	.global	_ZN15b2RevoluteJointC1EPK18b2RevoluteJointDef
	.hidden	_ZN15b2RevoluteJointC1EPK18b2RevoluteJointDef
	.type	_ZN15b2RevoluteJointC1EPK18b2RevoluteJointDef, %function
_ZN15b2RevoluteJointC1EPK18b2RevoluteJointDef:
.LFB512:
	.loc 4 45 0
	.cfi_startproc
	@ args = 0, pretend = 0, frame = 8
	@ frame_needed = 0, uses_anonymous_args = 0
	str	lr, [sp, #-4]!
.LCFI64:
	.cfi_def_cfa_offset 4
	sub	sp, sp, #12
.LCFI65:
	.cfi_def_cfa_offset 16
	str	r0, [sp, #4]
	str	r1, [sp, #0]
	.loc 4 46 0
	ldr	r2, [sp, #4]
	ldr	r3, [sp, #0]
	mov	r0, r2
	mov	r1, r3
	.cfi_offset 14, -4
	bl	_ZN7b2JointC2EPK10b2JointDef
	ldr	r3, [sp, #4]
	ldr	r2, .L122+4
	str	r2, [r3, #0]
	ldr	r3, [sp, #4]
	add	r3, r3, #68
	mov	r0, r3
	bl	_ZN6b2Vec2C1Ev
	ldr	r3, [sp, #4]
	add	r3, r3, #76
	mov	r0, r3
	bl	_ZN6b2Vec2C1Ev
	ldr	r3, [sp, #4]
	add	r3, r3, #84
	mov	r0, r3
	bl	_ZN6b2Vec3C1Ev
	ldr	r3, [sp, #4]
	add	r3, r3, #136
	mov	r0, r3
	bl	_ZN6b2Vec2C1Ev
	ldr	r3, [sp, #4]
	add	r3, r3, #144
	mov	r0, r3
	bl	_ZN6b2Vec2C1Ev
	ldr	r3, [sp, #4]
	add	r3, r3, #152
	mov	r0, r3
	bl	_ZN6b2Vec2C1Ev
	ldr	r3, [sp, #4]
	add	r3, r3, #160
	mov	r0, r3
	bl	_ZN6b2Vec2C1Ev
	ldr	r3, [sp, #4]
	add	r3, r3, #184
	mov	r0, r3
	bl	_ZN7b2Mat33C1Ev
	.loc 4 48 0
	ldr	r3, [sp, #4]
	ldr	r2, [sp, #0]
	add	r3, r3, #68
	add	r2, r2, #20
	ldmia	r2, {r0, r1}
	stmia	r3, {r0, r1}
	.loc 4 49 0
	ldr	r3, [sp, #4]
	ldr	r2, [sp, #0]
	add	r3, r3, #76
	add	r2, r2, #28
	ldmia	r2, {r0, r1}
	stmia	r3, {r0, r1}
	.loc 4 50 0
	ldr	r3, [sp, #0]
	flds	s15, [r3, #36]
	ldr	r3, [sp, #4]
	fsts	s15, [r3, #116]
	.loc 4 52 0
	ldr	r3, [sp, #4]
	add	r3, r3, #84
	mov	r0, r3
	bl	_ZN6b2Vec37SetZeroEv
	.loc 4 53 0
	ldr	r3, [sp, #4]
	flds	s15, .L122
	fsts	s15, [r3, #96]
	.loc 4 55 0
	ldr	r3, [sp, #0]
	flds	s15, [r3, #44]
	ldr	r3, [sp, #4]
	fsts	s15, [r3, #120]
	.loc 4 56 0
	ldr	r3, [sp, #0]
	flds	s15, [r3, #48]
	ldr	r3, [sp, #4]
	fsts	s15, [r3, #124]
	.loc 4 57 0
	ldr	r3, [sp, #0]
	flds	s15, [r3, #60]
	ldr	r3, [sp, #4]
	fsts	s15, [r3, #104]
	.loc 4 58 0
	ldr	r3, [sp, #0]
	flds	s15, [r3, #56]
	ldr	r3, [sp, #4]
	fsts	s15, [r3, #108]
	.loc 4 59 0
	ldr	r3, [sp, #0]
	ldrb	r2, [r3, #40]	@ zero_extendqisi2
	ldr	r3, [sp, #4]
	strb	r2, [r3, #112]
	.loc 4 60 0
	ldr	r3, [sp, #0]
	ldrb	r2, [r3, #52]	@ zero_extendqisi2
	ldr	r3, [sp, #4]
	strb	r2, [r3, #100]
	.loc 4 61 0
	ldr	r3, [sp, #4]
	mov	r2, #0
	str	r2, [r3, #224]
	.loc 4 62 0
	ldr	r3, [sp, #4]
	mov	r0, r3
	add	sp, sp, #12
	ldmfd	sp!, {pc}
.L123:
	.align	2
.L122:
	.word	0
	.word	_ZTV15b2RevoluteJoint+8
	.cfi_endproc
.LFE512:
	.size	_ZN15b2RevoluteJointC1EPK18b2RevoluteJointDef, .-_ZN15b2RevoluteJointC1EPK18b2RevoluteJointDef
	.section	.text._ZN15b2RevoluteJoint23InitVelocityConstraintsERK12b2SolverData,"ax",%progbits
	.align	2
	.global	_ZN15b2RevoluteJoint23InitVelocityConstraintsERK12b2SolverData
	.hidden	_ZN15b2RevoluteJoint23InitVelocityConstraintsERK12b2SolverData
	.type	_ZN15b2RevoluteJoint23InitVelocityConstraintsERK12b2SolverData, %function
_ZN15b2RevoluteJoint23InitVelocityConstraintsERK12b2SolverData:
.LFB513:
	.loc 4 65 0
	.cfi_startproc
	@ args = 0, pretend = 0, frame = 128
	@ frame_needed = 0, uses_anonymous_args = 0
	stmfd	sp!, {r4, lr}
.LCFI66:
	.cfi_def_cfa_offset 8
	sub	sp, sp, #128
.LCFI67:
	.cfi_def_cfa_offset 136
	str	r0, [sp, #12]
	str	r1, [sp, #8]
.LBB7:
	.loc 4 66 0
	ldr	r3, [sp, #12]
	ldr	r3, [r3, #48]
	ldr	r2, [r3, #8]
	ldr	r3, [sp, #12]
	str	r2, [r3, #128]
	.loc 4 67 0
	ldr	r3, [sp, #12]
	ldr	r3, [r3, #52]
	ldr	r2, [r3, #8]
	ldr	r3, [sp, #12]
	str	r2, [r3, #132]
	.loc 4 68 0
	ldr	r3, [sp, #12]
	ldr	r2, [r3, #48]
	ldr	r3, [sp, #12]
	add	r3, r3, #152
	add	r2, r2, #28
	ldmia	r2, {r0, r1}
	stmia	r3, {r0, r1}
	.loc 4 69 0
	ldr	r3, [sp, #12]
	ldr	r2, [r3, #52]
	ldr	r3, [sp, #12]
	add	r3, r3, #160
	add	r2, r2, #28
	ldmia	r2, {r0, r1}
	stmia	r3, {r0, r1}
	.loc 4 70 0
	ldr	r3, [sp, #12]
	ldr	r3, [r3, #48]
	flds	s15, [r3, #120]
	ldr	r3, [sp, #12]
	fsts	s15, [r3, #168]
	.loc 4 71 0
	ldr	r3, [sp, #12]
	ldr	r3, [r3, #52]
	flds	s15, [r3, #120]
	ldr	r3, [sp, #12]
	fsts	s15, [r3, #172]
	.loc 4 72 0
	ldr	r3, [sp, #12]
	ldr	r3, [r3, #48]
	flds	s15, [r3, #128]
	ldr	r3, [sp, #12]
	fsts	s15, [r3, #176]
	.loc 4 73 0
	ldr	r3, [sp, #12]
	ldr	r3, [r3, #52]
	flds	s15, [r3, #128]
	ldr	r3, [sp, #12]
	fsts	s15, [r3, #180]
	.loc 4 75 0
	ldr	r3, [sp, #8]
	ldr	r1, [r3, #24]
	ldr	r3, [sp, #12]
	ldr	r3, [r3, #128]
	mov	r2, r3
	mov	r3, r2
	mov	r3, r3, asl #1
	add	r3, r3, r2
	mov	r3, r3, asl #2
	add	r3, r1, r3
	flds	s15, [r3, #8]
	fsts	s15, [sp, #88]
	.loc 4 76 0
	ldr	r3, [sp, #8]
	ldr	r1, [r3, #28]
	ldr	r3, [sp, #12]
	ldr	r3, [r3, #128]
	mov	r2, r3
	mov	r3, r2
	mov	r3, r3, asl #1
	add	r3, r3, r2
	mov	r3, r3, asl #2
	add	r2, r1, r3
	add	r3, sp, #48
	ldmia	r2, {r0, r1}
	stmia	r3, {r0, r1}
	.loc 4 77 0
	ldr	r3, [sp, #8]
	ldr	r1, [r3, #28]
	ldr	r3, [sp, #12]
	ldr	r3, [r3, #128]
	mov	r2, r3
	mov	r3, r2
	mov	r3, r3, asl #1
	add	r3, r3, r2
	mov	r3, r3, asl #2
	add	r3, r1, r3
	flds	s15, [r3, #8]
	fsts	s15, [sp, #92]
	.loc 4 79 0
	ldr	r3, [sp, #8]
	ldr	r1, [r3, #24]
	ldr	r3, [sp, #12]
	ldr	r3, [r3, #132]
	mov	r2, r3
	mov	r3, r2
	mov	r3, r3, asl #1
	add	r3, r3, r2
	mov	r3, r3, asl #2
	add	r3, r1, r3
	flds	s15, [r3, #8]
	fsts	s15, [sp, #96]
	.loc 4 80 0
	ldr	r3, [sp, #8]
	ldr	r1, [r3, #28]
	ldr	r3, [sp, #12]
	ldr	r3, [r3, #132]
	mov	r2, r3
	mov	r3, r2
	mov	r3, r3, asl #1
	add	r3, r3, r2
	mov	r3, r3, asl #2
	add	r2, r1, r3
	add	r3, sp, #40
	ldmia	r2, {r0, r1}
	stmia	r3, {r0, r1}
	.loc 4 81 0
	ldr	r3, [sp, #8]
	ldr	r1, [r3, #28]
	ldr	r3, [sp, #12]
	ldr	r3, [r3, #132]
	mov	r2, r3
	mov	r3, r2
	mov	r3, r3, asl #1
	add	r3, r3, r2
	mov	r3, r3, asl #2
	add	r3, r1, r3
	flds	s15, [r3, #8]
	fsts	s15, [sp, #100]
	.loc 4 83 0
	add	r3, sp, #32
	mov	r0, r3
	ldr	r1, [sp, #88]	@ float
	.cfi_offset 14, -4
	.cfi_offset 4, -8
	bl	_ZN5b2RotC1Ef
	add	r3, sp, #24
	mov	r0, r3
	ldr	r1, [sp, #96]	@ float
	bl	_ZN5b2RotC1Ef
	.loc 4 85 0
	ldr	r3, [sp, #12]
	add	r2, r3, #68
	ldr	r3, [sp, #12]
	add	r3, r3, #152
	add	r1, sp, #56
	mov	r0, r1
	mov	r1, r2
	mov	r2, r3
	bl	_ZmiRK6b2Vec2S1_
	ldr	r4, [sp, #12]
	mov	r1, sp
	add	r2, sp, #32
	add	r3, sp, #56
	mov	r0, r1
	mov	r1, r2
	mov	r2, r3
	bl	_Z5b2MulRK5b2RotRK6b2Vec2
	add	r3, r4, #136
	mov	r2, sp
	ldmia	r2, {r0, r1}
	stmia	r3, {r0, r1}
	.loc 4 86 0
	ldr	r3, [sp, #12]
	add	r2, r3, #76
	ldr	r3, [sp, #12]
	add	r3, r3, #160
	add	r1, sp, #64
	mov	r0, r1
	mov	r1, r2
	mov	r2, r3
	bl	_ZmiRK6b2Vec2S1_
	ldr	r4, [sp, #12]
	mov	r1, sp
	add	r2, sp, #24
	add	r3, sp, #64
	mov	r0, r1
	mov	r1, r2
	mov	r2, r3
	bl	_Z5b2MulRK5b2RotRK6b2Vec2
	add	r3, r4, #144
	mov	r2, sp
	ldmia	r2, {r0, r1}
	stmia	r3, {r0, r1}
	.loc 4 97 0
	ldr	r3, [sp, #12]
	flds	s15, [r3, #168]
	fsts	s15, [sp, #104]
	ldr	r3, [sp, #12]
	flds	s15, [r3, #172]
	fsts	s15, [sp, #108]
	.loc 4 98 0
	ldr	r3, [sp, #12]
	flds	s15, [r3, #176]
	fsts	s15, [sp, #112]
	ldr	r3, [sp, #12]
	flds	s15, [r3, #180]
	fsts	s15, [sp, #116]
	.loc 4 100 0
	flds	s14, [sp, #112]
	flds	s15, [sp, #116]
	fadds	s15, s14, s15
	fcmpzs	s15
	fmstat
	movne	r3, #0
	moveq	r3, #1
	strb	r3, [sp, #123]
	.loc 4 102 0
	flds	s14, [sp, #104]
	flds	s15, [sp, #108]
	fadds	s14, s14, s15
	ldr	r3, [sp, #12]
	flds	s13, [r3, #140]
	ldr	r3, [sp, #12]
	flds	s15, [r3, #140]
	fmuls	s15, s13, s15
	flds	s13, [sp, #112]
	fmuls	s15, s15, s13
	fadds	s14, s14, s15
	ldr	r3, [sp, #12]
	flds	s13, [r3, #148]
	ldr	r3, [sp, #12]
	flds	s15, [r3, #148]
	fmuls	s15, s13, s15
	flds	s13, [sp, #116]
	fmuls	s15, s15, s13
	fadds	s15, s14, s15
	ldr	r3, [sp, #12]
	fsts	s15, [r3, #184]
	.loc 4 103 0
	ldr	r3, [sp, #12]
	flds	s15, [r3, #140]
	fnegs	s14, s15
	ldr	r3, [sp, #12]
	flds	s15, [r3, #136]
	fmuls	s15, s14, s15
	flds	s14, [sp, #112]
	fmuls	s14, s15, s14
	ldr	r3, [sp, #12]
	flds	s13, [r3, #148]
	ldr	r3, [sp, #12]
	flds	s15, [r3, #144]
	fmuls	s15, s13, s15
	flds	s13, [sp, #116]
	fmuls	s15, s15, s13
	fsubs	s15, s14, s15
	ldr	r3, [sp, #12]
	fsts	s15, [r3, #196]
	.loc 4 104 0
	ldr	r3, [sp, #12]
	flds	s15, [r3, #140]
	fnegs	s14, s15
	flds	s15, [sp, #112]
	fmuls	s14, s14, s15
	ldr	r3, [sp, #12]
	flds	s13, [r3, #148]
	flds	s15, [sp, #116]
	fmuls	s15, s13, s15
	fsubs	s15, s14, s15
	ldr	r3, [sp, #12]
	fsts	s15, [r3, #208]
	.loc 4 105 0
	ldr	r3, [sp, #12]
	flds	s15, [r3, #196]
	ldr	r3, [sp, #12]
	fsts	s15, [r3, #188]
	.loc 4 106 0
	flds	s14, [sp, #104]
	flds	s15, [sp, #108]
	fadds	s14, s14, s15
	ldr	r3, [sp, #12]
	flds	s13, [r3, #136]
	ldr	r3, [sp, #12]
	flds	s15, [r3, #136]
	fmuls	s15, s13, s15
	flds	s13, [sp, #112]
	fmuls	s15, s15, s13
	fadds	s14, s14, s15
	ldr	r3, [sp, #12]
	flds	s13, [r3, #144]
	ldr	r3, [sp, #12]
	flds	s15, [r3, #144]
	fmuls	s15, s13, s15
	flds	s13, [sp, #116]
	fmuls	s15, s15, s13
	fadds	s15, s14, s15
	ldr	r3, [sp, #12]
	fsts	s15, [r3, #200]
	.loc 4 107 0
	ldr	r3, [sp, #12]
	flds	s14, [r3, #136]
	flds	s15, [sp, #112]
	fmuls	s14, s14, s15
	ldr	r3, [sp, #12]
	flds	s13, [r3, #144]
	flds	s15, [sp, #116]
	fmuls	s15, s13, s15
	fadds	s15, s14, s15
	ldr	r3, [sp, #12]
	fsts	s15, [r3, #212]
	.loc 4 108 0
	ldr	r3, [sp, #12]
	flds	s15, [r3, #208]
	ldr	r3, [sp, #12]
	fsts	s15, [r3, #192]
	.loc 4 109 0
	ldr	r3, [sp, #12]
	flds	s15, [r3, #212]
	ldr	r3, [sp, #12]
	fsts	s15, [r3, #204]
	.loc 4 110 0
	flds	s14, [sp, #112]
	flds	s15, [sp, #116]
	fadds	s15, s14, s15
	ldr	r3, [sp, #12]
	fsts	s15, [r3, #216]
	.loc 4 112 0
	flds	s14, [sp, #112]
	flds	s15, [sp, #116]
	fadds	s15, s14, s15
	ldr	r3, [sp, #12]
	fsts	s15, [r3, #220]
	.loc 4 113 0
	ldr	r3, [sp, #12]
	flds	s15, [r3, #220]
	fcmpezs	s15
	fmstat
	movle	r3, #0
	movgt	r3, #1
	and	r3, r3, #255
	cmp	r3, #0
	beq	.L125
	.loc 4 115 0
	ldr	r3, [sp, #12]
	flds	s15, [r3, #220]
	flds	s14, .L139
	fdivs	s15, s14, s15
	ldr	r3, [sp, #12]
	fsts	s15, [r3, #220]
.L125:
	.loc 4 118 0
	ldr	r3, [sp, #12]
	ldrb	r3, [r3, #100]	@ zero_extendqisi2
	eor	r3, r3, #1
	and	r3, r3, #255
	cmp	r3, #0
	bne	.L126
	ldrb	r3, [sp, #123]	@ zero_extendqisi2
	cmp	r3, #0
	beq	.L127
.L126:
	.loc 4 120 0
	ldr	r3, [sp, #12]
	flds	s15, .L139+8
	fsts	s15, [r3, #96]
.L127:
	.loc 4 123 0
	ldr	r3, [sp, #12]
	ldrb	r3, [r3, #112]	@ zero_extendqisi2
	cmp	r3, #0
	beq	.L128
	ldrb	r3, [sp, #123]
	eor	r3, r3, #1
	and	r3, r3, #255
	cmp	r3, #0
	beq	.L128
.LBB8:
	.loc 4 125 0
	flds	s14, [sp, #96]
	flds	s15, [sp, #88]
	fsubs	s14, s14, s15
	ldr	r3, [sp, #12]
	flds	s15, [r3, #116]
	fsubs	s15, s14, s15
	fsts	s15, [sp, #124]
	.loc 4 126 0
	ldr	r3, [sp, #12]
	flds	s14, [r3, #124]
	ldr	r3, [sp, #12]
	flds	s15, [r3, #120]
	fsubs	s15, s14, s15
	fmrs	r0, s15
	bl	_Z5b2AbsIfET_S0_
	fmsr	s14, r0
	flds	s15, .L139+4
	fcmpes	s14, s15
	fmstat
	movpl	r3, #0
	movmi	r3, #1
	and	r3, r3, #255
	cmp	r3, #0
	beq	.L129
	.loc 4 128 0
	ldr	r3, [sp, #12]
	mov	r2, #3
	str	r2, [r3, #224]
.LBE8:
	.loc 4 123 0
	b	.L135
.L129:
.LBB9:
	.loc 4 130 0
	ldr	r3, [sp, #12]
	flds	s14, [r3, #120]
	flds	s15, [sp, #124]
	fcmpes	s14, s15
	fmstat
	movlt	r3, #0
	movge	r3, #1
	and	r3, r3, #255
	cmp	r3, #0
	beq	.L131
	.loc 4 132 0
	ldr	r3, [sp, #12]
	ldr	r3, [r3, #224]
	cmp	r3, #1
	beq	.L132
	.loc 4 134 0
	ldr	r3, [sp, #12]
	flds	s15, .L139+8
	fsts	s15, [r3, #92]
.L132:
	.loc 4 136 0
	ldr	r3, [sp, #12]
	mov	r2, #1
	str	r2, [r3, #224]
.LBE9:
	.loc 4 123 0
	b	.L135
.L131:
.LBB10:
	.loc 4 138 0
	ldr	r3, [sp, #12]
	flds	s14, [r3, #124]
	flds	s15, [sp, #124]
	fcmpes	s14, s15
	fmstat
	movhi	r3, #0
	movls	r3, #1
	and	r3, r3, #255
	cmp	r3, #0
	beq	.L133
	.loc 4 140 0
	ldr	r3, [sp, #12]
	ldr	r3, [r3, #224]
	cmp	r3, #2
	beq	.L134
	.loc 4 142 0
	ldr	r3, [sp, #12]
	flds	s15, .L139+8
	fsts	s15, [r3, #92]
.L134:
	.loc 4 144 0
	ldr	r3, [sp, #12]
	mov	r2, #2
	str	r2, [r3, #224]
.LBE10:
	.loc 4 123 0
	b	.L135
.L133:
.LBB11:
	.loc 4 148 0
	ldr	r3, [sp, #12]
	mov	r2, #0
	str	r2, [r3, #224]
	.loc 4 149 0
	ldr	r3, [sp, #12]
	flds	s15, .L139+8
	fsts	s15, [r3, #92]
.LBE11:
	.loc 4 123 0
	b	.L135
.L128:
	.loc 4 154 0
	ldr	r3, [sp, #12]
	mov	r2, #0
	str	r2, [r3, #224]
.L135:
	.loc 4 157 0
	ldr	r3, [sp, #8]
	ldrb	r3, [r3, #20]	@ zero_extendqisi2
	cmp	r3, #0
	beq	.L136
.LBB12:
	.loc 4 160 0
	ldr	r3, [sp, #12]
	add	r2, r3, #84
	ldr	r3, [sp, #8]
	ldr	r3, [r3, #8]	@ float
	mov	r0, r2
	mov	r1, r3	@ float
	bl	_ZN6b2Vec3mLEf
	.loc 4 161 0
	ldr	r3, [sp, #12]
	flds	s14, [r3, #96]
	ldr	r3, [sp, #8]
	flds	s15, [r3, #8]
	fmuls	s15, s14, s15
	ldr	r3, [sp, #12]
	fsts	s15, [r3, #96]
	.loc 4 163 0
	ldr	r3, [sp, #12]
	ldr	r2, [r3, #84]	@ float
	ldr	r3, [sp, #12]
	ldr	r3, [r3, #88]	@ float
	add	r1, sp, #16
	mov	r0, r1
	mov	r1, r2	@ float
	mov	r2, r3	@ float
	bl	_ZN6b2Vec2C1Eff
	.loc 4 165 0
	add	r2, sp, #72
	add	r3, sp, #16
	mov	r0, r2
	ldr	r1, [sp, #104]	@ float
	mov	r2, r3
	bl	_ZmlfRK6b2Vec2
	add	r2, sp, #48
	add	r3, sp, #72
	mov	r0, r2
	mov	r1, r3
	bl	_ZN6b2Vec2mIERKS_
	.loc 4 166 0
	ldr	r3, [sp, #12]
	add	r2, r3, #136
	add	r3, sp, #16
	mov	r0, r2
	mov	r1, r3
	bl	_Z7b2CrossRK6b2Vec2S1_
	fmsr	s14, r0
	ldr	r3, [sp, #12]
	flds	s15, [r3, #96]
	fadds	s14, s14, s15
	ldr	r3, [sp, #12]
	flds	s15, [r3, #92]
	fadds	s14, s14, s15
	flds	s15, [sp, #112]
	fmuls	s15, s14, s15
	flds	s14, [sp, #92]
	fsubs	s15, s14, s15
	fsts	s15, [sp, #92]
	.loc 4 168 0
	add	r2, sp, #80
	add	r3, sp, #16
	mov	r0, r2
	ldr	r1, [sp, #108]	@ float
	mov	r2, r3
	bl	_ZmlfRK6b2Vec2
	add	r2, sp, #40
	add	r3, sp, #80
	mov	r0, r2
	mov	r1, r3
	bl	_ZN6b2Vec2pLERKS_
	.loc 4 169 0
	ldr	r3, [sp, #12]
	add	r2, r3, #144
	add	r3, sp, #16
	mov	r0, r2
	mov	r1, r3
	bl	_Z7b2CrossRK6b2Vec2S1_
	fmsr	s14, r0
	ldr	r3, [sp, #12]
	flds	s15, [r3, #96]
	fadds	s14, s14, s15
	ldr	r3, [sp, #12]
	flds	s15, [r3, #92]
	fadds	s14, s14, s15
	flds	s15, [sp, #116]
	fmuls	s15, s14, s15
	flds	s14, [sp, #100]
	fadds	s15, s14, s15
	fsts	s15, [sp, #100]
	b	.L137
.L140:
	.align	2
.L139:
	.word	1065353216
	.word	1032780342
	.word	0
.L136:
.LBE12:
	.loc 4 173 0
	ldr	r3, [sp, #12]
	add	r3, r3, #84
	mov	r0, r3
	bl	_ZN6b2Vec37SetZeroEv
	.loc 4 174 0
	ldr	r3, [sp, #12]
	flds	s15, .L139+8
	fsts	s15, [r3, #96]
.L137:
	.loc 4 177 0
	ldr	r3, [sp, #8]
	ldr	r1, [r3, #28]
	ldr	r3, [sp, #12]
	ldr	r3, [r3, #128]
	mov	r2, r3
	mov	r3, r2
	mov	r3, r3, asl #1
	add	r3, r3, r2
	mov	r3, r3, asl #2
	add	r3, r1, r3
	add	r2, sp, #48
	ldmia	r2, {r0, r1}
	stmia	r3, {r0, r1}
	.loc 4 178 0
	ldr	r3, [sp, #8]
	ldr	r1, [r3, #28]
	ldr	r3, [sp, #12]
	ldr	r3, [r3, #128]
	mov	r2, r3
	mov	r3, r2
	mov	r3, r3, asl #1
	add	r3, r3, r2
	mov	r3, r3, asl #2
	add	r3, r1, r3
	flds	s15, [sp, #92]
	fsts	s15, [r3, #8]
	.loc 4 179 0
	ldr	r3, [sp, #8]
	ldr	r1, [r3, #28]
	ldr	r3, [sp, #12]
	ldr	r3, [r3, #132]
	mov	r2, r3
	mov	r3, r2
	mov	r3, r3, asl #1
	add	r3, r3, r2
	mov	r3, r3, asl #2
	add	r3, r1, r3
	add	r2, sp, #40
	ldmia	r2, {r0, r1}
	stmia	r3, {r0, r1}
	.loc 4 180 0
	ldr	r3, [sp, #8]
	ldr	r1, [r3, #28]
	ldr	r3, [sp, #12]
	ldr	r3, [r3, #132]
	mov	r2, r3
	mov	r3, r2
	mov	r3, r3, asl #1
	add	r3, r3, r2
	mov	r3, r3, asl #2
	add	r3, r1, r3
	flds	s15, [sp, #100]
	fsts	s15, [r3, #8]
.LBE7:
	.loc 4 181 0
	add	sp, sp, #128
	ldmfd	sp!, {r4, pc}
	.cfi_endproc
.LFE513:
	.size	_ZN15b2RevoluteJoint23InitVelocityConstraintsERK12b2SolverData, .-_ZN15b2RevoluteJoint23InitVelocityConstraintsERK12b2SolverData
	.section	.text._ZN15b2RevoluteJoint24SolveVelocityConstraintsERK12b2SolverData,"ax",%progbits
	.align	2
	.global	_ZN15b2RevoluteJoint24SolveVelocityConstraintsERK12b2SolverData
	.hidden	_ZN15b2RevoluteJoint24SolveVelocityConstraintsERK12b2SolverData
	.type	_ZN15b2RevoluteJoint24SolveVelocityConstraintsERK12b2SolverData, %function
_ZN15b2RevoluteJoint24SolveVelocityConstraintsERK12b2SolverData:
.LFB514:
	.loc 4 184 0
	.cfi_startproc
	@ args = 0, pretend = 0, frame = 336
	@ frame_needed = 0, uses_anonymous_args = 0
	stmfd	sp!, {r4, lr}
.LCFI68:
	.cfi_def_cfa_offset 8
	sub	sp, sp, #336
.LCFI69:
	.cfi_def_cfa_offset 344
	str	r0, [sp, #4]
	str	r1, [sp, #0]
.LBB13:
	.loc 4 185 0
	ldr	r3, [sp, #0]
	ldr	r1, [r3, #28]
	ldr	r3, [sp, #4]
	ldr	r3, [r3, #128]
	mov	r2, r3
	mov	r3, r2
	mov	r3, r3, asl #1
	add	r3, r3, r2
	mov	r3, r3, asl #2
	add	r2, r1, r3
	add	r3, sp, #108
	ldmia	r2, {r0, r1}
	stmia	r3, {r0, r1}
	.loc 4 186 0
	ldr	r3, [sp, #0]
	ldr	r1, [r3, #28]
	ldr	r3, [sp, #4]
	ldr	r3, [r3, #128]
	mov	r2, r3
	mov	r3, r2
	mov	r3, r3, asl #1
	add	r3, r3, r2
	mov	r3, r3, asl #2
	add	r3, r1, r3
	flds	s15, [r3, #8]
	fsts	s15, [sp, #280]
	.loc 4 187 0
	ldr	r3, [sp, #0]
	ldr	r1, [r3, #28]
	ldr	r3, [sp, #4]
	ldr	r3, [r3, #132]
	mov	r2, r3
	mov	r3, r2
	mov	r3, r3, asl #1
	add	r3, r3, r2
	mov	r3, r3, asl #2
	add	r2, r1, r3
	add	r3, sp, #100
	ldmia	r2, {r0, r1}
	stmia	r3, {r0, r1}
	.loc 4 188 0
	ldr	r3, [sp, #0]
	ldr	r1, [r3, #28]
	ldr	r3, [sp, #4]
	ldr	r3, [r3, #132]
	mov	r2, r3
	mov	r3, r2
	mov	r3, r3, asl #1
	add	r3, r3, r2
	mov	r3, r3, asl #2
	add	r3, r1, r3
	flds	s15, [r3, #8]
	fsts	s15, [sp, #284]
	.loc 4 190 0
	ldr	r3, [sp, #4]
	flds	s15, [r3, #168]
	fsts	s15, [sp, #288]
	ldr	r3, [sp, #4]
	flds	s15, [r3, #172]
	fsts	s15, [sp, #292]
	.loc 4 191 0
	ldr	r3, [sp, #4]
	flds	s15, [r3, #176]
	fsts	s15, [sp, #296]
	ldr	r3, [sp, #4]
	flds	s15, [r3, #180]
	fsts	s15, [sp, #300]
	.loc 4 193 0
	flds	s14, [sp, #296]
	flds	s15, [sp, #300]
	fadds	s15, s14, s15
	fcmpzs	s15
	fmstat
	movne	r3, #0
	moveq	r3, #1
	strb	r3, [sp, #307]
	.loc 4 196 0
	ldr	r3, [sp, #4]
	ldrb	r3, [r3, #100]	@ zero_extendqisi2
	cmp	r3, #0
	beq	.L142
	.cfi_offset 14, -4
	.cfi_offset 4, -8
	ldr	r3, [sp, #4]
	ldr	r3, [r3, #224]
	cmp	r3, #3
	beq	.L142
	ldrb	r3, [sp, #307]
	eor	r3, r3, #1
	and	r3, r3, #255
	cmp	r3, #0
	beq	.L142
.LBB14:
	.loc 4 198 0
	flds	s14, [sp, #284]
	flds	s15, [sp, #280]
	fsubs	s14, s14, s15
	ldr	r3, [sp, #4]
	flds	s15, [r3, #108]
	fsubs	s15, s14, s15
	fsts	s15, [sp, #308]
	.loc 4 199 0
	ldr	r3, [sp, #4]
	flds	s15, [r3, #220]
	fnegs	s14, s15
	flds	s15, [sp, #308]
	fmuls	s15, s14, s15
	fsts	s15, [sp, #312]
	.loc 4 200 0
	ldr	r3, [sp, #4]
	flds	s15, [r3, #96]
	fsts	s15, [sp, #316]
	.loc 4 201 0
	ldr	r3, [sp, #0]
	flds	s14, [r3, #0]
	ldr	r3, [sp, #4]
	flds	s15, [r3, #104]
	fmuls	s15, s14, s15
	fsts	s15, [sp, #320]
	.loc 4 202 0
	ldr	r3, [sp, #4]
	flds	s14, [r3, #96]
	flds	s15, [sp, #312]
	fadds	s14, s14, s15
	flds	s15, [sp, #320]
	fnegs	s15, s15
	fmrs	r0, s14
	fmrs	r1, s15
	ldr	r2, [sp, #320]	@ float
	bl	_Z7b2ClampIfET_S0_S0_S0_
	mov	r2, r0	@ float
	ldr	r3, [sp, #4]
	str	r2, [r3, #96]	@ float
	.loc 4 203 0
	ldr	r3, [sp, #4]
	flds	s14, [r3, #96]
	flds	s15, [sp, #316]
	fsubs	s15, s14, s15
	fsts	s15, [sp, #312]
	.loc 4 205 0
	flds	s14, [sp, #296]
	flds	s15, [sp, #312]
	fmuls	s15, s14, s15
	flds	s14, [sp, #280]
	fsubs	s15, s14, s15
	fsts	s15, [sp, #280]
	.loc 4 206 0
	flds	s14, [sp, #300]
	flds	s15, [sp, #312]
	fmuls	s15, s14, s15
	flds	s14, [sp, #284]
	fadds	s15, s14, s15
	fsts	s15, [sp, #284]
.L142:
.LBE14:
	.loc 4 210 0
	ldr	r3, [sp, #4]
	ldrb	r3, [r3, #112]	@ zero_extendqisi2
	cmp	r3, #0
	beq	.L143
	ldr	r3, [sp, #4]
	ldr	r3, [r3, #224]
	cmp	r3, #0
	beq	.L143
	ldrb	r3, [sp, #307]
	eor	r3, r3, #1
	and	r3, r3, #255
	cmp	r3, #0
	beq	.L143
.LBB15:
	.loc 4 212 0
	ldr	r3, [sp, #4]
	add	r3, r3, #144
	add	r2, sp, #132
	mov	r0, r2
	ldr	r1, [sp, #284]	@ float
	mov	r2, r3
	bl	_Z7b2CrossfRK6b2Vec2
	add	r1, sp, #124
	add	r2, sp, #100
	add	r3, sp, #132
	mov	r0, r1
	mov	r1, r2
	mov	r2, r3
	bl	_ZplRK6b2Vec2S1_
	add	r1, sp, #116
	add	r2, sp, #124
	add	r3, sp, #108
	mov	r0, r1
	mov	r1, r2
	mov	r2, r3
	bl	_ZmiRK6b2Vec2S1_
	ldr	r3, [sp, #4]
	add	r3, r3, #136
	add	r2, sp, #140
	mov	r0, r2
	ldr	r1, [sp, #280]	@ float
	mov	r2, r3
	bl	_Z7b2CrossfRK6b2Vec2
	add	r1, sp, #92
	add	r2, sp, #116
	add	r3, sp, #140
	mov	r0, r1
	mov	r1, r2
	mov	r2, r3
	bl	_ZmiRK6b2Vec2S1_
	.loc 4 213 0
	flds	s14, [sp, #284]
	flds	s15, [sp, #280]
	fsubs	s15, s14, s15
	fsts	s15, [sp, #324]
	.loc 4 214 0
	ldr	r2, [sp, #92]	@ float
	ldr	r3, [sp, #96]	@ float
	add	r1, sp, #80
	mov	r0, r1
	mov	r1, r2	@ float
	mov	r2, r3	@ float
	ldr	r3, [sp, #324]	@ float
	bl	_ZN6b2Vec3C1Efff
	.loc 4 216 0
	ldr	r3, [sp, #4]
	add	r2, r3, #184
	add	r1, sp, #148
	add	r3, sp, #80
	mov	r0, r1
	mov	r1, r2
	mov	r2, r3
	bl	_ZNK7b2Mat337Solve33ERK6b2Vec3
	add	r2, sp, #68
	add	r3, sp, #148
	mov	r0, r2
	mov	r1, r3
	bl	_ZNK6b2Vec3ngEv
	.loc 4 218 0
	ldr	r3, [sp, #4]
	ldr	r3, [r3, #224]
	cmp	r3, #3
	bne	.L144
	.loc 4 220 0
	ldr	r3, [sp, #4]
	add	r2, r3, #84
	add	r3, sp, #68
	mov	r0, r2
	mov	r1, r3
	bl	_ZN6b2Vec3pLERKS_
	b	.L145
.L144:
	.loc 4 222 0
	ldr	r3, [sp, #4]
	ldr	r3, [r3, #224]
	cmp	r3, #1
	bne	.L146
.LBB16:
	.loc 4 224 0
	ldr	r3, [sp, #4]
	flds	s14, [r3, #92]
	flds	s15, [sp, #76]
	fadds	s15, s14, s15
	fsts	s15, [sp, #328]
	.loc 4 225 0
	flds	s15, [sp, #328]
	fcmpezs	s15
	fmstat
	movpl	r3, #0
	movmi	r3, #1
	and	r3, r3, #255
	cmp	r3, #0
	beq	.L147
.LBB17:
	.loc 4 227 0
	add	r2, sp, #160
	add	r3, sp, #92
	mov	r0, r2
	mov	r1, r3
	bl	_ZNK6b2Vec2ngEv
	ldr	r3, [sp, #4]
	ldr	r4, [r3, #92]	@ float
	ldr	r3, [sp, #4]
	ldr	r2, [r3, #208]	@ float
	ldr	r3, [sp, #4]
	ldr	r3, [r3, #212]	@ float
	add	r1, sp, #176
	mov	r0, r1
	mov	r1, r2	@ float
	mov	r2, r3	@ float
	bl	_ZN6b2Vec2C1Eff
	add	r2, sp, #168
	add	r3, sp, #176
	mov	r0, r2
	mov	r1, r4	@ float
	mov	r2, r3
	bl	_ZmlfRK6b2Vec2
	add	r1, sp, #52
	add	r2, sp, #160
	add	r3, sp, #168
	mov	r0, r1
	mov	r1, r2
	mov	r2, r3
	bl	_ZplRK6b2Vec2S1_
	.loc 4 228 0
	ldr	r3, [sp, #4]
	add	r2, r3, #184
	add	r1, sp, #44
	add	r3, sp, #52
	mov	r0, r1
	mov	r1, r2
	mov	r2, r3
	bl	_ZNK7b2Mat337Solve22ERK6b2Vec2
	.loc 4 229 0
	flds	s15, [sp, #44]
	fsts	s15, [sp, #68]
	.loc 4 230 0
	flds	s15, [sp, #48]
	fsts	s15, [sp, #72]
	.loc 4 231 0
	ldr	r3, [sp, #4]
	flds	s15, [r3, #92]
	fnegs	s15, s15
	fsts	s15, [sp, #76]
	.loc 4 232 0
	ldr	r3, [sp, #4]
	flds	s14, [r3, #84]
	flds	s15, [sp, #44]
	fadds	s15, s14, s15
	ldr	r3, [sp, #4]
	fsts	s15, [r3, #84]
	.loc 4 233 0
	ldr	r3, [sp, #4]
	flds	s14, [r3, #88]
	flds	s15, [sp, #48]
	fadds	s15, s14, s15
	ldr	r3, [sp, #4]
	fsts	s15, [r3, #88]
	.loc 4 234 0
	ldr	r3, [sp, #4]
	flds	s15, .L152
	fsts	s15, [r3, #92]
.LBE17:
	.loc 4 238 0
	b	.L145
.L147:
	ldr	r3, [sp, #4]
	add	r2, r3, #84
	add	r3, sp, #68
	mov	r0, r2
	mov	r1, r3
	bl	_ZN6b2Vec3pLERKS_
	b	.L145
.L146:
.LBE16:
	.loc 4 241 0
	ldr	r3, [sp, #4]
	ldr	r3, [r3, #224]
	cmp	r3, #2
	bne	.L145
.LBB18:
	.loc 4 243 0
	ldr	r3, [sp, #4]
	flds	s14, [r3, #92]
	flds	s15, [sp, #76]
	fadds	s15, s14, s15
	fsts	s15, [sp, #332]
	.loc 4 244 0
	flds	s15, [sp, #332]
	fcmpezs	s15
	fmstat
	movle	r3, #0
	movgt	r3, #1
	and	r3, r3, #255
	cmp	r3, #0
	beq	.L149
.LBB19:
	.loc 4 246 0
	add	r2, sp, #184
	add	r3, sp, #92
	mov	r0, r2
	mov	r1, r3
	bl	_ZNK6b2Vec2ngEv
	ldr	r3, [sp, #4]
	ldr	r4, [r3, #92]	@ float
	ldr	r3, [sp, #4]
	ldr	r2, [r3, #208]	@ float
	ldr	r3, [sp, #4]
	ldr	r3, [r3, #212]	@ float
	add	r1, sp, #200
	mov	r0, r1
	mov	r1, r2	@ float
	mov	r2, r3	@ float
	bl	_ZN6b2Vec2C1Eff
	add	r2, sp, #192
	add	r3, sp, #200
	mov	r0, r2
	mov	r1, r4	@ float
	mov	r2, r3
	bl	_ZmlfRK6b2Vec2
	add	r1, sp, #36
	add	r2, sp, #184
	add	r3, sp, #192
	mov	r0, r1
	mov	r1, r2
	mov	r2, r3
	bl	_ZplRK6b2Vec2S1_
	.loc 4 247 0
	ldr	r3, [sp, #4]
	add	r2, r3, #184
	add	r1, sp, #28
	add	r3, sp, #36
	mov	r0, r1
	mov	r1, r2
	mov	r2, r3
	bl	_ZNK7b2Mat337Solve22ERK6b2Vec2
	.loc 4 248 0
	flds	s15, [sp, #28]
	fsts	s15, [sp, #68]
	.loc 4 249 0
	flds	s15, [sp, #32]
	fsts	s15, [sp, #72]
	.loc 4 250 0
	ldr	r3, [sp, #4]
	flds	s15, [r3, #92]
	fnegs	s15, s15
	fsts	s15, [sp, #76]
	.loc 4 251 0
	ldr	r3, [sp, #4]
	flds	s14, [r3, #84]
	flds	s15, [sp, #28]
	fadds	s15, s14, s15
	ldr	r3, [sp, #4]
	fsts	s15, [r3, #84]
	.loc 4 252 0
	ldr	r3, [sp, #4]
	flds	s14, [r3, #88]
	flds	s15, [sp, #32]
	fadds	s15, s14, s15
	ldr	r3, [sp, #4]
	fsts	s15, [r3, #88]
	.loc 4 253 0
	ldr	r3, [sp, #4]
	flds	s15, .L152
	fsts	s15, [r3, #92]
	b	.L145
.L149:
.LBE19:
	.loc 4 257 0
	ldr	r3, [sp, #4]
	add	r2, r3, #84
	add	r3, sp, #68
	mov	r0, r2
	mov	r1, r3
	bl	_ZN6b2Vec3pLERKS_
.L145:
.LBE18:
	.loc 4 261 0
	ldr	r2, [sp, #68]	@ float
	ldr	r3, [sp, #72]	@ float
	add	r1, sp, #60
	mov	r0, r1
	mov	r1, r2	@ float
	mov	r2, r3	@ float
	bl	_ZN6b2Vec2C1Eff
	.loc 4 263 0
	add	r2, sp, #208
	add	r3, sp, #60
	mov	r0, r2
	ldr	r1, [sp, #288]	@ float
	mov	r2, r3
	bl	_ZmlfRK6b2Vec2
	add	r2, sp, #108
	add	r3, sp, #208
	mov	r0, r2
	mov	r1, r3
	bl	_ZN6b2Vec2mIERKS_
	.loc 4 264 0
	ldr	r3, [sp, #4]
	add	r2, r3, #136
	add	r3, sp, #60
	mov	r0, r2
	mov	r1, r3
	bl	_Z7b2CrossRK6b2Vec2S1_
	fmsr	s14, r0
	flds	s15, [sp, #76]
	fadds	s14, s14, s15
	flds	s15, [sp, #296]
	fmuls	s15, s14, s15
	flds	s14, [sp, #280]
	fsubs	s15, s14, s15
	fsts	s15, [sp, #280]
	.loc 4 266 0
	add	r2, sp, #216
	add	r3, sp, #60
	mov	r0, r2
	ldr	r1, [sp, #292]	@ float
	mov	r2, r3
	bl	_ZmlfRK6b2Vec2
	add	r2, sp, #100
	add	r3, sp, #216
	mov	r0, r2
	mov	r1, r3
	bl	_ZN6b2Vec2pLERKS_
	.loc 4 267 0
	ldr	r3, [sp, #4]
	add	r2, r3, #144
	add	r3, sp, #60
	mov	r0, r2
	mov	r1, r3
	bl	_Z7b2CrossRK6b2Vec2S1_
	fmsr	s14, r0
	flds	s15, [sp, #76]
	fadds	s14, s14, s15
	flds	s15, [sp, #300]
	fmuls	s15, s14, s15
	flds	s14, [sp, #284]
	fadds	s15, s14, s15
	fsts	s15, [sp, #284]
.LBE15:
	.loc 4 210 0
	b	.L150
.L153:
	.align	2
.L152:
	.word	0
.L143:
.LBB20:
	.loc 4 272 0
	ldr	r3, [sp, #4]
	add	r3, r3, #144
	add	r2, sp, #240
	mov	r0, r2
	ldr	r1, [sp, #284]	@ float
	mov	r2, r3
	bl	_Z7b2CrossfRK6b2Vec2
	add	r1, sp, #232
	add	r2, sp, #100
	add	r3, sp, #240
	mov	r0, r1
	mov	r1, r2
	mov	r2, r3
	bl	_ZplRK6b2Vec2S1_
	add	r1, sp, #224
	add	r2, sp, #232
	add	r3, sp, #108
	mov	r0, r1
	mov	r1, r2
	mov	r2, r3
	bl	_ZmiRK6b2Vec2S1_
	ldr	r3, [sp, #4]
	add	r3, r3, #136
	add	r2, sp, #248
	mov	r0, r2
	ldr	r1, [sp, #280]	@ float
	mov	r2, r3
	bl	_Z7b2CrossfRK6b2Vec2
	add	r1, sp, #20
	add	r2, sp, #224
	add	r3, sp, #248
	mov	r0, r1
	mov	r1, r2
	mov	r2, r3
	bl	_ZmiRK6b2Vec2S1_
	.loc 4 273 0
	ldr	r3, [sp, #4]
	add	r4, r3, #184
	add	r2, sp, #256
	add	r3, sp, #20
	mov	r0, r2
	mov	r1, r3
	bl	_ZNK6b2Vec2ngEv
	add	r2, sp, #12
	add	r3, sp, #256
	mov	r0, r2
	mov	r1, r4
	mov	r2, r3
	bl	_ZNK7b2Mat337Solve22ERK6b2Vec2
	.loc 4 275 0
	ldr	r3, [sp, #4]
	flds	s14, [r3, #84]
	flds	s15, [sp, #12]
	fadds	s15, s14, s15
	ldr	r3, [sp, #4]
	fsts	s15, [r3, #84]
	.loc 4 276 0
	ldr	r3, [sp, #4]
	flds	s14, [r3, #88]
	flds	s15, [sp, #16]
	fadds	s15, s14, s15
	ldr	r3, [sp, #4]
	fsts	s15, [r3, #88]
	.loc 4 278 0
	add	r2, sp, #264
	add	r3, sp, #12
	mov	r0, r2
	ldr	r1, [sp, #288]	@ float
	mov	r2, r3
	bl	_ZmlfRK6b2Vec2
	add	r2, sp, #108
	add	r3, sp, #264
	mov	r0, r2
	mov	r1, r3
	bl	_ZN6b2Vec2mIERKS_
	.loc 4 279 0
	ldr	r3, [sp, #4]
	add	r2, r3, #136
	add	r3, sp, #12
	mov	r0, r2
	mov	r1, r3
	bl	_Z7b2CrossRK6b2Vec2S1_
	fmsr	s14, r0
	flds	s15, [sp, #296]
	fmuls	s15, s14, s15
	flds	s14, [sp, #280]
	fsubs	s15, s14, s15
	fsts	s15, [sp, #280]
	.loc 4 281 0
	add	r2, sp, #272
	add	r3, sp, #12
	mov	r0, r2
	ldr	r1, [sp, #292]	@ float
	mov	r2, r3
	bl	_ZmlfRK6b2Vec2
	add	r2, sp, #100
	add	r3, sp, #272
	mov	r0, r2
	mov	r1, r3
	bl	_ZN6b2Vec2pLERKS_
	.loc 4 282 0
	ldr	r3, [sp, #4]
	add	r2, r3, #144
	add	r3, sp, #12
	mov	r0, r2
	mov	r1, r3
	bl	_Z7b2CrossRK6b2Vec2S1_
	fmsr	s14, r0
	flds	s15, [sp, #300]
	fmuls	s15, s14, s15
	flds	s14, [sp, #284]
	fadds	s15, s14, s15
	fsts	s15, [sp, #284]
.L150:
.LBE20:
	.loc 4 285 0
	ldr	r3, [sp, #0]
	ldr	r1, [r3, #28]
	ldr	r3, [sp, #4]
	ldr	r3, [r3, #128]
	mov	r2, r3
	mov	r3, r2
	mov	r3, r3, asl #1
	add	r3, r3, r2
	mov	r3, r3, asl #2
	add	r3, r1, r3
	add	r2, sp, #108
	ldmia	r2, {r0, r1}
	stmia	r3, {r0, r1}
	.loc 4 286 0
	ldr	r3, [sp, #0]
	ldr	r1, [r3, #28]
	ldr	r3, [sp, #4]
	ldr	r3, [r3, #128]
	mov	r2, r3
	mov	r3, r2
	mov	r3, r3, asl #1
	add	r3, r3, r2
	mov	r3, r3, asl #2
	add	r3, r1, r3
	flds	s15, [sp, #280]
	fsts	s15, [r3, #8]
	.loc 4 287 0
	ldr	r3, [sp, #0]
	ldr	r1, [r3, #28]
	ldr	r3, [sp, #4]
	ldr	r3, [r3, #132]
	mov	r2, r3
	mov	r3, r2
	mov	r3, r3, asl #1
	add	r3, r3, r2
	mov	r3, r3, asl #2
	add	r3, r1, r3
	add	r2, sp, #100
	ldmia	r2, {r0, r1}
	stmia	r3, {r0, r1}
	.loc 4 288 0
	ldr	r3, [sp, #0]
	ldr	r1, [r3, #28]
	ldr	r3, [sp, #4]
	ldr	r3, [r3, #132]
	mov	r2, r3
	mov	r3, r2
	mov	r3, r3, asl #1
	add	r3, r3, r2
	mov	r3, r3, asl #2
	add	r3, r1, r3
	flds	s15, [sp, #284]
	fsts	s15, [r3, #8]
.LBE13:
	.loc 4 289 0
	add	sp, sp, #336
	ldmfd	sp!, {r4, pc}
	.cfi_endproc
.LFE514:
	.size	_ZN15b2RevoluteJoint24SolveVelocityConstraintsERK12b2SolverData, .-_ZN15b2RevoluteJoint24SolveVelocityConstraintsERK12b2SolverData
	.section	.text._ZN15b2RevoluteJoint24SolvePositionConstraintsERK12b2SolverData,"ax",%progbits
	.align	2
	.global	_ZN15b2RevoluteJoint24SolvePositionConstraintsERK12b2SolverData
	.hidden	_ZN15b2RevoluteJoint24SolvePositionConstraintsERK12b2SolverData
	.type	_ZN15b2RevoluteJoint24SolvePositionConstraintsERK12b2SolverData, %function
_ZN15b2RevoluteJoint24SolvePositionConstraintsERK12b2SolverData:
.LFB515:
	.loc 4 292 0
	.cfi_startproc
	@ args = 0, pretend = 0, frame = 200
	@ frame_needed = 0, uses_anonymous_args = 0
	str	lr, [sp, #-4]!
.LCFI70:
	.cfi_def_cfa_offset 4
	sub	sp, sp, #204
.LCFI71:
	.cfi_def_cfa_offset 208
	str	r0, [sp, #4]
	str	r1, [sp, #0]
.LBB21:
	.loc 4 293 0
	ldr	r3, [sp, #0]
	ldr	r1, [r3, #24]
	ldr	r3, [sp, #4]
	ldr	r3, [r3, #128]
	mov	r2, r3
	mov	r3, r2
	mov	r3, r3, asl #1
	add	r3, r3, r2
	mov	r3, r3, asl #2
	add	r2, r1, r3
	add	r3, sp, #80
	ldmia	r2, {r0, r1}
	stmia	r3, {r0, r1}
	.loc 4 294 0
	ldr	r3, [sp, #0]
	ldr	r1, [r3, #24]
	ldr	r3, [sp, #4]
	ldr	r3, [r3, #128]
	mov	r2, r3
	mov	r3, r2
	mov	r3, r3, asl #1
	add	r3, r3, r2
	mov	r3, r3, asl #2
	add	r3, r1, r3
	flds	s15, [r3, #8]
	fsts	s15, [sp, #144]
	.loc 4 295 0
	ldr	r3, [sp, #0]
	ldr	r1, [r3, #24]
	ldr	r3, [sp, #4]
	ldr	r3, [r3, #132]
	mov	r2, r3
	mov	r3, r2
	mov	r3, r3, asl #1
	add	r3, r3, r2
	mov	r3, r3, asl #2
	add	r2, r1, r3
	add	r3, sp, #72
	ldmia	r2, {r0, r1}
	stmia	r3, {r0, r1}
	.loc 4 296 0
	ldr	r3, [sp, #0]
	ldr	r1, [r3, #24]
	ldr	r3, [sp, #4]
	ldr	r3, [r3, #132]
	mov	r2, r3
	mov	r3, r2
	mov	r3, r3, asl #1
	add	r3, r3, r2
	mov	r3, r3, asl #2
	add	r3, r1, r3
	flds	s15, [r3, #8]
	fsts	s15, [sp, #148]
	.loc 4 298 0
	add	r3, sp, #64
	mov	r0, r3
	ldr	r1, [sp, #144]	@ float
	.cfi_offset 14, -4
	bl	_ZN5b2RotC1Ef
	add	r3, sp, #56
	mov	r0, r3
	ldr	r1, [sp, #148]	@ float
	bl	_ZN5b2RotC1Ef
	.loc 4 300 0
	flds	s15, .L162+4
	fsts	s15, [sp, #152]
	.loc 4 301 0
	flds	s15, .L162+4
	fsts	s15, [sp, #156]
	.loc 4 303 0
	ldr	r3, [sp, #4]
	flds	s14, [r3, #176]
	ldr	r3, [sp, #4]
	flds	s15, [r3, #180]
	fadds	s15, s14, s15
	fcmpzs	s15
	fmstat
	movne	r3, #0
	moveq	r3, #1
	strb	r3, [sp, #163]
	.loc 4 306 0
	ldr	r3, [sp, #4]
	ldrb	r3, [r3, #112]	@ zero_extendqisi2
	cmp	r3, #0
	beq	.L155
	ldr	r3, [sp, #4]
	ldr	r3, [r3, #224]
	cmp	r3, #0
	beq	.L155
	ldrb	r3, [sp, #163]
	eor	r3, r3, #1
	and	r3, r3, #255
	cmp	r3, #0
	beq	.L155
.LBB22:
	.loc 4 308 0
	flds	s14, [sp, #148]
	flds	s15, [sp, #144]
	fsubs	s14, s14, s15
	ldr	r3, [sp, #4]
	flds	s15, [r3, #116]
	fsubs	s15, s14, s15
	fsts	s15, [sp, #164]
	.loc 4 309 0
	flds	s15, .L162+4
	fsts	s15, [sp, #168]
	.loc 4 311 0
	ldr	r3, [sp, #4]
	ldr	r3, [r3, #224]
	cmp	r3, #3
	bne	.L156
.LBB23:
	.loc 4 314 0
	ldr	r3, [sp, #4]
	flds	s15, [r3, #120]
	flds	s14, [sp, #164]
	fsubs	s15, s14, s15
	fmrs	r0, s15
	ldr	r1, .L162	@ float
	ldr	r2, .L162+8	@ float
	bl	_Z7b2ClampIfET_S0_S0_S0_
	mov	r3, r0	@ float
	str	r3, [sp, #172]	@ float
	.loc 4 315 0
	ldr	r3, [sp, #4]
	flds	s15, [r3, #220]
	fnegs	s14, s15
	flds	s15, [sp, #172]
	fmuls	s15, s14, s15
	fsts	s15, [sp, #168]
	.loc 4 316 0
	ldr	r0, [sp, #172]	@ float
	bl	_Z5b2AbsIfET_S0_
	mov	r3, r0	@ float
	str	r3, [sp, #152]	@ float
	b	.L157
.L156:
.LBE23:
	.loc 4 318 0
	ldr	r3, [sp, #4]
	ldr	r3, [r3, #224]
	cmp	r3, #1
	bne	.L158
.LBB24:
	.loc 4 320 0
	ldr	r3, [sp, #4]
	flds	s15, [r3, #120]
	flds	s14, [sp, #164]
	fsubs	s15, s14, s15
	fsts	s15, [sp, #176]
	.loc 4 321 0
	flds	s15, [sp, #176]
	fnegs	s15, s15
	fsts	s15, [sp, #152]
	.loc 4 324 0
	flds	s14, [sp, #176]
	flds	s15, .L162+12
	fadds	s15, s14, s15
	fmrs	r0, s15
	ldr	r1, .L162	@ float
	ldr	r2, .L162+4	@ float
	bl	_Z7b2ClampIfET_S0_S0_S0_
	mov	r3, r0	@ float
	str	r3, [sp, #176]	@ float
	.loc 4 325 0
	ldr	r3, [sp, #4]
	flds	s15, [r3, #220]
	fnegs	s14, s15
	flds	s15, [sp, #176]
	fmuls	s15, s14, s15
	fsts	s15, [sp, #168]
	b	.L157
.L163:
	.align	2
.L162:
	.word	-1106314698
	.word	0
	.word	1041168950
	.word	1024391734
.L158:
.LBE24:
	.loc 4 327 0
	ldr	r3, [sp, #4]
	ldr	r3, [r3, #224]
	cmp	r3, #2
	bne	.L157
.LBB25:
	.loc 4 329 0
	ldr	r3, [sp, #4]
	flds	s15, [r3, #124]
	flds	s14, [sp, #164]
	fsubs	s15, s14, s15
	fsts	s15, [sp, #180]
	.loc 4 330 0
	flds	s15, [sp, #180]
	fsts	s15, [sp, #152]
	.loc 4 333 0
	flds	s14, [sp, #180]
	flds	s15, .L162+12
	fsubs	s15, s14, s15
	fmrs	r0, s15
	ldr	r1, .L162+4	@ float
	ldr	r2, .L162+8	@ float
	bl	_Z7b2ClampIfET_S0_S0_S0_
	mov	r3, r0	@ float
	str	r3, [sp, #180]	@ float
	.loc 4 334 0
	ldr	r3, [sp, #4]
	flds	s15, [r3, #220]
	fnegs	s14, s15
	flds	s15, [sp, #180]
	fmuls	s15, s14, s15
	fsts	s15, [sp, #168]
.L157:
.LBE25:
	.loc 4 337 0
	ldr	r3, [sp, #4]
	flds	s14, [r3, #176]
	flds	s15, [sp, #168]
	fmuls	s15, s14, s15
	flds	s14, [sp, #144]
	fsubs	s15, s14, s15
	fsts	s15, [sp, #144]
	.loc 4 338 0
	ldr	r3, [sp, #4]
	flds	s14, [r3, #180]
	flds	s15, [sp, #168]
	fmuls	s15, s14, s15
	flds	s14, [sp, #148]
	fadds	s15, s14, s15
	fsts	s15, [sp, #148]
.L155:
.LBE22:
.LBB26:
	.loc 4 343 0
	add	r3, sp, #64
	mov	r0, r3
	ldr	r1, [sp, #144]	@ float
	bl	_ZN5b2Rot3SetEf
	.loc 4 344 0
	add	r3, sp, #56
	mov	r0, r3
	ldr	r1, [sp, #148]	@ float
	bl	_ZN5b2Rot3SetEf
	.loc 4 345 0
	ldr	r3, [sp, #4]
	add	r2, r3, #68
	ldr	r3, [sp, #4]
	add	r3, r3, #152
	add	r1, sp, #88
	mov	r0, r1
	mov	r1, r2
	mov	r2, r3
	bl	_ZmiRK6b2Vec2S1_
	add	r1, sp, #48
	add	r2, sp, #64
	add	r3, sp, #88
	mov	r0, r1
	mov	r1, r2
	mov	r2, r3
	bl	_Z5b2MulRK5b2RotRK6b2Vec2
	.loc 4 346 0
	ldr	r3, [sp, #4]
	add	r2, r3, #76
	ldr	r3, [sp, #4]
	add	r3, r3, #160
	add	r1, sp, #96
	mov	r0, r1
	mov	r1, r2
	mov	r2, r3
	bl	_ZmiRK6b2Vec2S1_
	add	r1, sp, #40
	add	r2, sp, #56
	add	r3, sp, #96
	mov	r0, r1
	mov	r1, r2
	mov	r2, r3
	bl	_Z5b2MulRK5b2RotRK6b2Vec2
	.loc 4 348 0
	add	r1, sp, #112
	add	r2, sp, #72
	add	r3, sp, #40
	mov	r0, r1
	mov	r1, r2
	mov	r2, r3
	bl	_ZplRK6b2Vec2S1_
	add	r1, sp, #104
	add	r2, sp, #112
	add	r3, sp, #80
	mov	r0, r1
	mov	r1, r2
	mov	r2, r3
	bl	_ZmiRK6b2Vec2S1_
	add	r1, sp, #32
	add	r2, sp, #104
	add	r3, sp, #48
	mov	r0, r1
	mov	r1, r2
	mov	r2, r3
	bl	_ZmiRK6b2Vec2S1_
	.loc 4 349 0
	add	r3, sp, #32
	mov	r0, r3
	bl	_ZNK6b2Vec26LengthEv
	mov	r3, r0	@ float
	str	r3, [sp, #156]	@ float
	.loc 4 351 0
	ldr	r3, [sp, #4]
	flds	s15, [r3, #168]
	fsts	s15, [sp, #184]
	ldr	r3, [sp, #4]
	flds	s15, [r3, #172]
	fsts	s15, [sp, #188]
	.loc 4 352 0
	ldr	r3, [sp, #4]
	flds	s15, [r3, #176]
	fsts	s15, [sp, #192]
	ldr	r3, [sp, #4]
	flds	s15, [r3, #180]
	fsts	s15, [sp, #196]
	.loc 4 354 0
	add	r3, sp, #16
	mov	r0, r3
	bl	_ZN7b2Mat22C1Ev
	.loc 4 355 0
	flds	s14, [sp, #184]
	flds	s15, [sp, #188]
	fadds	s14, s14, s15
	flds	s13, [sp, #52]
	flds	s15, [sp, #192]
	fmuls	s15, s13, s15
	flds	s13, [sp, #52]
	fmuls	s15, s15, s13
	fadds	s14, s14, s15
	flds	s13, [sp, #44]
	flds	s15, [sp, #196]
	fmuls	s15, s13, s15
	flds	s13, [sp, #44]
	fmuls	s15, s15, s13
	fadds	s15, s14, s15
	fsts	s15, [sp, #16]
	.loc 4 356 0
	flds	s15, [sp, #192]
	fnegs	s14, s15
	flds	s15, [sp, #48]
	fmuls	s15, s14, s15
	flds	s14, [sp, #52]
	fmuls	s14, s15, s14
	flds	s13, [sp, #40]
	flds	s15, [sp, #196]
	fmuls	s15, s13, s15
	flds	s13, [sp, #44]
	fmuls	s15, s15, s13
	fsubs	s15, s14, s15
	fsts	s15, [sp, #20]
	.loc 4 357 0
	flds	s15, [sp, #20]
	fsts	s15, [sp, #24]
	.loc 4 358 0
	flds	s14, [sp, #184]
	flds	s15, [sp, #188]
	fadds	s14, s14, s15
	flds	s13, [sp, #48]
	flds	s15, [sp, #192]
	fmuls	s15, s13, s15
	flds	s13, [sp, #48]
	fmuls	s15, s15, s13
	fadds	s14, s14, s15
	flds	s13, [sp, #40]
	flds	s15, [sp, #196]
	fmuls	s15, s13, s15
	flds	s13, [sp, #40]
	fmuls	s15, s15, s13
	fadds	s15, s14, s15
	fsts	s15, [sp, #28]
	.loc 4 360 0
	add	r1, sp, #120
	add	r2, sp, #16
	add	r3, sp, #32
	mov	r0, r1
	mov	r1, r2
	mov	r2, r3
	bl	_ZNK7b2Mat225SolveERK6b2Vec2
	add	r2, sp, #8
	add	r3, sp, #120
	mov	r0, r2
	mov	r1, r3
	bl	_ZNK6b2Vec2ngEv
	.loc 4 362 0
	add	r2, sp, #128
	add	r3, sp, #8
	mov	r0, r2
	ldr	r1, [sp, #184]	@ float
	mov	r2, r3
	bl	_ZmlfRK6b2Vec2
	add	r2, sp, #80
	add	r3, sp, #128
	mov	r0, r2
	mov	r1, r3
	bl	_ZN6b2Vec2mIERKS_
	.loc 4 363 0
	add	r2, sp, #48
	add	r3, sp, #8
	mov	r0, r2
	mov	r1, r3
	bl	_Z7b2CrossRK6b2Vec2S1_
	fmsr	s14, r0
	flds	s15, [sp, #192]
	fmuls	s15, s14, s15
	flds	s14, [sp, #144]
	fsubs	s15, s14, s15
	fsts	s15, [sp, #144]
	.loc 4 365 0
	add	r2, sp, #136
	add	r3, sp, #8
	mov	r0, r2
	ldr	r1, [sp, #188]	@ float
	mov	r2, r3
	bl	_ZmlfRK6b2Vec2
	add	r2, sp, #72
	add	r3, sp, #136
	mov	r0, r2
	mov	r1, r3
	bl	_ZN6b2Vec2pLERKS_
	.loc 4 366 0
	add	r2, sp, #40
	add	r3, sp, #8
	mov	r0, r2
	mov	r1, r3
	bl	_Z7b2CrossRK6b2Vec2S1_
	fmsr	s14, r0
	flds	s15, [sp, #196]
	fmuls	s15, s14, s15
	flds	s14, [sp, #148]
	fadds	s15, s14, s15
	fsts	s15, [sp, #148]
.LBE26:
	.loc 4 369 0
	ldr	r3, [sp, #0]
	ldr	r1, [r3, #24]
	ldr	r3, [sp, #4]
	ldr	r3, [r3, #128]
	mov	r2, r3
	mov	r3, r2
	mov	r3, r3, asl #1
	add	r3, r3, r2
	mov	r3, r3, asl #2
	add	r3, r1, r3
	add	r2, sp, #80
	ldmia	r2, {r0, r1}
	stmia	r3, {r0, r1}
	.loc 4 370 0
	ldr	r3, [sp, #0]
	ldr	r1, [r3, #24]
	ldr	r3, [sp, #4]
	ldr	r3, [r3, #128]
	mov	r2, r3
	mov	r3, r2
	mov	r3, r3, asl #1
	add	r3, r3, r2
	mov	r3, r3, asl #2
	add	r3, r1, r3
	flds	s15, [sp, #144]
	fsts	s15, [r3, #8]
	.loc 4 371 0
	ldr	r3, [sp, #0]
	ldr	r1, [r3, #24]
	ldr	r3, [sp, #4]
	ldr	r3, [r3, #132]
	mov	r2, r3
	mov	r3, r2
	mov	r3, r3, asl #1
	add	r3, r3, r2
	mov	r3, r3, asl #2
	add	r3, r1, r3
	add	r2, sp, #72
	ldmia	r2, {r0, r1}
	stmia	r3, {r0, r1}
	.loc 4 372 0
	ldr	r3, [sp, #0]
	ldr	r1, [r3, #24]
	ldr	r3, [sp, #4]
	ldr	r3, [r3, #132]
	mov	r2, r3
	mov	r3, r2
	mov	r3, r3, asl #1
	add	r3, r3, r2
	mov	r3, r3, asl #2
	add	r3, r1, r3
	flds	s15, [sp, #148]
	fsts	s15, [r3, #8]
	.loc 4 374 0
	flds	s14, [sp, #156]
	flds	s15, .L164
	fcmpes	s14, s15
	fmstat
	movhi	r3, #0
	movls	r3, #1
	and	r3, r3, #255
	cmp	r3, #0
	beq	.L159
	flds	s14, [sp, #152]
	flds	s15, .L164+4
	fcmpes	s14, s15
	fmstat
	movhi	r3, #0
	movls	r3, #1
	and	r3, r3, #255
	cmp	r3, #0
	beq	.L159
	mov	r3, #1
	b	.L160
.L159:
	mov	r3, #0
.L160:
.LBE21:
	.loc 4 375 0
	mov	r0, r3
	add	sp, sp, #204
	ldmfd	sp!, {pc}
.L165:
	.align	2
.L164:
	.word	1000593162
	.word	1024391734
	.cfi_endproc
.LFE515:
	.size	_ZN15b2RevoluteJoint24SolvePositionConstraintsERK12b2SolverData, .-_ZN15b2RevoluteJoint24SolvePositionConstraintsERK12b2SolverData
	.section	.text._ZNK15b2RevoluteJoint10GetAnchorAEv,"ax",%progbits
	.align	2
	.global	_ZNK15b2RevoluteJoint10GetAnchorAEv
	.hidden	_ZNK15b2RevoluteJoint10GetAnchorAEv
	.type	_ZNK15b2RevoluteJoint10GetAnchorAEv, %function
_ZNK15b2RevoluteJoint10GetAnchorAEv:
.LFB516:
	.loc 4 378 0
	.cfi_startproc
	@ args = 0, pretend = 0, frame = 8
	@ frame_needed = 0, uses_anonymous_args = 0
	stmfd	sp!, {r4, lr}
.LCFI72:
	.cfi_def_cfa_offset 8
	sub	sp, sp, #8
.LCFI73:
	.cfi_def_cfa_offset 16
	mov	r4, r0
	.cfi_offset 14, -4
	.cfi_offset 4, -8
	str	r1, [sp, #4]
	.loc 4 379 0
	ldr	r3, [sp, #4]
	ldr	r2, [r3, #48]
	ldr	r3, [sp, #4]
	add	r3, r3, #68
	mov	r0, r4
	mov	r1, r2
	mov	r2, r3
	bl	_ZNK6b2Body13GetWorldPointERK6b2Vec2
	.loc 4 380 0
	mov	r0, r4
	add	sp, sp, #8
	ldmfd	sp!, {r4, pc}
	.cfi_endproc
.LFE516:
	.size	_ZNK15b2RevoluteJoint10GetAnchorAEv, .-_ZNK15b2RevoluteJoint10GetAnchorAEv
	.section	.text._ZNK15b2RevoluteJoint10GetAnchorBEv,"ax",%progbits
	.align	2
	.global	_ZNK15b2RevoluteJoint10GetAnchorBEv
	.hidden	_ZNK15b2RevoluteJoint10GetAnchorBEv
	.type	_ZNK15b2RevoluteJoint10GetAnchorBEv, %function
_ZNK15b2RevoluteJoint10GetAnchorBEv:
.LFB517:
	.loc 4 383 0
	.cfi_startproc
	@ args = 0, pretend = 0, frame = 8
	@ frame_needed = 0, uses_anonymous_args = 0
	stmfd	sp!, {r4, lr}
.LCFI74:
	.cfi_def_cfa_offset 8
	sub	sp, sp, #8
.LCFI75:
	.cfi_def_cfa_offset 16
	mov	r4, r0
	.cfi_offset 14, -4
	.cfi_offset 4, -8
	str	r1, [sp, #4]
	.loc 4 384 0
	ldr	r3, [sp, #4]
	ldr	r2, [r3, #52]
	ldr	r3, [sp, #4]
	add	r3, r3, #76
	mov	r0, r4
	mov	r1, r2
	mov	r2, r3
	bl	_ZNK6b2Body13GetWorldPointERK6b2Vec2
	.loc 4 385 0
	mov	r0, r4
	add	sp, sp, #8
	ldmfd	sp!, {r4, pc}
	.cfi_endproc
.LFE517:
	.size	_ZNK15b2RevoluteJoint10GetAnchorBEv, .-_ZNK15b2RevoluteJoint10GetAnchorBEv
	.section	.text._ZNK15b2RevoluteJoint16GetReactionForceEf,"ax",%progbits
	.align	2
	.global	_ZNK15b2RevoluteJoint16GetReactionForceEf
	.hidden	_ZNK15b2RevoluteJoint16GetReactionForceEf
	.type	_ZNK15b2RevoluteJoint16GetReactionForceEf, %function
_ZNK15b2RevoluteJoint16GetReactionForceEf:
.LFB518:
	.loc 4 388 0
	.cfi_startproc
	@ args = 0, pretend = 0, frame = 16
	@ frame_needed = 0, uses_anonymous_args = 0
	stmfd	sp!, {r4, lr}
.LCFI76:
	.cfi_def_cfa_offset 8
	sub	sp, sp, #16
.LCFI77:
	.cfi_def_cfa_offset 24
	mov	r4, r0
	.cfi_offset 14, -4
	.cfi_offset 4, -8
	str	r1, [sp, #4]
	str	r2, [sp, #0]	@ float
.LBB27:
	.loc 4 389 0
	ldr	r3, [sp, #4]
	ldr	r2, [r3, #84]	@ float
	ldr	r3, [sp, #4]
	ldr	r3, [r3, #88]	@ float
	add	r1, sp, #8
	mov	r0, r1
	mov	r1, r2	@ float
	mov	r2, r3	@ float
	bl	_ZN6b2Vec2C1Eff
	.loc 4 390 0
	add	r3, sp, #8
	mov	r0, r4
	ldr	r1, [sp, #0]	@ float
	mov	r2, r3
	bl	_ZmlfRK6b2Vec2
.LBE27:
	.loc 4 391 0
	mov	r0, r4
	add	sp, sp, #16
	ldmfd	sp!, {r4, pc}
	.cfi_endproc
.LFE518:
	.size	_ZNK15b2RevoluteJoint16GetReactionForceEf, .-_ZNK15b2RevoluteJoint16GetReactionForceEf
	.section	.text._ZNK15b2RevoluteJoint17GetReactionTorqueEf,"ax",%progbits
	.align	2
	.global	_ZNK15b2RevoluteJoint17GetReactionTorqueEf
	.hidden	_ZNK15b2RevoluteJoint17GetReactionTorqueEf
	.type	_ZNK15b2RevoluteJoint17GetReactionTorqueEf, %function
_ZNK15b2RevoluteJoint17GetReactionTorqueEf:
.LFB519:
	.loc 4 394 0
	.cfi_startproc
	@ args = 0, pretend = 0, frame = 8
	@ frame_needed = 0, uses_anonymous_args = 0
	@ link register save eliminated.
	sub	sp, sp, #8
.LCFI78:
	.cfi_def_cfa_offset 8
	str	r0, [sp, #4]
	str	r1, [sp, #0]	@ float
	.loc 4 395 0
	ldr	r3, [sp, #4]
	flds	s14, [r3, #92]
	flds	s15, [sp, #0]
	fmuls	s15, s14, s15
	fmrs	r3, s15
	.loc 4 396 0
	mov	r0, r3	@ float
	add	sp, sp, #8
	bx	lr
	.cfi_endproc
.LFE519:
	.size	_ZNK15b2RevoluteJoint17GetReactionTorqueEf, .-_ZNK15b2RevoluteJoint17GetReactionTorqueEf
	.section	.text._ZNK15b2RevoluteJoint13GetJointAngleEv,"ax",%progbits
	.align	2
	.global	_ZNK15b2RevoluteJoint13GetJointAngleEv
	.hidden	_ZNK15b2RevoluteJoint13GetJointAngleEv
	.type	_ZNK15b2RevoluteJoint13GetJointAngleEv, %function
_ZNK15b2RevoluteJoint13GetJointAngleEv:
.LFB520:
	.loc 4 399 0
	.cfi_startproc
	@ args = 0, pretend = 0, frame = 16
	@ frame_needed = 0, uses_anonymous_args = 0
	@ link register save eliminated.
	sub	sp, sp, #16
.LCFI79:
	.cfi_def_cfa_offset 16
	str	r0, [sp, #4]
.LBB28:
	.loc 4 400 0
	ldr	r3, [sp, #4]
	ldr	r3, [r3, #48]
	str	r3, [sp, #8]
	.loc 4 401 0
	ldr	r3, [sp, #4]
	ldr	r3, [r3, #52]
	str	r3, [sp, #12]
	.loc 4 402 0
	ldr	r3, [sp, #12]
	flds	s14, [r3, #56]
	ldr	r3, [sp, #8]
	flds	s15, [r3, #56]
	fsubs	s14, s14, s15
	ldr	r3, [sp, #4]
	flds	s15, [r3, #116]
	fsubs	s15, s14, s15
	fmrs	r3, s15
.LBE28:
	.loc 4 403 0
	mov	r0, r3	@ float
	add	sp, sp, #16
	bx	lr
	.cfi_endproc
.LFE520:
	.size	_ZNK15b2RevoluteJoint13GetJointAngleEv, .-_ZNK15b2RevoluteJoint13GetJointAngleEv
	.section	.text._ZNK15b2RevoluteJoint13GetJointSpeedEv,"ax",%progbits
	.align	2
	.global	_ZNK15b2RevoluteJoint13GetJointSpeedEv
	.hidden	_ZNK15b2RevoluteJoint13GetJointSpeedEv
	.type	_ZNK15b2RevoluteJoint13GetJointSpeedEv, %function
_ZNK15b2RevoluteJoint13GetJointSpeedEv:
.LFB521:
	.loc 4 406 0
	.cfi_startproc
	@ args = 0, pretend = 0, frame = 16
	@ frame_needed = 0, uses_anonymous_args = 0
	@ link register save eliminated.
	sub	sp, sp, #16
.LCFI80:
	.cfi_def_cfa_offset 16
	str	r0, [sp, #4]
.LBB29:
	.loc 4 407 0
	ldr	r3, [sp, #4]
	ldr	r3, [r3, #48]
	str	r3, [sp, #8]
	.loc 4 408 0
	ldr	r3, [sp, #4]
	ldr	r3, [r3, #52]
	str	r3, [sp, #12]
	.loc 4 409 0
	ldr	r3, [sp, #12]
	flds	s14, [r3, #72]
	ldr	r3, [sp, #8]
	flds	s15, [r3, #72]
	fsubs	s15, s14, s15
	fmrs	r3, s15
.LBE29:
	.loc 4 410 0
	mov	r0, r3	@ float
	add	sp, sp, #16
	bx	lr
	.cfi_endproc
.LFE521:
	.size	_ZNK15b2RevoluteJoint13GetJointSpeedEv, .-_ZNK15b2RevoluteJoint13GetJointSpeedEv
	.section	.text._ZNK15b2RevoluteJoint14IsMotorEnabledEv,"ax",%progbits
	.align	2
	.global	_ZNK15b2RevoluteJoint14IsMotorEnabledEv
	.hidden	_ZNK15b2RevoluteJoint14IsMotorEnabledEv
	.type	_ZNK15b2RevoluteJoint14IsMotorEnabledEv, %function
_ZNK15b2RevoluteJoint14IsMotorEnabledEv:
.LFB522:
	.loc 4 413 0
	.cfi_startproc
	@ args = 0, pretend = 0, frame = 8
	@ frame_needed = 0, uses_anonymous_args = 0
	@ link register save eliminated.
	sub	sp, sp, #8
.LCFI81:
	.cfi_def_cfa_offset 8
	str	r0, [sp, #4]
	.loc 4 414 0
	ldr	r3, [sp, #4]
	ldrb	r3, [r3, #100]	@ zero_extendqisi2
	.loc 4 415 0
	mov	r0, r3
	add	sp, sp, #8
	bx	lr
	.cfi_endproc
.LFE522:
	.size	_ZNK15b2RevoluteJoint14IsMotorEnabledEv, .-_ZNK15b2RevoluteJoint14IsMotorEnabledEv
	.section	.text._ZN15b2RevoluteJoint11EnableMotorEb,"ax",%progbits
	.align	2
	.global	_ZN15b2RevoluteJoint11EnableMotorEb
	.hidden	_ZN15b2RevoluteJoint11EnableMotorEb
	.type	_ZN15b2RevoluteJoint11EnableMotorEb, %function
_ZN15b2RevoluteJoint11EnableMotorEb:
.LFB523:
	.loc 4 418 0
	.cfi_startproc
	@ args = 0, pretend = 0, frame = 8
	@ frame_needed = 0, uses_anonymous_args = 0
	str	lr, [sp, #-4]!
.LCFI82:
	.cfi_def_cfa_offset 4
	sub	sp, sp, #12
.LCFI83:
	.cfi_def_cfa_offset 16
	str	r0, [sp, #4]
	mov	r3, r1
	strb	r3, [sp, #3]
	.loc 4 419 0
	ldr	r3, [sp, #4]
	ldr	r3, [r3, #48]
	mov	r0, r3
	mov	r1, #1
	.cfi_offset 14, -4
	bl	_ZN6b2Body8SetAwakeEb
	.loc 4 420 0
	ldr	r3, [sp, #4]
	ldr	r3, [r3, #52]
	mov	r0, r3
	mov	r1, #1
	bl	_ZN6b2Body8SetAwakeEb
	.loc 4 421 0
	ldr	r3, [sp, #4]
	ldrb	r2, [sp, #3]
	strb	r2, [r3, #100]
	.loc 4 422 0
	add	sp, sp, #12
	ldmfd	sp!, {pc}
	.cfi_endproc
.LFE523:
	.size	_ZN15b2RevoluteJoint11EnableMotorEb, .-_ZN15b2RevoluteJoint11EnableMotorEb
	.section	.text._ZNK15b2RevoluteJoint14GetMotorTorqueEf,"ax",%progbits
	.align	2
	.global	_ZNK15b2RevoluteJoint14GetMotorTorqueEf
	.hidden	_ZNK15b2RevoluteJoint14GetMotorTorqueEf
	.type	_ZNK15b2RevoluteJoint14GetMotorTorqueEf, %function
_ZNK15b2RevoluteJoint14GetMotorTorqueEf:
.LFB524:
	.loc 4 425 0
	.cfi_startproc
	@ args = 0, pretend = 0, frame = 8
	@ frame_needed = 0, uses_anonymous_args = 0
	@ link register save eliminated.
	sub	sp, sp, #8
.LCFI84:
	.cfi_def_cfa_offset 8
	str	r0, [sp, #4]
	str	r1, [sp, #0]	@ float
	.loc 4 426 0
	ldr	r3, [sp, #4]
	flds	s14, [r3, #96]
	flds	s15, [sp, #0]
	fmuls	s15, s14, s15
	fmrs	r3, s15
	.loc 4 427 0
	mov	r0, r3	@ float
	add	sp, sp, #8
	bx	lr
	.cfi_endproc
.LFE524:
	.size	_ZNK15b2RevoluteJoint14GetMotorTorqueEf, .-_ZNK15b2RevoluteJoint14GetMotorTorqueEf
	.section	.text._ZN15b2RevoluteJoint13SetMotorSpeedEf,"ax",%progbits
	.align	2
	.global	_ZN15b2RevoluteJoint13SetMotorSpeedEf
	.hidden	_ZN15b2RevoluteJoint13SetMotorSpeedEf
	.type	_ZN15b2RevoluteJoint13SetMotorSpeedEf, %function
_ZN15b2RevoluteJoint13SetMotorSpeedEf:
.LFB525:
	.loc 4 430 0
	.cfi_startproc
	@ args = 0, pretend = 0, frame = 8
	@ frame_needed = 0, uses_anonymous_args = 0
	str	lr, [sp, #-4]!
.LCFI85:
	.cfi_def_cfa_offset 4
	sub	sp, sp, #12
.LCFI86:
	.cfi_def_cfa_offset 16
	str	r0, [sp, #4]
	str	r1, [sp, #0]	@ float
	.loc 4 431 0
	ldr	r3, [sp, #4]
	ldr	r3, [r3, #48]
	mov	r0, r3
	mov	r1, #1
	.cfi_offset 14, -4
	bl	_ZN6b2Body8SetAwakeEb
	.loc 4 432 0
	ldr	r3, [sp, #4]
	ldr	r3, [r3, #52]
	mov	r0, r3
	mov	r1, #1
	bl	_ZN6b2Body8SetAwakeEb
	.loc 4 433 0
	ldr	r3, [sp, #4]
	flds	s15, [sp, #0]
	fsts	s15, [r3, #108]
	.loc 4 434 0
	add	sp, sp, #12
	ldmfd	sp!, {pc}
	.cfi_endproc
.LFE525:
	.size	_ZN15b2RevoluteJoint13SetMotorSpeedEf, .-_ZN15b2RevoluteJoint13SetMotorSpeedEf
	.section	.text._ZN15b2RevoluteJoint17SetMaxMotorTorqueEf,"ax",%progbits
	.align	2
	.global	_ZN15b2RevoluteJoint17SetMaxMotorTorqueEf
	.hidden	_ZN15b2RevoluteJoint17SetMaxMotorTorqueEf
	.type	_ZN15b2RevoluteJoint17SetMaxMotorTorqueEf, %function
_ZN15b2RevoluteJoint17SetMaxMotorTorqueEf:
.LFB526:
	.loc 4 437 0
	.cfi_startproc
	@ args = 0, pretend = 0, frame = 8
	@ frame_needed = 0, uses_anonymous_args = 0
	str	lr, [sp, #-4]!
.LCFI87:
	.cfi_def_cfa_offset 4
	sub	sp, sp, #12
.LCFI88:
	.cfi_def_cfa_offset 16
	str	r0, [sp, #4]
	str	r1, [sp, #0]	@ float
	.loc 4 438 0
	ldr	r3, [sp, #4]
	ldr	r3, [r3, #48]
	mov	r0, r3
	mov	r1, #1
	.cfi_offset 14, -4
	bl	_ZN6b2Body8SetAwakeEb
	.loc 4 439 0
	ldr	r3, [sp, #4]
	ldr	r3, [r3, #52]
	mov	r0, r3
	mov	r1, #1
	bl	_ZN6b2Body8SetAwakeEb
	.loc 4 440 0
	ldr	r3, [sp, #4]
	flds	s15, [sp, #0]
	fsts	s15, [r3, #104]
	.loc 4 441 0
	add	sp, sp, #12
	ldmfd	sp!, {pc}
	.cfi_endproc
.LFE526:
	.size	_ZN15b2RevoluteJoint17SetMaxMotorTorqueEf, .-_ZN15b2RevoluteJoint17SetMaxMotorTorqueEf
	.section	.text._ZNK15b2RevoluteJoint14IsLimitEnabledEv,"ax",%progbits
	.align	2
	.global	_ZNK15b2RevoluteJoint14IsLimitEnabledEv
	.hidden	_ZNK15b2RevoluteJoint14IsLimitEnabledEv
	.type	_ZNK15b2RevoluteJoint14IsLimitEnabledEv, %function
_ZNK15b2RevoluteJoint14IsLimitEnabledEv:
.LFB527:
	.loc 4 444 0
	.cfi_startproc
	@ args = 0, pretend = 0, frame = 8
	@ frame_needed = 0, uses_anonymous_args = 0
	@ link register save eliminated.
	sub	sp, sp, #8
.LCFI89:
	.cfi_def_cfa_offset 8
	str	r0, [sp, #4]
	.loc 4 445 0
	ldr	r3, [sp, #4]
	ldrb	r3, [r3, #112]	@ zero_extendqisi2
	.loc 4 446 0
	mov	r0, r3
	add	sp, sp, #8
	bx	lr
	.cfi_endproc
.LFE527:
	.size	_ZNK15b2RevoluteJoint14IsLimitEnabledEv, .-_ZNK15b2RevoluteJoint14IsLimitEnabledEv
	.section	.text._ZN15b2RevoluteJoint11EnableLimitEb,"ax",%progbits
	.align	2
	.global	_ZN15b2RevoluteJoint11EnableLimitEb
	.hidden	_ZN15b2RevoluteJoint11EnableLimitEb
	.type	_ZN15b2RevoluteJoint11EnableLimitEb, %function
_ZN15b2RevoluteJoint11EnableLimitEb:
.LFB528:
	.loc 4 449 0
	.cfi_startproc
	@ args = 0, pretend = 0, frame = 8
	@ frame_needed = 0, uses_anonymous_args = 0
	str	lr, [sp, #-4]!
.LCFI90:
	.cfi_def_cfa_offset 4
	sub	sp, sp, #12
.LCFI91:
	.cfi_def_cfa_offset 16
	str	r0, [sp, #4]
	mov	r3, r1
	strb	r3, [sp, #3]
	.loc 4 450 0
	ldr	r3, [sp, #4]
	ldrb	r3, [r3, #112]	@ zero_extendqisi2
	ldrb	r2, [sp, #3]	@ zero_extendqisi2
	cmp	r2, r3
	beq	.L192
	.cfi_offset 14, -4
	.loc 4 452 0
	ldr	r3, [sp, #4]
	ldr	r3, [r3, #48]
	mov	r0, r3
	mov	r1, #1
	bl	_ZN6b2Body8SetAwakeEb
	.loc 4 453 0
	ldr	r3, [sp, #4]
	ldr	r3, [r3, #52]
	mov	r0, r3
	mov	r1, #1
	bl	_ZN6b2Body8SetAwakeEb
	.loc 4 454 0
	ldr	r3, [sp, #4]
	ldrb	r2, [sp, #3]
	strb	r2, [r3, #112]
	.loc 4 455 0
	ldr	r3, [sp, #4]
	flds	s15, .L193
	fsts	s15, [r3, #92]
.L192:
	.loc 4 457 0
	add	sp, sp, #12
	ldmfd	sp!, {pc}
.L194:
	.align	2
.L193:
	.word	0
	.cfi_endproc
.LFE528:
	.size	_ZN15b2RevoluteJoint11EnableLimitEb, .-_ZN15b2RevoluteJoint11EnableLimitEb
	.section	.text._ZNK15b2RevoluteJoint13GetLowerLimitEv,"ax",%progbits
	.align	2
	.global	_ZNK15b2RevoluteJoint13GetLowerLimitEv
	.hidden	_ZNK15b2RevoluteJoint13GetLowerLimitEv
	.type	_ZNK15b2RevoluteJoint13GetLowerLimitEv, %function
_ZNK15b2RevoluteJoint13GetLowerLimitEv:
.LFB529:
	.loc 4 460 0
	.cfi_startproc
	@ args = 0, pretend = 0, frame = 8
	@ frame_needed = 0, uses_anonymous_args = 0
	@ link register save eliminated.
	sub	sp, sp, #8
.LCFI92:
	.cfi_def_cfa_offset 8
	str	r0, [sp, #4]
	.loc 4 461 0
	ldr	r3, [sp, #4]
	flds	s15, [r3, #120]
	fmrs	r3, s15
	.loc 4 462 0
	mov	r0, r3	@ float
	add	sp, sp, #8
	bx	lr
	.cfi_endproc
.LFE529:
	.size	_ZNK15b2RevoluteJoint13GetLowerLimitEv, .-_ZNK15b2RevoluteJoint13GetLowerLimitEv
	.section	.text._ZNK15b2RevoluteJoint13GetUpperLimitEv,"ax",%progbits
	.align	2
	.global	_ZNK15b2RevoluteJoint13GetUpperLimitEv
	.hidden	_ZNK15b2RevoluteJoint13GetUpperLimitEv
	.type	_ZNK15b2RevoluteJoint13GetUpperLimitEv, %function
_ZNK15b2RevoluteJoint13GetUpperLimitEv:
.LFB530:
	.loc 4 465 0
	.cfi_startproc
	@ args = 0, pretend = 0, frame = 8
	@ frame_needed = 0, uses_anonymous_args = 0
	@ link register save eliminated.
	sub	sp, sp, #8
.LCFI93:
	.cfi_def_cfa_offset 8
	str	r0, [sp, #4]
	.loc 4 466 0
	ldr	r3, [sp, #4]
	flds	s15, [r3, #124]
	fmrs	r3, s15
	.loc 4 467 0
	mov	r0, r3	@ float
	add	sp, sp, #8
	bx	lr
	.cfi_endproc
.LFE530:
	.size	_ZNK15b2RevoluteJoint13GetUpperLimitEv, .-_ZNK15b2RevoluteJoint13GetUpperLimitEv
	.section	.rodata
	.align	2
.LC1:
	.ascii	"v:/gigglingbits/box2d/Box2D/Dynamics/Joints/b2Revol"
	.ascii	"uteJoint.cpp\000"
	.align	2
.LC2:
	.ascii	"lower <= upper\000"
	.section	.text._ZN15b2RevoluteJoint9SetLimitsEff,"ax",%progbits
	.align	2
	.global	_ZN15b2RevoluteJoint9SetLimitsEff
	.hidden	_ZN15b2RevoluteJoint9SetLimitsEff
	.type	_ZN15b2RevoluteJoint9SetLimitsEff, %function
_ZN15b2RevoluteJoint9SetLimitsEff:
.LFB531:
	.loc 4 470 0
	.cfi_startproc
	@ args = 0, pretend = 0, frame = 16
	@ frame_needed = 0, uses_anonymous_args = 0
	str	lr, [sp, #-4]!
.LCFI94:
	.cfi_def_cfa_offset 4
	sub	sp, sp, #20
.LCFI95:
	.cfi_def_cfa_offset 24
	str	r0, [sp, #12]
	str	r1, [sp, #8]	@ float
	str	r2, [sp, #4]	@ float
	.loc 4 471 0
	flds	s14, [sp, #8]
	flds	s15, [sp, #4]
	fcmpes	s14, s15
	fmstat
	movhi	r3, #0
	movls	r3, #1
	and	r3, r3, #255
	cmp	r3, #0
	bne	.L201
	.cfi_offset 14, -4
.L200:
	ldr	r0, .L206+4
	ldr	r1, .L206+8
	ldr	r2, .L206+12
	bl	__assert
.L201:
	.loc 4 473 0
	ldr	r3, [sp, #12]
	flds	s14, [r3, #120]
	flds	s15, [sp, #8]
	fcmps	s14, s15
	fmstat
	bne	.L202
	ldr	r3, [sp, #12]
	flds	s14, [r3, #124]
	flds	s15, [sp, #4]
	fcmps	s14, s15
	fmstat
	beq	.L205
.L202:
	.loc 4 475 0
	ldr	r3, [sp, #12]
	ldr	r3, [r3, #48]
	mov	r0, r3
	mov	r1, #1
	bl	_ZN6b2Body8SetAwakeEb
	.loc 4 476 0
	ldr	r3, [sp, #12]
	ldr	r3, [r3, #52]
	mov	r0, r3
	mov	r1, #1
	bl	_ZN6b2Body8SetAwakeEb
	.loc 4 477 0
	ldr	r3, [sp, #12]
	flds	s15, .L206
	fsts	s15, [r3, #92]
	.loc 4 478 0
	ldr	r3, [sp, #12]
	flds	s15, [sp, #8]
	fsts	s15, [r3, #120]
	.loc 4 479 0
	ldr	r3, [sp, #12]
	flds	s15, [sp, #4]
	fsts	s15, [r3, #124]
.L205:
	.loc 4 481 0
	add	sp, sp, #20
	ldmfd	sp!, {pc}
.L207:
	.align	2
.L206:
	.word	0
	.word	.LC1
	.word	471
	.word	.LC2
	.cfi_endproc
.LFE531:
	.size	_ZN15b2RevoluteJoint9SetLimitsEff, .-_ZN15b2RevoluteJoint9SetLimitsEff
	.section	.rodata
	.align	2
.LC3:
	.ascii	"  b2RevoluteJointDef jd;\012\000"
	.align	2
.LC4:
	.ascii	"  jd.bodyA = bodies[%d];\012\000"
	.align	2
.LC5:
	.ascii	"  jd.bodyB = bodies[%d];\012\000"
	.align	2
.LC6:
	.ascii	"  jd.collideConnected = bool(%d);\012\000"
	.align	2
.LC7:
	.ascii	"  jd.localAnchorA.Set(%.15lef, %.15lef);\012\000"
	.align	2
.LC8:
	.ascii	"  jd.localAnchorB.Set(%.15lef, %.15lef);\012\000"
	.align	2
.LC9:
	.ascii	"  jd.referenceAngle = %.15lef;\012\000"
	.align	2
.LC10:
	.ascii	"  jd.enableLimit = bool(%d);\012\000"
	.align	2
.LC11:
	.ascii	"  jd.lowerAngle = %.15lef;\012\000"
	.align	2
.LC12:
	.ascii	"  jd.upperAngle = %.15lef;\012\000"
	.align	2
.LC13:
	.ascii	"  jd.enableMotor = bool(%d);\012\000"
	.align	2
.LC14:
	.ascii	"  jd.motorSpeed = %.15lef;\012\000"
	.align	2
.LC15:
	.ascii	"  jd.maxMotorTorque = %.15lef;\012\000"
	.align	2
.LC16:
	.ascii	"  joints[%d] = m_world->CreateJoint(&jd);\012\000"
	.section	.text._ZN15b2RevoluteJoint4DumpEv,"ax",%progbits
	.align	2
	.global	_ZN15b2RevoluteJoint4DumpEv
	.hidden	_ZN15b2RevoluteJoint4DumpEv
	.type	_ZN15b2RevoluteJoint4DumpEv, %function
_ZN15b2RevoluteJoint4DumpEv:
.LFB532:
	.loc 4 484 0
	.cfi_startproc
	@ args = 0, pretend = 0, frame = 16
	@ frame_needed = 0, uses_anonymous_args = 0
	str	lr, [sp, #-4]!
.LCFI96:
	.cfi_def_cfa_offset 4
	sub	sp, sp, #28
.LCFI97:
	.cfi_def_cfa_offset 32
	str	r0, [sp, #12]
.LBB30:
	.loc 4 485 0
	ldr	r3, [sp, #12]
	ldr	r3, [r3, #48]
	ldr	r3, [r3, #8]
	str	r3, [sp, #16]
	.loc 4 486 0
	ldr	r3, [sp, #12]
	ldr	r3, [r3, #52]
	ldr	r3, [r3, #8]
	str	r3, [sp, #20]
	.loc 4 488 0
	ldr	r0, .L210
	.cfi_offset 14, -4
	bl	_Z5b2LogPKcz
	.loc 4 489 0
	ldr	r0, .L210+4
	ldr	r1, [sp, #16]
	bl	_Z5b2LogPKcz
	.loc 4 490 0
	ldr	r0, .L210+8
	ldr	r1, [sp, #20]
	bl	_Z5b2LogPKcz
	.loc 4 491 0
	ldr	r3, [sp, #12]
	ldrb	r3, [r3, #61]	@ zero_extendqisi2
	ldr	r0, .L210+12
	mov	r1, r3
	bl	_Z5b2LogPKcz
	.loc 4 492 0
	ldr	r3, [sp, #12]
	flds	s15, [r3, #68]
	fcvtds	d6, s15
	ldr	r3, [sp, #12]
	flds	s15, [r3, #72]
	fcvtds	d7, s15
	fstd	d7, [sp, #0]
	ldr	r0, .L210+16
	fmrrd	r2, r3, d6
	bl	_Z5b2LogPKcz
	.loc 4 493 0
	ldr	r3, [sp, #12]
	flds	s15, [r3, #76]
	fcvtds	d6, s15
	ldr	r3, [sp, #12]
	flds	s15, [r3, #80]
	fcvtds	d7, s15
	fstd	d7, [sp, #0]
	ldr	r0, .L210+20
	fmrrd	r2, r3, d6
	bl	_Z5b2LogPKcz
	.loc 4 494 0
	ldr	r3, [sp, #12]
	flds	s15, [r3, #116]
	fcvtds	d7, s15
	ldr	r0, .L210+24
	fmrrd	r2, r3, d7
	bl	_Z5b2LogPKcz
	.loc 4 495 0
	ldr	r3, [sp, #12]
	ldrb	r3, [r3, #112]	@ zero_extendqisi2
	ldr	r0, .L210+28
	mov	r1, r3
	bl	_Z5b2LogPKcz
	.loc 4 496 0
	ldr	r3, [sp, #12]
	flds	s15, [r3, #120]
	fcvtds	d7, s15
	ldr	r0, .L210+32
	fmrrd	r2, r3, d7
	bl	_Z5b2LogPKcz
	.loc 4 497 0
	ldr	r3, [sp, #12]
	flds	s15, [r3, #124]
	fcvtds	d7, s15
	ldr	r0, .L210+36
	fmrrd	r2, r3, d7
	bl	_Z5b2LogPKcz
	.loc 4 498 0
	ldr	r3, [sp, #12]
	ldrb	r3, [r3, #100]	@ zero_extendqisi2
	ldr	r0, .L210+40
	mov	r1, r3
	bl	_Z5b2LogPKcz
	.loc 4 499 0
	ldr	r3, [sp, #12]
	flds	s15, [r3, #108]
	fcvtds	d7, s15
	ldr	r0, .L210+44
	fmrrd	r2, r3, d7
	bl	_Z5b2LogPKcz
	.loc 4 500 0
	ldr	r3, [sp, #12]
	flds	s15, [r3, #104]
	fcvtds	d7, s15
	ldr	r0, .L210+48
	fmrrd	r2, r3, d7
	bl	_Z5b2LogPKcz
	.loc 4 501 0
	ldr	r3, [sp, #12]
	ldr	r3, [r3, #56]
	ldr	r0, .L210+52
	mov	r1, r3
	bl	_Z5b2LogPKcz
.LBE30:
	.loc 4 502 0
	add	sp, sp, #28
	ldmfd	sp!, {pc}
.L211:
	.align	2
.L210:
	.word	.LC3
	.word	.LC4
	.word	.LC5
	.word	.LC6
	.word	.LC7
	.word	.LC8
	.word	.LC9
	.word	.LC10
	.word	.LC11
	.word	.LC12
	.word	.LC13
	.word	.LC14
	.word	.LC15
	.word	.LC16
	.cfi_endproc
.LFE532:
	.size	_ZN15b2RevoluteJoint4DumpEv, .-_ZN15b2RevoluteJoint4DumpEv
	.section	.text._Z5b2AbsIfET_S0_,"axG",%progbits,_Z5b2AbsIfET_S0_,comdat
	.align	2
	.weak	_Z5b2AbsIfET_S0_
	.hidden	_Z5b2AbsIfET_S0_
	.type	_Z5b2AbsIfET_S0_, %function
_Z5b2AbsIfET_S0_:
.LFB533:
	.loc 1 616 0
	.cfi_startproc
	@ args = 0, pretend = 0, frame = 8
	@ frame_needed = 0, uses_anonymous_args = 0
	@ link register save eliminated.
	sub	sp, sp, #8
.LCFI98:
	.cfi_def_cfa_offset 8
	str	r0, [sp, #4]	@ float
	.loc 1 618 0
	flds	s15, [sp, #4]
	fcmpezs	s15
	fmstat
	movle	r3, #0
	movgt	r3, #1
	and	r3, r3, #255
	cmp	r3, #0
	beq	.L213
	flds	s15, [sp, #4]
	b	.L214
.L213:
	flds	s15, [sp, #4]
	fnegs	s15, s15
.L214:
	fmrs	r3, s15
	.loc 1 619 0
	mov	r0, r3	@ float
	add	sp, sp, #8
	bx	lr
	.cfi_endproc
.LFE533:
	.size	_Z5b2AbsIfET_S0_, .-_Z5b2AbsIfET_S0_
	.section	.text._Z5b2MinIfET_S0_S0_,"axG",%progbits,_Z5b2MinIfET_S0_S0_,comdat
	.align	2
	.weak	_Z5b2MinIfET_S0_S0_
	.hidden	_Z5b2MinIfET_S0_S0_
	.type	_Z5b2MinIfET_S0_S0_, %function
_Z5b2MinIfET_S0_S0_:
.LFB534:
	.loc 1 632 0
	.cfi_startproc
	@ args = 0, pretend = 0, frame = 8
	@ frame_needed = 0, uses_anonymous_args = 0
	@ link register save eliminated.
	sub	sp, sp, #8
.LCFI99:
	.cfi_def_cfa_offset 8
	str	r0, [sp, #4]	@ float
	str	r1, [sp, #0]	@ float
	.loc 1 634 0
	flds	s14, [sp, #4]
	flds	s15, [sp, #0]
	fcmpes	s14, s15
	fmstat
	movpl	r3, #0
	movmi	r3, #1
	and	r3, r3, #255
	cmp	r3, #0
	beq	.L217
	flds	s15, [sp, #4]
	b	.L218
.L217:
	flds	s15, [sp, #0]
.L218:
	fmrs	r3, s15
	.loc 1 635 0
	mov	r0, r3	@ float
	add	sp, sp, #8
	bx	lr
	.cfi_endproc
.LFE534:
	.size	_Z5b2MinIfET_S0_S0_, .-_Z5b2MinIfET_S0_S0_
	.section	.text._Z5b2MaxIfET_S0_S0_,"axG",%progbits,_Z5b2MaxIfET_S0_S0_,comdat
	.align	2
	.weak	_Z5b2MaxIfET_S0_S0_
	.hidden	_Z5b2MaxIfET_S0_S0_
	.type	_Z5b2MaxIfET_S0_S0_, %function
_Z5b2MaxIfET_S0_S0_:
.LFB535:
	.loc 1 643 0
	.cfi_startproc
	@ args = 0, pretend = 0, frame = 8
	@ frame_needed = 0, uses_anonymous_args = 0
	@ link register save eliminated.
	sub	sp, sp, #8
.LCFI100:
	.cfi_def_cfa_offset 8
	str	r0, [sp, #4]	@ float
	str	r1, [sp, #0]	@ float
	.loc 1 645 0
	flds	s14, [sp, #4]
	flds	s15, [sp, #0]
	fcmpes	s14, s15
	fmstat
	movle	r3, #0
	movgt	r3, #1
	and	r3, r3, #255
	cmp	r3, #0
	beq	.L221
	flds	s15, [sp, #4]
	b	.L222
.L221:
	flds	s15, [sp, #0]
.L222:
	fmrs	r3, s15
	.loc 1 646 0
	mov	r0, r3	@ float
	add	sp, sp, #8
	bx	lr
	.cfi_endproc
.LFE535:
	.size	_Z5b2MaxIfET_S0_S0_, .-_Z5b2MaxIfET_S0_S0_
	.section	.text._Z7b2ClampIfET_S0_S0_S0_,"axG",%progbits,_Z7b2ClampIfET_S0_S0_S0_,comdat
	.align	2
	.weak	_Z7b2ClampIfET_S0_S0_S0_
	.hidden	_Z7b2ClampIfET_S0_S0_S0_
	.type	_Z7b2ClampIfET_S0_S0_S0_, %function
_Z7b2ClampIfET_S0_S0_S0_:
.LFB538:
	.loc 1 654 0
	.cfi_startproc
	@ args = 0, pretend = 0, frame = 16
	@ frame_needed = 0, uses_anonymous_args = 0
	str	lr, [sp, #-4]!
.LCFI101:
	.cfi_def_cfa_offset 4
	sub	sp, sp, #20
.LCFI102:
	.cfi_def_cfa_offset 24
	str	r0, [sp, #12]	@ float
	str	r1, [sp, #8]	@ float
	str	r2, [sp, #4]	@ float
	.loc 1 656 0
	ldr	r0, [sp, #12]	@ float
	ldr	r1, [sp, #4]	@ float
	.cfi_offset 14, -4
	bl	_Z5b2MinIfET_S0_S0_
	mov	r3, r0	@ float
	ldr	r0, [sp, #8]	@ float
	mov	r1, r3	@ float
	bl	_Z5b2MaxIfET_S0_S0_
	mov	r3, r0	@ float
	fmsr	s15, r3
	fmrs	r3, s15
	.loc 1 657 0
	mov	r0, r3	@ float
	add	sp, sp, #20
	ldmfd	sp!, {pc}
	.cfi_endproc
.LFE538:
	.size	_Z7b2ClampIfET_S0_S0_S0_, .-_Z7b2ClampIfET_S0_S0_S0_
	.hidden	_ZTV15b2RevoluteJoint
	.global	_ZTV15b2RevoluteJoint
	.section	.rodata
	.align	3
	.type	_ZTV15b2RevoluteJoint, %object
	.size	_ZTV15b2RevoluteJoint, 52
_ZTV15b2RevoluteJoint:
	.word	0
	.word	_ZTI15b2RevoluteJoint
	.word	_ZNK15b2RevoluteJoint10GetAnchorAEv
	.word	_ZNK15b2RevoluteJoint10GetAnchorBEv
	.word	_ZNK15b2RevoluteJoint16GetReactionForceEf
	.word	_ZNK15b2RevoluteJoint17GetReactionTorqueEf
	.word	_ZN15b2RevoluteJoint4DumpEv
	.word	_ZN7b2Joint11ShiftOriginERK6b2Vec2
	.word	_ZN15b2RevoluteJointD1Ev
	.word	_ZN15b2RevoluteJointD0Ev
	.word	_ZN15b2RevoluteJoint23InitVelocityConstraintsERK12b2SolverData
	.word	_ZN15b2RevoluteJoint24SolveVelocityConstraintsERK12b2SolverData
	.word	_ZN15b2RevoluteJoint24SolvePositionConstraintsERK12b2SolverData
	.hidden	_ZTV7b2Joint
	.weak	_ZTV7b2Joint
	.section	.rodata._ZTV7b2Joint,"aG",%progbits,_ZTV7b2Joint,comdat
	.align	3
	.type	_ZTV7b2Joint, %object
	.size	_ZTV7b2Joint, 52
_ZTV7b2Joint:
	.word	0
	.word	_ZTI7b2Joint
	.word	__cxa_pure_virtual
	.word	__cxa_pure_virtual
	.word	__cxa_pure_virtual
	.word	__cxa_pure_virtual
	.word	_ZN7b2Joint4DumpEv
	.word	_ZN7b2Joint11ShiftOriginERK6b2Vec2
	.word	_ZN7b2JointD1Ev
	.word	_ZN7b2JointD0Ev
	.word	__cxa_pure_virtual
	.word	__cxa_pure_virtual
	.word	__cxa_pure_virtual
	.hidden	_ZTI15b2RevoluteJoint
	.global	_ZTI15b2RevoluteJoint
	.section	.rodata
	.align	2
	.type	_ZTI15b2RevoluteJoint, %object
	.size	_ZTI15b2RevoluteJoint, 12
_ZTI15b2RevoluteJoint:
	.word	_ZTVN10__cxxabiv120__si_class_type_infoE+8
	.word	_ZTS15b2RevoluteJoint
	.word	_ZTI7b2Joint
	.hidden	_ZTS15b2RevoluteJoint
	.global	_ZTS15b2RevoluteJoint
	.align	2
	.type	_ZTS15b2RevoluteJoint, %object
	.size	_ZTS15b2RevoluteJoint, 18
_ZTS15b2RevoluteJoint:
	.ascii	"15b2RevoluteJoint\000"
	.hidden	_ZTS7b2Joint
	.weak	_ZTS7b2Joint
	.section	.rodata._ZTS7b2Joint,"aG",%progbits,_ZTS7b2Joint,comdat
	.align	2
	.type	_ZTS7b2Joint, %object
	.size	_ZTS7b2Joint, 9
_ZTS7b2Joint:
	.ascii	"7b2Joint\000"
	.hidden	_ZTI7b2Joint
	.weak	_ZTI7b2Joint
	.section	.rodata._ZTI7b2Joint,"aG",%progbits,_ZTI7b2Joint,comdat
	.align	2
	.type	_ZTI7b2Joint, %object
	.size	_ZTI7b2Joint, 8
_ZTI7b2Joint:
	.word	_ZTVN10__cxxabiv117__class_type_infoE+8
	.word	_ZTS7b2Joint
	.section	.text._ZN15b2RevoluteJointD1Ev,"axG",%progbits,_ZN15b2RevoluteJointD1Ev,comdat
	.align	2
	.weak	_ZN15b2RevoluteJointD1Ev
	.hidden	_ZN15b2RevoluteJointD1Ev
	.type	_ZN15b2RevoluteJointD1Ev, %function
_ZN15b2RevoluteJointD1Ev:
.LFB541:
	.file 5 "v:/gigglingbits/box2d/Box2D/Dynamics/Joints/b2RevoluteJoint.h"
	.loc 5 91 0
	.cfi_startproc
	@ args = 0, pretend = 0, frame = 8
	@ frame_needed = 0, uses_anonymous_args = 0
	str	lr, [sp, #-4]!
.LCFI103:
	.cfi_def_cfa_offset 4
	sub	sp, sp, #12
.LCFI104:
	.cfi_def_cfa_offset 16
	str	r0, [sp, #4]
	.loc 5 91 0
	ldr	r3, [sp, #4]
	ldr	r2, .L230
	str	r2, [r3, #0]
	ldr	r3, [sp, #4]
	mov	r0, r3
	.cfi_offset 14, -4
	bl	_ZN7b2JointD2Ev
	mov	r3, #0
	and	r3, r3, #255
	cmp	r3, #0
	beq	.L228
	ldr	r0, [sp, #4]
	bl	_ZdlPv
.L228:
	ldr	r3, [sp, #4]
	mov	r0, r3
	add	sp, sp, #12
	ldmfd	sp!, {pc}
.L231:
	.align	2
.L230:
	.word	_ZTV15b2RevoluteJoint+8
	.cfi_endproc
.LFE541:
	.size	_ZN15b2RevoluteJointD1Ev, .-_ZN15b2RevoluteJointD1Ev
	.section	.text._ZN15b2RevoluteJointD0Ev,"axG",%progbits,_ZN15b2RevoluteJointD0Ev,comdat
	.align	2
	.weak	_ZN15b2RevoluteJointD0Ev
	.hidden	_ZN15b2RevoluteJointD0Ev
	.type	_ZN15b2RevoluteJointD0Ev, %function
_ZN15b2RevoluteJointD0Ev:
.LFB542:
	.loc 5 91 0
	.cfi_startproc
	@ args = 0, pretend = 0, frame = 8
	@ frame_needed = 0, uses_anonymous_args = 0
	str	lr, [sp, #-4]!
.LCFI105:
	.cfi_def_cfa_offset 4
	sub	sp, sp, #12
.LCFI106:
	.cfi_def_cfa_offset 16
	str	r0, [sp, #4]
	.loc 5 91 0
	ldr	r3, [sp, #4]
	ldr	r2, .L236
	str	r2, [r3, #0]
	ldr	r3, [sp, #4]
	mov	r0, r3
	.cfi_offset 14, -4
	bl	_ZN7b2JointD2Ev
	mov	r3, #1
	and	r3, r3, #255
	cmp	r3, #0
	beq	.L234
	ldr	r0, [sp, #4]
	bl	_ZdlPv
.L234:
	ldr	r3, [sp, #4]
	mov	r0, r3
	add	sp, sp, #12
	ldmfd	sp!, {pc}
.L237:
	.align	2
.L236:
	.word	_ZTV15b2RevoluteJoint+8
	.cfi_endproc
.LFE542:
	.size	_ZN15b2RevoluteJointD0Ev, .-_ZN15b2RevoluteJointD0Ev
	.section	.rodata
	.align	2
	.type	_ZL12b2_chunkSize, %object
	.size	_ZL12b2_chunkSize, 4
_ZL12b2_chunkSize:
	.word	16384
	.align	2
	.type	_ZL15b2_maxBlockSize, %object
	.size	_ZL15b2_maxBlockSize, 4
_ZL15b2_maxBlockSize:
	.word	640
	.align	2
	.type	_ZL13b2_blockSizes, %object
	.size	_ZL13b2_blockSizes, 4
_ZL13b2_blockSizes:
	.word	14
	.align	2
	.type	_ZL22b2_chunkArrayIncrement, %object
	.size	_ZL22b2_chunkArrayIncrement, 4
_ZL22b2_chunkArrayIncrement:
	.word	128
	.type	_ZL14b2_nullFeature, %object
	.size	_ZL14b2_nullFeature, 1
_ZL14b2_nullFeature:
	.byte	-1
	.text
.Letext0: