	.arch armv5te
	.eabi_attribute 27, 3
	.fpu vfp
	.eabi_attribute 20, 1
	.eabi_attribute 21, 1
	.eabi_attribute 23, 3
	.eabi_attribute 24, 1
	.eabi_attribute 25, 1
	.eabi_attribute 26, 2
	.eabi_attribute 30, 6
	.eabi_attribute 18, 2
	.file	"b2Rope.cpp"
	.text
.Ltext0:
	.cfi_sections	.debug_frame
	.section	.text._ZN6b2Vec2C1Ev,"axG",%progbits,_ZN6b2Vec2C1Ev,comdat
	.align	2
	.weak	_ZN6b2Vec2C1Ev
	.hidden	_ZN6b2Vec2C1Ev
	.type	_ZN6b2Vec2C1Ev, %function
_ZN6b2Vec2C1Ev:
.LFB4:
	.file 1 "v:/gigglingbits/box2d/Box2D/Common/b2Math.h"
	.loc 1 56 0
	.cfi_startproc
	@ args = 0, pretend = 0, frame = 8
	@ frame_needed = 0, uses_anonymous_args = 0
	@ link register save eliminated.
	sub	sp, sp, #8
.LCFI0:
	.cfi_def_cfa_offset 8
	str	r0, [sp, #4]
	.loc 1 56 0
	ldr	r3, [sp, #4]
	mov	r0, r3
	add	sp, sp, #8
	bx	lr
	.cfi_endproc
.LFE4:
	.size	_ZN6b2Vec2C1Ev, .-_ZN6b2Vec2C1Ev
	.section	.text._ZN6b2Vec2C1Eff,"axG",%progbits,_ZN6b2Vec2C1Eff,comdat
	.align	2
	.weak	_ZN6b2Vec2C1Eff
	.hidden	_ZN6b2Vec2C1Eff
	.type	_ZN6b2Vec2C1Eff, %function
_ZN6b2Vec2C1Eff:
.LFB7:
	.loc 1 59 0
	.cfi_startproc
	@ args = 0, pretend = 0, frame = 16
	@ frame_needed = 0, uses_anonymous_args = 0
	@ link register save eliminated.
	sub	sp, sp, #16
.LCFI1:
	.cfi_def_cfa_offset 16
	str	r0, [sp, #12]
	str	r1, [sp, #8]	@ float
	str	r2, [sp, #4]	@ float
	.loc 1 59 0
	ldr	r3, [sp, #12]
	flds	s15, [sp, #8]
	fsts	s15, [r3, #0]
	ldr	r3, [sp, #12]
	flds	s15, [sp, #4]
	fsts	s15, [r3, #4]
	ldr	r3, [sp, #12]
	mov	r0, r3
	add	sp, sp, #16
	bx	lr
	.cfi_endproc
.LFE7:
	.size	_ZN6b2Vec2C1Eff, .-_ZN6b2Vec2C1Eff
	.section	.text._ZN6b2Vec27SetZeroEv,"axG",%progbits,_ZN6b2Vec27SetZeroEv,comdat
	.align	2
	.weak	_ZN6b2Vec27SetZeroEv
	.hidden	_ZN6b2Vec27SetZeroEv
	.type	_ZN6b2Vec27SetZeroEv, %function
_ZN6b2Vec27SetZeroEv:
.LFB8:
	.loc 1 62 0
	.cfi_startproc
	@ args = 0, pretend = 0, frame = 8
	@ frame_needed = 0, uses_anonymous_args = 0
	@ link register save eliminated.
	sub	sp, sp, #8
.LCFI2:
	.cfi_def_cfa_offset 8
	str	r0, [sp, #4]
	.loc 1 62 0
	ldr	r3, [sp, #4]
	flds	s15, .L9
	fsts	s15, [r3, #0]
	ldr	r3, [sp, #4]
	flds	s15, .L9
	fsts	s15, [r3, #4]
	add	sp, sp, #8
	bx	lr
.L10:
	.align	2
.L9:
	.word	0
	.cfi_endproc
.LFE8:
	.size	_ZN6b2Vec27SetZeroEv, .-_ZN6b2Vec27SetZeroEv
	.section	.text._ZN6b2Vec23SetEff,"axG",%progbits,_ZN6b2Vec23SetEff,comdat
	.align	2
	.weak	_ZN6b2Vec23SetEff
	.hidden	_ZN6b2Vec23SetEff
	.type	_ZN6b2Vec23SetEff, %function
_ZN6b2Vec23SetEff:
.LFB9:
	.loc 1 65 0
	.cfi_startproc
	@ args = 0, pretend = 0, frame = 16
	@ frame_needed = 0, uses_anonymous_args = 0
	@ link register save eliminated.
	sub	sp, sp, #16
.LCFI3:
	.cfi_def_cfa_offset 16
	str	r0, [sp, #12]
	str	r1, [sp, #8]	@ float
	str	r2, [sp, #4]	@ float
	.loc 1 65 0
	ldr	r3, [sp, #12]
	flds	s15, [sp, #8]
	fsts	s15, [r3, #0]
	ldr	r3, [sp, #12]
	flds	s15, [sp, #4]
	fsts	s15, [r3, #4]
	add	sp, sp, #16
	bx	lr
	.cfi_endproc
.LFE9:
	.size	_ZN6b2Vec23SetEff, .-_ZN6b2Vec23SetEff
	.section	.text._ZNK6b2Vec2ngEv,"axG",%progbits,_ZNK6b2Vec2ngEv,comdat
	.align	2
	.weak	_ZNK6b2Vec2ngEv
	.hidden	_ZNK6b2Vec2ngEv
	.type	_ZNK6b2Vec2ngEv, %function
_ZNK6b2Vec2ngEv:
.LFB10:
	.loc 1 68 0
	.cfi_startproc
	@ args = 0, pretend = 0, frame = 16
	@ frame_needed = 0, uses_anonymous_args = 0
	stmfd	sp!, {r4, lr}
.LCFI4:
	.cfi_def_cfa_offset 8
	sub	sp, sp, #16
.LCFI5:
	.cfi_def_cfa_offset 24
	mov	r4, r0
	.cfi_offset 14, -4
	.cfi_offset 4, -8
	str	r1, [sp, #4]
.LBB2:
	.loc 1 68 0
	mov	r0, r4
	bl	_ZN6b2Vec2C1Ev
	ldr	r3, [sp, #4]
	flds	s15, [r3, #0]
	fnegs	s14, s15
	ldr	r3, [sp, #4]
	flds	s15, [r3, #4]
	fnegs	s15, s15
	mov	r0, r4
	fmrs	r1, s14
	fmrs	r2, s15
	bl	_ZN6b2Vec23SetEff
.LBE2:
	mov	r0, r4
	add	sp, sp, #16
	ldmfd	sp!, {r4, pc}
	.cfi_endproc
.LFE10:
	.size	_ZNK6b2Vec2ngEv, .-_ZNK6b2Vec2ngEv
	.section	.text._ZN6b2Vec2pLERKS_,"axG",%progbits,_ZN6b2Vec2pLERKS_,comdat
	.align	2
	.weak	_ZN6b2Vec2pLERKS_
	.hidden	_ZN6b2Vec2pLERKS_
	.type	_ZN6b2Vec2pLERKS_, %function
_ZN6b2Vec2pLERKS_:
.LFB13:
	.loc 1 83 0
	.cfi_startproc
	@ args = 0, pretend = 0, frame = 8
	@ frame_needed = 0, uses_anonymous_args = 0
	@ link register save eliminated.
	sub	sp, sp, #8
.LCFI6:
	.cfi_def_cfa_offset 8
	str	r0, [sp, #4]
	str	r1, [sp, #0]
	.loc 1 85 0
	ldr	r3, [sp, #4]
	flds	s14, [r3, #0]
	ldr	r3, [sp, #0]
	flds	s15, [r3, #0]
	fadds	s15, s14, s15
	ldr	r3, [sp, #4]
	fsts	s15, [r3, #0]
	ldr	r3, [sp, #4]
	flds	s14, [r3, #4]
	ldr	r3, [sp, #0]
	flds	s15, [r3, #4]
	fadds	s15, s14, s15
	ldr	r3, [sp, #4]
	fsts	s15, [r3, #4]
	.loc 1 86 0
	add	sp, sp, #8
	bx	lr
	.cfi_endproc
.LFE13:
	.size	_ZN6b2Vec2pLERKS_, .-_ZN6b2Vec2pLERKS_
	.section	.text._ZN6b2Vec2mIERKS_,"axG",%progbits,_ZN6b2Vec2mIERKS_,comdat
	.align	2
	.weak	_ZN6b2Vec2mIERKS_
	.hidden	_ZN6b2Vec2mIERKS_
	.type	_ZN6b2Vec2mIERKS_, %function
_ZN6b2Vec2mIERKS_:
.LFB14:
	.loc 1 89 0
	.cfi_startproc
	@ args = 0, pretend = 0, frame = 8
	@ frame_needed = 0, uses_anonymous_args = 0
	@ link register save eliminated.
	sub	sp, sp, #8
.LCFI7:
	.cfi_def_cfa_offset 8
	str	r0, [sp, #4]
	str	r1, [sp, #0]
	.loc 1 91 0
	ldr	r3, [sp, #4]
	flds	s14, [r3, #0]
	ldr	r3, [sp, #0]
	flds	s15, [r3, #0]
	fsubs	s15, s14, s15
	ldr	r3, [sp, #4]
	fsts	s15, [r3, #0]
	ldr	r3, [sp, #4]
	flds	s14, [r3, #4]
	ldr	r3, [sp, #0]
	flds	s15, [r3, #4]
	fsubs	s15, s14, s15
	ldr	r3, [sp, #4]
	fsts	s15, [r3, #4]
	.loc 1 92 0
	add	sp, sp, #8
	bx	lr
	.cfi_endproc
.LFE14:
	.size	_ZN6b2Vec2mIERKS_, .-_ZN6b2Vec2mIERKS_
	.section	.text._ZN6b2Vec2mLEf,"axG",%progbits,_ZN6b2Vec2mLEf,comdat
	.align	2
	.weak	_ZN6b2Vec2mLEf
	.hidden	_ZN6b2Vec2mLEf
	.type	_ZN6b2Vec2mLEf, %function
_ZN6b2Vec2mLEf:
.LFB15:
	.loc 1 95 0
	.cfi_startproc
	@ args = 0, pretend = 0, frame = 8
	@ frame_needed = 0, uses_anonymous_args = 0
	@ link register save eliminated.
	sub	sp, sp, #8
.LCFI8:
	.cfi_def_cfa_offset 8
	str	r0, [sp, #4]
	str	r1, [sp, #0]	@ float
	.loc 1 97 0
	ldr	r3, [sp, #4]
	flds	s14, [r3, #0]
	flds	s15, [sp, #0]
	fmuls	s15, s14, s15
	ldr	r3, [sp, #4]
	fsts	s15, [r3, #0]
	ldr	r3, [sp, #4]
	flds	s14, [r3, #4]
	flds	s15, [sp, #0]
	fmuls	s15, s14, s15
	ldr	r3, [sp, #4]
	fsts	s15, [r3, #4]
	.loc 1 98 0
	add	sp, sp, #8
	bx	lr
	.cfi_endproc
.LFE15:
	.size	_ZN6b2Vec2mLEf, .-_ZN6b2Vec2mLEf
	.section	.text._ZNK6b2Vec26LengthEv,"axG",%progbits,_ZNK6b2Vec26LengthEv,comdat
	.align	2
	.weak	_ZNK6b2Vec26LengthEv
	.hidden	_ZNK6b2Vec26LengthEv
	.type	_ZNK6b2Vec26LengthEv, %function
_ZNK6b2Vec26LengthEv:
.LFB16:
	.loc 1 101 0
	.cfi_startproc
	@ args = 0, pretend = 0, frame = 8
	@ frame_needed = 0, uses_anonymous_args = 0
	str	lr, [sp, #-4]!
.LCFI9:
	.cfi_def_cfa_offset 4
	sub	sp, sp, #12
.LCFI10:
	.cfi_def_cfa_offset 16
	str	r0, [sp, #4]
	.loc 1 103 0
	ldr	r3, [sp, #4]
	flds	s14, [r3, #0]
	ldr	r3, [sp, #4]
	flds	s15, [r3, #0]
	fmuls	s14, s14, s15
	ldr	r3, [sp, #4]
	flds	s13, [r3, #4]
	ldr	r3, [sp, #4]
	flds	s15, [r3, #4]
	fmuls	s15, s13, s15
	fadds	s14, s14, s15
	fsqrts	s15, s14
	fcmps	s15, s15
	fmstat
	beq	.L22
	.cfi_offset 14, -4
	fmrs	r0, s14
	bl	sqrtf
	fmsr	s15, r0
.L22:
	fmrs	r3, s15
	.loc 1 104 0
	mov	r0, r3	@ float
	add	sp, sp, #12
	ldmfd	sp!, {pc}
	.cfi_endproc
.LFE16:
	.size	_ZNK6b2Vec26LengthEv, .-_ZNK6b2Vec26LengthEv
	.section	.text._ZNK6b2Vec213LengthSquaredEv,"axG",%progbits,_ZNK6b2Vec213LengthSquaredEv,comdat
	.align	2
	.weak	_ZNK6b2Vec213LengthSquaredEv
	.hidden	_ZNK6b2Vec213LengthSquaredEv
	.type	_ZNK6b2Vec213LengthSquaredEv, %function
_ZNK6b2Vec213LengthSquaredEv:
.LFB17:
	.loc 1 108 0
	.cfi_startproc
	@ args = 0, pretend = 0, frame = 8
	@ frame_needed = 0, uses_anonymous_args = 0
	@ link register save eliminated.
	sub	sp, sp, #8
.LCFI11:
	.cfi_def_cfa_offset 8
	str	r0, [sp, #4]
	.loc 1 110 0
	ldr	r3, [sp, #4]
	flds	s14, [r3, #0]
	ldr	r3, [sp, #4]
	flds	s15, [r3, #0]
	fmuls	s14, s14, s15
	ldr	r3, [sp, #4]
	flds	s13, [r3, #4]
	ldr	r3, [sp, #4]
	flds	s15, [r3, #4]
	fmuls	s15, s13, s15
	fadds	s15, s14, s15
	fmrs	r3, s15
	.loc 1 111 0
	mov	r0, r3	@ float
	add	sp, sp, #8
	bx	lr
	.cfi_endproc
.LFE17:
	.size	_ZNK6b2Vec213LengthSquaredEv, .-_ZNK6b2Vec213LengthSquaredEv
	.section	.text._ZN6b2Vec29NormalizeEv,"axG",%progbits,_ZN6b2Vec29NormalizeEv,comdat
	.align	2
	.weak	_ZN6b2Vec29NormalizeEv
	.hidden	_ZN6b2Vec29NormalizeEv
	.type	_ZN6b2Vec29NormalizeEv, %function
_ZN6b2Vec29NormalizeEv:
.LFB18:
	.loc 1 114 0
	.cfi_startproc
	@ args = 0, pretend = 0, frame = 16
	@ frame_needed = 0, uses_anonymous_args = 0
	str	lr, [sp, #-4]!
.LCFI12:
	.cfi_def_cfa_offset 4
	sub	sp, sp, #20
.LCFI13:
	.cfi_def_cfa_offset 24
	str	r0, [sp, #4]
.LBB3:
	.loc 1 116 0
	ldr	r0, [sp, #4]
	.cfi_offset 14, -4
	bl	_ZNK6b2Vec26LengthEv
	mov	r3, r0	@ float
	str	r3, [sp, #8]	@ float
	.loc 1 117 0
	flds	s14, [sp, #8]
	flds	s15, .L30
	fcmpes	s14, s15
	fmstat
	movpl	r3, #0
	movmi	r3, #1
	and	r3, r3, #255
	cmp	r3, #0
	beq	.L27
	.loc 1 119 0
	flds	s15, .L30+4
	b	.L28
.L27:
	.loc 1 121 0
	flds	s14, .L30+8
	flds	s15, [sp, #8]
	fdivs	s15, s14, s15
	fsts	s15, [sp, #12]
	.loc 1 122 0
	ldr	r3, [sp, #4]
	flds	s14, [r3, #0]
	flds	s15, [sp, #12]
	fmuls	s15, s14, s15
	ldr	r3, [sp, #4]
	fsts	s15, [r3, #0]
	.loc 1 123 0
	ldr	r3, [sp, #4]
	flds	s14, [r3, #4]
	flds	s15, [sp, #12]
	fmuls	s15, s14, s15
	ldr	r3, [sp, #4]
	fsts	s15, [r3, #4]
	.loc 1 125 0
	flds	s15, [sp, #8]
.L28:
	fmrs	r3, s15
.LBE3:
	.loc 1 126 0
	mov	r0, r3	@ float
	add	sp, sp, #20
	ldmfd	sp!, {pc}
.L31:
	.align	2
.L30:
	.word	872415232
	.word	0
	.word	1065353216
	.cfi_endproc
.LFE18:
	.size	_ZN6b2Vec29NormalizeEv, .-_ZN6b2Vec29NormalizeEv
	.section	.text._ZNK6b2Vec24SkewEv,"axG",%progbits,_ZNK6b2Vec24SkewEv,comdat
	.align	2
	.weak	_ZNK6b2Vec24SkewEv
	.hidden	_ZNK6b2Vec24SkewEv
	.type	_ZNK6b2Vec24SkewEv, %function
_ZNK6b2Vec24SkewEv:
.LFB20:
	.loc 1 135 0
	.cfi_startproc
	@ args = 0, pretend = 0, frame = 8
	@ frame_needed = 0, uses_anonymous_args = 0
	stmfd	sp!, {r4, lr}
.LCFI14:
	.cfi_def_cfa_offset 8
	sub	sp, sp, #8
.LCFI15:
	.cfi_def_cfa_offset 16
	mov	r4, r0
	.cfi_offset 14, -4
	.cfi_offset 4, -8
	str	r1, [sp, #4]
	.loc 1 137 0
	ldr	r3, [sp, #4]
	flds	s15, [r3, #4]
	fnegs	s15, s15
	ldr	r3, [sp, #4]
	ldr	r3, [r3, #0]	@ float
	mov	r0, r4
	fmrs	r1, s15
	mov	r2, r3	@ float
	bl	_ZN6b2Vec2C1Eff
	.loc 1 138 0
	mov	r0, r4
	add	sp, sp, #8
	ldmfd	sp!, {r4, pc}
	.cfi_endproc
.LFE20:
	.size	_ZNK6b2Vec24SkewEv, .-_ZNK6b2Vec24SkewEv
	.section	.text._Z5b2DotRK6b2Vec2S1_,"axG",%progbits,_Z5b2DotRK6b2Vec2S1_,comdat
	.align	2
	.weak	_Z5b2DotRK6b2Vec2S1_
	.hidden	_Z5b2DotRK6b2Vec2S1_
	.type	_Z5b2DotRK6b2Vec2S1_, %function
_Z5b2DotRK6b2Vec2S1_:
.LFB73:
	.loc 1 407 0
	.cfi_startproc
	@ args = 0, pretend = 0, frame = 8
	@ frame_needed = 0, uses_anonymous_args = 0
	@ link register save eliminated.
	sub	sp, sp, #8
.LCFI16:
	.cfi_def_cfa_offset 8
	str	r0, [sp, #4]
	str	r1, [sp, #0]
	.loc 1 408 0
	ldr	r3, [sp, #4]
	flds	s14, [r3, #0]
	ldr	r3, [sp, #0]
	flds	s15, [r3, #0]
	fmuls	s14, s14, s15
	ldr	r3, [sp, #4]
	flds	s13, [r3, #4]
	ldr	r3, [sp, #0]
	flds	s15, [r3, #4]
	fmuls	s15, s13, s15
	fadds	s15, s14, s15
	fmrs	r3, s15
	.loc 1 409 0
	mov	r0, r3	@ float
	add	sp, sp, #8
	bx	lr
	.cfi_endproc
.LFE73:
	.size	_Z5b2DotRK6b2Vec2S1_, .-_Z5b2DotRK6b2Vec2S1_
	.section	.text._Z7b2CrossRK6b2Vec2S1_,"axG",%progbits,_Z7b2CrossRK6b2Vec2S1_,comdat
	.align	2
	.weak	_Z7b2CrossRK6b2Vec2S1_
	.hidden	_Z7b2CrossRK6b2Vec2S1_
	.type	_Z7b2CrossRK6b2Vec2S1_, %function
_Z7b2CrossRK6b2Vec2S1_:
.LFB74:
	.loc 1 413 0
	.cfi_startproc
	@ args = 0, pretend = 0, frame = 8
	@ frame_needed = 0, uses_anonymous_args = 0
	@ link register save eliminated.
	sub	sp, sp, #8
.LCFI17:
	.cfi_def_cfa_offset 8
	str	r0, [sp, #4]
	str	r1, [sp, #0]
	.loc 1 414 0
	ldr	r3, [sp, #4]
	flds	s14, [r3, #0]
	ldr	r3, [sp, #0]
	flds	s15, [r3, #4]
	fmuls	s14, s14, s15
	ldr	r3, [sp, #4]
	flds	s13, [r3, #4]
	ldr	r3, [sp, #0]
	flds	s15, [r3, #0]
	fmuls	s15, s13, s15
	fsubs	s15, s14, s15
	fmrs	r3, s15
	.loc 1 415 0
	mov	r0, r3	@ float
	add	sp, sp, #8
	bx	lr
	.cfi_endproc
.LFE74:
	.size	_Z7b2CrossRK6b2Vec2S1_, .-_Z7b2CrossRK6b2Vec2S1_
	.section	.text._ZmiRK6b2Vec2S1_,"axG",%progbits,_ZmiRK6b2Vec2S1_,comdat
	.align	2
	.weak	_ZmiRK6b2Vec2S1_
	.hidden	_ZmiRK6b2Vec2S1_
	.type	_ZmiRK6b2Vec2S1_, %function
_ZmiRK6b2Vec2S1_:
.LFB80:
	.loc 1 453 0
	.cfi_startproc
	@ args = 0, pretend = 0, frame = 8
	@ frame_needed = 0, uses_anonymous_args = 0
	stmfd	sp!, {r4, lr}
.LCFI18:
	.cfi_def_cfa_offset 8
	sub	sp, sp, #8
.LCFI19:
	.cfi_def_cfa_offset 16
	mov	r4, r0
	.cfi_offset 14, -4
	.cfi_offset 4, -8
	str	r1, [sp, #4]
	str	r2, [sp, #0]
	.loc 1 454 0
	ldr	r3, [sp, #4]
	flds	s14, [r3, #0]
	ldr	r3, [sp, #0]
	flds	s15, [r3, #0]
	fsubs	s13, s14, s15
	ldr	r3, [sp, #4]
	flds	s14, [r3, #4]
	ldr	r3, [sp, #0]
	flds	s15, [r3, #4]
	fsubs	s15, s14, s15
	mov	r0, r4
	fmrs	r1, s13
	fmrs	r2, s15
	bl	_ZN6b2Vec2C1Eff
	.loc 1 455 0
	mov	r0, r4
	add	sp, sp, #8
	ldmfd	sp!, {r4, pc}
	.cfi_endproc
.LFE80:
	.size	_ZmiRK6b2Vec2S1_, .-_ZmiRK6b2Vec2S1_
	.section	.text._ZmlfRK6b2Vec2,"axG",%progbits,_ZmlfRK6b2Vec2,comdat
	.align	2
	.weak	_ZmlfRK6b2Vec2
	.hidden	_ZmlfRK6b2Vec2
	.type	_ZmlfRK6b2Vec2, %function
_ZmlfRK6b2Vec2:
.LFB81:
	.loc 1 458 0
	.cfi_startproc
	@ args = 0, pretend = 0, frame = 8
	@ frame_needed = 0, uses_anonymous_args = 0
	stmfd	sp!, {r4, lr}
.LCFI20:
	.cfi_def_cfa_offset 8
	sub	sp, sp, #8
.LCFI21:
	.cfi_def_cfa_offset 16
	mov	r4, r0
	.cfi_offset 14, -4
	.cfi_offset 4, -8
	str	r1, [sp, #4]	@ float
	str	r2, [sp, #0]
	.loc 1 459 0
	ldr	r3, [sp, #0]
	flds	s14, [r3, #0]
	flds	s15, [sp, #4]
	fmuls	s14, s14, s15
	ldr	r3, [sp, #0]
	flds	s13, [r3, #4]
	flds	s15, [sp, #4]
	fmuls	s15, s13, s15
	mov	r0, r4
	fmrs	r1, s14
	fmrs	r2, s15
	bl	_ZN6b2Vec2C1Eff
	.loc 1 460 0
	mov	r0, r4
	add	sp, sp, #8
	ldmfd	sp!, {r4, pc}
	.cfi_endproc
.LFE81:
	.size	_ZmlfRK6b2Vec2, .-_ZmlfRK6b2Vec2
	.section	.text._Z10b2DistanceRK6b2Vec2S1_,"axG",%progbits,_Z10b2DistanceRK6b2Vec2S1_,comdat
	.align	2
	.weak	_Z10b2DistanceRK6b2Vec2S1_
	.hidden	_Z10b2DistanceRK6b2Vec2S1_
	.type	_Z10b2DistanceRK6b2Vec2S1_, %function
_Z10b2DistanceRK6b2Vec2S1_:
.LFB83:
	.loc 1 468 0
	.cfi_startproc
	@ args = 0, pretend = 0, frame = 16
	@ frame_needed = 0, uses_anonymous_args = 0
	str	lr, [sp, #-4]!
.LCFI22:
	.cfi_def_cfa_offset 4
	sub	sp, sp, #20
.LCFI23:
	.cfi_def_cfa_offset 24
	str	r0, [sp, #4]
	str	r1, [sp, #0]
.LBB4:
	.loc 1 469 0
	add	r3, sp, #8
	mov	r0, r3
	ldr	r1, [sp, #4]
	ldr	r2, [sp, #0]
	.cfi_offset 14, -4
	bl	_ZmiRK6b2Vec2S1_
	.loc 1 470 0
	add	r3, sp, #8
	mov	r0, r3
	bl	_ZNK6b2Vec26LengthEv
	mov	r3, r0	@ float
	fmsr	s15, r3
	fmrs	r3, s15
.LBE4:
	.loc 1 471 0
	mov	r0, r3	@ float
	add	sp, sp, #20
	ldmfd	sp!, {pc}
	.cfi_endproc
.LFE83:
	.size	_Z10b2DistanceRK6b2Vec2S1_, .-_Z10b2DistanceRK6b2Vec2S1_
	.section	.text._ZN7b2ColorC1Efff,"axG",%progbits,_ZN7b2ColorC1Efff,comdat
	.align	2
	.weak	_ZN7b2ColorC1Efff
	.hidden	_ZN7b2ColorC1Efff
	.type	_ZN7b2ColorC1Efff, %function
_ZN7b2ColorC1Efff:
.LFB128:
	.file 2 "v:/gigglingbits/box2d/Box2D/Common/b2Draw.h"
	.loc 2 28 0
	.cfi_startproc
	@ args = 0, pretend = 0, frame = 16
	@ frame_needed = 0, uses_anonymous_args = 0
	@ link register save eliminated.
	sub	sp, sp, #16
.LCFI24:
	.cfi_def_cfa_offset 16
	str	r0, [sp, #12]
	str	r1, [sp, #8]	@ float
	str	r2, [sp, #4]	@ float
	str	r3, [sp, #0]	@ float
	.loc 2 28 0
	ldr	r3, [sp, #12]
	flds	s15, [sp, #8]
	fsts	s15, [r3, #0]
	ldr	r3, [sp, #12]
	flds	s15, [sp, #4]
	fsts	s15, [r3, #4]
	ldr	r3, [sp, #12]
	flds	s15, [sp, #0]
	fsts	s15, [r3, #8]
	ldr	r3, [sp, #12]
	mov	r0, r3
	add	sp, sp, #16
	bx	lr
	.cfi_endproc
.LFE128:
	.size	_ZN7b2ColorC1Efff, .-_ZN7b2ColorC1Efff
	.section	.text._ZN6b2RopeC2Ev,"ax",%progbits
	.align	2
	.global	_ZN6b2RopeC2Ev
	.hidden	_ZN6b2RopeC2Ev
	.type	_ZN6b2RopeC2Ev, %function
_ZN6b2RopeC2Ev:
.LFB135:
	.file 3 "v:/gigglingbits/box2d/Box2D/Rope/b2Rope.cpp"
	.loc 3 22 0
	.cfi_startproc
	@ args = 0, pretend = 0, frame = 8
	@ frame_needed = 0, uses_anonymous_args = 0
	str	lr, [sp, #-4]!
.LCFI25:
	.cfi_def_cfa_offset 4
	sub	sp, sp, #12
.LCFI26:
	.cfi_def_cfa_offset 16
	str	r0, [sp, #4]
	.loc 3 22 0
	ldr	r3, [sp, #4]
	add	r3, r3, #28
	mov	r0, r3
	.cfi_offset 14, -4
	bl	_ZN6b2Vec2C1Ev
	.loc 3 24 0
	ldr	r3, [sp, #4]
	mov	r2, #0
	str	r2, [r3, #0]
	.loc 3 25 0
	ldr	r3, [sp, #4]
	mov	r2, #0
	str	r2, [r3, #4]
	.loc 3 26 0
	ldr	r3, [sp, #4]
	mov	r2, #0
	str	r2, [r3, #8]
	.loc 3 27 0
	ldr	r3, [sp, #4]
	mov	r2, #0
	str	r2, [r3, #12]
	.loc 3 28 0
	ldr	r3, [sp, #4]
	mov	r2, #0
	str	r2, [r3, #16]
	.loc 3 29 0
	ldr	r3, [sp, #4]
	mov	r2, #0
	str	r2, [r3, #20]
	.loc 3 30 0
	ldr	r3, [sp, #4]
	mov	r2, #0
	str	r2, [r3, #24]
	.loc 3 31 0
	ldr	r3, [sp, #4]
	add	r3, r3, #28
	mov	r0, r3
	bl	_ZN6b2Vec27SetZeroEv
	.loc 3 32 0
	ldr	r3, [sp, #4]
	flds	s15, .L50
	fsts	s15, [r3, #40]
	.loc 3 33 0
	ldr	r3, [sp, #4]
	flds	s15, .L50+4
	fsts	s15, [r3, #44]
	.loc 3 34 0
	ldr	r3, [sp, #4]
	mov	r0, r3
	add	sp, sp, #12
	ldmfd	sp!, {pc}
.L51:
	.align	2
.L50:
	.word	1065353216
	.word	1036831949
	.cfi_endproc
.LFE135:
	.size	_ZN6b2RopeC2Ev, .-_ZN6b2RopeC2Ev
	.section	.text._ZN6b2RopeC1Ev,"ax",%progbits
	.align	2
	.global	_ZN6b2RopeC1Ev
	.hidden	_ZN6b2RopeC1Ev
	.type	_ZN6b2RopeC1Ev, %function
_ZN6b2RopeC1Ev:
.LFB136:
	.loc 3 22 0
	.cfi_startproc
	@ args = 0, pretend = 0, frame = 8
	@ frame_needed = 0, uses_anonymous_args = 0
	str	lr, [sp, #-4]!
.LCFI27:
	.cfi_def_cfa_offset 4
	sub	sp, sp, #12
.LCFI28:
	.cfi_def_cfa_offset 16
	str	r0, [sp, #4]
	.loc 3 22 0
	ldr	r3, [sp, #4]
	add	r3, r3, #28
	mov	r0, r3
	.cfi_offset 14, -4
	bl	_ZN6b2Vec2C1Ev
	.loc 3 24 0
	ldr	r3, [sp, #4]
	mov	r2, #0
	str	r2, [r3, #0]
	.loc 3 25 0
	ldr	r3, [sp, #4]
	mov	r2, #0
	str	r2, [r3, #4]
	.loc 3 26 0
	ldr	r3, [sp, #4]
	mov	r2, #0
	str	r2, [r3, #8]
	.loc 3 27 0
	ldr	r3, [sp, #4]
	mov	r2, #0
	str	r2, [r3, #12]
	.loc 3 28 0
	ldr	r3, [sp, #4]
	mov	r2, #0
	str	r2, [r3, #16]
	.loc 3 29 0
	ldr	r3, [sp, #4]
	mov	r2, #0
	str	r2, [r3, #20]
	.loc 3 30 0
	ldr	r3, [sp, #4]
	mov	r2, #0
	str	r2, [r3, #24]
	.loc 3 31 0
	ldr	r3, [sp, #4]
	add	r3, r3, #28
	mov	r0, r3
	bl	_ZN6b2Vec27SetZeroEv
	.loc 3 32 0
	ldr	r3, [sp, #4]
	flds	s15, .L55
	fsts	s15, [r3, #40]
	.loc 3 33 0
	ldr	r3, [sp, #4]
	flds	s15, .L55+4
	fsts	s15, [r3, #44]
	.loc 3 34 0
	ldr	r3, [sp, #4]
	mov	r0, r3
	add	sp, sp, #12
	ldmfd	sp!, {pc}
.L56:
	.align	2
.L55:
	.word	1065353216
	.word	1036831949
	.cfi_endproc
.LFE136:
	.size	_ZN6b2RopeC1Ev, .-_ZN6b2RopeC1Ev
	.section	.text._ZN6b2RopeD2Ev,"ax",%progbits
	.align	2
	.global	_ZN6b2RopeD2Ev
	.hidden	_ZN6b2RopeD2Ev
	.type	_ZN6b2RopeD2Ev, %function
_ZN6b2RopeD2Ev:
.LFB138:
	.loc 3 36 0
	.cfi_startproc
	@ args = 0, pretend = 0, frame = 8
	@ frame_needed = 0, uses_anonymous_args = 0
	str	lr, [sp, #-4]!
.LCFI29:
	.cfi_def_cfa_offset 4
	sub	sp, sp, #12
.LCFI30:
	.cfi_def_cfa_offset 16
	str	r0, [sp, #4]
	.loc 3 38 0
	ldr	r3, [sp, #4]
	ldr	r3, [r3, #4]
	mov	r0, r3
	.cfi_offset 14, -4
	bl	_Z6b2FreePv
	.loc 3 39 0
	ldr	r3, [sp, #4]
	ldr	r3, [r3, #8]
	mov	r0, r3
	bl	_Z6b2FreePv
	.loc 3 40 0
	ldr	r3, [sp, #4]
	ldr	r3, [r3, #12]
	mov	r0, r3
	bl	_Z6b2FreePv
	.loc 3 41 0
	ldr	r3, [sp, #4]
	ldr	r3, [r3, #16]
	mov	r0, r3
	bl	_Z6b2FreePv
	.loc 3 42 0
	ldr	r3, [sp, #4]
	ldr	r3, [r3, #20]
	mov	r0, r3
	bl	_Z6b2FreePv
	.loc 3 43 0
	ldr	r3, [sp, #4]
	ldr	r3, [r3, #24]
	mov	r0, r3
	bl	_Z6b2FreePv
	.loc 3 44 0
	ldr	r3, [sp, #4]
	mov	r0, r3
	add	sp, sp, #12
	ldmfd	sp!, {pc}
	.cfi_endproc
.LFE138:
	.size	_ZN6b2RopeD2Ev, .-_ZN6b2RopeD2Ev
	.section	.text._ZN6b2RopeD1Ev,"ax",%progbits
	.align	2
	.global	_ZN6b2RopeD1Ev
	.hidden	_ZN6b2RopeD1Ev
	.type	_ZN6b2RopeD1Ev, %function
_ZN6b2RopeD1Ev:
.LFB139:
	.loc 3 36 0
	.cfi_startproc
	@ args = 0, pretend = 0, frame = 8
	@ frame_needed = 0, uses_anonymous_args = 0
	str	lr, [sp, #-4]!
.LCFI31:
	.cfi_def_cfa_offset 4
	sub	sp, sp, #12
.LCFI32:
	.cfi_def_cfa_offset 16
	str	r0, [sp, #4]
	.loc 3 38 0
	ldr	r3, [sp, #4]
	ldr	r3, [r3, #4]
	mov	r0, r3
	.cfi_offset 14, -4
	bl	_Z6b2FreePv
	.loc 3 39 0
	ldr	r3, [sp, #4]
	ldr	r3, [r3, #8]
	mov	r0, r3
	bl	_Z6b2FreePv
	.loc 3 40 0
	ldr	r3, [sp, #4]
	ldr	r3, [r3, #12]
	mov	r0, r3
	bl	_Z6b2FreePv
	.loc 3 41 0
	ldr	r3, [sp, #4]
	ldr	r3, [r3, #16]
	mov	r0, r3
	bl	_Z6b2FreePv
	.loc 3 42 0
	ldr	r3, [sp, #4]
	ldr	r3, [r3, #20]
	mov	r0, r3
	bl	_Z6b2FreePv
	.loc 3 43 0
	ldr	r3, [sp, #4]
	ldr	r3, [r3, #24]
	mov	r0, r3
	bl	_Z6b2FreePv
	.loc 3 44 0
	ldr	r3, [sp, #4]
	mov	r0, r3
	add	sp, sp, #12
	ldmfd	sp!, {pc}
	.cfi_endproc
.LFE139:
	.size	_ZN6b2RopeD1Ev, .-_ZN6b2RopeD1Ev
	.section	.rodata
	.align	2
.LC0:
	.ascii	"v:/gigglingbits/box2d/Box2D/Rope/b2Rope.cpp\000"
	.align	2
.LC1:
	.ascii	"def->count >= 3\000"
	.section	.text._ZN6b2Rope10InitializeEPK9b2RopeDef,"ax",%progbits
	.align	2
	.global	_ZN6b2Rope10InitializeEPK9b2RopeDef
	.hidden	_ZN6b2Rope10InitializeEPK9b2RopeDef
	.type	_ZN6b2Rope10InitializeEPK9b2RopeDef, %function
_ZN6b2Rope10InitializeEPK9b2RopeDef:
.LFB140:
	.loc 3 47 0
	.cfi_startproc
	@ args = 0, pretend = 0, frame = 96
	@ frame_needed = 0, uses_anonymous_args = 0
	stmfd	sp!, {r4, lr}
.LCFI33:
	.cfi_def_cfa_offset 8
	sub	sp, sp, #96
.LCFI34:
	.cfi_def_cfa_offset 104
	str	r0, [sp, #4]
	str	r1, [sp, #0]
.LBB5:
	.loc 3 48 0
	ldr	r3, [sp, #0]
	ldr	r3, [r3, #4]
	cmp	r3, #2
	bgt	.L64
	.cfi_offset 14, -4
	.cfi_offset 4, -8
	ldr	r0, .L74+8
	mov	r1, #48
	ldr	r2, .L74+12
	bl	__assert
.L64:
	.loc 3 49 0
	ldr	r3, [sp, #0]
	ldr	r2, [r3, #4]
	ldr	r3, [sp, #4]
	str	r2, [r3, #0]
	.loc 3 50 0
	ldr	r3, [sp, #4]
	ldr	r3, [r3, #0]
	mov	r3, r3, asl #3
	mov	r0, r3
	bl	_Z7b2Alloci
	mov	r3, r0
	mov	r2, r3
	ldr	r3, [sp, #4]
	str	r2, [r3, #4]
	.loc 3 51 0
	ldr	r3, [sp, #4]
	ldr	r3, [r3, #0]
	mov	r3, r3, asl #3
	mov	r0, r3
	bl	_Z7b2Alloci
	mov	r3, r0
	mov	r2, r3
	ldr	r3, [sp, #4]
	str	r2, [r3, #8]
	.loc 3 52 0
	ldr	r3, [sp, #4]
	ldr	r3, [r3, #0]
	mov	r3, r3, asl #3
	mov	r0, r3
	bl	_Z7b2Alloci
	mov	r3, r0
	mov	r2, r3
	ldr	r3, [sp, #4]
	str	r2, [r3, #12]
	.loc 3 53 0
	ldr	r3, [sp, #4]
	ldr	r3, [r3, #0]
	mov	r3, r3, asl #2
	mov	r0, r3
	bl	_Z7b2Alloci
	mov	r3, r0
	mov	r2, r3
	ldr	r3, [sp, #4]
	str	r2, [r3, #16]
.LBB6:
	.loc 3 55 0
	mov	r3, #0
	str	r3, [sp, #72]
	b	.L65
.L68:
.LBB7:
	.loc 3 57 0
	ldr	r3, [sp, #4]
	ldr	r2, [r3, #4]
	ldr	r3, [sp, #72]
	mov	r3, r3, asl #3
	add	r3, r2, r3
	ldr	r2, [sp, #0]
	ldr	r1, [r2, #0]
	ldr	r2, [sp, #72]
	mov	r2, r2, asl #3
	add	r2, r1, r2
	ldmia	r2, {r0, r1}
	stmia	r3, {r0, r1}
	.loc 3 58 0
	ldr	r3, [sp, #4]
	ldr	r2, [r3, #8]
	ldr	r3, [sp, #72]
	mov	r3, r3, asl #3
	add	r3, r2, r3
	ldr	r2, [sp, #0]
	ldr	r1, [r2, #0]
	ldr	r2, [sp, #72]
	mov	r2, r2, asl #3
	add	r2, r1, r2
	ldmia	r2, {r0, r1}
	stmia	r3, {r0, r1}
	.loc 3 59 0
	ldr	r3, [sp, #4]
	ldr	r2, [r3, #12]
	ldr	r3, [sp, #72]
	mov	r3, r3, asl #3
	add	r3, r2, r3
	mov	r0, r3
	bl	_ZN6b2Vec27SetZeroEv
	.loc 3 61 0
	ldr	r3, [sp, #0]
	ldr	r2, [r3, #8]
	ldr	r3, [sp, #72]
	mov	r3, r3, asl #2
	add	r3, r2, r3
	flds	s15, [r3, #0]
	fsts	s15, [sp, #76]
	.loc 3 62 0
	flds	s15, [sp, #76]
	fcmpezs	s15
	fmstat
	movle	r3, #0
	movgt	r3, #1
	and	r3, r3, #255
	cmp	r3, #0
	beq	.L66
	.loc 3 64 0
	ldr	r3, [sp, #4]
	ldr	r2, [r3, #16]
	ldr	r3, [sp, #72]
	mov	r3, r3, asl #2
	add	r3, r2, r3
	flds	s14, .L74
	flds	s15, [sp, #76]
	fdivs	s15, s14, s15
	fsts	s15, [r3, #0]
	b	.L67
.L66:
	.loc 3 68 0
	ldr	r3, [sp, #4]
	ldr	r2, [r3, #16]
	ldr	r3, [sp, #72]
	mov	r3, r3, asl #2
	add	r3, r2, r3
	flds	s15, .L74+4
	fsts	s15, [r3, #0]
.L67:
.LBE7:
	.loc 3 55 0
	ldr	r3, [sp, #72]
	add	r3, r3, #1
	str	r3, [sp, #72]
.L65:
	ldr	r3, [sp, #4]
	ldr	r2, [r3, #0]
	ldr	r3, [sp, #72]
	cmp	r2, r3
	movle	r3, #0
	movgt	r3, #1
	and	r3, r3, #255
	cmp	r3, #0
	bne	.L68
.LBE6:
	.loc 3 72 0
	ldr	r3, [sp, #4]
	ldr	r3, [r3, #0]
	sub	r3, r3, #1
	str	r3, [sp, #64]
	.loc 3 73 0
	ldr	r3, [sp, #4]
	ldr	r3, [r3, #0]
	sub	r3, r3, #2
	str	r3, [sp, #68]
	.loc 3 74 0
	ldr	r3, [sp, #64]
	mov	r3, r3, asl #2
	mov	r0, r3
	bl	_Z7b2Alloci
	mov	r3, r0
	mov	r2, r3
	ldr	r3, [sp, #4]
	str	r2, [r3, #20]
	.loc 3 75 0
	ldr	r3, [sp, #68]
	mov	r3, r3, asl #2
	mov	r0, r3
	bl	_Z7b2Alloci
	mov	r3, r0
	mov	r2, r3
	ldr	r3, [sp, #4]
	str	r2, [r3, #24]
.LBB8:
	.loc 3 77 0
	mov	r3, #0
	str	r3, [sp, #80]
	b	.L69
.L70:
.LBB9:
	.loc 3 79 0
	ldr	r3, [sp, #4]
	ldr	r2, [r3, #4]
	ldr	r3, [sp, #80]
	mov	r3, r3, asl #3
	add	r2, r2, r3
	add	r3, sp, #56
	ldmia	r2, {r0, r1}
	stmia	r3, {r0, r1}
	.loc 3 80 0
	ldr	r3, [sp, #4]
	ldr	r2, [r3, #4]
	ldr	r3, [sp, #80]
	add	r3, r3, #1
	mov	r3, r3, asl #3
	add	r2, r2, r3
	add	r3, sp, #48
	ldmia	r2, {r0, r1}
	stmia	r3, {r0, r1}
	.loc 3 81 0
	ldr	r3, [sp, #4]
	ldr	r2, [r3, #20]
	ldr	r3, [sp, #80]
	mov	r3, r3, asl #2
	add	r4, r2, r3
	add	r2, sp, #56
	add	r3, sp, #48
	mov	r0, r2
	mov	r1, r3
	bl	_Z10b2DistanceRK6b2Vec2S1_
	mov	r3, r0	@ float
	str	r3, [r4, #0]	@ float
.LBE9:
	.loc 3 77 0
	ldr	r3, [sp, #80]
	add	r3, r3, #1
	str	r3, [sp, #80]
.L69:
	ldr	r2, [sp, #80]
	ldr	r3, [sp, #64]
	cmp	r2, r3
	movge	r3, #0
	movlt	r3, #1
	and	r3, r3, #255
	cmp	r3, #0
	bne	.L70
.LBE8:
.LBB10:
	.loc 3 84 0
	mov	r3, #0
	str	r3, [sp, #84]
	b	.L71
.L72:
.LBB11:
	.loc 3 86 0
	ldr	r3, [sp, #4]
	ldr	r2, [r3, #4]
	ldr	r3, [sp, #84]
	mov	r3, r3, asl #3
	add	r2, r2, r3
	add	r3, sp, #40
	ldmia	r2, {r0, r1}
	stmia	r3, {r0, r1}
	.loc 3 87 0
	ldr	r3, [sp, #4]
	ldr	r2, [r3, #4]
	ldr	r3, [sp, #84]
	add	r3, r3, #1
	mov	r3, r3, asl #3
	add	r2, r2, r3
	add	r3, sp, #32
	ldmia	r2, {r0, r1}
	stmia	r3, {r0, r1}
	.loc 3 88 0
	ldr	r3, [sp, #4]
	ldr	r2, [r3, #4]
	ldr	r3, [sp, #84]
	add	r3, r3, #2
	mov	r3, r3, asl #3
	add	r2, r2, r3
	add	r3, sp, #24
	ldmia	r2, {r0, r1}
	stmia	r3, {r0, r1}
	.loc 3 90 0
	add	r1, sp, #16
	add	r2, sp, #32
	add	r3, sp, #40
	mov	r0, r1
	mov	r1, r2
	mov	r2, r3
	bl	_ZmiRK6b2Vec2S1_
	.loc 3 91 0
	add	r1, sp, #8
	add	r2, sp, #24
	add	r3, sp, #32
	mov	r0, r1
	mov	r1, r2
	mov	r2, r3
	bl	_ZmiRK6b2Vec2S1_
	.loc 3 93 0
	add	r2, sp, #16
	add	r3, sp, #8
	mov	r0, r2
	mov	r1, r3
	bl	_Z7b2CrossRK6b2Vec2S1_
	mov	r3, r0	@ float
	str	r3, [sp, #88]	@ float
	.loc 3 94 0
	add	r2, sp, #16
	add	r3, sp, #8
	mov	r0, r2
	mov	r1, r3
	bl	_Z5b2DotRK6b2Vec2S1_
	mov	r3, r0	@ float
	str	r3, [sp, #92]	@ float
	.loc 3 96 0
	ldr	r3, [sp, #4]
	ldr	r2, [r3, #24]
	ldr	r3, [sp, #84]
	mov	r3, r3, asl #2
	add	r4, r2, r3
	ldr	r0, [sp, #88]	@ float
	ldr	r1, [sp, #92]	@ float
	bl	atan2f
	mov	r3, r0	@ float
	str	r3, [r4, #0]	@ float
.LBE11:
	.loc 3 84 0
	ldr	r3, [sp, #84]
	add	r3, r3, #1
	str	r3, [sp, #84]
.L71:
	ldr	r2, [sp, #84]
	ldr	r3, [sp, #68]
	cmp	r2, r3
	movge	r3, #0
	movlt	r3, #1
	and	r3, r3, #255
	cmp	r3, #0
	bne	.L72
.LBE10:
	.loc 3 99 0
	ldr	r3, [sp, #4]
	ldr	r2, [sp, #0]
	add	r3, r3, #28
	add	r2, r2, #12
	ldmia	r2, {r0, r1}
	stmia	r3, {r0, r1}
	.loc 3 100 0
	ldr	r3, [sp, #0]
	flds	s15, [r3, #20]
	ldr	r3, [sp, #4]
	fsts	s15, [r3, #36]
	.loc 3 101 0
	ldr	r3, [sp, #0]
	flds	s15, [r3, #24]
	ldr	r3, [sp, #4]
	fsts	s15, [r3, #40]
	.loc 3 102 0
	ldr	r3, [sp, #0]
	flds	s15, [r3, #28]
	ldr	r3, [sp, #4]
	fsts	s15, [r3, #44]
.LBE5:
	.loc 3 103 0
	add	sp, sp, #96
	ldmfd	sp!, {r4, pc}
.L75:
	.align	2
.L74:
	.word	1065353216
	.word	0
	.word	.LC0
	.word	.LC1
	.cfi_endproc
.LFE140:
	.size	_ZN6b2Rope10InitializeEPK9b2RopeDef, .-_ZN6b2Rope10InitializeEPK9b2RopeDef
	.section	.text._ZN6b2Rope4StepEfi,"ax",%progbits
	.align	2
	.global	_ZN6b2Rope4StepEfi
	.hidden	_ZN6b2Rope4StepEfi
	.type	_ZN6b2Rope4StepEfi, %function
_ZN6b2Rope4StepEfi:
.LFB141:
	.loc 3 106 0
	.cfi_startproc
	@ args = 0, pretend = 0, frame = 72
	@ frame_needed = 0, uses_anonymous_args = 0
	stmfd	sp!, {r4, lr}
.LCFI35:
	.cfi_def_cfa_offset 8
	sub	sp, sp, #72
.LCFI36:
	.cfi_def_cfa_offset 80
	str	r0, [sp, #20]
	str	r1, [sp, #16]	@ float
	str	r2, [sp, #12]
.LBB12:
	.loc 3 107 0
	flds	s15, [sp, #16]
	fcmpzs	s15
	fmstat
	beq	.L88
	.cfi_offset 14, -4
	.cfi_offset 4, -8
	.loc 3 112 0
	flds	s15, [sp, #16]
	fnegs	s14, s15
	ldr	r3, [sp, #20]
	flds	s15, [r3, #36]
	fmuls	s15, s14, s15
	fmrs	r0, s15
	bl	expf
	mov	r3, r0	@ float
	str	r3, [sp, #52]	@ float
.LBB13:
	.loc 3 114 0
	mov	r3, #0
	str	r3, [sp, #60]
	b	.L80
.L82:
	.loc 3 116 0
	ldr	r3, [sp, #20]
	ldr	r2, [r3, #8]
	ldr	r3, [sp, #60]
	mov	r3, r3, asl #3
	add	r3, r2, r3
	ldr	r2, [sp, #20]
	ldr	r1, [r2, #4]
	ldr	r2, [sp, #60]
	mov	r2, r2, asl #3
	add	r2, r1, r2
	ldmia	r2, {r0, r1}
	stmia	r3, {r0, r1}
	.loc 3 117 0
	ldr	r3, [sp, #20]
	ldr	r2, [r3, #16]
	ldr	r3, [sp, #60]
	mov	r3, r3, asl #2
	add	r3, r2, r3
	flds	s15, [r3, #0]
	fcmpezs	s15
	fmstat
	movle	r3, #0
	movgt	r3, #1
	and	r3, r3, #255
	cmp	r3, #0
	beq	.L81
	.loc 3 119 0
	ldr	r3, [sp, #20]
	ldr	r2, [r3, #12]
	ldr	r3, [sp, #60]
	mov	r3, r3, asl #3
	add	r4, r2, r3
	ldr	r3, [sp, #20]
	add	r3, r3, #28
	add	r2, sp, #28
	mov	r0, r2
	ldr	r1, [sp, #16]	@ float
	mov	r2, r3
	bl	_ZmlfRK6b2Vec2
	add	r3, sp, #28
	mov	r0, r4
	mov	r1, r3
	bl	_ZN6b2Vec2pLERKS_
.L81:
	.loc 3 121 0
	ldr	r3, [sp, #20]
	ldr	r2, [r3, #12]
	ldr	r3, [sp, #60]
	mov	r3, r3, asl #3
	add	r3, r2, r3
	mov	r0, r3
	ldr	r1, [sp, #52]	@ float
	bl	_ZN6b2Vec2mLEf
	.loc 3 122 0
	ldr	r3, [sp, #20]
	ldr	r2, [r3, #4]
	ldr	r3, [sp, #60]
	mov	r3, r3, asl #3
	add	r4, r2, r3
	ldr	r3, [sp, #20]
	ldr	r2, [r3, #12]
	ldr	r3, [sp, #60]
	mov	r3, r3, asl #3
	add	r3, r2, r3
	add	r2, sp, #36
	mov	r0, r2
	ldr	r1, [sp, #16]	@ float
	mov	r2, r3
	bl	_ZmlfRK6b2Vec2
	add	r3, sp, #36
	mov	r0, r4
	mov	r1, r3
	bl	_ZN6b2Vec2pLERKS_
	.loc 3 114 0
	ldr	r3, [sp, #60]
	add	r3, r3, #1
	str	r3, [sp, #60]
.L80:
	ldr	r3, [sp, #20]
	ldr	r2, [r3, #0]
	ldr	r3, [sp, #60]
	cmp	r2, r3
	movle	r3, #0
	movgt	r3, #1
	and	r3, r3, #255
	cmp	r3, #0
	bne	.L82
.LBE13:
.LBB14:
	.loc 3 126 0
	mov	r3, #0
	str	r3, [sp, #64]
	b	.L83
.L84:
	.loc 3 128 0
	ldr	r0, [sp, #20]
	bl	_ZN6b2Rope7SolveC2Ev
	.loc 3 129 0
	ldr	r0, [sp, #20]
	bl	_ZN6b2Rope7SolveC3Ev
	.loc 3 130 0
	ldr	r0, [sp, #20]
	bl	_ZN6b2Rope7SolveC2Ev
	.loc 3 126 0
	ldr	r3, [sp, #64]
	add	r3, r3, #1
	str	r3, [sp, #64]
.L83:
	ldr	r2, [sp, #64]
	ldr	r3, [sp, #12]
	cmp	r2, r3
	movge	r3, #0
	movlt	r3, #1
	and	r3, r3, #255
	cmp	r3, #0
	bne	.L84
.LBE14:
	.loc 3 133 0
	flds	s14, .L89
	flds	s15, [sp, #16]
	fdivs	s15, s14, s15
	fsts	s15, [sp, #56]
.LBB15:
	.loc 3 134 0
	mov	r3, #0
	str	r3, [sp, #68]
	b	.L85
.L86:
	.loc 3 136 0
	ldr	r3, [sp, #20]
	ldr	r2, [r3, #12]
	ldr	r3, [sp, #68]
	mov	r3, r3, asl #3
	add	r4, r2, r3
	ldr	r3, [sp, #20]
	ldr	r2, [r3, #4]
	ldr	r3, [sp, #68]
	mov	r3, r3, asl #3
	add	r2, r2, r3
	ldr	r3, [sp, #20]
	ldr	r1, [r3, #8]
	ldr	r3, [sp, #68]
	mov	r3, r3, asl #3
	add	r3, r1, r3
	add	r1, sp, #44
	mov	r0, r1
	mov	r1, r2
	mov	r2, r3
	bl	_ZmiRK6b2Vec2S1_
	mov	r2, sp
	add	r3, sp, #44
	mov	r0, r2
	ldr	r1, [sp, #56]	@ float
	mov	r2, r3
	bl	_ZmlfRK6b2Vec2
	mov	r3, r4
	mov	r2, sp
	ldmia	r2, {r0, r1}
	stmia	r3, {r0, r1}
	.loc 3 134 0
	ldr	r3, [sp, #68]
	add	r3, r3, #1
	str	r3, [sp, #68]
.L85:
	ldr	r3, [sp, #20]
	ldr	r2, [r3, #0]
	ldr	r3, [sp, #68]
	cmp	r2, r3
	movle	r3, #0
	movgt	r3, #1
	and	r3, r3, #255
	cmp	r3, #0
	bne	.L86
	b	.L87
.L88:
.LBE15:
	.loc 3 109 0
	mov	r0, r0	@ nop
.L87:
.LBE12:
	.loc 3 138 0
	add	sp, sp, #72
	ldmfd	sp!, {r4, pc}
.L90:
	.align	2
.L89:
	.word	1065353216
	.cfi_endproc
.LFE141:
	.size	_ZN6b2Rope4StepEfi, .-_ZN6b2Rope4StepEfi
	.section	.text._ZN6b2Rope7SolveC2Ev,"ax",%progbits
	.align	2
	.global	_ZN6b2Rope7SolveC2Ev
	.hidden	_ZN6b2Rope7SolveC2Ev
	.type	_ZN6b2Rope7SolveC2Ev, %function
_ZN6b2Rope7SolveC2Ev:
.LFB142:
	.loc 3 141 0
	.cfi_startproc
	@ args = 0, pretend = 0, frame = 80
	@ frame_needed = 0, uses_anonymous_args = 0
	str	lr, [sp, #-4]!
.LCFI37:
	.cfi_def_cfa_offset 4
	sub	sp, sp, #84
.LCFI38:
	.cfi_def_cfa_offset 88
	str	r0, [sp, #4]
.LBB16:
	.loc 3 142 0
	ldr	r3, [sp, #4]
	ldr	r3, [r3, #0]
	sub	r3, r3, #1
	str	r3, [sp, #52]
.LBB17:
	.loc 3 144 0
	mov	r3, #0
	str	r3, [sp, #56]
	b	.L92
	.cfi_offset 14, -4
.L96:
.LBB18:
	.loc 3 146 0
	ldr	r3, [sp, #4]
	ldr	r2, [r3, #4]
	ldr	r3, [sp, #56]
	mov	r3, r3, asl #3
	add	r2, r2, r3
	add	r3, sp, #28
	ldmia	r2, {r0, r1}
	stmia	r3, {r0, r1}
	.loc 3 147 0
	ldr	r3, [sp, #4]
	ldr	r2, [r3, #4]
	ldr	r3, [sp, #56]
	add	r3, r3, #1
	mov	r3, r3, asl #3
	add	r2, r2, r3
	add	r3, sp, #20
	ldmia	r2, {r0, r1}
	stmia	r3, {r0, r1}
	.loc 3 149 0
	add	r1, sp, #12
	add	r2, sp, #20
	add	r3, sp, #28
	mov	r0, r1
	mov	r1, r2
	mov	r2, r3
	bl	_ZmiRK6b2Vec2S1_
	.loc 3 150 0
	add	r3, sp, #12
	mov	r0, r3
	bl	_ZN6b2Vec29NormalizeEv
	mov	r3, r0	@ float
	str	r3, [sp, #60]	@ float
	.loc 3 152 0
	ldr	r3, [sp, #4]
	ldr	r2, [r3, #16]
	ldr	r3, [sp, #56]
	mov	r3, r3, asl #2
	add	r3, r2, r3
	flds	s15, [r3, #0]
	fsts	s15, [sp, #64]
	.loc 3 153 0
	ldr	r3, [sp, #4]
	ldr	r2, [r3, #16]
	ldr	r3, [sp, #56]
	add	r3, r3, #1
	mov	r3, r3, asl #2
	add	r3, r2, r3
	flds	s15, [r3, #0]
	fsts	s15, [sp, #68]
	.loc 3 155 0
	flds	s14, [sp, #64]
	flds	s15, [sp, #68]
	fadds	s15, s14, s15
	fcmpzs	s15
	fmstat
	beq	.L98
	.loc 3 160 0
	flds	s14, [sp, #64]
	flds	s15, [sp, #68]
	fadds	s15, s14, s15
	flds	s14, [sp, #64]
	fdivs	s15, s14, s15
	fsts	s15, [sp, #72]
	.loc 3 161 0
	flds	s14, [sp, #64]
	flds	s15, [sp, #68]
	fadds	s15, s14, s15
	flds	s14, [sp, #68]
	fdivs	s15, s14, s15
	fsts	s15, [sp, #76]
	.loc 3 163 0
	ldr	r3, [sp, #4]
	flds	s14, [r3, #40]
	flds	s15, [sp, #72]
	fmuls	s15, s14, s15
	ldr	r3, [sp, #4]
	ldr	r2, [r3, #20]
	ldr	r3, [sp, #56]
	mov	r3, r3, asl #2
	add	r3, r2, r3
	flds	s13, [r3, #0]
	flds	s14, [sp, #60]
	fsubs	s14, s13, s14
	fmuls	s15, s15, s14
	add	r2, sp, #36
	add	r3, sp, #12
	mov	r0, r2
	fmrs	r1, s15
	mov	r2, r3
	bl	_ZmlfRK6b2Vec2
	add	r2, sp, #28
	add	r3, sp, #36
	mov	r0, r2
	mov	r1, r3
	bl	_ZN6b2Vec2mIERKS_
	.loc 3 164 0
	ldr	r3, [sp, #4]
	flds	s14, [r3, #40]
	flds	s15, [sp, #76]
	fmuls	s15, s14, s15
	ldr	r3, [sp, #4]
	ldr	r2, [r3, #20]
	ldr	r3, [sp, #56]
	mov	r3, r3, asl #2
	add	r3, r2, r3
	flds	s13, [r3, #0]
	flds	s14, [sp, #60]
	fsubs	s14, s13, s14
	fmuls	s15, s15, s14
	add	r2, sp, #44
	add	r3, sp, #12
	mov	r0, r2
	fmrs	r1, s15
	mov	r2, r3
	bl	_ZmlfRK6b2Vec2
	add	r2, sp, #20
	add	r3, sp, #44
	mov	r0, r2
	mov	r1, r3
	bl	_ZN6b2Vec2pLERKS_
	.loc 3 166 0
	ldr	r3, [sp, #4]
	ldr	r2, [r3, #4]
	ldr	r3, [sp, #56]
	mov	r3, r3, asl #3
	add	r3, r2, r3
	add	r2, sp, #28
	ldmia	r2, {r0, r1}
	stmia	r3, {r0, r1}
	.loc 3 167 0
	ldr	r3, [sp, #4]
	ldr	r2, [r3, #4]
	ldr	r3, [sp, #56]
	add	r3, r3, #1
	mov	r3, r3, asl #3
	add	r3, r2, r3
	add	r2, sp, #20
	ldmia	r2, {r0, r1}
	stmia	r3, {r0, r1}
	b	.L95
.L98:
	.loc 3 157 0
	mov	r0, r0	@ nop
.L95:
.LBE18:
	.loc 3 144 0
	ldr	r3, [sp, #56]
	add	r3, r3, #1
	str	r3, [sp, #56]
.L92:
	ldr	r2, [sp, #56]
	ldr	r3, [sp, #52]
	cmp	r2, r3
	movge	r3, #0
	movlt	r3, #1
	and	r3, r3, #255
	cmp	r3, #0
	bne	.L96
.LBE17:
.LBE16:
	.loc 3 169 0
	add	sp, sp, #84
	ldmfd	sp!, {pc}
	.cfi_endproc
.LFE142:
	.size	_ZN6b2Rope7SolveC2Ev, .-_ZN6b2Rope7SolveC2Ev
	.section	.text._ZN6b2Rope8SetAngleEf,"ax",%progbits
	.align	2
	.global	_ZN6b2Rope8SetAngleEf
	.hidden	_ZN6b2Rope8SetAngleEf
	.type	_ZN6b2Rope8SetAngleEf, %function
_ZN6b2Rope8SetAngleEf:
.LFB143:
	.loc 3 172 0
	.cfi_startproc
	@ args = 0, pretend = 0, frame = 16
	@ frame_needed = 0, uses_anonymous_args = 0
	@ link register save eliminated.
	sub	sp, sp, #16
.LCFI39:
	.cfi_def_cfa_offset 16
	str	r0, [sp, #4]
	str	r1, [sp, #0]	@ float
.LBB19:
	.loc 3 173 0
	ldr	r3, [sp, #4]
	ldr	r3, [r3, #0]
	sub	r3, r3, #2
	str	r3, [sp, #8]
.LBB20:
	.loc 3 174 0
	mov	r3, #0
	str	r3, [sp, #12]
	b	.L100
.L101:
	.loc 3 176 0
	ldr	r3, [sp, #4]
	ldr	r2, [r3, #24]
	ldr	r3, [sp, #12]
	mov	r3, r3, asl #2
	add	r3, r2, r3
	flds	s15, [sp, #0]
	fsts	s15, [r3, #0]
	.loc 3 174 0
	ldr	r3, [sp, #12]
	add	r3, r3, #1
	str	r3, [sp, #12]
.L100:
	ldr	r2, [sp, #12]
	ldr	r3, [sp, #8]
	cmp	r2, r3
	movge	r3, #0
	movlt	r3, #1
	and	r3, r3, #255
	cmp	r3, #0
	bne	.L101
.LBE20:
.LBE19:
	.loc 3 178 0
	add	sp, sp, #16
	bx	lr
	.cfi_endproc
.LFE143:
	.size	_ZN6b2Rope8SetAngleEf, .-_ZN6b2Rope8SetAngleEf
	.section	.text._ZN6b2Rope7SolveC3Ev,"ax",%progbits
	.align	2
	.global	_ZN6b2Rope7SolveC3Ev
	.hidden	_ZN6b2Rope7SolveC3Ev
	.type	_ZN6b2Rope7SolveC3Ev, %function
_ZN6b2Rope7SolveC3Ev:
.LFB144:
	.loc 3 181 0
	.cfi_startproc
	@ args = 0, pretend = 0, frame = 184
	@ frame_needed = 0, uses_anonymous_args = 0
	str	lr, [sp, #-4]!
.LCFI40:
	.cfi_def_cfa_offset 4
	fstmfdd	sp!, {d8}
.LCFI41:
	.cfi_def_cfa_offset 12
	sub	sp, sp, #188
.LCFI42:
	.cfi_def_cfa_offset 200
	str	r0, [sp, #4]
.LBB21:
	.loc 3 182 0
	ldr	r3, [sp, #4]
	ldr	r3, [r3, #0]
	sub	r3, r3, #2
	str	r3, [sp, #132]
.LBB22:
	.loc 3 184 0
	mov	r3, #0
	str	r3, [sp, #136]
	b	.L104
	.cfi_offset 80, -12
	.cfi_offset 14, -4
.L114:
.LBB23:
	.loc 3 186 0
	ldr	r3, [sp, #4]
	ldr	r2, [r3, #4]
	ldr	r3, [sp, #136]
	mov	r3, r3, asl #3
	add	r2, r2, r3
	add	r3, sp, #84
	ldmia	r2, {r0, r1}
	stmia	r3, {r0, r1}
	.loc 3 187 0
	ldr	r3, [sp, #4]
	ldr	r2, [r3, #4]
	ldr	r3, [sp, #136]
	add	r3, r3, #1
	mov	r3, r3, asl #3
	add	r2, r2, r3
	add	r3, sp, #76
	ldmia	r2, {r0, r1}
	stmia	r3, {r0, r1}
	.loc 3 188 0
	ldr	r3, [sp, #4]
	ldr	r2, [r3, #4]
	ldr	r3, [sp, #136]
	add	r3, r3, #2
	mov	r3, r3, asl #3
	add	r2, r2, r3
	add	r3, sp, #68
	ldmia	r2, {r0, r1}
	stmia	r3, {r0, r1}
	.loc 3 190 0
	ldr	r3, [sp, #4]
	ldr	r2, [r3, #16]
	ldr	r3, [sp, #136]
	mov	r3, r3, asl #2
	add	r3, r2, r3
	flds	s15, [r3, #0]
	fsts	s15, [sp, #140]
	.loc 3 191 0
	ldr	r3, [sp, #4]
	ldr	r2, [r3, #16]
	ldr	r3, [sp, #136]
	add	r3, r3, #1
	mov	r3, r3, asl #2
	add	r3, r2, r3
	flds	s15, [r3, #0]
	fsts	s15, [sp, #144]
	.loc 3 192 0
	ldr	r3, [sp, #4]
	ldr	r2, [r3, #16]
	ldr	r3, [sp, #136]
	add	r3, r3, #2
	mov	r3, r3, asl #2
	add	r3, r2, r3
	flds	s15, [r3, #0]
	fsts	s15, [sp, #148]
	.loc 3 194 0
	add	r1, sp, #60
	add	r2, sp, #76
	add	r3, sp, #84
	mov	r0, r1
	mov	r1, r2
	mov	r2, r3
	bl	_ZmiRK6b2Vec2S1_
	.loc 3 195 0
	add	r1, sp, #52
	add	r2, sp, #68
	add	r3, sp, #76
	mov	r0, r1
	mov	r1, r2
	mov	r2, r3
	bl	_ZmiRK6b2Vec2S1_
	.loc 3 197 0
	add	r3, sp, #60
	mov	r0, r3
	bl	_ZNK6b2Vec213LengthSquaredEv
	mov	r3, r0	@ float
	str	r3, [sp, #152]	@ float
	.loc 3 198 0
	add	r3, sp, #52
	mov	r0, r3
	bl	_ZNK6b2Vec213LengthSquaredEv
	mov	r3, r0	@ float
	str	r3, [sp, #156]	@ float
	.loc 3 200 0
	flds	s14, [sp, #152]
	flds	s15, [sp, #156]
	fmuls	s15, s14, s15
	fcmpzs	s15
	fmstat
	beq	.L116
	.loc 3 205 0
	add	r2, sp, #60
	add	r3, sp, #52
	mov	r0, r2
	mov	r1, r3
	bl	_Z7b2CrossRK6b2Vec2S1_
	mov	r3, r0	@ float
	str	r3, [sp, #160]	@ float
	.loc 3 206 0
	add	r2, sp, #60
	add	r3, sp, #52
	mov	r0, r2
	mov	r1, r3
	bl	_Z5b2DotRK6b2Vec2S1_
	mov	r3, r0	@ float
	str	r3, [sp, #164]	@ float
	.loc 3 208 0
	ldr	r0, [sp, #160]	@ float
	ldr	r1, [sp, #164]	@ float
	bl	atan2f
	mov	r3, r0	@ float
	str	r3, [sp, #168]	@ float
	.loc 3 210 0
	flds	s14, .L118
	flds	s15, [sp, #152]
	fdivs	s16, s14, s15
	add	r2, sp, #92
	add	r3, sp, #60
	mov	r0, r2
	mov	r1, r3
	bl	_ZNK6b2Vec24SkewEv
	add	r2, sp, #44
	add	r3, sp, #92
	mov	r0, r2
	fmrs	r1, s16
	mov	r2, r3
	bl	_ZmlfRK6b2Vec2
	.loc 3 211 0
	flds	s14, .L118+4
	flds	s15, [sp, #156]
	fdivs	s16, s14, s15
	add	r2, sp, #100
	add	r3, sp, #52
	mov	r0, r2
	mov	r1, r3
	bl	_ZNK6b2Vec24SkewEv
	add	r2, sp, #36
	add	r3, sp, #100
	mov	r0, r2
	fmrs	r1, s16
	mov	r2, r3
	bl	_ZmlfRK6b2Vec2
	.loc 3 213 0
	add	r2, sp, #28
	add	r3, sp, #44
	mov	r0, r2
	mov	r1, r3
	bl	_ZNK6b2Vec2ngEv
	.loc 3 214 0
	add	r1, sp, #20
	add	r2, sp, #44
	add	r3, sp, #36
	mov	r0, r1
	mov	r1, r2
	mov	r2, r3
	bl	_ZmiRK6b2Vec2S1_
	.loc 3 215 0
	add	r3, sp, #12
	add	r2, sp, #36
	ldmia	r2, {r0, r1}
	stmia	r3, {r0, r1}
	.loc 3 217 0
	add	r2, sp, #28
	add	r3, sp, #28
	mov	r0, r2
	mov	r1, r3
	bl	_Z5b2DotRK6b2Vec2S1_
	fmsr	s14, r0
	flds	s15, [sp, #140]
	fmuls	s16, s14, s15
	add	r2, sp, #20
	add	r3, sp, #20
	mov	r0, r2
	mov	r1, r3
	bl	_Z5b2DotRK6b2Vec2S1_
	fmsr	s14, r0
	flds	s15, [sp, #144]
	fmuls	s15, s14, s15
	fadds	s16, s16, s15
	add	r2, sp, #12
	add	r3, sp, #12
	mov	r0, r2
	mov	r1, r3
	bl	_Z5b2DotRK6b2Vec2S1_
	fmsr	s14, r0
	flds	s15, [sp, #148]
	fmuls	s15, s14, s15
	fadds	s15, s16, s15
	fsts	s15, [sp, #172]
	.loc 3 218 0
	flds	s15, [sp, #172]
	fcmpzs	s15
	fmstat
	beq	.L117
	.loc 3 223 0
	flds	s14, .L118+4
	flds	s15, [sp, #172]
	fdivs	s15, s14, s15
	fsts	s15, [sp, #172]
	.loc 3 225 0
	ldr	r3, [sp, #4]
	ldr	r2, [r3, #24]
	ldr	r3, [sp, #136]
	mov	r3, r3, asl #2
	add	r3, r2, r3
	flds	s15, [r3, #0]
	flds	s14, [sp, #168]
	fsubs	s15, s14, s15
	fsts	s15, [sp, #176]
	.loc 3 227 0
	b	.L110
.L111:
	.loc 3 229 0
	flds	s14, [sp, #168]
	flds	s15, .L118+8
	fsubs	s15, s14, s15
	fsts	s15, [sp, #168]
	.loc 3 230 0
	ldr	r3, [sp, #4]
	ldr	r2, [r3, #24]
	ldr	r3, [sp, #136]
	mov	r3, r3, asl #2
	add	r3, r2, r3
	flds	s15, [r3, #0]
	flds	s14, [sp, #168]
	fsubs	s15, s14, s15
	fsts	s15, [sp, #176]
.L110:
	.loc 3 227 0
	flds	s14, [sp, #176]
	flds	s15, .L118+12
	fcmpes	s14, s15
	fmstat
	movle	r3, #0
	movgt	r3, #1
	and	r3, r3, #255
	cmp	r3, #0
	bne	.L111
	.loc 3 233 0
	b	.L112
.L113:
	.loc 3 235 0
	flds	s14, [sp, #168]
	flds	s15, .L118+8
	fadds	s15, s14, s15
	fsts	s15, [sp, #168]
	.loc 3 236 0
	ldr	r3, [sp, #4]
	ldr	r2, [r3, #24]
	ldr	r3, [sp, #136]
	mov	r3, r3, asl #2
	add	r3, r2, r3
	flds	s15, [r3, #0]
	flds	s14, [sp, #168]
	fsubs	s15, s14, s15
	fsts	s15, [sp, #176]
.L112:
	.loc 3 233 0
	flds	s14, [sp, #176]
	flds	s15, .L118+16
	fcmpes	s14, s15
	fmstat
	movpl	r3, #0
	movmi	r3, #1
	and	r3, r3, #255
	cmp	r3, #0
	bne	.L113
	.loc 3 239 0
	ldr	r3, [sp, #4]
	flds	s15, [r3, #44]
	fnegs	s14, s15
	flds	s15, [sp, #172]
	fmuls	s15, s14, s15
	flds	s14, [sp, #176]
	fmuls	s15, s15, s14
	fsts	s15, [sp, #180]
	.loc 3 241 0
	flds	s14, [sp, #140]
	flds	s15, [sp, #180]
	fmuls	s15, s14, s15
	add	r2, sp, #108
	add	r3, sp, #28
	mov	r0, r2
	fmrs	r1, s15
	mov	r2, r3
	bl	_ZmlfRK6b2Vec2
	add	r2, sp, #84
	add	r3, sp, #108
	mov	r0, r2
	mov	r1, r3
	bl	_ZN6b2Vec2pLERKS_
	.loc 3 242 0
	flds	s14, [sp, #144]
	flds	s15, [sp, #180]
	fmuls	s15, s14, s15
	add	r2, sp, #116
	add	r3, sp, #20
	mov	r0, r2
	fmrs	r1, s15
	mov	r2, r3
	bl	_ZmlfRK6b2Vec2
	add	r2, sp, #76
	add	r3, sp, #116
	mov	r0, r2
	mov	r1, r3
	bl	_ZN6b2Vec2pLERKS_
	.loc 3 243 0
	flds	s14, [sp, #148]
	flds	s15, [sp, #180]
	fmuls	s15, s14, s15
	add	r2, sp, #124
	add	r3, sp, #12
	mov	r0, r2
	fmrs	r1, s15
	mov	r2, r3
	bl	_ZmlfRK6b2Vec2
	add	r2, sp, #68
	add	r3, sp, #124
	mov	r0, r2
	mov	r1, r3
	bl	_ZN6b2Vec2pLERKS_
	.loc 3 245 0
	ldr	r3, [sp, #4]
	ldr	r2, [r3, #4]
	ldr	r3, [sp, #136]
	mov	r3, r3, asl #3
	add	r3, r2, r3
	add	r2, sp, #84
	ldmia	r2, {r0, r1}
	stmia	r3, {r0, r1}
	.loc 3 246 0
	ldr	r3, [sp, #4]
	ldr	r2, [r3, #4]
	ldr	r3, [sp, #136]
	add	r3, r3, #1
	mov	r3, r3, asl #3
	add	r3, r2, r3
	add	r2, sp, #76
	ldmia	r2, {r0, r1}
	stmia	r3, {r0, r1}
	.loc 3 247 0
	ldr	r3, [sp, #4]
	ldr	r2, [r3, #4]
	ldr	r3, [sp, #136]
	add	r3, r3, #2
	mov	r3, r3, asl #3
	add	r3, r2, r3
	add	r2, sp, #68
	ldmia	r2, {r0, r1}
	stmia	r3, {r0, r1}
	b	.L107
.L116:
	.loc 3 202 0
	mov	r0, r0	@ nop
	b	.L107
.L117:
	.loc 3 220 0
	mov	r0, r0	@ nop
.L107:
.LBE23:
	.loc 3 184 0
	ldr	r3, [sp, #136]
	add	r3, r3, #1
	str	r3, [sp, #136]
.L104:
	ldr	r2, [sp, #136]
	ldr	r3, [sp, #132]
	cmp	r2, r3
	movge	r3, #0
	movlt	r3, #1
	and	r3, r3, #255
	cmp	r3, #0
	bne	.L114
.LBE22:
.LBE21:
	.loc 3 249 0
	add	sp, sp, #188
	fldmfdd	sp!, {d8}
	ldmfd	sp!, {pc}
.L119:
	.align	2
.L118:
	.word	-1082130432
	.word	1065353216
	.word	1086918619
	.word	1078530011
	.word	-1068953637
	.cfi_endproc
.LFE144:
	.size	_ZN6b2Rope7SolveC3Ev, .-_ZN6b2Rope7SolveC3Ev
	.section	.text._ZNK6b2Rope4DrawEP6b2Draw,"ax",%progbits
	.align	2
	.global	_ZNK6b2Rope4DrawEP6b2Draw
	.hidden	_ZNK6b2Rope4DrawEP6b2Draw
	.type	_ZNK6b2Rope4DrawEP6b2Draw, %function
_ZNK6b2Rope4DrawEP6b2Draw:
.LFB145:
	.loc 3 252 0
	.cfi_startproc
	@ args = 0, pretend = 0, frame = 24
	@ frame_needed = 0, uses_anonymous_args = 0
	str	lr, [sp, #-4]!
.LCFI43:
	.cfi_def_cfa_offset 4
	sub	sp, sp, #28
.LCFI44:
	.cfi_def_cfa_offset 32
	str	r0, [sp, #4]
	str	r1, [sp, #0]
.LBB24:
	.loc 3 253 0
	add	r3, sp, #8
	mov	r0, r3
	ldr	r1, .L124	@ float
	ldr	r2, .L124+4	@ float
	ldr	r3, .L124+8	@ float
	.cfi_offset 14, -4
	bl	_ZN7b2ColorC1Efff
.LBB25:
	.loc 3 255 0
	mov	r3, #0
	str	r3, [sp, #20]
	b	.L121
.L122:
	.loc 3 257 0
	ldr	r3, [sp, #0]
	ldr	r3, [r3, #0]
	add	r3, r3, #24
	ldr	ip, [r3, #0]
	ldr	r3, [sp, #4]
	ldr	r2, [r3, #4]
	ldr	r3, [sp, #20]
	mov	r3, r3, asl #3
	add	r1, r2, r3
	ldr	r3, [sp, #4]
	ldr	r2, [r3, #4]
	ldr	r3, [sp, #20]
	add	r3, r3, #1
	mov	r3, r3, asl #3
	add	r2, r2, r3
	add	r3, sp, #8
	ldr	r0, [sp, #0]
	blx	ip
	.loc 3 255 0
	ldr	r3, [sp, #20]
	add	r3, r3, #1
	str	r3, [sp, #20]
.L121:
	ldr	r3, [sp, #4]
	ldr	r3, [r3, #0]
	sub	r2, r3, #1
	ldr	r3, [sp, #20]
	cmp	r2, r3
	movle	r3, #0
	movgt	r3, #1
	and	r3, r3, #255
	cmp	r3, #0
	bne	.L122
.LBE25:
.LBE24:
	.loc 3 259 0
	add	sp, sp, #28
	ldmfd	sp!, {pc}
.L125:
	.align	2
.L124:
	.word	1053609165
	.word	1056964608
	.word	1060320051
	.cfi_endproc
.LFE145:
	.size	_ZNK6b2Rope4DrawEP6b2Draw, .-_ZNK6b2Rope4DrawEP6b2Draw
	.text
.Letext0: