	.arch armv5te
	.eabi_attribute 27, 3
	.fpu vfp
	.eabi_attribute 20, 1
	.eabi_attribute 21, 1
	.eabi_attribute 23, 3
	.eabi_attribute 24, 1
	.eabi_attribute 25, 1
	.eabi_attribute 26, 2
	.eabi_attribute 30, 6
	.eabi_attribute 18, 2
	.file	"b2Settings.cpp"
	.text
.Ltext0:
	.cfi_sections	.debug_frame
	.hidden	b2_version
	.global	b2_version
	.data
	.align	2
	.type	b2_version, %object
	.size	b2_version, 12
b2_version:
	.word	2
	.word	3
	.word	0
	.section	.text._Z7b2Alloci,"ax",%progbits
	.align	2
	.global	_Z7b2Alloci
	.hidden	_Z7b2Alloci
	.type	_Z7b2Alloci, %function
_Z7b2Alloci:
.LFB0:
	.file 1 "v:/gigglingbits/box2d/Box2D/Common/b2Settings.cpp"
	.loc 1 28 0
	.cfi_startproc
	@ args = 0, pretend = 0, frame = 8
	@ frame_needed = 0, uses_anonymous_args = 0
	str	lr, [sp, #-4]!
.LCFI0:
	.cfi_def_cfa_offset 4
	sub	sp, sp, #12
.LCFI1:
	.cfi_def_cfa_offset 16
	str	r0, [sp, #4]
	.loc 1 29 0
	ldr	r3, [sp, #4]
	mov	r0, r3
	.cfi_offset 14, -4
	bl	malloc
	mov	r3, r0
	.loc 1 30 0
	mov	r0, r3
	add	sp, sp, #12
	ldmfd	sp!, {pc}
	.cfi_endproc
.LFE0:
	.size	_Z7b2Alloci, .-_Z7b2Alloci
	.section	.text._Z6b2FreePv,"ax",%progbits
	.align	2
	.global	_Z6b2FreePv
	.hidden	_Z6b2FreePv
	.type	_Z6b2FreePv, %function
_Z6b2FreePv:
.LFB1:
	.loc 1 33 0
	.cfi_startproc
	@ args = 0, pretend = 0, frame = 8
	@ frame_needed = 0, uses_anonymous_args = 0
	str	lr, [sp, #-4]!
.LCFI2:
	.cfi_def_cfa_offset 4
	sub	sp, sp, #12
.LCFI3:
	.cfi_def_cfa_offset 16
	str	r0, [sp, #4]
	.loc 1 34 0
	ldr	r0, [sp, #4]
	.cfi_offset 14, -4
	bl	free
	.loc 1 35 0
	add	sp, sp, #12
	ldmfd	sp!, {pc}
	.cfi_endproc
.LFE1:
	.size	_Z6b2FreePv, .-_Z6b2FreePv
	.section	.text._Z5b2LogPKcz,"ax",%progbits
	.align	2
	.global	_Z5b2LogPKcz
	.hidden	_Z5b2LogPKcz
	.type	_Z5b2LogPKcz, %function
_Z5b2LogPKcz:
.LFB2:
	.loc 1 39 0
	.cfi_startproc
	@ args = 4, pretend = 16, frame = 8
	@ frame_needed = 0, uses_anonymous_args = 1
	stmfd	sp!, {r0, r1, r2, r3}
.LCFI4:
	.cfi_def_cfa_offset 16
	str	lr, [sp, #-4]!
.LCFI5:
	.cfi_def_cfa_offset 20
	sub	sp, sp, #12
.LCFI6:
	.cfi_def_cfa_offset 32
.LBB2:
	.loc 1 41 0
	add	r3, sp, #20
	.cfi_offset 14, -20
	.cfi_offset 3, -4
	.cfi_offset 2, -8
	.cfi_offset 1, -12
	.cfi_offset 0, -16
	str	r3, [sp, #4]
	.loc 1 42 0
	ldr	r0, [sp, #16]
	ldr	r1, [sp, #4]
	bl	vprintf
.LBE2:
	.loc 1 44 0
	add	sp, sp, #12
	ldr	lr, [sp], #4
	add	sp, sp, #16
	bx	lr
	.cfi_endproc
.LFE2:
	.size	_Z5b2LogPKcz, .-_Z5b2LogPKcz
	.text
.Letext0: