	.arch armv5te
	.eabi_attribute 27, 3
	.fpu vfp
	.eabi_attribute 20, 1
	.eabi_attribute 21, 1
	.eabi_attribute 23, 3
	.eabi_attribute 24, 1
	.eabi_attribute 25, 1
	.eabi_attribute 26, 2
	.eabi_attribute 30, 6
	.eabi_attribute 18, 2
	.file	"b2StackAllocator.cpp"
	.text
.Ltext0:
	.cfi_sections	.debug_frame
	.section	.text._ZN16b2StackAllocatorC2Ev,"ax",%progbits
	.align	2
	.global	_ZN16b2StackAllocatorC2Ev
	.hidden	_ZN16b2StackAllocatorC2Ev
	.type	_ZN16b2StackAllocatorC2Ev, %function
_ZN16b2StackAllocatorC2Ev:
.LFB119:
	.file 1 "v:/gigglingbits/box2d/Box2D/Common/b2StackAllocator.cpp"
	.loc 1 22 0
	.cfi_startproc
	@ args = 0, pretend = 0, frame = 8
	@ frame_needed = 0, uses_anonymous_args = 0
	@ link register save eliminated.
	sub	sp, sp, #8
.LCFI0:
	.cfi_def_cfa_offset 8
	str	r0, [sp, #4]
	.loc 1 24 0
	ldr	r2, [sp, #4]
	mov	r3, #102400
	mov	r1, #0
	str	r1, [r2, r3]
	.loc 1 25 0
	ldr	r2, [sp, #4]
	ldr	r3, .L4
	mov	r1, #0
	str	r1, [r2, r3]
	.loc 1 26 0
	ldr	r2, [sp, #4]
	ldr	r3, .L4+4
	mov	r1, #0
	str	r1, [r2, r3]
	.loc 1 27 0
	ldr	r2, [sp, #4]
	ldr	r3, .L4+8
	mov	r1, #0
	str	r1, [r2, r3]
	.loc 1 28 0
	ldr	r3, [sp, #4]
	mov	r0, r3
	add	sp, sp, #8
	bx	lr
.L5:
	.align	2
.L4:
	.word	102404
	.word	102408
	.word	102796
	.cfi_endproc
.LFE119:
	.size	_ZN16b2StackAllocatorC2Ev, .-_ZN16b2StackAllocatorC2Ev
	.section	.text._ZN16b2StackAllocatorC1Ev,"ax",%progbits
	.align	2
	.global	_ZN16b2StackAllocatorC1Ev
	.hidden	_ZN16b2StackAllocatorC1Ev
	.type	_ZN16b2StackAllocatorC1Ev, %function
_ZN16b2StackAllocatorC1Ev:
.LFB120:
	.loc 1 22 0
	.cfi_startproc
	@ args = 0, pretend = 0, frame = 8
	@ frame_needed = 0, uses_anonymous_args = 0
	@ link register save eliminated.
	sub	sp, sp, #8
.LCFI1:
	.cfi_def_cfa_offset 8
	str	r0, [sp, #4]
	.loc 1 24 0
	ldr	r2, [sp, #4]
	mov	r3, #102400
	mov	r1, #0
	str	r1, [r2, r3]
	.loc 1 25 0
	ldr	r2, [sp, #4]
	ldr	r3, .L9
	mov	r1, #0
	str	r1, [r2, r3]
	.loc 1 26 0
	ldr	r2, [sp, #4]
	ldr	r3, .L9+4
	mov	r1, #0
	str	r1, [r2, r3]
	.loc 1 27 0
	ldr	r2, [sp, #4]
	ldr	r3, .L9+8
	mov	r1, #0
	str	r1, [r2, r3]
	.loc 1 28 0
	ldr	r3, [sp, #4]
	mov	r0, r3
	add	sp, sp, #8
	bx	lr
.L10:
	.align	2
.L9:
	.word	102404
	.word	102408
	.word	102796
	.cfi_endproc
.LFE120:
	.size	_ZN16b2StackAllocatorC1Ev, .-_ZN16b2StackAllocatorC1Ev
	.section	.rodata
	.align	2
.LC0:
	.ascii	"v:/gigglingbits/box2d/Box2D/Common/b2StackAllocator"
	.ascii	".cpp\000"
	.align	2
.LC1:
	.ascii	"m_index == 0\000"
	.align	2
.LC2:
	.ascii	"m_entryCount == 0\000"
	.section	.text._ZN16b2StackAllocatorD2Ev,"ax",%progbits
	.align	2
	.global	_ZN16b2StackAllocatorD2Ev
	.hidden	_ZN16b2StackAllocatorD2Ev
	.type	_ZN16b2StackAllocatorD2Ev, %function
_ZN16b2StackAllocatorD2Ev:
.LFB122:
	.loc 1 30 0
	.cfi_startproc
	@ args = 0, pretend = 0, frame = 8
	@ frame_needed = 0, uses_anonymous_args = 0
	str	lr, [sp, #-4]!
.LCFI2:
	.cfi_def_cfa_offset 4
	sub	sp, sp, #12
.LCFI3:
	.cfi_def_cfa_offset 16
	str	r0, [sp, #4]
	.loc 1 32 0
	ldr	r2, [sp, #4]
	mov	r3, #102400
	ldr	r3, [r2, r3]
	cmp	r3, #0
	beq	.L12
	.cfi_offset 14, -4
	ldr	r0, .L15
	mov	r1, #32
	ldr	r2, .L15+4
	bl	__assert
.L12:
	.loc 1 33 0
	ldr	r2, [sp, #4]
	ldr	r3, .L15+8
	ldr	r3, [r2, r3]
	cmp	r3, #0
	beq	.L13
	ldr	r0, .L15
	mov	r1, #33
	ldr	r2, .L15+12
	bl	__assert
.L13:
	.loc 1 34 0
	ldr	r3, [sp, #4]
	mov	r0, r3
	add	sp, sp, #12
	ldmfd	sp!, {pc}
.L16:
	.align	2
.L15:
	.word	.LC0
	.word	.LC1
	.word	102796
	.word	.LC2
	.cfi_endproc
.LFE122:
	.size	_ZN16b2StackAllocatorD2Ev, .-_ZN16b2StackAllocatorD2Ev
	.section	.text._ZN16b2StackAllocatorD1Ev,"ax",%progbits
	.align	2
	.global	_ZN16b2StackAllocatorD1Ev
	.hidden	_ZN16b2StackAllocatorD1Ev
	.type	_ZN16b2StackAllocatorD1Ev, %function
_ZN16b2StackAllocatorD1Ev:
.LFB123:
	.loc 1 30 0
	.cfi_startproc
	@ args = 0, pretend = 0, frame = 8
	@ frame_needed = 0, uses_anonymous_args = 0
	str	lr, [sp, #-4]!
.LCFI4:
	.cfi_def_cfa_offset 4
	sub	sp, sp, #12
.LCFI5:
	.cfi_def_cfa_offset 16
	str	r0, [sp, #4]
	.loc 1 32 0
	ldr	r2, [sp, #4]
	mov	r3, #102400
	ldr	r3, [r2, r3]
	cmp	r3, #0
	beq	.L18
	.cfi_offset 14, -4
	ldr	r0, .L21
	mov	r1, #32
	ldr	r2, .L21+4
	bl	__assert
.L18:
	.loc 1 33 0
	ldr	r2, [sp, #4]
	ldr	r3, .L21+8
	ldr	r3, [r2, r3]
	cmp	r3, #0
	beq	.L19
	ldr	r0, .L21
	mov	r1, #33
	ldr	r2, .L21+12
	bl	__assert
.L19:
	.loc 1 34 0
	ldr	r3, [sp, #4]
	mov	r0, r3
	add	sp, sp, #12
	ldmfd	sp!, {pc}
.L22:
	.align	2
.L21:
	.word	.LC0
	.word	.LC1
	.word	102796
	.word	.LC2
	.cfi_endproc
.LFE123:
	.size	_ZN16b2StackAllocatorD1Ev, .-_ZN16b2StackAllocatorD1Ev
	.section	.rodata
	.align	2
.LC3:
	.ascii	"m_entryCount < b2_maxStackEntries\000"
	.section	.text._ZN16b2StackAllocator8AllocateEi,"ax",%progbits
	.align	2
	.global	_ZN16b2StackAllocator8AllocateEi
	.hidden	_ZN16b2StackAllocator8AllocateEi
	.type	_ZN16b2StackAllocator8AllocateEi, %function
_ZN16b2StackAllocator8AllocateEi:
.LFB124:
	.loc 1 37 0
	.cfi_startproc
	@ args = 0, pretend = 0, frame = 16
	@ frame_needed = 0, uses_anonymous_args = 0
	str	lr, [sp, #-4]!
.LCFI6:
	.cfi_def_cfa_offset 4
	sub	sp, sp, #20
.LCFI7:
	.cfi_def_cfa_offset 24
	str	r0, [sp, #4]
	str	r1, [sp, #0]
.LBB2:
	.loc 1 38 0
	ldr	r2, [sp, #4]
	ldr	r3, .L28
	ldr	r3, [r2, r3]
	cmp	r3, #31
	ble	.L24
	.cfi_offset 14, -4
	ldr	r0, .L28+4
	mov	r1, #38
	ldr	r2, .L28+8
	bl	__assert
.L24:
	.loc 1 40 0
	ldr	r3, [sp, #4]
	add	r2, r3, #102400
	add	r2, r2, #12
	ldr	r1, [sp, #4]
	ldr	r3, .L28
	ldr	r3, [r1, r3]
	mov	r1, r3
	mov	r3, r1
	mov	r3, r3, asl #1
	add	r3, r3, r1
	mov	r3, r3, asl #2
	add	r3, r2, r3
	str	r3, [sp, #12]
	.loc 1 41 0
	ldr	r3, [sp, #12]
	ldr	r2, [sp, #0]
	str	r2, [r3, #4]
	.loc 1 42 0
	ldr	r2, [sp, #4]
	mov	r3, #102400
	ldr	r2, [r2, r3]
	ldr	r3, [sp, #0]
	add	r3, r2, r3
	cmp	r3, #102400
	ble	.L25
	.loc 1 44 0
	ldr	r0, [sp, #0]
	bl	_Z7b2Alloci
	mov	r3, r0
	mov	r2, r3
	ldr	r3, [sp, #12]
	str	r2, [r3, #0]
	.loc 1 45 0
	ldr	r3, [sp, #12]
	mov	r2, #1
	strb	r2, [r3, #8]
	b	.L26
.L25:
	.loc 1 49 0
	ldr	r2, [sp, #4]
	ldr	r1, [sp, #4]
	mov	r3, #102400
	ldr	r3, [r1, r3]
	add	r2, r2, r3
	ldr	r3, [sp, #12]
	str	r2, [r3, #0]
	.loc 1 50 0
	ldr	r3, [sp, #12]
	mov	r2, #0
	strb	r2, [r3, #8]
	.loc 1 51 0
	ldr	r2, [sp, #4]
	mov	r3, #102400
	ldr	r2, [r2, r3]
	ldr	r3, [sp, #0]
	add	r1, r2, r3
	ldr	r2, [sp, #4]
	mov	r3, #102400
	str	r1, [r2, r3]
.L26:
	.loc 1 54 0
	ldr	r2, [sp, #4]
	ldr	r3, .L28+12
	ldr	r2, [r2, r3]
	ldr	r3, [sp, #0]
	add	r1, r2, r3
	ldr	r2, [sp, #4]
	ldr	r3, .L28+12
	str	r1, [r2, r3]
	.loc 1 55 0
	ldr	r2, [sp, #4]
	ldr	r3, .L28+16
	ldr	r2, [r2, r3]
	ldr	r1, [sp, #4]
	ldr	r3, .L28+12
	ldr	r3, [r1, r3]
	mov	r0, r2
	mov	r1, r3
	bl	_Z5b2MaxIiET_S0_S0_
	mov	r1, r0
	ldr	r2, [sp, #4]
	ldr	r3, .L28+16
	str	r1, [r2, r3]
	.loc 1 56 0
	ldr	r2, [sp, #4]
	ldr	r3, .L28
	ldr	r3, [r2, r3]
	add	r1, r3, #1
	ldr	r2, [sp, #4]
	ldr	r3, .L28
	str	r1, [r2, r3]
	.loc 1 58 0
	ldr	r3, [sp, #12]
	ldr	r3, [r3, #0]
.LBE2:
	.loc 1 59 0
	mov	r0, r3
	add	sp, sp, #20
	ldmfd	sp!, {pc}
.L29:
	.align	2
.L28:
	.word	102796
	.word	.LC0
	.word	.LC3
	.word	102404
	.word	102408
	.cfi_endproc
.LFE124:
	.size	_ZN16b2StackAllocator8AllocateEi, .-_ZN16b2StackAllocator8AllocateEi
	.section	.rodata
	.align	2
.LC4:
	.ascii	"m_entryCount > 0\000"
	.align	2
.LC5:
	.ascii	"p == entry->data\000"
	.section	.text._ZN16b2StackAllocator4FreeEPv,"ax",%progbits
	.align	2
	.global	_ZN16b2StackAllocator4FreeEPv
	.hidden	_ZN16b2StackAllocator4FreeEPv
	.type	_ZN16b2StackAllocator4FreeEPv, %function
_ZN16b2StackAllocator4FreeEPv:
.LFB125:
	.loc 1 62 0
	.cfi_startproc
	@ args = 0, pretend = 0, frame = 16
	@ frame_needed = 0, uses_anonymous_args = 0
	str	lr, [sp, #-4]!
.LCFI8:
	.cfi_def_cfa_offset 4
	sub	sp, sp, #20
.LCFI9:
	.cfi_def_cfa_offset 24
	str	r0, [sp, #4]
	str	r1, [sp, #0]
.LBB3:
	.loc 1 63 0
	ldr	r2, [sp, #4]
	ldr	r3, .L36
	ldr	r3, [r2, r3]
	cmp	r3, #0
	bgt	.L31
	.cfi_offset 14, -4
	ldr	r0, .L36+4
	mov	r1, #63
	ldr	r2, .L36+8
	bl	__assert
.L31:
	.loc 1 64 0
	ldr	r3, [sp, #4]
	add	r2, r3, #102400
	add	r2, r2, #12
	ldr	r1, [sp, #4]
	ldr	r3, .L36
	ldr	r3, [r1, r3]
	sub	r1, r3, #1
	mov	r3, r1
	mov	r3, r3, asl #1
	add	r3, r3, r1
	mov	r3, r3, asl #2
	add	r3, r2, r3
	str	r3, [sp, #12]
	.loc 1 65 0
	ldr	r3, [sp, #12]
	ldr	r2, [r3, #0]
	ldr	r3, [sp, #0]
	cmp	r2, r3
	beq	.L32
	ldr	r0, .L36+4
	mov	r1, #65
	ldr	r2, .L36+12
	bl	__assert
.L32:
	.loc 1 66 0
	ldr	r3, [sp, #12]
	ldrb	r3, [r3, #8]	@ zero_extendqisi2
	cmp	r3, #0
	beq	.L33
	.loc 1 68 0
	ldr	r0, [sp, #0]
	bl	_Z6b2FreePv
	b	.L34
.L33:
	.loc 1 72 0
	ldr	r2, [sp, #4]
	mov	r3, #102400
	ldr	r2, [r2, r3]
	ldr	r3, [sp, #12]
	ldr	r3, [r3, #4]
	rsb	r1, r3, r2
	ldr	r2, [sp, #4]
	mov	r3, #102400
	str	r1, [r2, r3]
.L34:
	.loc 1 74 0
	ldr	r2, [sp, #4]
	ldr	r3, .L36+16
	ldr	r2, [r2, r3]
	ldr	r3, [sp, #12]
	ldr	r3, [r3, #4]
	rsb	r1, r3, r2
	ldr	r2, [sp, #4]
	ldr	r3, .L36+16
	str	r1, [r2, r3]
	.loc 1 75 0
	ldr	r2, [sp, #4]
	ldr	r3, .L36
	ldr	r3, [r2, r3]
	sub	r1, r3, #1
	ldr	r2, [sp, #4]
	ldr	r3, .L36
	str	r1, [r2, r3]
	.loc 1 77 0
	mov	r3, #0
	str	r3, [sp, #0]
.LBE3:
	.loc 1 78 0
	add	sp, sp, #20
	ldmfd	sp!, {pc}
.L37:
	.align	2
.L36:
	.word	102796
	.word	.LC0
	.word	.LC4
	.word	.LC5
	.word	102404
	.cfi_endproc
.LFE125:
	.size	_ZN16b2StackAllocator4FreeEPv, .-_ZN16b2StackAllocator4FreeEPv
	.section	.text._ZNK16b2StackAllocator16GetMaxAllocationEv,"ax",%progbits
	.align	2
	.global	_ZNK16b2StackAllocator16GetMaxAllocationEv
	.hidden	_ZNK16b2StackAllocator16GetMaxAllocationEv
	.type	_ZNK16b2StackAllocator16GetMaxAllocationEv, %function
_ZNK16b2StackAllocator16GetMaxAllocationEv:
.LFB126:
	.loc 1 81 0
	.cfi_startproc
	@ args = 0, pretend = 0, frame = 8
	@ frame_needed = 0, uses_anonymous_args = 0
	@ link register save eliminated.
	sub	sp, sp, #8
.LCFI10:
	.cfi_def_cfa_offset 8
	str	r0, [sp, #4]
	.loc 1 82 0
	ldr	r2, [sp, #4]
	ldr	r3, .L40
	ldr	r3, [r2, r3]
	.loc 1 83 0
	mov	r0, r3
	add	sp, sp, #8
	bx	lr
.L41:
	.align	2
.L40:
	.word	102408
	.cfi_endproc
.LFE126:
	.size	_ZNK16b2StackAllocator16GetMaxAllocationEv, .-_ZNK16b2StackAllocator16GetMaxAllocationEv
	.section	.text._Z5b2MaxIiET_S0_S0_,"axG",%progbits,_Z5b2MaxIiET_S0_S0_,comdat
	.align	2
	.weak	_Z5b2MaxIiET_S0_S0_
	.hidden	_Z5b2MaxIiET_S0_S0_
	.type	_Z5b2MaxIiET_S0_S0_, %function
_Z5b2MaxIiET_S0_S0_:
.LFB130:
	.file 2 "v:/gigglingbits/box2d/Box2D/Common/b2Math.h"
	.loc 2 643 0
	.cfi_startproc
	@ args = 0, pretend = 0, frame = 8
	@ frame_needed = 0, uses_anonymous_args = 0
	@ link register save eliminated.
	sub	sp, sp, #8
.LCFI11:
	.cfi_def_cfa_offset 8
	str	r0, [sp, #4]
	str	r1, [sp, #0]
	.loc 2 645 0
	ldr	r2, [sp, #4]
	ldr	r3, [sp, #0]
	cmp	r2, r3
	ble	.L43
	ldr	r3, [sp, #4]
	b	.L44
.L43:
	ldr	r3, [sp, #0]
.L44:
	.loc 2 646 0
	mov	r0, r3
	add	sp, sp, #8
	bx	lr
	.cfi_endproc
.LFE130:
	.size	_Z5b2MaxIiET_S0_S0_, .-_Z5b2MaxIiET_S0_S0_
	.section	.rodata
	.align	2
	.type	_ZL12b2_stackSize, %object
	.size	_ZL12b2_stackSize, 4
_ZL12b2_stackSize:
	.word	102400
	.align	2
	.type	_ZL18b2_maxStackEntries, %object
	.size	_ZL18b2_maxStackEntries, 4
_ZL18b2_maxStackEntries:
	.word	32
	.text
.Letext0: