	.arch armv5te
	.eabi_attribute 27, 3
	.fpu vfp
	.eabi_attribute 20, 1
	.eabi_attribute 21, 1
	.eabi_attribute 23, 3
	.eabi_attribute 24, 1
	.eabi_attribute 25, 1
	.eabi_attribute 26, 2
	.eabi_attribute 30, 6
	.eabi_attribute 18, 2
	.file	"b2TimeOfImpact.cpp"
	.text
.Ltext0:
	.cfi_sections	.debug_frame
	.section	.text._ZN6b2Vec2C1Ev,"axG",%progbits,_ZN6b2Vec2C1Ev,comdat
	.align	2
	.weak	_ZN6b2Vec2C1Ev
	.hidden	_ZN6b2Vec2C1Ev
	.type	_ZN6b2Vec2C1Ev, %function
_ZN6b2Vec2C1Ev:
.LFB4:
	.file 1 "v:/gigglingbits/box2d/Box2D/Common/b2Math.h"
	.loc 1 56 0
	.cfi_startproc
	@ args = 0, pretend = 0, frame = 8
	@ frame_needed = 0, uses_anonymous_args = 0
	@ link register save eliminated.
	sub	sp, sp, #8
.LCFI0:
	.cfi_def_cfa_offset 8
	str	r0, [sp, #4]
	.loc 1 56 0
	ldr	r3, [sp, #4]
	mov	r0, r3
	add	sp, sp, #8
	bx	lr
	.cfi_endproc
.LFE4:
	.size	_ZN6b2Vec2C1Ev, .-_ZN6b2Vec2C1Ev
	.section	.text._ZN6b2Vec2C1Eff,"axG",%progbits,_ZN6b2Vec2C1Eff,comdat
	.align	2
	.weak	_ZN6b2Vec2C1Eff
	.hidden	_ZN6b2Vec2C1Eff
	.type	_ZN6b2Vec2C1Eff, %function
_ZN6b2Vec2C1Eff:
.LFB7:
	.loc 1 59 0
	.cfi_startproc
	@ args = 0, pretend = 0, frame = 16
	@ frame_needed = 0, uses_anonymous_args = 0
	@ link register save eliminated.
	sub	sp, sp, #16
.LCFI1:
	.cfi_def_cfa_offset 16
	str	r0, [sp, #12]
	str	r1, [sp, #8]	@ float
	str	r2, [sp, #4]	@ float
	.loc 1 59 0
	ldr	r3, [sp, #12]
	flds	s15, [sp, #8]
	fsts	s15, [r3, #0]
	ldr	r3, [sp, #12]
	flds	s15, [sp, #4]
	fsts	s15, [r3, #4]
	ldr	r3, [sp, #12]
	mov	r0, r3
	add	sp, sp, #16
	bx	lr
	.cfi_endproc
.LFE7:
	.size	_ZN6b2Vec2C1Eff, .-_ZN6b2Vec2C1Eff
	.section	.text._ZN6b2Vec23SetEff,"axG",%progbits,_ZN6b2Vec23SetEff,comdat
	.align	2
	.weak	_ZN6b2Vec23SetEff
	.hidden	_ZN6b2Vec23SetEff
	.type	_ZN6b2Vec23SetEff, %function
_ZN6b2Vec23SetEff:
.LFB9:
	.loc 1 65 0
	.cfi_startproc
	@ args = 0, pretend = 0, frame = 16
	@ frame_needed = 0, uses_anonymous_args = 0
	@ link register save eliminated.
	sub	sp, sp, #16
.LCFI2:
	.cfi_def_cfa_offset 16
	str	r0, [sp, #12]
	str	r1, [sp, #8]	@ float
	str	r2, [sp, #4]	@ float
	.loc 1 65 0
	ldr	r3, [sp, #12]
	flds	s15, [sp, #8]
	fsts	s15, [r3, #0]
	ldr	r3, [sp, #12]
	flds	s15, [sp, #4]
	fsts	s15, [r3, #4]
	add	sp, sp, #16
	bx	lr
	.cfi_endproc
.LFE9:
	.size	_ZN6b2Vec23SetEff, .-_ZN6b2Vec23SetEff
	.section	.text._ZNK6b2Vec2ngEv,"axG",%progbits,_ZNK6b2Vec2ngEv,comdat
	.align	2
	.weak	_ZNK6b2Vec2ngEv
	.hidden	_ZNK6b2Vec2ngEv
	.type	_ZNK6b2Vec2ngEv, %function
_ZNK6b2Vec2ngEv:
.LFB10:
	.loc 1 68 0
	.cfi_startproc
	@ args = 0, pretend = 0, frame = 16
	@ frame_needed = 0, uses_anonymous_args = 0
	stmfd	sp!, {r4, lr}
.LCFI3:
	.cfi_def_cfa_offset 8
	sub	sp, sp, #16
.LCFI4:
	.cfi_def_cfa_offset 24
	mov	r4, r0
	.cfi_offset 14, -4
	.cfi_offset 4, -8
	str	r1, [sp, #4]
.LBB2:
	.loc 1 68 0
	mov	r0, r4
	bl	_ZN6b2Vec2C1Ev
	ldr	r3, [sp, #4]
	flds	s15, [r3, #0]
	fnegs	s14, s15
	ldr	r3, [sp, #4]
	flds	s15, [r3, #4]
	fnegs	s15, s15
	mov	r0, r4
	fmrs	r1, s14
	fmrs	r2, s15
	bl	_ZN6b2Vec23SetEff
.LBE2:
	mov	r0, r4
	add	sp, sp, #16
	ldmfd	sp!, {r4, pc}
	.cfi_endproc
.LFE10:
	.size	_ZNK6b2Vec2ngEv, .-_ZNK6b2Vec2ngEv
	.section	.text._ZN6b2Vec2mIERKS_,"axG",%progbits,_ZN6b2Vec2mIERKS_,comdat
	.align	2
	.weak	_ZN6b2Vec2mIERKS_
	.hidden	_ZN6b2Vec2mIERKS_
	.type	_ZN6b2Vec2mIERKS_, %function
_ZN6b2Vec2mIERKS_:
.LFB14:
	.loc 1 89 0
	.cfi_startproc
	@ args = 0, pretend = 0, frame = 8
	@ frame_needed = 0, uses_anonymous_args = 0
	@ link register save eliminated.
	sub	sp, sp, #8
.LCFI5:
	.cfi_def_cfa_offset 8
	str	r0, [sp, #4]
	str	r1, [sp, #0]
	.loc 1 91 0
	ldr	r3, [sp, #4]
	flds	s14, [r3, #0]
	ldr	r3, [sp, #0]
	flds	s15, [r3, #0]
	fsubs	s15, s14, s15
	ldr	r3, [sp, #4]
	fsts	s15, [r3, #0]
	ldr	r3, [sp, #4]
	flds	s14, [r3, #4]
	ldr	r3, [sp, #0]
	flds	s15, [r3, #4]
	fsubs	s15, s14, s15
	ldr	r3, [sp, #4]
	fsts	s15, [r3, #4]
	.loc 1 92 0
	add	sp, sp, #8
	bx	lr
	.cfi_endproc
.LFE14:
	.size	_ZN6b2Vec2mIERKS_, .-_ZN6b2Vec2mIERKS_
	.section	.text._ZNK6b2Vec26LengthEv,"axG",%progbits,_ZNK6b2Vec26LengthEv,comdat
	.align	2
	.weak	_ZNK6b2Vec26LengthEv
	.hidden	_ZNK6b2Vec26LengthEv
	.type	_ZNK6b2Vec26LengthEv, %function
_ZNK6b2Vec26LengthEv:
.LFB16:
	.loc 1 101 0
	.cfi_startproc
	@ args = 0, pretend = 0, frame = 8
	@ frame_needed = 0, uses_anonymous_args = 0
	str	lr, [sp, #-4]!
.LCFI6:
	.cfi_def_cfa_offset 4
	sub	sp, sp, #12
.LCFI7:
	.cfi_def_cfa_offset 16
	str	r0, [sp, #4]
	.loc 1 103 0
	ldr	r3, [sp, #4]
	flds	s14, [r3, #0]
	ldr	r3, [sp, #4]
	flds	s15, [r3, #0]
	fmuls	s14, s14, s15
	ldr	r3, [sp, #4]
	flds	s13, [r3, #4]
	ldr	r3, [sp, #4]
	flds	s15, [r3, #4]
	fmuls	s15, s13, s15
	fadds	s14, s14, s15
	fsqrts	s15, s14
	fcmps	s15, s15
	fmstat
	beq	.L14
	.cfi_offset 14, -4
	fmrs	r0, s14
	bl	sqrtf
	fmsr	s15, r0
.L14:
	fmrs	r3, s15
	.loc 1 104 0
	mov	r0, r3	@ float
	add	sp, sp, #12
	ldmfd	sp!, {pc}
	.cfi_endproc
.LFE16:
	.size	_ZNK6b2Vec26LengthEv, .-_ZNK6b2Vec26LengthEv
	.section	.text._ZN6b2Vec29NormalizeEv,"axG",%progbits,_ZN6b2Vec29NormalizeEv,comdat
	.align	2
	.weak	_ZN6b2Vec29NormalizeEv
	.hidden	_ZN6b2Vec29NormalizeEv
	.type	_ZN6b2Vec29NormalizeEv, %function
_ZN6b2Vec29NormalizeEv:
.LFB18:
	.loc 1 114 0
	.cfi_startproc
	@ args = 0, pretend = 0, frame = 16
	@ frame_needed = 0, uses_anonymous_args = 0
	str	lr, [sp, #-4]!
.LCFI8:
	.cfi_def_cfa_offset 4
	sub	sp, sp, #20
.LCFI9:
	.cfi_def_cfa_offset 24
	str	r0, [sp, #4]
.LBB3:
	.loc 1 116 0
	ldr	r0, [sp, #4]
	.cfi_offset 14, -4
	bl	_ZNK6b2Vec26LengthEv
	mov	r3, r0	@ float
	str	r3, [sp, #8]	@ float
	.loc 1 117 0
	flds	s14, [sp, #8]
	flds	s15, .L20
	fcmpes	s14, s15
	fmstat
	movpl	r3, #0
	movmi	r3, #1
	and	r3, r3, #255
	cmp	r3, #0
	beq	.L17
	.loc 1 119 0
	flds	s15, .L20+4
	b	.L18
.L17:
	.loc 1 121 0
	flds	s14, .L20+8
	flds	s15, [sp, #8]
	fdivs	s15, s14, s15
	fsts	s15, [sp, #12]
	.loc 1 122 0
	ldr	r3, [sp, #4]
	flds	s14, [r3, #0]
	flds	s15, [sp, #12]
	fmuls	s15, s14, s15
	ldr	r3, [sp, #4]
	fsts	s15, [r3, #0]
	.loc 1 123 0
	ldr	r3, [sp, #4]
	flds	s14, [r3, #4]
	flds	s15, [sp, #12]
	fmuls	s15, s14, s15
	ldr	r3, [sp, #4]
	fsts	s15, [r3, #4]
	.loc 1 125 0
	flds	s15, [sp, #8]
.L18:
	fmrs	r3, s15
.LBE3:
	.loc 1 126 0
	mov	r0, r3	@ float
	add	sp, sp, #20
	ldmfd	sp!, {pc}
.L21:
	.align	2
.L20:
	.word	872415232
	.word	0
	.word	1065353216
	.cfi_endproc
.LFE18:
	.size	_ZN6b2Vec29NormalizeEv, .-_ZN6b2Vec29NormalizeEv
	.section	.text._ZN5b2RotC1Ev,"axG",%progbits,_ZN5b2RotC1Ev,comdat
	.align	2
	.weak	_ZN5b2RotC1Ev
	.hidden	_ZN5b2RotC1Ev
	.type	_ZN5b2RotC1Ev, %function
_ZN5b2RotC1Ev:
.LFB56:
	.loc 1 301 0
	.cfi_startproc
	@ args = 0, pretend = 0, frame = 8
	@ frame_needed = 0, uses_anonymous_args = 0
	@ link register save eliminated.
	sub	sp, sp, #8
.LCFI10:
	.cfi_def_cfa_offset 8
	str	r0, [sp, #4]
	.loc 1 301 0
	ldr	r3, [sp, #4]
	mov	r0, r3
	add	sp, sp, #8
	bx	lr
	.cfi_endproc
.LFE56:
	.size	_ZN5b2RotC1Ev, .-_ZN5b2RotC1Ev
	.section	.text._ZN5b2Rot3SetEf,"axG",%progbits,_ZN5b2Rot3SetEf,comdat
	.align	2
	.weak	_ZN5b2Rot3SetEf
	.hidden	_ZN5b2Rot3SetEf
	.type	_ZN5b2Rot3SetEf, %function
_ZN5b2Rot3SetEf:
.LFB60:
	.loc 1 312 0
	.cfi_startproc
	@ args = 0, pretend = 0, frame = 8
	@ frame_needed = 0, uses_anonymous_args = 0
	str	lr, [sp, #-4]!
.LCFI11:
	.cfi_def_cfa_offset 4
	sub	sp, sp, #12
.LCFI12:
	.cfi_def_cfa_offset 16
	str	r0, [sp, #4]
	str	r1, [sp, #0]	@ float
	.loc 1 315 0
	ldr	r0, [sp, #0]	@ float
	.cfi_offset 14, -4
	bl	sinf
	mov	r2, r0	@ float
	ldr	r3, [sp, #4]
	str	r2, [r3, #0]	@ float
	.loc 1 316 0
	ldr	r0, [sp, #0]	@ float
	bl	cosf
	mov	r2, r0	@ float
	ldr	r3, [sp, #4]
	str	r2, [r3, #4]	@ float
	.loc 1 317 0
	add	sp, sp, #12
	ldmfd	sp!, {pc}
	.cfi_endproc
.LFE60:
	.size	_ZN5b2Rot3SetEf, .-_ZN5b2Rot3SetEf
	.section	.text._ZN11b2TransformC1Ev,"axG",%progbits,_ZN11b2TransformC1Ev,comdat
	.align	2
	.weak	_ZN11b2TransformC1Ev
	.hidden	_ZN11b2TransformC1Ev
	.type	_ZN11b2TransformC1Ev, %function
_ZN11b2TransformC1Ev:
.LFB67:
	.loc 1 353 0
	.cfi_startproc
	@ args = 0, pretend = 0, frame = 8
	@ frame_needed = 0, uses_anonymous_args = 0
	str	lr, [sp, #-4]!
.LCFI13:
	.cfi_def_cfa_offset 4
	sub	sp, sp, #12
.LCFI14:
	.cfi_def_cfa_offset 16
	str	r0, [sp, #4]
	.loc 1 353 0
	ldr	r3, [sp, #4]
	mov	r0, r3
	.cfi_offset 14, -4
	bl	_ZN6b2Vec2C1Ev
	ldr	r3, [sp, #4]
	add	r3, r3, #8
	mov	r0, r3
	bl	_ZN5b2RotC1Ev
	ldr	r3, [sp, #4]
	mov	r0, r3
	add	sp, sp, #12
	ldmfd	sp!, {pc}
	.cfi_endproc
.LFE67:
	.size	_ZN11b2TransformC1Ev, .-_ZN11b2TransformC1Ev
	.section	.text._Z5b2DotRK6b2Vec2S1_,"axG",%progbits,_Z5b2DotRK6b2Vec2S1_,comdat
	.align	2
	.weak	_Z5b2DotRK6b2Vec2S1_
	.hidden	_Z5b2DotRK6b2Vec2S1_
	.type	_Z5b2DotRK6b2Vec2S1_, %function
_Z5b2DotRK6b2Vec2S1_:
.LFB73:
	.loc 1 407 0
	.cfi_startproc
	@ args = 0, pretend = 0, frame = 8
	@ frame_needed = 0, uses_anonymous_args = 0
	@ link register save eliminated.
	sub	sp, sp, #8
.LCFI15:
	.cfi_def_cfa_offset 8
	str	r0, [sp, #4]
	str	r1, [sp, #0]
	.loc 1 408 0
	ldr	r3, [sp, #4]
	flds	s14, [r3, #0]
	ldr	r3, [sp, #0]
	flds	s15, [r3, #0]
	fmuls	s14, s14, s15
	ldr	r3, [sp, #4]
	flds	s13, [r3, #4]
	ldr	r3, [sp, #0]
	flds	s15, [r3, #4]
	fmuls	s15, s13, s15
	fadds	s15, s14, s15
	fmrs	r3, s15
	.loc 1 409 0
	mov	r0, r3	@ float
	add	sp, sp, #8
	bx	lr
	.cfi_endproc
.LFE73:
	.size	_Z5b2DotRK6b2Vec2S1_, .-_Z5b2DotRK6b2Vec2S1_
	.section	.text._Z7b2CrossRK6b2Vec2f,"axG",%progbits,_Z7b2CrossRK6b2Vec2f,comdat
	.align	2
	.weak	_Z7b2CrossRK6b2Vec2f
	.hidden	_Z7b2CrossRK6b2Vec2f
	.type	_Z7b2CrossRK6b2Vec2f, %function
_Z7b2CrossRK6b2Vec2f:
.LFB75:
	.loc 1 420 0
	.cfi_startproc
	@ args = 0, pretend = 0, frame = 8
	@ frame_needed = 0, uses_anonymous_args = 0
	stmfd	sp!, {r4, lr}
.LCFI16:
	.cfi_def_cfa_offset 8
	sub	sp, sp, #8
.LCFI17:
	.cfi_def_cfa_offset 16
	mov	r4, r0
	.cfi_offset 14, -4
	.cfi_offset 4, -8
	str	r1, [sp, #4]
	str	r2, [sp, #0]	@ float
	.loc 1 421 0
	ldr	r3, [sp, #4]
	flds	s14, [r3, #4]
	flds	s15, [sp, #0]
	fmuls	s14, s14, s15
	flds	s15, [sp, #0]
	fnegs	s13, s15
	ldr	r3, [sp, #4]
	flds	s15, [r3, #0]
	fmuls	s15, s13, s15
	mov	r0, r4
	fmrs	r1, s14
	fmrs	r2, s15
	bl	_ZN6b2Vec2C1Eff
	.loc 1 422 0
	mov	r0, r4
	add	sp, sp, #8
	ldmfd	sp!, {r4, pc}
	.cfi_endproc
.LFE75:
	.size	_Z7b2CrossRK6b2Vec2f, .-_Z7b2CrossRK6b2Vec2f
	.section	.text._ZplRK6b2Vec2S1_,"axG",%progbits,_ZplRK6b2Vec2S1_,comdat
	.align	2
	.weak	_ZplRK6b2Vec2S1_
	.hidden	_ZplRK6b2Vec2S1_
	.type	_ZplRK6b2Vec2S1_, %function
_ZplRK6b2Vec2S1_:
.LFB79:
	.loc 1 447 0
	.cfi_startproc
	@ args = 0, pretend = 0, frame = 8
	@ frame_needed = 0, uses_anonymous_args = 0
	stmfd	sp!, {r4, lr}
.LCFI18:
	.cfi_def_cfa_offset 8
	sub	sp, sp, #8
.LCFI19:
	.cfi_def_cfa_offset 16
	mov	r4, r0
	.cfi_offset 14, -4
	.cfi_offset 4, -8
	str	r1, [sp, #4]
	str	r2, [sp, #0]
	.loc 1 448 0
	ldr	r3, [sp, #4]
	flds	s14, [r3, #0]
	ldr	r3, [sp, #0]
	flds	s15, [r3, #0]
	fadds	s13, s14, s15
	ldr	r3, [sp, #4]
	flds	s14, [r3, #4]
	ldr	r3, [sp, #0]
	flds	s15, [r3, #4]
	fadds	s15, s14, s15
	mov	r0, r4
	fmrs	r1, s13
	fmrs	r2, s15
	bl	_ZN6b2Vec2C1Eff
	.loc 1 449 0
	mov	r0, r4
	add	sp, sp, #8
	ldmfd	sp!, {r4, pc}
	.cfi_endproc
.LFE79:
	.size	_ZplRK6b2Vec2S1_, .-_ZplRK6b2Vec2S1_
	.section	.text._ZmiRK6b2Vec2S1_,"axG",%progbits,_ZmiRK6b2Vec2S1_,comdat
	.align	2
	.weak	_ZmiRK6b2Vec2S1_
	.hidden	_ZmiRK6b2Vec2S1_
	.type	_ZmiRK6b2Vec2S1_, %function
_ZmiRK6b2Vec2S1_:
.LFB80:
	.loc 1 453 0
	.cfi_startproc
	@ args = 0, pretend = 0, frame = 8
	@ frame_needed = 0, uses_anonymous_args = 0
	stmfd	sp!, {r4, lr}
.LCFI20:
	.cfi_def_cfa_offset 8
	sub	sp, sp, #8
.LCFI21:
	.cfi_def_cfa_offset 16
	mov	r4, r0
	.cfi_offset 14, -4
	.cfi_offset 4, -8
	str	r1, [sp, #4]
	str	r2, [sp, #0]
	.loc 1 454 0
	ldr	r3, [sp, #4]
	flds	s14, [r3, #0]
	ldr	r3, [sp, #0]
	flds	s15, [r3, #0]
	fsubs	s13, s14, s15
	ldr	r3, [sp, #4]
	flds	s14, [r3, #4]
	ldr	r3, [sp, #0]
	flds	s15, [r3, #4]
	fsubs	s15, s14, s15
	mov	r0, r4
	fmrs	r1, s13
	fmrs	r2, s15
	bl	_ZN6b2Vec2C1Eff
	.loc 1 455 0
	mov	r0, r4
	add	sp, sp, #8
	ldmfd	sp!, {r4, pc}
	.cfi_endproc
.LFE80:
	.size	_ZmiRK6b2Vec2S1_, .-_ZmiRK6b2Vec2S1_
	.section	.text._ZmlfRK6b2Vec2,"axG",%progbits,_ZmlfRK6b2Vec2,comdat
	.align	2
	.weak	_ZmlfRK6b2Vec2
	.hidden	_ZmlfRK6b2Vec2
	.type	_ZmlfRK6b2Vec2, %function
_ZmlfRK6b2Vec2:
.LFB81:
	.loc 1 458 0
	.cfi_startproc
	@ args = 0, pretend = 0, frame = 8
	@ frame_needed = 0, uses_anonymous_args = 0
	stmfd	sp!, {r4, lr}
.LCFI22:
	.cfi_def_cfa_offset 8
	sub	sp, sp, #8
.LCFI23:
	.cfi_def_cfa_offset 16
	mov	r4, r0
	.cfi_offset 14, -4
	.cfi_offset 4, -8
	str	r1, [sp, #4]	@ float
	str	r2, [sp, #0]
	.loc 1 459 0
	ldr	r3, [sp, #0]
	flds	s14, [r3, #0]
	flds	s15, [sp, #4]
	fmuls	s14, s14, s15
	ldr	r3, [sp, #0]
	flds	s13, [r3, #4]
	flds	s15, [sp, #4]
	fmuls	s15, s13, s15
	mov	r0, r4
	fmrs	r1, s14
	fmrs	r2, s15
	bl	_ZN6b2Vec2C1Eff
	.loc 1 460 0
	mov	r0, r4
	add	sp, sp, #8
	ldmfd	sp!, {r4, pc}
	.cfi_endproc
.LFE81:
	.size	_ZmlfRK6b2Vec2, .-_ZmlfRK6b2Vec2
	.section	.text._Z5b2MulRK5b2RotRK6b2Vec2,"axG",%progbits,_Z5b2MulRK5b2RotRK6b2Vec2,comdat
	.align	2
	.weak	_Z5b2MulRK5b2RotRK6b2Vec2
	.hidden	_Z5b2MulRK5b2RotRK6b2Vec2
	.type	_Z5b2MulRK5b2RotRK6b2Vec2, %function
_Z5b2MulRK5b2RotRK6b2Vec2:
.LFB97:
	.loc 1 567 0
	.cfi_startproc
	@ args = 0, pretend = 0, frame = 8
	@ frame_needed = 0, uses_anonymous_args = 0
	stmfd	sp!, {r4, lr}
.LCFI24:
	.cfi_def_cfa_offset 8
	sub	sp, sp, #8
.LCFI25:
	.cfi_def_cfa_offset 16
	mov	r4, r0
	.cfi_offset 14, -4
	.cfi_offset 4, -8
	str	r1, [sp, #4]
	str	r2, [sp, #0]
	.loc 1 568 0
	ldr	r3, [sp, #4]
	flds	s14, [r3, #4]
	ldr	r3, [sp, #0]
	flds	s15, [r3, #0]
	fmuls	s14, s14, s15
	ldr	r3, [sp, #4]
	flds	s13, [r3, #0]
	ldr	r3, [sp, #0]
	flds	s15, [r3, #4]
	fmuls	s15, s13, s15
	fsubs	s12, s14, s15
	ldr	r3, [sp, #4]
	flds	s14, [r3, #0]
	ldr	r3, [sp, #0]
	flds	s15, [r3, #0]
	fmuls	s14, s14, s15
	ldr	r3, [sp, #4]
	flds	s13, [r3, #4]
	ldr	r3, [sp, #0]
	flds	s15, [r3, #4]
	fmuls	s15, s13, s15
	fadds	s15, s14, s15
	mov	r0, r4
	fmrs	r1, s12
	fmrs	r2, s15
	bl	_ZN6b2Vec2C1Eff
	.loc 1 569 0
	mov	r0, r4
	add	sp, sp, #8
	ldmfd	sp!, {r4, pc}
	.cfi_endproc
.LFE97:
	.size	_Z5b2MulRK5b2RotRK6b2Vec2, .-_Z5b2MulRK5b2RotRK6b2Vec2
	.section	.text._Z6b2MulTRK5b2RotRK6b2Vec2,"axG",%progbits,_Z6b2MulTRK5b2RotRK6b2Vec2,comdat
	.align	2
	.weak	_Z6b2MulTRK5b2RotRK6b2Vec2
	.hidden	_Z6b2MulTRK5b2RotRK6b2Vec2
	.type	_Z6b2MulTRK5b2RotRK6b2Vec2, %function
_Z6b2MulTRK5b2RotRK6b2Vec2:
.LFB98:
	.loc 1 573 0
	.cfi_startproc
	@ args = 0, pretend = 0, frame = 8
	@ frame_needed = 0, uses_anonymous_args = 0
	stmfd	sp!, {r4, lr}
.LCFI26:
	.cfi_def_cfa_offset 8
	sub	sp, sp, #8
.LCFI27:
	.cfi_def_cfa_offset 16
	mov	r4, r0
	.cfi_offset 14, -4
	.cfi_offset 4, -8
	str	r1, [sp, #4]
	str	r2, [sp, #0]
	.loc 1 574 0
	ldr	r3, [sp, #4]
	flds	s14, [r3, #4]
	ldr	r3, [sp, #0]
	flds	s15, [r3, #0]
	fmuls	s14, s14, s15
	ldr	r3, [sp, #4]
	flds	s13, [r3, #0]
	ldr	r3, [sp, #0]
	flds	s15, [r3, #4]
	fmuls	s15, s13, s15
	fadds	s12, s14, s15
	ldr	r3, [sp, #4]
	flds	s15, [r3, #0]
	fnegs	s14, s15
	ldr	r3, [sp, #0]
	flds	s15, [r3, #0]
	fmuls	s14, s14, s15
	ldr	r3, [sp, #4]
	flds	s13, [r3, #4]
	ldr	r3, [sp, #0]
	flds	s15, [r3, #4]
	fmuls	s15, s13, s15
	fadds	s15, s14, s15
	mov	r0, r4
	fmrs	r1, s12
	fmrs	r2, s15
	bl	_ZN6b2Vec2C1Eff
	.loc 1 575 0
	mov	r0, r4
	add	sp, sp, #8
	ldmfd	sp!, {r4, pc}
	.cfi_endproc
.LFE98:
	.size	_Z6b2MulTRK5b2RotRK6b2Vec2, .-_Z6b2MulTRK5b2RotRK6b2Vec2
	.section	.text._Z5b2MulRK11b2TransformRK6b2Vec2,"axG",%progbits,_Z5b2MulRK11b2TransformRK6b2Vec2,comdat
	.align	2
	.weak	_Z5b2MulRK11b2TransformRK6b2Vec2
	.hidden	_Z5b2MulRK11b2TransformRK6b2Vec2
	.type	_Z5b2MulRK11b2TransformRK6b2Vec2, %function
_Z5b2MulRK11b2TransformRK6b2Vec2:
.LFB99:
	.loc 1 578 0
	.cfi_startproc
	@ args = 0, pretend = 0, frame = 16
	@ frame_needed = 0, uses_anonymous_args = 0
	stmfd	sp!, {r4, lr}
.LCFI28:
	.cfi_def_cfa_offset 8
	sub	sp, sp, #16
.LCFI29:
	.cfi_def_cfa_offset 24
	mov	r4, r0
	.cfi_offset 14, -4
	.cfi_offset 4, -8
	str	r1, [sp, #4]
	str	r2, [sp, #0]
.LBB4:
	.loc 1 579 0
	ldr	r3, [sp, #4]
	flds	s14, [r3, #12]
	ldr	r3, [sp, #0]
	flds	s15, [r3, #0]
	fmuls	s14, s14, s15
	ldr	r3, [sp, #4]
	flds	s13, [r3, #8]
	ldr	r3, [sp, #0]
	flds	s15, [r3, #4]
	fmuls	s15, s13, s15
	fsubs	s14, s14, s15
	ldr	r3, [sp, #4]
	flds	s15, [r3, #0]
	fadds	s15, s14, s15
	fsts	s15, [sp, #8]
	.loc 1 580 0
	ldr	r3, [sp, #4]
	flds	s14, [r3, #8]
	ldr	r3, [sp, #0]
	flds	s15, [r3, #0]
	fmuls	s14, s14, s15
	ldr	r3, [sp, #4]
	flds	s13, [r3, #12]
	ldr	r3, [sp, #0]
	flds	s15, [r3, #4]
	fmuls	s15, s13, s15
	fadds	s14, s14, s15
	ldr	r3, [sp, #4]
	flds	s15, [r3, #4]
	fadds	s15, s14, s15
	fsts	s15, [sp, #12]
	.loc 1 582 0
	mov	r0, r4
	ldr	r1, [sp, #8]	@ float
	ldr	r2, [sp, #12]	@ float
	bl	_ZN6b2Vec2C1Eff
.LBE4:
	.loc 1 583 0
	mov	r0, r4
	add	sp, sp, #16
	ldmfd	sp!, {r4, pc}
	.cfi_endproc
.LFE99:
	.size	_Z5b2MulRK11b2TransformRK6b2Vec2, .-_Z5b2MulRK11b2TransformRK6b2Vec2
	.section	.text._ZNK7b2Sweep12GetTransformEP11b2Transformf,"axG",%progbits,_ZNK7b2Sweep12GetTransformEP11b2Transformf,comdat
	.align	2
	.weak	_ZNK7b2Sweep12GetTransformEP11b2Transformf
	.hidden	_ZNK7b2Sweep12GetTransformEP11b2Transformf
	.type	_ZNK7b2Sweep12GetTransformEP11b2Transformf, %function
_ZNK7b2Sweep12GetTransformEP11b2Transformf:
.LFB115:
	.loc 1 693 0
	.cfi_startproc
	@ args = 0, pretend = 0, frame = 56
	@ frame_needed = 0, uses_anonymous_args = 0
	stmfd	sp!, {r4, lr}
.LCFI30:
	.cfi_def_cfa_offset 8
	sub	sp, sp, #56
.LCFI31:
	.cfi_def_cfa_offset 64
	str	r0, [sp, #20]
	str	r1, [sp, #16]
	str	r2, [sp, #12]	@ float
.LBB5:
	.loc 1 694 0
	flds	s14, .L48
	flds	s15, [sp, #12]
	fsubs	s15, s14, s15
	ldr	r3, [sp, #20]
	add	r3, r3, #8
	add	r2, sp, #28
	mov	r0, r2
	fmrs	r1, s15
	mov	r2, r3
	.cfi_offset 14, -4
	.cfi_offset 4, -8
	bl	_ZmlfRK6b2Vec2
	ldr	r3, [sp, #20]
	add	r3, r3, #16
	add	r2, sp, #36
	mov	r0, r2
	ldr	r1, [sp, #12]	@ float
	mov	r2, r3
	bl	_ZmlfRK6b2Vec2
	ldr	r4, [sp, #16]
	mov	r1, sp
	add	r2, sp, #28
	add	r3, sp, #36
	mov	r0, r1
	mov	r1, r2
	mov	r2, r3
	bl	_ZplRK6b2Vec2S1_
	mov	r3, r4
	mov	r2, sp
	ldmia	r2, {r0, r1}
	stmia	r3, {r0, r1}
	.loc 1 695 0
	flds	s14, .L48
	flds	s15, [sp, #12]
	fsubs	s14, s14, s15
	ldr	r3, [sp, #20]
	flds	s15, [r3, #24]
	fmuls	s14, s14, s15
	ldr	r3, [sp, #20]
	flds	s13, [r3, #28]
	flds	s15, [sp, #12]
	fmuls	s15, s13, s15
	fadds	s15, s14, s15
	fsts	s15, [sp, #52]
	.loc 1 696 0
	ldr	r3, [sp, #16]
	add	r3, r3, #8
	mov	r0, r3
	ldr	r1, [sp, #52]	@ float
	bl	_ZN5b2Rot3SetEf
	.loc 1 699 0
	ldr	r4, [sp, #16]
	ldr	r3, [sp, #16]
	add	r2, r3, #8
	ldr	r3, [sp, #20]
	add	r1, sp, #44
	mov	r0, r1
	mov	r1, r2
	mov	r2, r3
	bl	_Z5b2MulRK5b2RotRK6b2Vec2
	add	r3, sp, #44
	mov	r0, r4
	mov	r1, r3
	bl	_ZN6b2Vec2mIERKS_
.LBE5:
	.loc 1 700 0
	add	sp, sp, #56
	ldmfd	sp!, {r4, pc}
.L49:
	.align	2
.L48:
	.word	1065353216
	.cfi_endproc
.LFE115:
	.size	_ZNK7b2Sweep12GetTransformEP11b2Transformf, .-_ZNK7b2Sweep12GetTransformEP11b2Transformf
	.section	.text._ZN7b2Sweep9NormalizeEv,"axG",%progbits,_ZN7b2Sweep9NormalizeEv,comdat
	.align	2
	.weak	_ZN7b2Sweep9NormalizeEv
	.hidden	_ZN7b2Sweep9NormalizeEv
	.type	_ZN7b2Sweep9NormalizeEv, %function
_ZN7b2Sweep9NormalizeEv:
.LFB117:
	.loc 1 713 0
	.cfi_startproc
	@ args = 0, pretend = 0, frame = 16
	@ frame_needed = 0, uses_anonymous_args = 0
	str	lr, [sp, #-4]!
.LCFI32:
	.cfi_def_cfa_offset 4
	sub	sp, sp, #20
.LCFI33:
	.cfi_def_cfa_offset 24
	str	r0, [sp, #4]
.LBB6:
	.loc 1 714 0
	flds	s15, .L52
	fsts	s15, [sp, #8]
	.loc 1 715 0
	ldr	r3, [sp, #4]
	flds	s14, [r3, #24]
	flds	s15, [sp, #8]
	fdivs	s15, s14, s15
	fmrs	r0, s15
	.cfi_offset 14, -4
	bl	floorf
	fmsr	s14, r0
	flds	s15, [sp, #8]
	fmuls	s15, s14, s15
	fsts	s15, [sp, #12]
	.loc 1 716 0
	ldr	r3, [sp, #4]
	flds	s14, [r3, #24]
	flds	s15, [sp, #12]
	fsubs	s15, s14, s15
	ldr	r3, [sp, #4]
	fsts	s15, [r3, #24]
	.loc 1 717 0
	ldr	r3, [sp, #4]
	flds	s14, [r3, #28]
	flds	s15, [sp, #12]
	fsubs	s15, s14, s15
	ldr	r3, [sp, #4]
	fsts	s15, [r3, #28]
.LBE6:
	.loc 1 718 0
	add	sp, sp, #20
	ldmfd	sp!, {pc}
.L53:
	.align	2
.L52:
	.word	1086918619
	.cfi_endproc
.LFE117:
	.size	_ZN7b2Sweep9NormalizeEv, .-_ZN7b2Sweep9NormalizeEv
	.section	.text._ZN15b2DistanceProxyC1Ev,"axG",%progbits,_ZN15b2DistanceProxyC1Ev,comdat
	.align	2
	.weak	_ZN15b2DistanceProxyC1Ev
	.hidden	_ZN15b2DistanceProxyC1Ev
	.type	_ZN15b2DistanceProxyC1Ev, %function
_ZN15b2DistanceProxyC1Ev:
.LFB128:
	.file 2 "v:/gigglingbits/box2d/Box2D/Collision/b2Distance.h"
	.loc 2 31 0
	.cfi_startproc
	@ args = 0, pretend = 0, frame = 8
	@ frame_needed = 0, uses_anonymous_args = 0
	stmfd	sp!, {r4, r5, lr}
.LCFI34:
	.cfi_def_cfa_offset 12
	sub	sp, sp, #12
.LCFI35:
	.cfi_def_cfa_offset 24
	str	r0, [sp, #4]
	.loc 2 31 0
	ldr	r3, [sp, #4]
	mov	r5, r3
	.cfi_offset 14, -4
	.cfi_offset 5, -8
	.cfi_offset 4, -12
	mov	r4, #1
	b	.L55
.L56:
	mov	r0, r5
	bl	_ZN6b2Vec2C1Ev
	add	r5, r5, #8
	sub	r4, r4, #1
.L55:
	cmn	r4, #1
	moveq	r3, #0
	movne	r3, #1
	and	r3, r3, #255
	cmp	r3, #0
	bne	.L56
	ldr	r3, [sp, #4]
	mov	r2, #0
	str	r2, [r3, #16]
	ldr	r3, [sp, #4]
	mov	r2, #0
	str	r2, [r3, #20]
	ldr	r3, [sp, #4]
	flds	s15, .L59
	fsts	s15, [r3, #24]
	ldr	r3, [sp, #4]
	mov	r0, r3
	add	sp, sp, #12
	ldmfd	sp!, {r4, r5, pc}
.L60:
	.align	2
.L59:
	.word	0
	.cfi_endproc
.LFE128:
	.size	_ZN15b2DistanceProxyC1Ev, .-_ZN15b2DistanceProxyC1Ev
	.section	.rodata
	.align	2
.LC0:
	.ascii	"v:/gigglingbits/box2d/Box2D/Collision/b2Distance.h\000"
	.align	2
.LC1:
	.ascii	"0 <= index && index < m_count\000"
	.section	.text._ZNK15b2DistanceProxy9GetVertexEi,"axG",%progbits,_ZNK15b2DistanceProxy9GetVertexEi,comdat
	.align	2
	.weak	_ZNK15b2DistanceProxy9GetVertexEi
	.hidden	_ZNK15b2DistanceProxy9GetVertexEi
	.type	_ZNK15b2DistanceProxy9GetVertexEi, %function
_ZNK15b2DistanceProxy9GetVertexEi:
.LFB130:
	.loc 2 102 0
	.cfi_startproc
	@ args = 0, pretend = 0, frame = 8
	@ frame_needed = 0, uses_anonymous_args = 0
	str	lr, [sp, #-4]!
.LCFI36:
	.cfi_def_cfa_offset 4
	sub	sp, sp, #12
.LCFI37:
	.cfi_def_cfa_offset 16
	str	r0, [sp, #4]
	str	r1, [sp, #0]
	.loc 2 103 0
	ldr	r3, [sp, #0]
	cmp	r3, #0
	blt	.L62
	.cfi_offset 14, -4
	ldr	r3, [sp, #4]
	ldr	r2, [r3, #20]
	ldr	r3, [sp, #0]
	cmp	r2, r3
	bgt	.L63
.L62:
	ldr	r0, .L65
	mov	r1, #103
	ldr	r2, .L65+4
	bl	__assert
.L63:
	.loc 2 104 0
	ldr	r3, [sp, #4]
	ldr	r2, [r3, #16]
	ldr	r3, [sp, #0]
	mov	r3, r3, asl #3
	add	r3, r2, r3
	.loc 2 105 0
	mov	r0, r3
	add	sp, sp, #12
	ldmfd	sp!, {pc}
.L66:
	.align	2
.L65:
	.word	.LC0
	.word	.LC1
	.cfi_endproc
.LFE130:
	.size	_ZNK15b2DistanceProxy9GetVertexEi, .-_ZNK15b2DistanceProxy9GetVertexEi
	.section	.text._ZNK15b2DistanceProxy10GetSupportERK6b2Vec2,"axG",%progbits,_ZNK15b2DistanceProxy10GetSupportERK6b2Vec2,comdat
	.align	2
	.weak	_ZNK15b2DistanceProxy10GetSupportERK6b2Vec2
	.hidden	_ZNK15b2DistanceProxy10GetSupportERK6b2Vec2
	.type	_ZNK15b2DistanceProxy10GetSupportERK6b2Vec2, %function
_ZNK15b2DistanceProxy10GetSupportERK6b2Vec2:
.LFB131:
	.loc 2 108 0
	.cfi_startproc
	@ args = 0, pretend = 0, frame = 24
	@ frame_needed = 0, uses_anonymous_args = 0
	str	lr, [sp, #-4]!
.LCFI38:
	.cfi_def_cfa_offset 4
	sub	sp, sp, #28
.LCFI39:
	.cfi_def_cfa_offset 32
	str	r0, [sp, #4]
	str	r1, [sp, #0]
.LBB7:
	.loc 2 109 0
	mov	r3, #0
	str	r3, [sp, #8]
	.loc 2 110 0
	ldr	r3, [sp, #4]
	ldr	r3, [r3, #16]
	mov	r0, r3
	ldr	r1, [sp, #0]
	.cfi_offset 14, -4
	bl	_Z5b2DotRK6b2Vec2S1_
	mov	r3, r0	@ float
	str	r3, [sp, #12]	@ float
.LBB8:
	.loc 2 111 0
	mov	r3, #1
	str	r3, [sp, #16]
	b	.L68
.L70:
.LBB9:
	.loc 2 113 0
	ldr	r3, [sp, #4]
	ldr	r2, [r3, #16]
	ldr	r3, [sp, #16]
	mov	r3, r3, asl #3
	add	r3, r2, r3
	mov	r0, r3
	ldr	r1, [sp, #0]
	bl	_Z5b2DotRK6b2Vec2S1_
	mov	r3, r0	@ float
	str	r3, [sp, #20]	@ float
	.loc 2 114 0
	flds	s14, [sp, #20]
	flds	s15, [sp, #12]
	fcmpes	s14, s15
	fmstat
	movle	r3, #0
	movgt	r3, #1
	and	r3, r3, #255
	cmp	r3, #0
	beq	.L69
	.loc 2 116 0
	ldr	r3, [sp, #16]
	str	r3, [sp, #8]
	.loc 2 117 0
	flds	s15, [sp, #20]
	fsts	s15, [sp, #12]
.L69:
.LBE9:
	.loc 2 111 0
	ldr	r3, [sp, #16]
	add	r3, r3, #1
	str	r3, [sp, #16]
.L68:
	ldr	r3, [sp, #4]
	ldr	r2, [r3, #20]
	ldr	r3, [sp, #16]
	cmp	r2, r3
	movle	r3, #0
	movgt	r3, #1
	and	r3, r3, #255
	cmp	r3, #0
	bne	.L70
.LBE8:
	.loc 2 121 0
	ldr	r3, [sp, #8]
.LBE7:
	.loc 2 122 0
	mov	r0, r3
	add	sp, sp, #28
	ldmfd	sp!, {pc}
	.cfi_endproc
.LFE131:
	.size	_ZNK15b2DistanceProxy10GetSupportERK6b2Vec2, .-_ZNK15b2DistanceProxy10GetSupportERK6b2Vec2
	.hidden	b2_toiTime
	.global	b2_toiTime
	.bss
	.align	2
	.type	b2_toiTime, %object
	.size	b2_toiTime, 4
b2_toiTime:
	.space	4
	.hidden	b2_toiMaxTime
	.global	b2_toiMaxTime
	.align	2
	.type	b2_toiMaxTime, %object
	.size	b2_toiMaxTime, 4
b2_toiMaxTime:
	.space	4
	.hidden	b2_toiCalls
	.global	b2_toiCalls
	.align	2
	.type	b2_toiCalls, %object
	.size	b2_toiCalls, 4
b2_toiCalls:
	.space	4
	.hidden	b2_toiIters
	.global	b2_toiIters
	.align	2
	.type	b2_toiIters, %object
	.size	b2_toiIters, 4
b2_toiIters:
	.space	4
	.hidden	b2_toiMaxIters
	.global	b2_toiMaxIters
	.align	2
	.type	b2_toiMaxIters, %object
	.size	b2_toiMaxIters, 4
b2_toiMaxIters:
	.space	4
	.hidden	b2_toiRootIters
	.global	b2_toiRootIters
	.align	2
	.type	b2_toiRootIters, %object
	.size	b2_toiRootIters, 4
b2_toiRootIters:
	.space	4
	.hidden	b2_toiMaxRootIters
	.global	b2_toiMaxRootIters
	.align	2
	.type	b2_toiMaxRootIters, %object
	.size	b2_toiMaxRootIters, 4
b2_toiMaxRootIters:
	.space	4
	.section	.rodata
	.align	2
.LC2:
	.ascii	"v:/gigglingbits/box2d/Box2D/Collision/b2TimeOfImpac"
	.ascii	"t.cpp\000"
	.align	2
.LC3:
	.ascii	"0 < count && count < 3\000"
	.section	.text._ZN20b2SeparationFunction10InitializeEPK14b2SimplexCachePK15b2DistanceProxyRK7b2SweepS5_S8_f,"axG",%progbits,_ZN20b2SeparationFunction10InitializeEPK14b2SimplexCachePK15b2DistanceProxyRK7b2SweepS5_S8_f,comdat
	.align	2
	.weak	_ZN20b2SeparationFunction10InitializeEPK14b2SimplexCachePK15b2DistanceProxyRK7b2SweepS5_S8_f
	.hidden	_ZN20b2SeparationFunction10InitializeEPK14b2SimplexCachePK15b2DistanceProxyRK7b2SweepS5_S8_f
	.type	_ZN20b2SeparationFunction10InitializeEPK14b2SimplexCachePK15b2DistanceProxyRK7b2SweepS5_S8_f, %function
_ZN20b2SeparationFunction10InitializeEPK14b2SimplexCachePK15b2DistanceProxyRK7b2SweepS5_S8_f:
.LFB153:
	.file 3 "v:/gigglingbits/box2d/Box2D/Collision/b2TimeOfImpact.cpp"
	.loc 3 44 0
	.cfi_startproc
	@ args = 12, pretend = 0, frame = 248
	@ frame_needed = 0, uses_anonymous_args = 0
	stmfd	sp!, {r4, lr}
.LCFI40:
	.cfi_def_cfa_offset 8
	sub	sp, sp, #248
.LCFI41:
	.cfi_def_cfa_offset 256
	str	r0, [sp, #20]
	str	r1, [sp, #16]
	str	r2, [sp, #12]
	str	r3, [sp, #8]
.LBB10:
	.loc 3 49 0
	ldr	r3, [sp, #20]
	ldr	r2, [sp, #12]
	str	r2, [r3, #0]
	.loc 3 50 0
	ldr	r3, [sp, #20]
	ldr	r2, [sp, #256]
	str	r2, [r3, #4]
	.loc 3 51 0
	ldr	r3, [sp, #16]
	ldrh	r3, [r3, #4]
	str	r3, [sp, #232]
	.loc 3 52 0
	ldr	r3, [sp, #232]
	cmp	r3, #0
	ble	.L73
	.cfi_offset 14, -4
	.cfi_offset 4, -8
	ldr	r3, [sp, #232]
	cmp	r3, #2
	ble	.L74
.L73:
	ldr	r0, .L81
	mov	r1, #52
	ldr	r2, .L81+4
	bl	__assert
.L74:
	.loc 3 54 0
	ldr	r2, [sp, #20]
	ldr	r3, [sp, #8]
	add	ip, r2, #8
	mov	lr, r3
	ldmia	lr!, {r0, r1, r2, r3}
	stmia	ip!, {r0, r1, r2, r3}
	ldmia	lr!, {r0, r1, r2, r3}
	stmia	ip!, {r0, r1, r2, r3}
	ldr	r3, [lr, #0]
	str	r3, [ip, #0]
	.loc 3 55 0
	ldr	r2, [sp, #20]
	ldr	r3, [sp, #260]
	add	ip, r2, #44
	mov	lr, r3
	ldmia	lr!, {r0, r1, r2, r3}
	stmia	ip!, {r0, r1, r2, r3}
	ldmia	lr!, {r0, r1, r2, r3}
	stmia	ip!, {r0, r1, r2, r3}
	ldr	r3, [lr, #0]
	str	r3, [ip, #0]
	.loc 3 57 0
	add	r3, sp, #168
	mov	r0, r3
	bl	_ZN11b2TransformC1Ev
	add	r3, sp, #152
	mov	r0, r3
	bl	_ZN11b2TransformC1Ev
	.loc 3 58 0
	ldr	r3, [sp, #20]
	add	r2, r3, #8
	add	r3, sp, #168
	mov	r0, r2
	mov	r1, r3
	ldr	r2, [sp, #264]	@ float
	bl	_ZNK7b2Sweep12GetTransformEP11b2Transformf
	.loc 3 59 0
	ldr	r3, [sp, #20]
	add	r2, r3, #44
	add	r3, sp, #152
	mov	r0, r2
	mov	r1, r3
	ldr	r2, [sp, #264]	@ float
	bl	_ZNK7b2Sweep12GetTransformEP11b2Transformf
	.loc 3 61 0
	ldr	r3, [sp, #232]
	cmp	r3, #1
	bne	.L75
.LBB11:
	.loc 3 63 0
	ldr	r3, [sp, #20]
	mov	r2, #0
	str	r2, [r3, #80]
	.loc 3 64 0
	ldr	r3, [sp, #20]
	ldr	r2, [r3, #0]
	ldr	r3, [sp, #16]
	ldrb	r3, [r3, #6]	@ zero_extendqisi2
	mov	r0, r2
	mov	r1, r3
	bl	_ZNK15b2DistanceProxy9GetVertexEi
	mov	r2, r0
	add	r3, sp, #144
	ldmia	r2, {r0, r1}
	stmia	r3, {r0, r1}
	.loc 3 65 0
	ldr	r3, [sp, #20]
	ldr	r2, [r3, #4]
	ldr	r3, [sp, #16]
	ldrb	r3, [r3, #9]	@ zero_extendqisi2
	mov	r0, r2
	mov	r1, r3
	bl	_ZNK15b2DistanceProxy9GetVertexEi
	mov	r2, r0
	add	r3, sp, #136
	ldmia	r2, {r0, r1}
	stmia	r3, {r0, r1}
	.loc 3 66 0
	add	r1, sp, #128
	add	r2, sp, #168
	add	r3, sp, #144
	mov	r0, r1
	mov	r1, r2
	mov	r2, r3
	bl	_Z5b2MulRK11b2TransformRK6b2Vec2
	.loc 3 67 0
	add	r1, sp, #120
	add	r2, sp, #152
	add	r3, sp, #136
	mov	r0, r1
	mov	r1, r2
	mov	r2, r3
	bl	_Z5b2MulRK11b2TransformRK6b2Vec2
	.loc 3 68 0
	ldr	r4, [sp, #20]
	mov	r1, sp
	add	r2, sp, #120
	add	r3, sp, #128
	mov	r0, r1
	mov	r1, r2
	mov	r2, r3
	bl	_ZmiRK6b2Vec2S1_
	add	r3, r4, #92
	mov	r2, sp
	ldmia	r2, {r0, r1}
	stmia	r3, {r0, r1}
	.loc 3 69 0
	ldr	r3, [sp, #20]
	add	r3, r3, #92
	mov	r0, r3
	bl	_ZN6b2Vec29NormalizeEv
	mov	r3, r0	@ float
	str	r3, [sp, #236]	@ float
	.loc 3 70 0
	flds	s15, [sp, #236]
	b	.L76
.L75:
.LBE11:
	.loc 3 72 0
	ldr	r3, [sp, #16]
	ldrb	r2, [r3, #6]	@ zero_extendqisi2
	ldr	r3, [sp, #16]
	ldrb	r3, [r3, #7]	@ zero_extendqisi2
	cmp	r2, r3
	bne	.L77
.LBB12:
	.loc 3 75 0
	ldr	r3, [sp, #20]
	mov	r2, #2
	str	r2, [r3, #80]
	.loc 3 76 0
	ldr	r3, [sp, #16]
	ldrb	r3, [r3, #9]	@ zero_extendqisi2
	ldr	r0, [sp, #256]
	mov	r1, r3
	bl	_ZNK15b2DistanceProxy9GetVertexEi
	mov	r2, r0
	add	r3, sp, #112
	ldmia	r2, {r0, r1}
	stmia	r3, {r0, r1}
	.loc 3 77 0
	ldr	r3, [sp, #16]
	ldrb	r3, [r3, #10]	@ zero_extendqisi2
	ldr	r0, [sp, #256]
	mov	r1, r3
	bl	_ZNK15b2DistanceProxy9GetVertexEi
	mov	r2, r0
	add	r3, sp, #104
	ldmia	r2, {r0, r1}
	stmia	r3, {r0, r1}
	.loc 3 79 0
	add	r1, sp, #184
	add	r2, sp, #104
	add	r3, sp, #112
	mov	r0, r1
	mov	r1, r2
	mov	r2, r3
	bl	_ZmiRK6b2Vec2S1_
	ldr	r4, [sp, #20]
	mov	r2, sp
	add	r3, sp, #184
	mov	r0, r2
	mov	r1, r3
	ldr	r2, .L81+8	@ float
	bl	_Z7b2CrossRK6b2Vec2f
	add	r3, r4, #92
	mov	r2, sp
	ldmia	r2, {r0, r1}
	stmia	r3, {r0, r1}
	.loc 3 80 0
	ldr	r3, [sp, #20]
	add	r3, r3, #92
	mov	r0, r3
	bl	_ZN6b2Vec29NormalizeEv
	.loc 3 81 0
	ldr	r3, [sp, #20]
	add	r3, r3, #92
	add	r1, sp, #96
	add	r2, sp, #152
	add	r2, r2, #8
	mov	r0, r1
	mov	r1, r2
	mov	r2, r3
	bl	_Z5b2MulRK5b2RotRK6b2Vec2
	.loc 3 83 0
	add	r1, sp, #192
	add	r2, sp, #112
	add	r3, sp, #104
	mov	r0, r1
	mov	r1, r2
	mov	r2, r3
	bl	_ZplRK6b2Vec2S1_
	ldr	r4, [sp, #20]
	mov	r2, sp
	add	r3, sp, #192
	mov	r0, r2
	ldr	r1, .L81+12	@ float
	mov	r2, r3
	bl	_ZmlfRK6b2Vec2
	add	r3, r4, #84
	mov	r2, sp
	ldmia	r2, {r0, r1}
	stmia	r3, {r0, r1}
	.loc 3 84 0
	ldr	r3, [sp, #20]
	add	r3, r3, #84
	add	r1, sp, #88
	add	r2, sp, #152
	mov	r0, r1
	mov	r1, r2
	mov	r2, r3
	bl	_Z5b2MulRK11b2TransformRK6b2Vec2
	.loc 3 86 0
	ldr	r3, [sp, #16]
	ldrb	r3, [r3, #6]	@ zero_extendqisi2
	ldr	r0, [sp, #12]
	mov	r1, r3
	bl	_ZNK15b2DistanceProxy9GetVertexEi
	mov	r2, r0
	add	r3, sp, #80
	ldmia	r2, {r0, r1}
	stmia	r3, {r0, r1}
	.loc 3 87 0
	add	r1, sp, #72
	add	r2, sp, #168
	add	r3, sp, #80
	mov	r0, r1
	mov	r1, r2
	mov	r2, r3
	bl	_Z5b2MulRK11b2TransformRK6b2Vec2
	.loc 3 89 0
	add	r1, sp, #200
	add	r2, sp, #72
	add	r3, sp, #88
	mov	r0, r1
	mov	r1, r2
	mov	r2, r3
	bl	_ZmiRK6b2Vec2S1_
	add	r2, sp, #200
	add	r3, sp, #96
	mov	r0, r2
	mov	r1, r3
	bl	_Z5b2DotRK6b2Vec2S1_
	mov	r3, r0	@ float
	str	r3, [sp, #240]	@ float
	.loc 3 90 0
	flds	s15, [sp, #240]
	fcmpezs	s15
	fmstat
	movpl	r3, #0
	movmi	r3, #1
	and	r3, r3, #255
	cmp	r3, #0
	beq	.L78
	.loc 3 92 0
	ldr	r3, [sp, #20]
	add	r3, r3, #92
	ldr	r4, [sp, #20]
	mov	r2, sp
	mov	r0, r2
	mov	r1, r3
	bl	_ZNK6b2Vec2ngEv
	add	r3, r4, #92
	mov	r2, sp
	ldmia	r2, {r0, r1}
	stmia	r3, {r0, r1}
	.loc 3 93 0
	flds	s15, [sp, #240]
	fnegs	s15, s15
	fsts	s15, [sp, #240]
.L78:
	.loc 3 95 0
	flds	s15, [sp, #240]
	b	.L76
.L77:
.LBE12:
.LBB13:
	.loc 3 100 0
	ldr	r3, [sp, #20]
	mov	r2, #1
	str	r2, [r3, #80]
	.loc 3 101 0
	ldr	r3, [sp, #20]
	ldr	r2, [r3, #0]
	ldr	r3, [sp, #16]
	ldrb	r3, [r3, #6]	@ zero_extendqisi2
	mov	r0, r2
	mov	r1, r3
	bl	_ZNK15b2DistanceProxy9GetVertexEi
	mov	r2, r0
	add	r3, sp, #64
	ldmia	r2, {r0, r1}
	stmia	r3, {r0, r1}
	.loc 3 102 0
	ldr	r3, [sp, #20]
	ldr	r2, [r3, #0]
	ldr	r3, [sp, #16]
	ldrb	r3, [r3, #7]	@ zero_extendqisi2
	mov	r0, r2
	mov	r1, r3
	bl	_ZNK15b2DistanceProxy9GetVertexEi
	mov	r2, r0
	add	r3, sp, #56
	ldmia	r2, {r0, r1}
	stmia	r3, {r0, r1}
	.loc 3 104 0
	add	r1, sp, #208
	add	r2, sp, #56
	add	r3, sp, #64
	mov	r0, r1
	mov	r1, r2
	mov	r2, r3
	bl	_ZmiRK6b2Vec2S1_
	ldr	r4, [sp, #20]
	mov	r2, sp
	add	r3, sp, #208
	mov	r0, r2
	mov	r1, r3
	ldr	r2, .L81+8	@ float
	bl	_Z7b2CrossRK6b2Vec2f
	add	r3, r4, #92
	mov	r2, sp
	ldmia	r2, {r0, r1}
	stmia	r3, {r0, r1}
	.loc 3 105 0
	ldr	r3, [sp, #20]
	add	r3, r3, #92
	mov	r0, r3
	bl	_ZN6b2Vec29NormalizeEv
	.loc 3 106 0
	ldr	r3, [sp, #20]
	add	r3, r3, #92
	add	r1, sp, #48
	add	r2, sp, #168
	add	r2, r2, #8
	mov	r0, r1
	mov	r1, r2
	mov	r2, r3
	bl	_Z5b2MulRK5b2RotRK6b2Vec2
	.loc 3 108 0
	add	r1, sp, #216
	add	r2, sp, #64
	add	r3, sp, #56
	mov	r0, r1
	mov	r1, r2
	mov	r2, r3
	bl	_ZplRK6b2Vec2S1_
	ldr	r4, [sp, #20]
	mov	r2, sp
	add	r3, sp, #216
	mov	r0, r2
	ldr	r1, .L81+12	@ float
	mov	r2, r3
	bl	_ZmlfRK6b2Vec2
	add	r3, r4, #84
	mov	r2, sp
	ldmia	r2, {r0, r1}
	stmia	r3, {r0, r1}
	.loc 3 109 0
	ldr	r3, [sp, #20]
	add	r3, r3, #84
	add	r1, sp, #40
	add	r2, sp, #168
	mov	r0, r1
	mov	r1, r2
	mov	r2, r3
	bl	_Z5b2MulRK11b2TransformRK6b2Vec2
	.loc 3 111 0
	ldr	r3, [sp, #20]
	ldr	r2, [r3, #4]
	ldr	r3, [sp, #16]
	ldrb	r3, [r3, #9]	@ zero_extendqisi2
	mov	r0, r2
	mov	r1, r3
	bl	_ZNK15b2DistanceProxy9GetVertexEi
	mov	r2, r0
	add	r3, sp, #32
	ldmia	r2, {r0, r1}
	stmia	r3, {r0, r1}
	.loc 3 112 0
	add	r1, sp, #24
	add	r2, sp, #152
	add	r3, sp, #32
	mov	r0, r1
	mov	r1, r2
	mov	r2, r3
	bl	_Z5b2MulRK11b2TransformRK6b2Vec2
	.loc 3 114 0
	add	r1, sp, #224
	add	r2, sp, #24
	add	r3, sp, #40
	mov	r0, r1
	mov	r1, r2
	mov	r2, r3
	bl	_ZmiRK6b2Vec2S1_
	add	r2, sp, #224
	add	r3, sp, #48
	mov	r0, r2
	mov	r1, r3
	bl	_Z5b2DotRK6b2Vec2S1_
	mov	r3, r0	@ float
	str	r3, [sp, #244]	@ float
	.loc 3 115 0
	flds	s15, [sp, #244]
	fcmpezs	s15
	fmstat
	movpl	r3, #0
	movmi	r3, #1
	and	r3, r3, #255
	cmp	r3, #0
	beq	.L79
	.loc 3 117 0
	ldr	r3, [sp, #20]
	add	r3, r3, #92
	ldr	r4, [sp, #20]
	mov	r2, sp
	mov	r0, r2
	mov	r1, r3
	bl	_ZNK6b2Vec2ngEv
	add	r3, r4, #92
	mov	r2, sp
	ldmia	r2, {r0, r1}
	stmia	r3, {r0, r1}
	.loc 3 118 0
	flds	s15, [sp, #244]
	fnegs	s15, s15
	fsts	s15, [sp, #244]
.L79:
	.loc 3 120 0
	flds	s15, [sp, #244]
.L76:
	fmrs	r3, s15
.LBE13:
.LBE10:
	.loc 3 122 0
	mov	r0, r3	@ float
	add	sp, sp, #248
	ldmfd	sp!, {r4, pc}
.L82:
	.align	2
.L81:
	.word	.LC2
	.word	.LC3
	.word	1065353216
	.word	1056964608
	.cfi_endproc
.LFE153:
	.size	_ZN20b2SeparationFunction10InitializeEPK14b2SimplexCachePK15b2DistanceProxyRK7b2SweepS5_S8_f, .-_ZN20b2SeparationFunction10InitializeEPK14b2SimplexCachePK15b2DistanceProxyRK7b2SweepS5_S8_f
	.section	.rodata
	.align	2
.LC4:
	.ascii	"false\000"
	.section	.text._ZNK20b2SeparationFunction17FindMinSeparationEPiS0_f,"axG",%progbits,_ZNK20b2SeparationFunction17FindMinSeparationEPiS0_f,comdat
	.align	2
	.weak	_ZNK20b2SeparationFunction17FindMinSeparationEPiS0_f
	.hidden	_ZNK20b2SeparationFunction17FindMinSeparationEPiS0_f
	.type	_ZNK20b2SeparationFunction17FindMinSeparationEPiS0_f, %function
_ZNK20b2SeparationFunction17FindMinSeparationEPiS0_f:
.LFB154:
	.loc 3 125 0
	.cfi_startproc
	@ args = 0, pretend = 0, frame = 240
	@ frame_needed = 0, uses_anonymous_args = 0
	str	lr, [sp, #-4]!
.LCFI42:
	.cfi_def_cfa_offset 4
	sub	sp, sp, #244
.LCFI43:
	.cfi_def_cfa_offset 248
	str	r0, [sp, #12]
	str	r1, [sp, #8]
	str	r2, [sp, #4]
	str	r3, [sp, #0]	@ float
.LBB14:
	.loc 3 127 0
	add	r3, sp, #164
	mov	r0, r3
	.cfi_offset 14, -4
	bl	_ZN11b2TransformC1Ev
	add	r3, sp, #148
	mov	r0, r3
	bl	_ZN11b2TransformC1Ev
	.loc 3 128 0
	ldr	r3, [sp, #12]
	add	r2, r3, #8
	add	r3, sp, #164
	mov	r0, r2
	mov	r1, r3
	ldr	r2, [sp, #0]	@ float
	bl	_ZNK7b2Sweep12GetTransformEP11b2Transformf
	.loc 3 129 0
	ldr	r3, [sp, #12]
	add	r2, r3, #44
	add	r3, sp, #148
	mov	r0, r2
	mov	r1, r3
	ldr	r2, [sp, #0]	@ float
	bl	_ZNK7b2Sweep12GetTransformEP11b2Transformf
	.loc 3 131 0
	ldr	r3, [sp, #12]
	ldr	r3, [r3, #80]
	cmp	r3, #1
	beq	.L86
	cmp	r3, #2
	beq	.L87
	cmp	r3, #0
	bne	.L90
.L85:
.LBB15:
	.loc 3 135 0
	ldr	r3, [sp, #12]
	add	r3, r3, #92
	add	r1, sp, #140
	add	r2, sp, #164
	add	r2, r2, #8
	mov	r0, r1
	mov	r1, r2
	mov	r2, r3
	bl	_Z6b2MulTRK5b2RotRK6b2Vec2
	.loc 3 136 0
	ldr	r3, [sp, #12]
	add	r3, r3, #92
	add	r2, sp, #180
	mov	r0, r2
	mov	r1, r3
	bl	_ZNK6b2Vec2ngEv
	add	r1, sp, #132
	add	r3, sp, #148
	add	r2, r3, #8
	add	r3, sp, #180
	mov	r0, r1
	mov	r1, r2
	mov	r2, r3
	bl	_Z6b2MulTRK5b2RotRK6b2Vec2
	.loc 3 138 0
	ldr	r3, [sp, #12]
	ldr	r2, [r3, #0]
	add	r3, sp, #140
	mov	r0, r2
	mov	r1, r3
	bl	_ZNK15b2DistanceProxy10GetSupportERK6b2Vec2
	mov	r2, r0
	ldr	r3, [sp, #8]
	str	r2, [r3, #0]
	.loc 3 139 0
	ldr	r3, [sp, #12]
	ldr	r2, [r3, #4]
	add	r3, sp, #132
	mov	r0, r2
	mov	r1, r3
	bl	_ZNK15b2DistanceProxy10GetSupportERK6b2Vec2
	mov	r2, r0
	ldr	r3, [sp, #4]
	str	r2, [r3, #0]
	.loc 3 141 0
	ldr	r3, [sp, #12]
	ldr	r2, [r3, #0]
	ldr	r3, [sp, #8]
	ldr	r3, [r3, #0]
	mov	r0, r2
	mov	r1, r3
	bl	_ZNK15b2DistanceProxy9GetVertexEi
	mov	r2, r0
	add	r3, sp, #124
	ldmia	r2, {r0, r1}
	stmia	r3, {r0, r1}
	.loc 3 142 0
	ldr	r3, [sp, #12]
	ldr	r2, [r3, #4]
	ldr	r3, [sp, #4]
	ldr	r3, [r3, #0]
	mov	r0, r2
	mov	r1, r3
	bl	_ZNK15b2DistanceProxy9GetVertexEi
	mov	r2, r0
	add	r3, sp, #116
	ldmia	r2, {r0, r1}
	stmia	r3, {r0, r1}
	.loc 3 144 0
	add	r1, sp, #108
	add	r2, sp, #164
	add	r3, sp, #124
	mov	r0, r1
	mov	r1, r2
	mov	r2, r3
	bl	_Z5b2MulRK11b2TransformRK6b2Vec2
	.loc 3 145 0
	add	r1, sp, #100
	add	r2, sp, #148
	add	r3, sp, #116
	mov	r0, r1
	mov	r1, r2
	mov	r2, r3
	bl	_Z5b2MulRK11b2TransformRK6b2Vec2
	.loc 3 147 0
	add	r1, sp, #188
	add	r2, sp, #100
	add	r3, sp, #108
	mov	r0, r1
	mov	r1, r2
	mov	r2, r3
	bl	_ZmiRK6b2Vec2S1_
	ldr	r3, [sp, #12]
	add	r3, r3, #92
	add	r2, sp, #188
	mov	r0, r2
	mov	r1, r3
	bl	_Z5b2DotRK6b2Vec2S1_
	mov	r3, r0	@ float
	str	r3, [sp, #228]	@ float
	.loc 3 148 0
	flds	s15, [sp, #228]
	b	.L88
.L86:
.LBE15:
.LBB16:
	.loc 3 153 0
	ldr	r3, [sp, #12]
	add	r3, r3, #92
	add	r1, sp, #92
	add	r2, sp, #164
	add	r2, r2, #8
	mov	r0, r1
	mov	r1, r2
	mov	r2, r3
	bl	_Z5b2MulRK5b2RotRK6b2Vec2
	.loc 3 154 0
	ldr	r3, [sp, #12]
	add	r3, r3, #84
	add	r1, sp, #84
	add	r2, sp, #164
	mov	r0, r1
	mov	r1, r2
	mov	r2, r3
	bl	_Z5b2MulRK11b2TransformRK6b2Vec2
	.loc 3 156 0
	add	r2, sp, #196
	add	r3, sp, #92
	mov	r0, r2
	mov	r1, r3
	bl	_ZNK6b2Vec2ngEv
	add	r1, sp, #76
	add	r3, sp, #148
	add	r2, r3, #8
	add	r3, sp, #196
	mov	r0, r1
	mov	r1, r2
	mov	r2, r3
	bl	_Z6b2MulTRK5b2RotRK6b2Vec2
	.loc 3 158 0
	ldr	r3, [sp, #8]
	mvn	r2, #0
	str	r2, [r3, #0]
	.loc 3 159 0
	ldr	r3, [sp, #12]
	ldr	r2, [r3, #4]
	add	r3, sp, #76
	mov	r0, r2
	mov	r1, r3
	bl	_ZNK15b2DistanceProxy10GetSupportERK6b2Vec2
	mov	r2, r0
	ldr	r3, [sp, #4]
	str	r2, [r3, #0]
	.loc 3 161 0
	ldr	r3, [sp, #12]
	ldr	r2, [r3, #4]
	ldr	r3, [sp, #4]
	ldr	r3, [r3, #0]
	mov	r0, r2
	mov	r1, r3
	bl	_ZNK15b2DistanceProxy9GetVertexEi
	mov	r2, r0
	add	r3, sp, #68
	ldmia	r2, {r0, r1}
	stmia	r3, {r0, r1}
	.loc 3 162 0
	add	r1, sp, #60
	add	r2, sp, #148
	add	r3, sp, #68
	mov	r0, r1
	mov	r1, r2
	mov	r2, r3
	bl	_Z5b2MulRK11b2TransformRK6b2Vec2
	.loc 3 164 0
	add	r1, sp, #204
	add	r2, sp, #60
	add	r3, sp, #84
	mov	r0, r1
	mov	r1, r2
	mov	r2, r3
	bl	_ZmiRK6b2Vec2S1_
	add	r2, sp, #204
	add	r3, sp, #92
	mov	r0, r2
	mov	r1, r3
	bl	_Z5b2DotRK6b2Vec2S1_
	mov	r3, r0	@ float
	str	r3, [sp, #232]	@ float
	.loc 3 165 0
	flds	s15, [sp, #232]
	b	.L88
.L87:
.LBE16:
.LBB17:
	.loc 3 170 0
	ldr	r3, [sp, #12]
	add	r3, r3, #92
	add	r1, sp, #52
	add	r2, sp, #148
	add	r2, r2, #8
	mov	r0, r1
	mov	r1, r2
	mov	r2, r3
	bl	_Z5b2MulRK5b2RotRK6b2Vec2
	.loc 3 171 0
	ldr	r3, [sp, #12]
	add	r3, r3, #84
	add	r1, sp, #44
	add	r2, sp, #148
	mov	r0, r1
	mov	r1, r2
	mov	r2, r3
	bl	_Z5b2MulRK11b2TransformRK6b2Vec2
	.loc 3 173 0
	add	r2, sp, #212
	add	r3, sp, #52
	mov	r0, r2
	mov	r1, r3
	bl	_ZNK6b2Vec2ngEv
	add	r1, sp, #36
	add	r3, sp, #164
	add	r2, r3, #8
	add	r3, sp, #212
	mov	r0, r1
	mov	r1, r2
	mov	r2, r3
	bl	_Z6b2MulTRK5b2RotRK6b2Vec2
	.loc 3 175 0
	ldr	r3, [sp, #4]
	mvn	r2, #0
	str	r2, [r3, #0]
	.loc 3 176 0
	ldr	r3, [sp, #12]
	ldr	r2, [r3, #0]
	add	r3, sp, #36
	mov	r0, r2
	mov	r1, r3
	bl	_ZNK15b2DistanceProxy10GetSupportERK6b2Vec2
	mov	r2, r0
	ldr	r3, [sp, #8]
	str	r2, [r3, #0]
	.loc 3 178 0
	ldr	r3, [sp, #12]
	ldr	r2, [r3, #0]
	ldr	r3, [sp, #8]
	ldr	r3, [r3, #0]
	mov	r0, r2
	mov	r1, r3
	bl	_ZNK15b2DistanceProxy9GetVertexEi
	mov	r2, r0
	add	r3, sp, #28
	ldmia	r2, {r0, r1}
	stmia	r3, {r0, r1}
	.loc 3 179 0
	add	r1, sp, #20
	add	r2, sp, #164
	add	r3, sp, #28
	mov	r0, r1
	mov	r1, r2
	mov	r2, r3
	bl	_Z5b2MulRK11b2TransformRK6b2Vec2
	.loc 3 181 0
	add	r1, sp, #220
	add	r2, sp, #20
	add	r3, sp, #44
	mov	r0, r1
	mov	r1, r2
	mov	r2, r3
	bl	_ZmiRK6b2Vec2S1_
	add	r2, sp, #220
	add	r3, sp, #52
	mov	r0, r2
	mov	r1, r3
	bl	_Z5b2DotRK6b2Vec2S1_
	mov	r3, r0	@ float
	str	r3, [sp, #236]	@ float
	.loc 3 182 0
	flds	s15, [sp, #236]
	b	.L88
.L90:
.LBE17:
	.loc 3 186 0
	ldr	r0, .L91+4
	mov	r1, #186
	ldr	r2, .L91+8
	bl	__assert
	.loc 3 187 0
	ldr	r3, [sp, #8]
	mvn	r2, #0
	str	r2, [r3, #0]
	.loc 3 188 0
	ldr	r3, [sp, #4]
	mvn	r2, #0
	str	r2, [r3, #0]
	.loc 3 189 0
	flds	s15, .L91
.L88:
	fmrs	r3, s15
.LBE14:
	.loc 3 191 0
	mov	r0, r3	@ float
	add	sp, sp, #244
	ldmfd	sp!, {pc}
.L92:
	.align	2
.L91:
	.word	0
	.word	.LC2
	.word	.LC4
	.cfi_endproc
.LFE154:
	.size	_ZNK20b2SeparationFunction17FindMinSeparationEPiS0_f, .-_ZNK20b2SeparationFunction17FindMinSeparationEPiS0_f
	.section	.text._ZNK20b2SeparationFunction8EvaluateEiif,"axG",%progbits,_ZNK20b2SeparationFunction8EvaluateEiif,comdat
	.align	2
	.weak	_ZNK20b2SeparationFunction8EvaluateEiif
	.hidden	_ZNK20b2SeparationFunction8EvaluateEiif
	.type	_ZNK20b2SeparationFunction8EvaluateEiif, %function
_ZNK20b2SeparationFunction8EvaluateEiif:
.LFB155:
	.loc 3 194 0
	.cfi_startproc
	@ args = 0, pretend = 0, frame = 184
	@ frame_needed = 0, uses_anonymous_args = 0
	str	lr, [sp, #-4]!
.LCFI44:
	.cfi_def_cfa_offset 4
	sub	sp, sp, #188
.LCFI45:
	.cfi_def_cfa_offset 192
	str	r0, [sp, #12]
	str	r1, [sp, #8]
	str	r2, [sp, #4]
	str	r3, [sp, #0]	@ float
.LBB18:
	.loc 3 196 0
	add	r3, sp, #132
	mov	r0, r3
	.cfi_offset 14, -4
	bl	_ZN11b2TransformC1Ev
	add	r3, sp, #116
	mov	r0, r3
	bl	_ZN11b2TransformC1Ev
	.loc 3 197 0
	ldr	r3, [sp, #12]
	add	r2, r3, #8
	add	r3, sp, #132
	mov	r0, r2
	mov	r1, r3
	ldr	r2, [sp, #0]	@ float
	bl	_ZNK7b2Sweep12GetTransformEP11b2Transformf
	.loc 3 198 0
	ldr	r3, [sp, #12]
	add	r2, r3, #44
	add	r3, sp, #116
	mov	r0, r2
	mov	r1, r3
	ldr	r2, [sp, #0]	@ float
	bl	_ZNK7b2Sweep12GetTransformEP11b2Transformf
	.loc 3 200 0
	ldr	r3, [sp, #12]
	ldr	r3, [r3, #80]
	cmp	r3, #1
	beq	.L96
	cmp	r3, #2
	beq	.L97
	cmp	r3, #0
	bne	.L100
.L95:
.LBB19:
	.loc 3 204 0
	ldr	r3, [sp, #12]
	ldr	r3, [r3, #0]
	mov	r0, r3
	ldr	r1, [sp, #8]
	bl	_ZNK15b2DistanceProxy9GetVertexEi
	mov	r2, r0
	add	r3, sp, #108
	ldmia	r2, {r0, r1}
	stmia	r3, {r0, r1}
	.loc 3 205 0
	ldr	r3, [sp, #12]
	ldr	r3, [r3, #4]
	mov	r0, r3
	ldr	r1, [sp, #4]
	bl	_ZNK15b2DistanceProxy9GetVertexEi
	mov	r2, r0
	add	r3, sp, #100
	ldmia	r2, {r0, r1}
	stmia	r3, {r0, r1}
	.loc 3 207 0
	add	r1, sp, #92
	add	r2, sp, #132
	add	r3, sp, #108
	mov	r0, r1
	mov	r1, r2
	mov	r2, r3
	bl	_Z5b2MulRK11b2TransformRK6b2Vec2
	.loc 3 208 0
	add	r1, sp, #84
	add	r2, sp, #116
	add	r3, sp, #100
	mov	r0, r1
	mov	r1, r2
	mov	r2, r3
	bl	_Z5b2MulRK11b2TransformRK6b2Vec2
	.loc 3 209 0
	add	r1, sp, #148
	add	r2, sp, #84
	add	r3, sp, #92
	mov	r0, r1
	mov	r1, r2
	mov	r2, r3
	bl	_ZmiRK6b2Vec2S1_
	ldr	r3, [sp, #12]
	add	r3, r3, #92
	add	r2, sp, #148
	mov	r0, r2
	mov	r1, r3
	bl	_Z5b2DotRK6b2Vec2S1_
	mov	r3, r0	@ float
	str	r3, [sp, #172]	@ float
	.loc 3 211 0
	flds	s15, [sp, #172]
	b	.L98
.L96:
.LBE19:
.LBB20:
	.loc 3 216 0
	ldr	r3, [sp, #12]
	add	r3, r3, #92
	add	r1, sp, #76
	add	r2, sp, #132
	add	r2, r2, #8
	mov	r0, r1
	mov	r1, r2
	mov	r2, r3
	bl	_Z5b2MulRK5b2RotRK6b2Vec2
	.loc 3 217 0
	ldr	r3, [sp, #12]
	add	r3, r3, #84
	add	r1, sp, #68
	add	r2, sp, #132
	mov	r0, r1
	mov	r1, r2
	mov	r2, r3
	bl	_Z5b2MulRK11b2TransformRK6b2Vec2
	.loc 3 219 0
	ldr	r3, [sp, #12]
	ldr	r3, [r3, #4]
	mov	r0, r3
	ldr	r1, [sp, #4]
	bl	_ZNK15b2DistanceProxy9GetVertexEi
	mov	r2, r0
	add	r3, sp, #60
	ldmia	r2, {r0, r1}
	stmia	r3, {r0, r1}
	.loc 3 220 0
	add	r1, sp, #52
	add	r2, sp, #116
	add	r3, sp, #60
	mov	r0, r1
	mov	r1, r2
	mov	r2, r3
	bl	_Z5b2MulRK11b2TransformRK6b2Vec2
	.loc 3 222 0
	add	r1, sp, #156
	add	r2, sp, #52
	add	r3, sp, #68
	mov	r0, r1
	mov	r1, r2
	mov	r2, r3
	bl	_ZmiRK6b2Vec2S1_
	add	r2, sp, #156
	add	r3, sp, #76
	mov	r0, r2
	mov	r1, r3
	bl	_Z5b2DotRK6b2Vec2S1_
	mov	r3, r0	@ float
	str	r3, [sp, #176]	@ float
	.loc 3 223 0
	flds	s15, [sp, #176]
	b	.L98
.L97:
.LBE20:
.LBB21:
	.loc 3 228 0
	ldr	r3, [sp, #12]
	add	r3, r3, #92
	add	r1, sp, #44
	add	r2, sp, #116
	add	r2, r2, #8
	mov	r0, r1
	mov	r1, r2
	mov	r2, r3
	bl	_Z5b2MulRK5b2RotRK6b2Vec2
	.loc 3 229 0
	ldr	r3, [sp, #12]
	add	r3, r3, #84
	add	r1, sp, #36
	add	r2, sp, #116
	mov	r0, r1
	mov	r1, r2
	mov	r2, r3
	bl	_Z5b2MulRK11b2TransformRK6b2Vec2
	.loc 3 231 0
	ldr	r3, [sp, #12]
	ldr	r3, [r3, #0]
	mov	r0, r3
	ldr	r1, [sp, #8]
	bl	_ZNK15b2DistanceProxy9GetVertexEi
	mov	r2, r0
	add	r3, sp, #28
	ldmia	r2, {r0, r1}
	stmia	r3, {r0, r1}
	.loc 3 232 0
	add	r1, sp, #20
	add	r2, sp, #132
	add	r3, sp, #28
	mov	r0, r1
	mov	r1, r2
	mov	r2, r3
	bl	_Z5b2MulRK11b2TransformRK6b2Vec2
	.loc 3 234 0
	add	r1, sp, #164
	add	r2, sp, #20
	add	r3, sp, #36
	mov	r0, r1
	mov	r1, r2
	mov	r2, r3
	bl	_ZmiRK6b2Vec2S1_
	add	r2, sp, #164
	add	r3, sp, #44
	mov	r0, r2
	mov	r1, r3
	bl	_Z5b2DotRK6b2Vec2S1_
	mov	r3, r0	@ float
	str	r3, [sp, #180]	@ float
	.loc 3 235 0
	flds	s15, [sp, #180]
	b	.L98
.L100:
.LBE21:
	.loc 3 239 0
	ldr	r0, .L101+4
	mov	r1, #239
	ldr	r2, .L101+8
	bl	__assert
	.loc 3 240 0
	flds	s15, .L101
.L98:
	fmrs	r3, s15
.LBE18:
	.loc 3 242 0
	mov	r0, r3	@ float
	add	sp, sp, #188
	ldmfd	sp!, {pc}
.L102:
	.align	2
.L101:
	.word	0
	.word	.LC2
	.word	.LC4
	.cfi_endproc
.LFE155:
	.size	_ZNK20b2SeparationFunction8EvaluateEiif, .-_ZNK20b2SeparationFunction8EvaluateEiif
	.section	.text._ZN15b2DistanceInputC1Ev,"axG",%progbits,_ZN15b2DistanceInputC1Ev,comdat
	.align	2
	.weak	_ZN15b2DistanceInputC1Ev
	.hidden	_ZN15b2DistanceInputC1Ev
	.type	_ZN15b2DistanceInputC1Ev, %function
_ZN15b2DistanceInputC1Ev:
.LFB159:
	.loc 2 69 0
	.cfi_startproc
	@ args = 0, pretend = 0, frame = 8
	@ frame_needed = 0, uses_anonymous_args = 0
	str	lr, [sp, #-4]!
.LCFI46:
	.cfi_def_cfa_offset 4
	sub	sp, sp, #12
.LCFI47:
	.cfi_def_cfa_offset 16
	str	r0, [sp, #4]
	.loc 2 69 0
	ldr	r3, [sp, #4]
	mov	r0, r3
	.cfi_offset 14, -4
	bl	_ZN15b2DistanceProxyC1Ev
	ldr	r3, [sp, #4]
	add	r3, r3, #28
	mov	r0, r3
	bl	_ZN15b2DistanceProxyC1Ev
	ldr	r3, [sp, #4]
	add	r3, r3, #56
	mov	r0, r3
	bl	_ZN11b2TransformC1Ev
	ldr	r3, [sp, #4]
	add	r3, r3, #72
	mov	r0, r3
	bl	_ZN11b2TransformC1Ev
	ldr	r3, [sp, #4]
	mov	r0, r3
	add	sp, sp, #12
	ldmfd	sp!, {pc}
	.cfi_endproc
.LFE159:
	.size	_ZN15b2DistanceInputC1Ev, .-_ZN15b2DistanceInputC1Ev
	.section	.text._ZN16b2DistanceOutputC1Ev,"axG",%progbits,_ZN16b2DistanceOutputC1Ev,comdat
	.align	2
	.weak	_ZN16b2DistanceOutputC1Ev
	.hidden	_ZN16b2DistanceOutputC1Ev
	.type	_ZN16b2DistanceOutputC1Ev, %function
_ZN16b2DistanceOutputC1Ev:
.LFB162:
	.loc 2 79 0
	.cfi_startproc
	@ args = 0, pretend = 0, frame = 8
	@ frame_needed = 0, uses_anonymous_args = 0
	str	lr, [sp, #-4]!
.LCFI48:
	.cfi_def_cfa_offset 4
	sub	sp, sp, #12
.LCFI49:
	.cfi_def_cfa_offset 16
	str	r0, [sp, #4]
	.loc 2 79 0
	ldr	r3, [sp, #4]
	mov	r0, r3
	.cfi_offset 14, -4
	bl	_ZN6b2Vec2C1Ev
	ldr	r3, [sp, #4]
	add	r3, r3, #8
	mov	r0, r3
	bl	_ZN6b2Vec2C1Ev
	ldr	r3, [sp, #4]
	mov	r0, r3
	add	sp, sp, #12
	ldmfd	sp!, {pc}
	.cfi_endproc
.LFE162:
	.size	_ZN16b2DistanceOutputC1Ev, .-_ZN16b2DistanceOutputC1Ev
	.section	.text._ZN7b2SweepC1Ev,"axG",%progbits,_ZN7b2SweepC1Ev,comdat
	.align	2
	.weak	_ZN7b2SweepC1Ev
	.hidden	_ZN7b2SweepC1Ev
	.type	_ZN7b2SweepC1Ev, %function
_ZN7b2SweepC1Ev:
.LFB166:
	.loc 1 381 0
	.cfi_startproc
	@ args = 0, pretend = 0, frame = 8
	@ frame_needed = 0, uses_anonymous_args = 0
	str	lr, [sp, #-4]!
.LCFI50:
	.cfi_def_cfa_offset 4
	sub	sp, sp, #12
.LCFI51:
	.cfi_def_cfa_offset 16
	str	r0, [sp, #4]
	.loc 1 381 0
	ldr	r3, [sp, #4]
	mov	r0, r3
	.cfi_offset 14, -4
	bl	_ZN6b2Vec2C1Ev
	ldr	r3, [sp, #4]
	add	r3, r3, #8
	mov	r0, r3
	bl	_ZN6b2Vec2C1Ev
	ldr	r3, [sp, #4]
	add	r3, r3, #16
	mov	r0, r3
	bl	_ZN6b2Vec2C1Ev
	ldr	r3, [sp, #4]
	mov	r0, r3
	add	sp, sp, #12
	ldmfd	sp!, {pc}
	.cfi_endproc
.LFE166:
	.size	_ZN7b2SweepC1Ev, .-_ZN7b2SweepC1Ev
	.section	.text._ZN20b2SeparationFunctionC1Ev,"axG",%progbits,_ZN20b2SeparationFunctionC1Ev,comdat
	.align	2
	.weak	_ZN20b2SeparationFunctionC1Ev
	.hidden	_ZN20b2SeparationFunctionC1Ev
	.type	_ZN20b2SeparationFunctionC1Ev, %function
_ZN20b2SeparationFunctionC1Ev:
.LFB168:
	.loc 3 34 0
	.cfi_startproc
	@ args = 0, pretend = 0, frame = 8
	@ frame_needed = 0, uses_anonymous_args = 0
	str	lr, [sp, #-4]!
.LCFI52:
	.cfi_def_cfa_offset 4
	sub	sp, sp, #12
.LCFI53:
	.cfi_def_cfa_offset 16
	str	r0, [sp, #4]
	.loc 3 34 0
	ldr	r3, [sp, #4]
	add	r3, r3, #8
	mov	r0, r3
	.cfi_offset 14, -4
	bl	_ZN7b2SweepC1Ev
	ldr	r3, [sp, #4]
	add	r3, r3, #44
	mov	r0, r3
	bl	_ZN7b2SweepC1Ev
	ldr	r3, [sp, #4]
	add	r3, r3, #84
	mov	r0, r3
	bl	_ZN6b2Vec2C1Ev
	ldr	r3, [sp, #4]
	add	r3, r3, #92
	mov	r0, r3
	bl	_ZN6b2Vec2C1Ev
	ldr	r3, [sp, #4]
	mov	r0, r3
	add	sp, sp, #12
	ldmfd	sp!, {pc}
	.cfi_endproc
.LFE168:
	.size	_ZN20b2SeparationFunctionC1Ev, .-_ZN20b2SeparationFunctionC1Ev
	.section	.rodata
	.align	2
.LC5:
	.ascii	"target > tolerance\000"
	.section	.text._Z14b2TimeOfImpactP11b2TOIOutputPK10b2TOIInput,"ax",%progbits
	.align	2
	.global	_Z14b2TimeOfImpactP11b2TOIOutputPK10b2TOIInput
	.hidden	_Z14b2TimeOfImpactP11b2TOIOutputPK10b2TOIInput
	.type	_Z14b2TimeOfImpactP11b2TOIOutputPK10b2TOIInput, %function
_Z14b2TimeOfImpactP11b2TOIOutputPK10b2TOIInput:
.LFB156:
	.loc 3 255 0
	.cfi_startproc
	@ args = 0, pretend = 0, frame = 432
	@ frame_needed = 0, uses_anonymous_args = 0
	str	lr, [sp, #-4]!
.LCFI54:
	.cfi_def_cfa_offset 4
	sub	sp, sp, #452
.LCFI55:
	.cfi_def_cfa_offset 456
	str	r0, [sp, #20]
	str	r1, [sp, #16]
.LBB22:
	.loc 3 256 0
	add	r3, sp, #364
	mov	r0, r3
	.cfi_offset 14, -4
	bl	_ZN7b2TimerC1Ev
	.loc 3 258 0
	ldr	r3, .L144+12
	ldr	r3, [r3, #0]
	add	r2, r3, #1
	ldr	r3, .L144+12
	str	r2, [r3, #0]
	.loc 3 260 0
	ldr	r3, [sp, #20]
	mov	r2, #0
	str	r2, [r3, #0]
	.loc 3 261 0
	ldr	r3, [sp, #16]
	flds	s15, [r3, #128]
	ldr	r3, [sp, #20]
	fsts	s15, [r3, #4]
	.loc 3 263 0
	ldr	r3, [sp, #16]
	str	r3, [sp, #368]
	.loc 3 264 0
	ldr	r3, [sp, #16]
	add	r3, r3, #28
	str	r3, [sp, #372]
	.loc 3 266 0
	ldr	r3, [sp, #16]
	add	ip, sp, #252
	add	lr, r3, #56
	ldmia	lr!, {r0, r1, r2, r3}
	stmia	ip!, {r0, r1, r2, r3}
	ldmia	lr!, {r0, r1, r2, r3}
	stmia	ip!, {r0, r1, r2, r3}
	ldr	r3, [lr, #0]
	str	r3, [ip, #0]
	.loc 3 267 0
	ldr	r3, [sp, #16]
	add	ip, sp, #216
	add	lr, r3, #92
	ldmia	lr!, {r0, r1, r2, r3}
	stmia	ip!, {r0, r1, r2, r3}
	ldmia	lr!, {r0, r1, r2, r3}
	stmia	ip!, {r0, r1, r2, r3}
	ldr	r3, [lr, #0]
	str	r3, [ip, #0]
	.loc 3 271 0
	add	r3, sp, #252
	mov	r0, r3
	bl	_ZN7b2Sweep9NormalizeEv
	.loc 3 272 0
	add	r3, sp, #216
	mov	r0, r3
	bl	_ZN7b2Sweep9NormalizeEv
	.loc 3 274 0
	ldr	r3, [sp, #16]
	flds	s15, [r3, #128]
	fsts	s15, [sp, #376]
	.loc 3 276 0
	ldr	r3, [sp, #368]
	flds	s14, [r3, #24]
	ldr	r3, [sp, #372]
	flds	s15, [r3, #24]
	fadds	s15, s14, s15
	fsts	s15, [sp, #380]
	.loc 3 277 0
	flds	s14, [sp, #380]
	flds	s15, .L144
	fsubs	s15, s14, s15
	ldr	r0, .L144+16	@ float
	fmrs	r1, s15
	bl	_Z5b2MaxIfET_S0_S0_
	mov	r3, r0	@ float
	str	r3, [sp, #384]	@ float
	.loc 3 278 0
	flds	s15, .L144+4
	fsts	s15, [sp, #388]
	.loc 3 279 0
	flds	s14, [sp, #384]
	flds	s15, [sp, #388]
	fcmpes	s14, s15
	fmstat
	movle	r3, #0
	movgt	r3, #1
	and	r3, r3, #255
	cmp	r3, #0
	bne	.L117
.L116:
	ldr	r0, .L144+20
	ldr	r1, .L144+24
	ldr	r2, .L144+28
	bl	__assert
.L117:
	.loc 3 281 0
	flds	s15, .L144+8
	fsts	s15, [sp, #392]
	.loc 3 282 0
	mov	r3, #20
	str	r3, [sp, #396]
	.loc 3 283 0
	mov	r3, #0
	str	r3, [sp, #400]
	.loc 3 287 0
	mov	r3, #0
	add	r2, sp, #256
	strh	r3, [r2, #100]	@ movhi
	.loc 3 288 0
	add	r3, sp, #124
	mov	r0, r3
	bl	_ZN15b2DistanceInputC1Ev
	.loc 3 289 0
	ldr	r3, [sp, #16]
	add	ip, sp, #124
	mov	lr, r3
	ldmia	lr!, {r0, r1, r2, r3}
	stmia	ip!, {r0, r1, r2, r3}
	ldmia	lr, {r0, r1, r2}
	stmia	ip, {r0, r1, r2}
	.loc 3 290 0
	ldr	r3, [sp, #16]
	add	ip, sp, #152
	add	lr, r3, #28
	ldmia	lr!, {r0, r1, r2, r3}
	stmia	ip!, {r0, r1, r2, r3}
	ldmia	lr, {r0, r1, r2}
	stmia	ip, {r0, r1, r2}
	.loc 3 291 0
	mov	r3, #0
	strb	r3, [sp, #212]
	b	.L138
.L143:
	.loc 3 295 0
	mov	r0, r0	@ nop
.L138:
.LBB23:
	.loc 3 297 0
	add	r3, sp, #336
	mov	r0, r3
	bl	_ZN11b2TransformC1Ev
	add	r3, sp, #320
	mov	r0, r3
	bl	_ZN11b2TransformC1Ev
	.loc 3 298 0
	add	r2, sp, #252
	add	r3, sp, #336
	mov	r0, r2
	mov	r1, r3
	ldr	r2, [sp, #392]	@ float
	bl	_ZNK7b2Sweep12GetTransformEP11b2Transformf
	.loc 3 299 0
	add	r2, sp, #216
	add	r3, sp, #320
	mov	r0, r2
	mov	r1, r3
	ldr	r2, [sp, #392]	@ float
	bl	_ZNK7b2Sweep12GetTransformEP11b2Transformf
	.loc 3 303 0
	add	ip, sp, #180
	add	r3, sp, #336
	ldmia	r3, {r0, r1, r2, r3}
	stmia	ip, {r0, r1, r2, r3}
	.loc 3 304 0
	add	ip, sp, #196
	add	r3, sp, #320
	ldmia	r3, {r0, r1, r2, r3}
	stmia	ip, {r0, r1, r2, r3}
	.loc 3 305 0
	add	r3, sp, #296
	mov	r0, r3
	bl	_ZN16b2DistanceOutputC1Ev
	.loc 3 306 0
	add	r1, sp, #296
	add	r2, sp, #352
	add	r3, sp, #124
	mov	r0, r1
	mov	r1, r2
	mov	r2, r3
	bl	_Z10b2DistanceP16b2DistanceOutputP14b2SimplexCachePK15b2DistanceInput
	.loc 3 309 0
	flds	s15, [sp, #312]
	fcmpezs	s15
	fmstat
	movhi	r3, #0
	movls	r3, #1
	and	r3, r3, #255
	cmp	r3, #0
	beq	.L118
	.loc 3 312 0
	ldr	r3, [sp, #20]
	mov	r2, #2
	str	r2, [r3, #0]
	.loc 3 313 0
	ldr	r3, [sp, #20]
	flds	s15, .L144+8
	fsts	s15, [r3, #4]
	.loc 3 314 0
	b	.L119
.L118:
	.loc 3 317 0
	flds	s14, [sp, #312]
	flds	s13, [sp, #384]
	flds	s15, [sp, #388]
	fadds	s15, s13, s15
	fcmpes	s14, s15
	fmstat
	movpl	r3, #0
	movmi	r3, #1
	and	r3, r3, #255
	cmp	r3, #0
	beq	.L120
	.loc 3 320 0
	ldr	r3, [sp, #20]
	mov	r2, #3
	str	r2, [r3, #0]
	.loc 3 321 0
	ldr	r3, [sp, #20]
	flds	s15, [sp, #392]
	fsts	s15, [r3, #4]
	.loc 3 322 0
	b	.L119
.L120:
	.loc 3 326 0
	add	r3, sp, #24
	mov	r0, r3
	bl	_ZN20b2SeparationFunctionC1Ev
	.loc 3 327 0
	add	r1, sp, #24
	add	r2, sp, #352
	add	r3, sp, #252
	ldr	r0, [sp, #372]
	str	r0, [sp, #0]
	add	r0, sp, #216
	str	r0, [sp, #4]
	flds	s15, [sp, #392]
	fsts	s15, [sp, #8]
	mov	r0, r1
	mov	r1, r2
	ldr	r2, [sp, #368]
	bl	_ZN20b2SeparationFunction10InitializeEPK14b2SimplexCachePK15b2DistanceProxyRK7b2SweepS5_S8_f
	.loc 3 356 0
	mov	r3, #0
	strb	r3, [sp, #411]
	.loc 3 357 0
	flds	s15, [sp, #376]
	fsts	s15, [sp, #412]
	.loc 3 358 0
	mov	r3, #0
	str	r3, [sp, #416]
	b	.L135
.L141:
	.loc 3 359 0
	mov	r0, r0	@ nop
.L135:
.LBB24:
	.loc 3 363 0
	add	r1, sp, #24
	add	r2, sp, #292
	add	r3, sp, #288
	mov	r0, r1
	mov	r1, r2
	mov	r2, r3
	ldr	r3, [sp, #412]	@ float
	bl	_ZNK20b2SeparationFunction17FindMinSeparationEPiS0_f
	mov	r3, r0	@ float
	str	r3, [sp, #420]	@ float
	.loc 3 366 0
	flds	s14, [sp, #384]
	flds	s15, [sp, #388]
	fadds	s14, s14, s15
	flds	s15, [sp, #420]
	fcmpes	s14, s15
	fmstat
	movpl	r3, #0
	movmi	r3, #1
	and	r3, r3, #255
	cmp	r3, #0
	beq	.L121
	.loc 3 369 0
	ldr	r3, [sp, #20]
	mov	r2, #4
	str	r2, [r3, #0]
	.loc 3 370 0
	ldr	r3, [sp, #20]
	flds	s15, [sp, #376]
	fsts	s15, [r3, #4]
	.loc 3 371 0
	mov	r3, #1
	strb	r3, [sp, #411]
	.loc 3 372 0
	b	.L122
.L121:
	.loc 3 376 0
	flds	s14, [sp, #384]
	flds	s15, [sp, #388]
	fsubs	s14, s14, s15
	flds	s15, [sp, #420]
	fcmpes	s14, s15
	fmstat
	movpl	r3, #0
	movmi	r3, #1
	and	r3, r3, #255
	cmp	r3, #0
	beq	.L123
	.loc 3 379 0
	flds	s15, [sp, #412]
	fsts	s15, [sp, #392]
	.loc 3 380 0
	b	.L122
.L123:
	.loc 3 384 0
	ldr	r2, [sp, #292]
	ldr	r3, [sp, #288]
	add	r1, sp, #24
	mov	r0, r1
	mov	r1, r2
	mov	r2, r3
	ldr	r3, [sp, #392]	@ float
	bl	_ZNK20b2SeparationFunction8EvaluateEiif
	mov	r3, r0	@ float
	str	r3, [sp, #424]	@ float
	.loc 3 388 0
	flds	s14, [sp, #384]
	flds	s15, [sp, #388]
	fsubs	s14, s14, s15
	flds	s15, [sp, #424]
	fcmpes	s14, s15
	fmstat
	movle	r3, #0
	movgt	r3, #1
	and	r3, r3, #255
	cmp	r3, #0
	beq	.L124
	.loc 3 390 0
	ldr	r3, [sp, #20]
	mov	r2, #1
	str	r2, [r3, #0]
	.loc 3 391 0
	ldr	r3, [sp, #20]
	flds	s15, [sp, #392]
	fsts	s15, [r3, #4]
	.loc 3 392 0
	mov	r3, #1
	strb	r3, [sp, #411]
	.loc 3 393 0
	b	.L122
.L124:
	.loc 3 397 0
	flds	s14, [sp, #384]
	flds	s15, [sp, #388]
	fadds	s14, s14, s15
	flds	s15, [sp, #424]
	fcmpes	s14, s15
	fmstat
	movlt	r3, #0
	movge	r3, #1
	and	r3, r3, #255
	cmp	r3, #0
	beq	.L125
	.loc 3 400 0
	ldr	r3, [sp, #20]
	mov	r2, #3
	str	r2, [r3, #0]
	.loc 3 401 0
	ldr	r3, [sp, #20]
	flds	s15, [sp, #392]
	fsts	s15, [r3, #4]
	.loc 3 402 0
	mov	r3, #1
	strb	r3, [sp, #411]
	.loc 3 403 0
	b	.L122
.L145:
	.align	2
.L144:
	.word	1014350479
	.word	983815946
	.word	0
	.word	b2_toiCalls
	.word	1000593162
	.word	.LC2
	.word	279
	.word	.LC5
	.word	b2_toiRootIters
	.word	b2_toiMaxRootIters
	.word	b2_toiIters
	.word	b2_toiMaxIters
	.word	b2_toiMaxTime
	.word	b2_toiTime
	.word	1056964608
.L125:
	.loc 3 407 0
	mov	r3, #0
	str	r3, [sp, #428]
	.loc 3 408 0
	flds	s15, [sp, #392]
	fsts	s15, [sp, #432]
	flds	s15, [sp, #412]
	fsts	s15, [sp, #436]
	b	.L133
.L140:
	.loc 3 409 0
	mov	r0, r0	@ nop
.L133:
.LBB25:
	.loc 3 413 0
	ldr	r3, [sp, #428]
	and	r3, r3, #1
	and	r3, r3, #255
	cmp	r3, #0
	beq	.L126
	.loc 3 416 0
	flds	s14, [sp, #384]
	flds	s15, [sp, #424]
	fsubs	s14, s14, s15
	flds	s13, [sp, #436]
	flds	s15, [sp, #432]
	fsubs	s15, s13, s15
	fmuls	s15, s14, s15
	flds	s13, [sp, #420]
	flds	s14, [sp, #424]
	fsubs	s14, s13, s14
	fdivs	s15, s15, s14
	flds	s14, [sp, #432]
	fadds	s15, s15, s14
	fsts	s15, [sp, #440]
	b	.L127
.L126:
	.loc 3 421 0
	flds	s14, [sp, #432]
	flds	s15, [sp, #436]
	fadds	s14, s14, s15
	flds	s15, .L144+56
	fmuls	s15, s14, s15
	fsts	s15, [sp, #440]
.L127:
	.loc 3 424 0
	ldr	r3, [sp, #428]
	add	r3, r3, #1
	str	r3, [sp, #428]
	.loc 3 425 0
	ldr	r3, .L144+32
	ldr	r3, [r3, #0]
	add	r2, r3, #1
	ldr	r3, .L144+32
	str	r2, [r3, #0]
	.loc 3 427 0
	ldr	r2, [sp, #292]
	ldr	r3, [sp, #288]
	add	r1, sp, #24
	mov	r0, r1
	mov	r1, r2
	mov	r2, r3
	ldr	r3, [sp, #440]	@ float
	bl	_ZNK20b2SeparationFunction8EvaluateEiif
	mov	r3, r0	@ float
	str	r3, [sp, #444]	@ float
	.loc 3 429 0
	flds	s14, [sp, #444]
	flds	s15, [sp, #384]
	fsubs	s15, s14, s15
	fmrs	r0, s15
	bl	_Z5b2AbsIfET_S0_
	fmsr	s14, r0
	flds	s15, [sp, #388]
	fcmpes	s14, s15
	fmstat
	movpl	r3, #0
	movmi	r3, #1
	and	r3, r3, #255
	cmp	r3, #0
	beq	.L128
	.loc 3 432 0
	flds	s15, [sp, #440]
	fsts	s15, [sp, #412]
	.loc 3 433 0
	b	.L129
.L128:
	.loc 3 437 0
	flds	s14, [sp, #444]
	flds	s15, [sp, #384]
	fcmpes	s14, s15
	fmstat
	movle	r3, #0
	movgt	r3, #1
	and	r3, r3, #255
	cmp	r3, #0
	beq	.L130
	.loc 3 439 0
	flds	s15, [sp, #440]
	fsts	s15, [sp, #432]
	.loc 3 440 0
	flds	s15, [sp, #444]
	fsts	s15, [sp, #424]
	b	.L131
.L130:
	.loc 3 444 0
	flds	s15, [sp, #440]
	fsts	s15, [sp, #436]
	.loc 3 445 0
	flds	s15, [sp, #444]
	fsts	s15, [sp, #420]
.L131:
	.loc 3 448 0
	ldr	r3, [sp, #428]
	cmp	r3, #50
	bne	.L140
	.loc 3 450 0
	mov	r0, r0	@ nop
.L129:
.LBE25:
	.loc 3 454 0
	ldr	r3, .L144+36
	ldr	r3, [r3, #0]
	mov	r0, r3
	ldr	r1, [sp, #428]
	bl	_Z5b2MaxIiET_S0_S0_
	mov	r2, r0
	ldr	r3, .L144+36
	str	r2, [r3, #0]
	.loc 3 456 0
	ldr	r3, [sp, #416]
	add	r3, r3, #1
	str	r3, [sp, #416]
	.loc 3 458 0
	ldr	r3, [sp, #416]
	cmp	r3, #8
	bne	.L141
	.loc 3 460 0
	mov	r0, r0	@ nop
.L122:
.LBE24:
	.loc 3 464 0
	ldr	r3, [sp, #400]
	add	r3, r3, #1
	str	r3, [sp, #400]
	.loc 3 465 0
	ldr	r3, .L144+40
	ldr	r3, [r3, #0]
	add	r2, r3, #1
	ldr	r3, .L144+40
	str	r2, [r3, #0]
	.loc 3 467 0
	ldrb	r3, [sp, #411]	@ zero_extendqisi2
	cmp	r3, #0
	bne	.L142
.L136:
	.loc 3 472 0
	ldr	r3, [sp, #400]
	cmp	r3, #20
	bne	.L143
	.loc 3 475 0
	ldr	r3, [sp, #20]
	mov	r2, #1
	str	r2, [r3, #0]
	.loc 3 476 0
	ldr	r3, [sp, #20]
	flds	s15, [sp, #392]
	fsts	s15, [r3, #4]
	.loc 3 477 0
	b	.L119
.L142:
	.loc 3 469 0
	mov	r0, r0	@ nop
.L119:
.LBE23:
	.loc 3 481 0
	ldr	r3, .L144+44
	ldr	r3, [r3, #0]
	mov	r0, r3
	ldr	r1, [sp, #400]
	bl	_Z5b2MaxIiET_S0_S0_
	mov	r2, r0
	ldr	r3, .L144+44
	str	r2, [r3, #0]
	.loc 3 483 0
	add	r3, sp, #364
	mov	r0, r3
	bl	_ZNK7b2Timer15GetMillisecondsEv
	mov	r3, r0	@ float
	str	r3, [sp, #404]	@ float
	.loc 3 484 0
	ldr	r3, .L144+48
	ldr	r3, [r3, #0]	@ float
	mov	r0, r3	@ float
	ldr	r1, [sp, #404]	@ float
	bl	_Z5b2MaxIfET_S0_S0_
	mov	r2, r0	@ float
	ldr	r3, .L144+48
	str	r2, [r3, #0]	@ float
	.loc 3 485 0
	ldr	r3, .L144+52
	flds	s14, [r3, #0]
	flds	s15, [sp, #404]
	fadds	s15, s14, s15
	ldr	r3, .L144+52
	fsts	s15, [r3, #0]
.LBE22:
	.loc 3 486 0
	add	sp, sp, #452
	ldmfd	sp!, {pc}
	.cfi_endproc
.LFE156:
	.size	_Z14b2TimeOfImpactP11b2TOIOutputPK10b2TOIInput, .-_Z14b2TimeOfImpactP11b2TOIOutputPK10b2TOIInput
	.section	.text._Z5b2AbsIfET_S0_,"axG",%progbits,_Z5b2AbsIfET_S0_,comdat
	.align	2
	.weak	_Z5b2AbsIfET_S0_
	.hidden	_Z5b2AbsIfET_S0_
	.type	_Z5b2AbsIfET_S0_, %function
_Z5b2AbsIfET_S0_:
.LFB169:
	.loc 1 616 0
	.cfi_startproc
	@ args = 0, pretend = 0, frame = 8
	@ frame_needed = 0, uses_anonymous_args = 0
	@ link register save eliminated.
	sub	sp, sp, #8
.LCFI56:
	.cfi_def_cfa_offset 8
	str	r0, [sp, #4]	@ float
	.loc 1 618 0
	flds	s15, [sp, #4]
	fcmpezs	s15
	fmstat
	movle	r3, #0
	movgt	r3, #1
	and	r3, r3, #255
	cmp	r3, #0
	beq	.L147
	flds	s15, [sp, #4]
	b	.L148
.L147:
	flds	s15, [sp, #4]
	fnegs	s15, s15
.L148:
	fmrs	r3, s15
	.loc 1 619 0
	mov	r0, r3	@ float
	add	sp, sp, #8
	bx	lr
	.cfi_endproc
.LFE169:
	.size	_Z5b2AbsIfET_S0_, .-_Z5b2AbsIfET_S0_
	.section	.text._Z5b2MaxIfET_S0_S0_,"axG",%progbits,_Z5b2MaxIfET_S0_S0_,comdat
	.align	2
	.weak	_Z5b2MaxIfET_S0_S0_
	.hidden	_Z5b2MaxIfET_S0_S0_
	.type	_Z5b2MaxIfET_S0_S0_, %function
_Z5b2MaxIfET_S0_S0_:
.LFB171:
	.loc 1 643 0
	.cfi_startproc
	@ args = 0, pretend = 0, frame = 8
	@ frame_needed = 0, uses_anonymous_args = 0
	@ link register save eliminated.
	sub	sp, sp, #8
.LCFI57:
	.cfi_def_cfa_offset 8
	str	r0, [sp, #4]	@ float
	str	r1, [sp, #0]	@ float
	.loc 1 645 0
	flds	s14, [sp, #4]
	flds	s15, [sp, #0]
	fcmpes	s14, s15
	fmstat
	movle	r3, #0
	movgt	r3, #1
	and	r3, r3, #255
	cmp	r3, #0
	beq	.L151
	flds	s15, [sp, #4]
	b	.L152
.L151:
	flds	s15, [sp, #0]
.L152:
	fmrs	r3, s15
	.loc 1 646 0
	mov	r0, r3	@ float
	add	sp, sp, #8
	bx	lr
	.cfi_endproc
.LFE171:
	.size	_Z5b2MaxIfET_S0_S0_, .-_Z5b2MaxIfET_S0_S0_
	.section	.text._Z5b2MaxIiET_S0_S0_,"axG",%progbits,_Z5b2MaxIiET_S0_S0_,comdat
	.align	2
	.weak	_Z5b2MaxIiET_S0_S0_
	.hidden	_Z5b2MaxIiET_S0_S0_
	.type	_Z5b2MaxIiET_S0_S0_, %function
_Z5b2MaxIiET_S0_S0_:
.LFB172:
	.loc 1 643 0
	.cfi_startproc
	@ args = 0, pretend = 0, frame = 8
	@ frame_needed = 0, uses_anonymous_args = 0
	@ link register save eliminated.
	sub	sp, sp, #8
.LCFI58:
	.cfi_def_cfa_offset 8
	str	r0, [sp, #4]
	str	r1, [sp, #0]
	.loc 1 645 0
	ldr	r2, [sp, #4]
	ldr	r3, [sp, #0]
	cmp	r2, r3
	ble	.L155
	ldr	r3, [sp, #4]
	b	.L156
.L155:
	ldr	r3, [sp, #0]
.L156:
	.loc 1 646 0
	mov	r0, r3
	add	sp, sp, #8
	bx	lr
	.cfi_endproc
.LFE172:
	.size	_Z5b2MaxIiET_S0_S0_, .-_Z5b2MaxIiET_S0_S0_
	.section	.rodata
	.type	_ZL14b2_nullFeature, %object
	.size	_ZL14b2_nullFeature, 1
_ZL14b2_nullFeature:
	.byte	-1
	.align	2
	.type	_ZL12b2_chunkSize, %object
	.size	_ZL12b2_chunkSize, 4
_ZL12b2_chunkSize:
	.word	16384
	.align	2
	.type	_ZL15b2_maxBlockSize, %object
	.size	_ZL15b2_maxBlockSize, 4
_ZL15b2_maxBlockSize:
	.word	640
	.align	2
	.type	_ZL13b2_blockSizes, %object
	.size	_ZL13b2_blockSizes, 4
_ZL13b2_blockSizes:
	.word	14
	.align	2
	.type	_ZL22b2_chunkArrayIncrement, %object
	.size	_ZL22b2_chunkArrayIncrement, 4
_ZL22b2_chunkArrayIncrement:
	.word	128
	.text
.Letext0: