	.arch armv5te
	.eabi_attribute 27, 3
	.fpu vfp
	.eabi_attribute 20, 1
	.eabi_attribute 21, 1
	.eabi_attribute 23, 3
	.eabi_attribute 24, 1
	.eabi_attribute 25, 1
	.eabi_attribute 26, 2
	.eabi_attribute 30, 6
	.eabi_attribute 18, 2
	.file	"b2WeldJoint.cpp"
	.text
.Ltext0:
	.cfi_sections	.debug_frame
	.section	.text._ZN6b2Vec2C1Ev,"axG",%progbits,_ZN6b2Vec2C1Ev,comdat
	.align	2
	.weak	_ZN6b2Vec2C1Ev
	.hidden	_ZN6b2Vec2C1Ev
	.type	_ZN6b2Vec2C1Ev, %function
_ZN6b2Vec2C1Ev:
.LFB4:
	.file 1 "v:/gigglingbits/box2d/Box2D/Common/b2Math.h"
	.loc 1 56 0
	.cfi_startproc
	@ args = 0, pretend = 0, frame = 8
	@ frame_needed = 0, uses_anonymous_args = 0
	@ link register save eliminated.
	sub	sp, sp, #8
.LCFI0:
	.cfi_def_cfa_offset 8
	str	r0, [sp, #4]
	.loc 1 56 0
	ldr	r3, [sp, #4]
	mov	r0, r3
	add	sp, sp, #8
	bx	lr
	.cfi_endproc
.LFE4:
	.size	_ZN6b2Vec2C1Ev, .-_ZN6b2Vec2C1Ev
	.section	.text._ZN6b2Vec2C1Eff,"axG",%progbits,_ZN6b2Vec2C1Eff,comdat
	.align	2
	.weak	_ZN6b2Vec2C1Eff
	.hidden	_ZN6b2Vec2C1Eff
	.type	_ZN6b2Vec2C1Eff, %function
_ZN6b2Vec2C1Eff:
.LFB7:
	.loc 1 59 0
	.cfi_startproc
	@ args = 0, pretend = 0, frame = 16
	@ frame_needed = 0, uses_anonymous_args = 0
	@ link register save eliminated.
	sub	sp, sp, #16
.LCFI1:
	.cfi_def_cfa_offset 16
	str	r0, [sp, #12]
	str	r1, [sp, #8]	@ float
	str	r2, [sp, #4]	@ float
	.loc 1 59 0
	ldr	r3, [sp, #12]
	flds	s15, [sp, #8]
	fsts	s15, [r3, #0]
	ldr	r3, [sp, #12]
	flds	s15, [sp, #4]
	fsts	s15, [r3, #4]
	ldr	r3, [sp, #12]
	mov	r0, r3
	add	sp, sp, #16
	bx	lr
	.cfi_endproc
.LFE7:
	.size	_ZN6b2Vec2C1Eff, .-_ZN6b2Vec2C1Eff
	.section	.text._ZN6b2Vec23SetEff,"axG",%progbits,_ZN6b2Vec23SetEff,comdat
	.align	2
	.weak	_ZN6b2Vec23SetEff
	.hidden	_ZN6b2Vec23SetEff
	.type	_ZN6b2Vec23SetEff, %function
_ZN6b2Vec23SetEff:
.LFB9:
	.loc 1 65 0
	.cfi_startproc
	@ args = 0, pretend = 0, frame = 16
	@ frame_needed = 0, uses_anonymous_args = 0
	@ link register save eliminated.
	sub	sp, sp, #16
.LCFI2:
	.cfi_def_cfa_offset 16
	str	r0, [sp, #12]
	str	r1, [sp, #8]	@ float
	str	r2, [sp, #4]	@ float
	.loc 1 65 0
	ldr	r3, [sp, #12]
	flds	s15, [sp, #8]
	fsts	s15, [r3, #0]
	ldr	r3, [sp, #12]
	flds	s15, [sp, #4]
	fsts	s15, [r3, #4]
	add	sp, sp, #16
	bx	lr
	.cfi_endproc
.LFE9:
	.size	_ZN6b2Vec23SetEff, .-_ZN6b2Vec23SetEff
	.section	.text._ZNK6b2Vec2ngEv,"axG",%progbits,_ZNK6b2Vec2ngEv,comdat
	.align	2
	.weak	_ZNK6b2Vec2ngEv
	.hidden	_ZNK6b2Vec2ngEv
	.type	_ZNK6b2Vec2ngEv, %function
_ZNK6b2Vec2ngEv:
.LFB10:
	.loc 1 68 0
	.cfi_startproc
	@ args = 0, pretend = 0, frame = 16
	@ frame_needed = 0, uses_anonymous_args = 0
	stmfd	sp!, {r4, lr}
.LCFI3:
	.cfi_def_cfa_offset 8
	sub	sp, sp, #16
.LCFI4:
	.cfi_def_cfa_offset 24
	mov	r4, r0
	.cfi_offset 14, -4
	.cfi_offset 4, -8
	str	r1, [sp, #4]
.LBB2:
	.loc 1 68 0
	mov	r0, r4
	bl	_ZN6b2Vec2C1Ev
	ldr	r3, [sp, #4]
	flds	s15, [r3, #0]
	fnegs	s14, s15
	ldr	r3, [sp, #4]
	flds	s15, [r3, #4]
	fnegs	s15, s15
	mov	r0, r4
	fmrs	r1, s14
	fmrs	r2, s15
	bl	_ZN6b2Vec23SetEff
.LBE2:
	mov	r0, r4
	add	sp, sp, #16
	ldmfd	sp!, {r4, pc}
	.cfi_endproc
.LFE10:
	.size	_ZNK6b2Vec2ngEv, .-_ZNK6b2Vec2ngEv
	.section	.text._ZN6b2Vec2pLERKS_,"axG",%progbits,_ZN6b2Vec2pLERKS_,comdat
	.align	2
	.weak	_ZN6b2Vec2pLERKS_
	.hidden	_ZN6b2Vec2pLERKS_
	.type	_ZN6b2Vec2pLERKS_, %function
_ZN6b2Vec2pLERKS_:
.LFB13:
	.loc 1 83 0
	.cfi_startproc
	@ args = 0, pretend = 0, frame = 8
	@ frame_needed = 0, uses_anonymous_args = 0
	@ link register save eliminated.
	sub	sp, sp, #8
.LCFI5:
	.cfi_def_cfa_offset 8
	str	r0, [sp, #4]
	str	r1, [sp, #0]
	.loc 1 85 0
	ldr	r3, [sp, #4]
	flds	s14, [r3, #0]
	ldr	r3, [sp, #0]
	flds	s15, [r3, #0]
	fadds	s15, s14, s15
	ldr	r3, [sp, #4]
	fsts	s15, [r3, #0]
	ldr	r3, [sp, #4]
	flds	s14, [r3, #4]
	ldr	r3, [sp, #0]
	flds	s15, [r3, #4]
	fadds	s15, s14, s15
	ldr	r3, [sp, #4]
	fsts	s15, [r3, #4]
	.loc 1 86 0
	add	sp, sp, #8
	bx	lr
	.cfi_endproc
.LFE13:
	.size	_ZN6b2Vec2pLERKS_, .-_ZN6b2Vec2pLERKS_
	.section	.text._ZN6b2Vec2mIERKS_,"axG",%progbits,_ZN6b2Vec2mIERKS_,comdat
	.align	2
	.weak	_ZN6b2Vec2mIERKS_
	.hidden	_ZN6b2Vec2mIERKS_
	.type	_ZN6b2Vec2mIERKS_, %function
_ZN6b2Vec2mIERKS_:
.LFB14:
	.loc 1 89 0
	.cfi_startproc
	@ args = 0, pretend = 0, frame = 8
	@ frame_needed = 0, uses_anonymous_args = 0
	@ link register save eliminated.
	sub	sp, sp, #8
.LCFI6:
	.cfi_def_cfa_offset 8
	str	r0, [sp, #4]
	str	r1, [sp, #0]
	.loc 1 91 0
	ldr	r3, [sp, #4]
	flds	s14, [r3, #0]
	ldr	r3, [sp, #0]
	flds	s15, [r3, #0]
	fsubs	s15, s14, s15
	ldr	r3, [sp, #4]
	fsts	s15, [r3, #0]
	ldr	r3, [sp, #4]
	flds	s14, [r3, #4]
	ldr	r3, [sp, #0]
	flds	s15, [r3, #4]
	fsubs	s15, s14, s15
	ldr	r3, [sp, #4]
	fsts	s15, [r3, #4]
	.loc 1 92 0
	add	sp, sp, #8
	bx	lr
	.cfi_endproc
.LFE14:
	.size	_ZN6b2Vec2mIERKS_, .-_ZN6b2Vec2mIERKS_
	.section	.text._ZNK6b2Vec26LengthEv,"axG",%progbits,_ZNK6b2Vec26LengthEv,comdat
	.align	2
	.weak	_ZNK6b2Vec26LengthEv
	.hidden	_ZNK6b2Vec26LengthEv
	.type	_ZNK6b2Vec26LengthEv, %function
_ZNK6b2Vec26LengthEv:
.LFB16:
	.loc 1 101 0
	.cfi_startproc
	@ args = 0, pretend = 0, frame = 8
	@ frame_needed = 0, uses_anonymous_args = 0
	str	lr, [sp, #-4]!
.LCFI7:
	.cfi_def_cfa_offset 4
	sub	sp, sp, #12
.LCFI8:
	.cfi_def_cfa_offset 16
	str	r0, [sp, #4]
	.loc 1 103 0
	ldr	r3, [sp, #4]
	flds	s14, [r3, #0]
	ldr	r3, [sp, #4]
	flds	s15, [r3, #0]
	fmuls	s14, s14, s15
	ldr	r3, [sp, #4]
	flds	s13, [r3, #4]
	ldr	r3, [sp, #4]
	flds	s15, [r3, #4]
	fmuls	s15, s13, s15
	fadds	s14, s14, s15
	fsqrts	s15, s14
	fcmps	s15, s15
	fmstat
	beq	.L16
	.cfi_offset 14, -4
	fmrs	r0, s14
	bl	sqrtf
	fmsr	s15, r0
.L16:
	fmrs	r3, s15
	.loc 1 104 0
	mov	r0, r3	@ float
	add	sp, sp, #12
	ldmfd	sp!, {pc}
	.cfi_endproc
.LFE16:
	.size	_ZNK6b2Vec26LengthEv, .-_ZNK6b2Vec26LengthEv
	.section	.text._ZN6b2Vec3C1Ev,"axG",%progbits,_ZN6b2Vec3C1Ev,comdat
	.align	2
	.weak	_ZN6b2Vec3C1Ev
	.hidden	_ZN6b2Vec3C1Ev
	.type	_ZN6b2Vec3C1Ev, %function
_ZN6b2Vec3C1Ev:
.LFB23:
	.loc 1 147 0
	.cfi_startproc
	@ args = 0, pretend = 0, frame = 8
	@ frame_needed = 0, uses_anonymous_args = 0
	@ link register save eliminated.
	sub	sp, sp, #8
.LCFI9:
	.cfi_def_cfa_offset 8
	str	r0, [sp, #4]
	.loc 1 147 0
	ldr	r3, [sp, #4]
	mov	r0, r3
	add	sp, sp, #8
	bx	lr
	.cfi_endproc
.LFE23:
	.size	_ZN6b2Vec3C1Ev, .-_ZN6b2Vec3C1Ev
	.section	.text._ZN6b2Vec3C1Efff,"axG",%progbits,_ZN6b2Vec3C1Efff,comdat
	.align	2
	.weak	_ZN6b2Vec3C1Efff
	.hidden	_ZN6b2Vec3C1Efff
	.type	_ZN6b2Vec3C1Efff, %function
_ZN6b2Vec3C1Efff:
.LFB26:
	.loc 1 150 0
	.cfi_startproc
	@ args = 0, pretend = 0, frame = 16
	@ frame_needed = 0, uses_anonymous_args = 0
	@ link register save eliminated.
	sub	sp, sp, #16
.LCFI10:
	.cfi_def_cfa_offset 16
	str	r0, [sp, #12]
	str	r1, [sp, #8]	@ float
	str	r2, [sp, #4]	@ float
	str	r3, [sp, #0]	@ float
	.loc 1 150 0
	ldr	r3, [sp, #12]
	flds	s15, [sp, #8]
	fsts	s15, [r3, #0]
	ldr	r3, [sp, #12]
	flds	s15, [sp, #4]
	fsts	s15, [r3, #4]
	ldr	r3, [sp, #12]
	flds	s15, [sp, #0]
	fsts	s15, [r3, #8]
	ldr	r3, [sp, #12]
	mov	r0, r3
	add	sp, sp, #16
	bx	lr
	.cfi_endproc
.LFE26:
	.size	_ZN6b2Vec3C1Efff, .-_ZN6b2Vec3C1Efff
	.section	.text._ZN6b2Vec37SetZeroEv,"axG",%progbits,_ZN6b2Vec37SetZeroEv,comdat
	.align	2
	.weak	_ZN6b2Vec37SetZeroEv
	.hidden	_ZN6b2Vec37SetZeroEv
	.type	_ZN6b2Vec37SetZeroEv, %function
_ZN6b2Vec37SetZeroEv:
.LFB27:
	.loc 1 153 0
	.cfi_startproc
	@ args = 0, pretend = 0, frame = 8
	@ frame_needed = 0, uses_anonymous_args = 0
	@ link register save eliminated.
	sub	sp, sp, #8
.LCFI11:
	.cfi_def_cfa_offset 8
	str	r0, [sp, #4]
	.loc 1 153 0
	ldr	r3, [sp, #4]
	flds	s15, .L26
	fsts	s15, [r3, #0]
	ldr	r3, [sp, #4]
	flds	s15, .L26
	fsts	s15, [r3, #4]
	ldr	r3, [sp, #4]
	flds	s15, .L26
	fsts	s15, [r3, #8]
	add	sp, sp, #8
	bx	lr
.L27:
	.align	2
.L26:
	.word	0
	.cfi_endproc
.LFE27:
	.size	_ZN6b2Vec37SetZeroEv, .-_ZN6b2Vec37SetZeroEv
	.section	.text._ZN6b2Vec33SetEfff,"axG",%progbits,_ZN6b2Vec33SetEfff,comdat
	.align	2
	.weak	_ZN6b2Vec33SetEfff
	.hidden	_ZN6b2Vec33SetEfff
	.type	_ZN6b2Vec33SetEfff, %function
_ZN6b2Vec33SetEfff:
.LFB28:
	.loc 1 156 0
	.cfi_startproc
	@ args = 0, pretend = 0, frame = 16
	@ frame_needed = 0, uses_anonymous_args = 0
	@ link register save eliminated.
	sub	sp, sp, #16
.LCFI12:
	.cfi_def_cfa_offset 16
	str	r0, [sp, #12]
	str	r1, [sp, #8]	@ float
	str	r2, [sp, #4]	@ float
	str	r3, [sp, #0]	@ float
	.loc 1 156 0
	ldr	r3, [sp, #12]
	flds	s15, [sp, #8]
	fsts	s15, [r3, #0]
	ldr	r3, [sp, #12]
	flds	s15, [sp, #4]
	fsts	s15, [r3, #4]
	ldr	r3, [sp, #12]
	flds	s15, [sp, #0]
	fsts	s15, [r3, #8]
	add	sp, sp, #16
	bx	lr
	.cfi_endproc
.LFE28:
	.size	_ZN6b2Vec33SetEfff, .-_ZN6b2Vec33SetEfff
	.section	.text._ZNK6b2Vec3ngEv,"axG",%progbits,_ZNK6b2Vec3ngEv,comdat
	.align	2
	.weak	_ZNK6b2Vec3ngEv
	.hidden	_ZNK6b2Vec3ngEv
	.type	_ZNK6b2Vec3ngEv, %function
_ZNK6b2Vec3ngEv:
.LFB29:
	.loc 1 159 0
	.cfi_startproc
	@ args = 0, pretend = 0, frame = 24
	@ frame_needed = 0, uses_anonymous_args = 0
	stmfd	sp!, {r4, lr}
.LCFI13:
	.cfi_def_cfa_offset 8
	sub	sp, sp, #24
.LCFI14:
	.cfi_def_cfa_offset 32
	mov	r4, r0
	.cfi_offset 14, -4
	.cfi_offset 4, -8
	str	r1, [sp, #4]
.LBB3:
	.loc 1 159 0
	mov	r0, r4
	bl	_ZN6b2Vec3C1Ev
	ldr	r3, [sp, #4]
	flds	s15, [r3, #0]
	fnegs	s13, s15
	ldr	r3, [sp, #4]
	flds	s15, [r3, #4]
	fnegs	s14, s15
	ldr	r3, [sp, #4]
	flds	s15, [r3, #8]
	fnegs	s15, s15
	mov	r0, r4
	fmrs	r1, s13
	fmrs	r2, s14
	fmrs	r3, s15
	bl	_ZN6b2Vec33SetEfff
.LBE3:
	mov	r0, r4
	add	sp, sp, #24
	ldmfd	sp!, {r4, pc}
	.cfi_endproc
.LFE29:
	.size	_ZNK6b2Vec3ngEv, .-_ZNK6b2Vec3ngEv
	.section	.text._ZN6b2Vec3pLERKS_,"axG",%progbits,_ZN6b2Vec3pLERKS_,comdat
	.align	2
	.weak	_ZN6b2Vec3pLERKS_
	.hidden	_ZN6b2Vec3pLERKS_
	.type	_ZN6b2Vec3pLERKS_, %function
_ZN6b2Vec3pLERKS_:
.LFB30:
	.loc 1 162 0
	.cfi_startproc
	@ args = 0, pretend = 0, frame = 8
	@ frame_needed = 0, uses_anonymous_args = 0
	@ link register save eliminated.
	sub	sp, sp, #8
.LCFI15:
	.cfi_def_cfa_offset 8
	str	r0, [sp, #4]
	str	r1, [sp, #0]
	.loc 1 164 0
	ldr	r3, [sp, #4]
	flds	s14, [r3, #0]
	ldr	r3, [sp, #0]
	flds	s15, [r3, #0]
	fadds	s15, s14, s15
	ldr	r3, [sp, #4]
	fsts	s15, [r3, #0]
	ldr	r3, [sp, #4]
	flds	s14, [r3, #4]
	ldr	r3, [sp, #0]
	flds	s15, [r3, #4]
	fadds	s15, s14, s15
	ldr	r3, [sp, #4]
	fsts	s15, [r3, #4]
	ldr	r3, [sp, #4]
	flds	s14, [r3, #8]
	ldr	r3, [sp, #0]
	flds	s15, [r3, #8]
	fadds	s15, s14, s15
	ldr	r3, [sp, #4]
	fsts	s15, [r3, #8]
	.loc 1 165 0
	add	sp, sp, #8
	bx	lr
	.cfi_endproc
.LFE30:
	.size	_ZN6b2Vec3pLERKS_, .-_ZN6b2Vec3pLERKS_
	.section	.text._ZN6b2Vec3mLEf,"axG",%progbits,_ZN6b2Vec3mLEf,comdat
	.align	2
	.weak	_ZN6b2Vec3mLEf
	.hidden	_ZN6b2Vec3mLEf
	.type	_ZN6b2Vec3mLEf, %function
_ZN6b2Vec3mLEf:
.LFB32:
	.loc 1 174 0
	.cfi_startproc
	@ args = 0, pretend = 0, frame = 8
	@ frame_needed = 0, uses_anonymous_args = 0
	@ link register save eliminated.
	sub	sp, sp, #8
.LCFI16:
	.cfi_def_cfa_offset 8
	str	r0, [sp, #4]
	str	r1, [sp, #0]	@ float
	.loc 1 176 0
	ldr	r3, [sp, #4]
	flds	s14, [r3, #0]
	flds	s15, [sp, #0]
	fmuls	s15, s14, s15
	ldr	r3, [sp, #4]
	fsts	s15, [r3, #0]
	ldr	r3, [sp, #4]
	flds	s14, [r3, #4]
	flds	s15, [sp, #0]
	fmuls	s15, s14, s15
	ldr	r3, [sp, #4]
	fsts	s15, [r3, #4]
	ldr	r3, [sp, #4]
	flds	s14, [r3, #8]
	flds	s15, [sp, #0]
	fmuls	s15, s14, s15
	ldr	r3, [sp, #4]
	fsts	s15, [r3, #8]
	.loc 1 177 0
	add	sp, sp, #8
	bx	lr
	.cfi_endproc
.LFE32:
	.size	_ZN6b2Vec3mLEf, .-_ZN6b2Vec3mLEf
	.section	.text._ZN7b2Mat33C1Ev,"axG",%progbits,_ZN7b2Mat33C1Ev,comdat
	.align	2
	.weak	_ZN7b2Mat33C1Ev
	.hidden	_ZN7b2Mat33C1Ev
	.type	_ZN7b2Mat33C1Ev, %function
_ZN7b2Mat33C1Ev:
.LFB49:
	.loc 1 260 0
	.cfi_startproc
	@ args = 0, pretend = 0, frame = 8
	@ frame_needed = 0, uses_anonymous_args = 0
	str	lr, [sp, #-4]!
.LCFI17:
	.cfi_def_cfa_offset 4
	sub	sp, sp, #12
.LCFI18:
	.cfi_def_cfa_offset 16
	str	r0, [sp, #4]
	.loc 1 260 0
	ldr	r3, [sp, #4]
	mov	r0, r3
	.cfi_offset 14, -4
	bl	_ZN6b2Vec3C1Ev
	ldr	r3, [sp, #4]
	add	r3, r3, #12
	mov	r0, r3
	bl	_ZN6b2Vec3C1Ev
	ldr	r3, [sp, #4]
	add	r3, r3, #24
	mov	r0, r3
	bl	_ZN6b2Vec3C1Ev
	ldr	r3, [sp, #4]
	mov	r0, r3
	add	sp, sp, #12
	ldmfd	sp!, {pc}
	.cfi_endproc
.LFE49:
	.size	_ZN7b2Mat33C1Ev, .-_ZN7b2Mat33C1Ev
	.section	.text._ZN5b2RotC1Ef,"axG",%progbits,_ZN5b2RotC1Ef,comdat
	.align	2
	.weak	_ZN5b2RotC1Ef
	.hidden	_ZN5b2RotC1Ef
	.type	_ZN5b2RotC1Ef, %function
_ZN5b2RotC1Ef:
.LFB59:
	.loc 1 304 0
	.cfi_startproc
	@ args = 0, pretend = 0, frame = 8
	@ frame_needed = 0, uses_anonymous_args = 0
	str	lr, [sp, #-4]!
.LCFI19:
	.cfi_def_cfa_offset 4
	sub	sp, sp, #12
.LCFI20:
	.cfi_def_cfa_offset 16
	str	r0, [sp, #4]
	str	r1, [sp, #0]	@ float
	.loc 1 307 0
	ldr	r0, [sp, #0]	@ float
	.cfi_offset 14, -4
	bl	sinf
	mov	r2, r0	@ float
	ldr	r3, [sp, #4]
	str	r2, [r3, #0]	@ float
	.loc 1 308 0
	ldr	r0, [sp, #0]	@ float
	bl	cosf
	mov	r2, r0	@ float
	ldr	r3, [sp, #4]
	str	r2, [r3, #4]	@ float
	.loc 1 309 0
	ldr	r3, [sp, #4]
	mov	r0, r3
	add	sp, sp, #12
	ldmfd	sp!, {pc}
	.cfi_endproc
.LFE59:
	.size	_ZN5b2RotC1Ef, .-_ZN5b2RotC1Ef
	.section	.text._Z7b2CrossRK6b2Vec2S1_,"axG",%progbits,_Z7b2CrossRK6b2Vec2S1_,comdat
	.align	2
	.weak	_Z7b2CrossRK6b2Vec2S1_
	.hidden	_Z7b2CrossRK6b2Vec2S1_
	.type	_Z7b2CrossRK6b2Vec2S1_, %function
_Z7b2CrossRK6b2Vec2S1_:
.LFB74:
	.loc 1 413 0
	.cfi_startproc
	@ args = 0, pretend = 0, frame = 8
	@ frame_needed = 0, uses_anonymous_args = 0
	@ link register save eliminated.
	sub	sp, sp, #8
.LCFI21:
	.cfi_def_cfa_offset 8
	str	r0, [sp, #4]
	str	r1, [sp, #0]
	.loc 1 414 0
	ldr	r3, [sp, #4]
	flds	s14, [r3, #0]
	ldr	r3, [sp, #0]
	flds	s15, [r3, #4]
	fmuls	s14, s14, s15
	ldr	r3, [sp, #4]
	flds	s13, [r3, #4]
	ldr	r3, [sp, #0]
	flds	s15, [r3, #0]
	fmuls	s15, s13, s15
	fsubs	s15, s14, s15
	fmrs	r3, s15
	.loc 1 415 0
	mov	r0, r3	@ float
	add	sp, sp, #8
	bx	lr
	.cfi_endproc
.LFE74:
	.size	_Z7b2CrossRK6b2Vec2S1_, .-_Z7b2CrossRK6b2Vec2S1_
	.section	.text._Z7b2CrossfRK6b2Vec2,"axG",%progbits,_Z7b2CrossfRK6b2Vec2,comdat
	.align	2
	.weak	_Z7b2CrossfRK6b2Vec2
	.hidden	_Z7b2CrossfRK6b2Vec2
	.type	_Z7b2CrossfRK6b2Vec2, %function
_Z7b2CrossfRK6b2Vec2:
.LFB76:
	.loc 1 427 0
	.cfi_startproc
	@ args = 0, pretend = 0, frame = 8
	@ frame_needed = 0, uses_anonymous_args = 0
	stmfd	sp!, {r4, lr}
.LCFI22:
	.cfi_def_cfa_offset 8
	sub	sp, sp, #8
.LCFI23:
	.cfi_def_cfa_offset 16
	mov	r4, r0
	.cfi_offset 14, -4
	.cfi_offset 4, -8
	str	r1, [sp, #4]	@ float
	str	r2, [sp, #0]
	.loc 1 428 0
	flds	s15, [sp, #4]
	fnegs	s14, s15
	ldr	r3, [sp, #0]
	flds	s15, [r3, #4]
	fmuls	s14, s14, s15
	ldr	r3, [sp, #0]
	flds	s13, [r3, #0]
	flds	s15, [sp, #4]
	fmuls	s15, s13, s15
	mov	r0, r4
	fmrs	r1, s14
	fmrs	r2, s15
	bl	_ZN6b2Vec2C1Eff
	.loc 1 429 0
	mov	r0, r4
	add	sp, sp, #8
	ldmfd	sp!, {r4, pc}
	.cfi_endproc
.LFE76:
	.size	_Z7b2CrossfRK6b2Vec2, .-_Z7b2CrossfRK6b2Vec2
	.section	.text._ZplRK6b2Vec2S1_,"axG",%progbits,_ZplRK6b2Vec2S1_,comdat
	.align	2
	.weak	_ZplRK6b2Vec2S1_
	.hidden	_ZplRK6b2Vec2S1_
	.type	_ZplRK6b2Vec2S1_, %function
_ZplRK6b2Vec2S1_:
.LFB79:
	.loc 1 447 0
	.cfi_startproc
	@ args = 0, pretend = 0, frame = 8
	@ frame_needed = 0, uses_anonymous_args = 0
	stmfd	sp!, {r4, lr}
.LCFI24:
	.cfi_def_cfa_offset 8
	sub	sp, sp, #8
.LCFI25:
	.cfi_def_cfa_offset 16
	mov	r4, r0
	.cfi_offset 14, -4
	.cfi_offset 4, -8
	str	r1, [sp, #4]
	str	r2, [sp, #0]
	.loc 1 448 0
	ldr	r3, [sp, #4]
	flds	s14, [r3, #0]
	ldr	r3, [sp, #0]
	flds	s15, [r3, #0]
	fadds	s13, s14, s15
	ldr	r3, [sp, #4]
	flds	s14, [r3, #4]
	ldr	r3, [sp, #0]
	flds	s15, [r3, #4]
	fadds	s15, s14, s15
	mov	r0, r4
	fmrs	r1, s13
	fmrs	r2, s15
	bl	_ZN6b2Vec2C1Eff
	.loc 1 449 0
	mov	r0, r4
	add	sp, sp, #8
	ldmfd	sp!, {r4, pc}
	.cfi_endproc
.LFE79:
	.size	_ZplRK6b2Vec2S1_, .-_ZplRK6b2Vec2S1_
	.section	.text._ZmiRK6b2Vec2S1_,"axG",%progbits,_ZmiRK6b2Vec2S1_,comdat
	.align	2
	.weak	_ZmiRK6b2Vec2S1_
	.hidden	_ZmiRK6b2Vec2S1_
	.type	_ZmiRK6b2Vec2S1_, %function
_ZmiRK6b2Vec2S1_:
.LFB80:
	.loc 1 453 0
	.cfi_startproc
	@ args = 0, pretend = 0, frame = 8
	@ frame_needed = 0, uses_anonymous_args = 0
	stmfd	sp!, {r4, lr}
.LCFI26:
	.cfi_def_cfa_offset 8
	sub	sp, sp, #8
.LCFI27:
	.cfi_def_cfa_offset 16
	mov	r4, r0
	.cfi_offset 14, -4
	.cfi_offset 4, -8
	str	r1, [sp, #4]
	str	r2, [sp, #0]
	.loc 1 454 0
	ldr	r3, [sp, #4]
	flds	s14, [r3, #0]
	ldr	r3, [sp, #0]
	flds	s15, [r3, #0]
	fsubs	s13, s14, s15
	ldr	r3, [sp, #4]
	flds	s14, [r3, #4]
	ldr	r3, [sp, #0]
	flds	s15, [r3, #4]
	fsubs	s15, s14, s15
	mov	r0, r4
	fmrs	r1, s13
	fmrs	r2, s15
	bl	_ZN6b2Vec2C1Eff
	.loc 1 455 0
	mov	r0, r4
	add	sp, sp, #8
	ldmfd	sp!, {r4, pc}
	.cfi_endproc
.LFE80:
	.size	_ZmiRK6b2Vec2S1_, .-_ZmiRK6b2Vec2S1_
	.section	.text._ZmlfRK6b2Vec2,"axG",%progbits,_ZmlfRK6b2Vec2,comdat
	.align	2
	.weak	_ZmlfRK6b2Vec2
	.hidden	_ZmlfRK6b2Vec2
	.type	_ZmlfRK6b2Vec2, %function
_ZmlfRK6b2Vec2:
.LFB81:
	.loc 1 458 0
	.cfi_startproc
	@ args = 0, pretend = 0, frame = 8
	@ frame_needed = 0, uses_anonymous_args = 0
	stmfd	sp!, {r4, lr}
.LCFI28:
	.cfi_def_cfa_offset 8
	sub	sp, sp, #8
.LCFI29:
	.cfi_def_cfa_offset 16
	mov	r4, r0
	.cfi_offset 14, -4
	.cfi_offset 4, -8
	str	r1, [sp, #4]	@ float
	str	r2, [sp, #0]
	.loc 1 459 0
	ldr	r3, [sp, #0]
	flds	s14, [r3, #0]
	flds	s15, [sp, #4]
	fmuls	s14, s14, s15
	ldr	r3, [sp, #0]
	flds	s13, [r3, #4]
	flds	s15, [sp, #4]
	fmuls	s15, s13, s15
	mov	r0, r4
	fmrs	r1, s14
	fmrs	r2, s15
	bl	_ZN6b2Vec2C1Eff
	.loc 1 460 0
	mov	r0, r4
	add	sp, sp, #8
	ldmfd	sp!, {r4, pc}
	.cfi_endproc
.LFE81:
	.size	_ZmlfRK6b2Vec2, .-_ZmlfRK6b2Vec2
	.section	.text._ZmlfRK6b2Vec3,"axG",%progbits,_ZmlfRK6b2Vec3,comdat
	.align	2
	.weak	_ZmlfRK6b2Vec3
	.hidden	_ZmlfRK6b2Vec3
	.type	_ZmlfRK6b2Vec3, %function
_ZmlfRK6b2Vec3:
.LFB85:
	.loc 1 480 0
	.cfi_startproc
	@ args = 0, pretend = 0, frame = 8
	@ frame_needed = 0, uses_anonymous_args = 0
	stmfd	sp!, {r4, lr}
.LCFI30:
	.cfi_def_cfa_offset 8
	sub	sp, sp, #8
.LCFI31:
	.cfi_def_cfa_offset 16
	mov	r4, r0
	.cfi_offset 14, -4
	.cfi_offset 4, -8
	str	r1, [sp, #4]	@ float
	str	r2, [sp, #0]
	.loc 1 481 0
	ldr	r3, [sp, #0]
	flds	s14, [r3, #0]
	flds	s15, [sp, #4]
	fmuls	s13, s14, s15
	ldr	r3, [sp, #0]
	flds	s14, [r3, #4]
	flds	s15, [sp, #4]
	fmuls	s14, s14, s15
	ldr	r3, [sp, #0]
	flds	s12, [r3, #8]
	flds	s15, [sp, #4]
	fmuls	s15, s12, s15
	mov	r0, r4
	fmrs	r1, s13
	fmrs	r2, s14
	fmrs	r3, s15
	bl	_ZN6b2Vec3C1Efff
	.loc 1 482 0
	mov	r0, r4
	add	sp, sp, #8
	ldmfd	sp!, {r4, pc}
	.cfi_endproc
.LFE85:
	.size	_ZmlfRK6b2Vec3, .-_ZmlfRK6b2Vec3
	.section	.text._ZplRK6b2Vec3S1_,"axG",%progbits,_ZplRK6b2Vec3S1_,comdat
	.align	2
	.weak	_ZplRK6b2Vec3S1_
	.hidden	_ZplRK6b2Vec3S1_
	.type	_ZplRK6b2Vec3S1_, %function
_ZplRK6b2Vec3S1_:
.LFB86:
	.loc 1 486 0
	.cfi_startproc
	@ args = 0, pretend = 0, frame = 8
	@ frame_needed = 0, uses_anonymous_args = 0
	stmfd	sp!, {r4, lr}
.LCFI32:
	.cfi_def_cfa_offset 8
	sub	sp, sp, #8
.LCFI33:
	.cfi_def_cfa_offset 16
	mov	r4, r0
	.cfi_offset 14, -4
	.cfi_offset 4, -8
	str	r1, [sp, #4]
	str	r2, [sp, #0]
	.loc 1 487 0
	ldr	r3, [sp, #4]
	flds	s14, [r3, #0]
	ldr	r3, [sp, #0]
	flds	s15, [r3, #0]
	fadds	s12, s14, s15
	ldr	r3, [sp, #4]
	flds	s14, [r3, #4]
	ldr	r3, [sp, #0]
	flds	s15, [r3, #4]
	fadds	s13, s14, s15
	ldr	r3, [sp, #4]
	flds	s14, [r3, #8]
	ldr	r3, [sp, #0]
	flds	s15, [r3, #8]
	fadds	s15, s14, s15
	mov	r0, r4
	fmrs	r1, s12
	fmrs	r2, s13
	fmrs	r3, s15
	bl	_ZN6b2Vec3C1Efff
	.loc 1 488 0
	mov	r0, r4
	add	sp, sp, #8
	ldmfd	sp!, {r4, pc}
	.cfi_endproc
.LFE86:
	.size	_ZplRK6b2Vec3S1_, .-_ZplRK6b2Vec3S1_
	.section	.text._Z5b2MulRK7b2Mat33RK6b2Vec3,"axG",%progbits,_Z5b2MulRK7b2Mat33RK6b2Vec3,comdat
	.align	2
	.weak	_Z5b2MulRK7b2Mat33RK6b2Vec3
	.hidden	_Z5b2MulRK7b2Mat33RK6b2Vec3
	.type	_Z5b2MulRK7b2Mat33RK6b2Vec3, %function
_Z5b2MulRK7b2Mat33RK6b2Vec3:
.LFB93:
	.loc 1 529 0
	.cfi_startproc
	@ args = 0, pretend = 0, frame = 56
	@ frame_needed = 0, uses_anonymous_args = 0
	stmfd	sp!, {r4, lr}
.LCFI34:
	.cfi_def_cfa_offset 8
	sub	sp, sp, #56
.LCFI35:
	.cfi_def_cfa_offset 64
	mov	r4, r0
	.cfi_offset 14, -4
	.cfi_offset 4, -8
	str	r1, [sp, #4]
	str	r2, [sp, #0]
	.loc 1 530 0
	ldr	r3, [sp, #0]
	ldr	r2, [r3, #0]	@ float
	ldr	r3, [sp, #4]
	add	r1, sp, #20
	mov	r0, r1
	mov	r1, r2	@ float
	mov	r2, r3
	bl	_ZmlfRK6b2Vec3
	ldr	r3, [sp, #0]
	ldr	r2, [r3, #4]	@ float
	ldr	r3, [sp, #4]
	add	r3, r3, #12
	add	r1, sp, #32
	mov	r0, r1
	mov	r1, r2	@ float
	mov	r2, r3
	bl	_ZmlfRK6b2Vec3
	add	r1, sp, #8
	add	r2, sp, #20
	add	r3, sp, #32
	mov	r0, r1
	mov	r1, r2
	mov	r2, r3
	bl	_ZplRK6b2Vec3S1_
	ldr	r3, [sp, #0]
	ldr	r2, [r3, #8]	@ float
	ldr	r3, [sp, #4]
	add	r3, r3, #24
	add	r1, sp, #44
	mov	r0, r1
	mov	r1, r2	@ float
	mov	r2, r3
	bl	_ZmlfRK6b2Vec3
	add	r2, sp, #8
	add	r3, sp, #44
	mov	r0, r4
	mov	r1, r2
	mov	r2, r3
	bl	_ZplRK6b2Vec3S1_
	.loc 1 531 0
	mov	r0, r4
	add	sp, sp, #56
	ldmfd	sp!, {r4, pc}
	.cfi_endproc
.LFE93:
	.size	_Z5b2MulRK7b2Mat33RK6b2Vec3, .-_Z5b2MulRK7b2Mat33RK6b2Vec3
	.section	.text._Z7b2Mul22RK7b2Mat33RK6b2Vec2,"axG",%progbits,_Z7b2Mul22RK7b2Mat33RK6b2Vec2,comdat
	.align	2
	.weak	_Z7b2Mul22RK7b2Mat33RK6b2Vec2
	.hidden	_Z7b2Mul22RK7b2Mat33RK6b2Vec2
	.type	_Z7b2Mul22RK7b2Mat33RK6b2Vec2, %function
_Z7b2Mul22RK7b2Mat33RK6b2Vec2:
.LFB94:
	.loc 1 535 0
	.cfi_startproc
	@ args = 0, pretend = 0, frame = 8
	@ frame_needed = 0, uses_anonymous_args = 0
	stmfd	sp!, {r4, lr}
.LCFI36:
	.cfi_def_cfa_offset 8
	sub	sp, sp, #8
.LCFI37:
	.cfi_def_cfa_offset 16
	mov	r4, r0
	.cfi_offset 14, -4
	.cfi_offset 4, -8
	str	r1, [sp, #4]
	str	r2, [sp, #0]
	.loc 1 536 0
	ldr	r3, [sp, #4]
	flds	s14, [r3, #0]
	ldr	r3, [sp, #0]
	flds	s15, [r3, #0]
	fmuls	s14, s14, s15
	ldr	r3, [sp, #4]
	flds	s13, [r3, #12]
	ldr	r3, [sp, #0]
	flds	s15, [r3, #4]
	fmuls	s15, s13, s15
	fadds	s12, s14, s15
	ldr	r3, [sp, #4]
	flds	s14, [r3, #4]
	ldr	r3, [sp, #0]
	flds	s15, [r3, #0]
	fmuls	s14, s14, s15
	ldr	r3, [sp, #4]
	flds	s13, [r3, #16]
	ldr	r3, [sp, #0]
	flds	s15, [r3, #4]
	fmuls	s15, s13, s15
	fadds	s15, s14, s15
	mov	r0, r4
	fmrs	r1, s12
	fmrs	r2, s15
	bl	_ZN6b2Vec2C1Eff
	.loc 1 537 0
	mov	r0, r4
	add	sp, sp, #8
	ldmfd	sp!, {r4, pc}
	.cfi_endproc
.LFE94:
	.size	_Z7b2Mul22RK7b2Mat33RK6b2Vec2, .-_Z7b2Mul22RK7b2Mat33RK6b2Vec2
	.section	.text._Z5b2MulRK5b2RotRK6b2Vec2,"axG",%progbits,_Z5b2MulRK5b2RotRK6b2Vec2,comdat
	.align	2
	.weak	_Z5b2MulRK5b2RotRK6b2Vec2
	.hidden	_Z5b2MulRK5b2RotRK6b2Vec2
	.type	_Z5b2MulRK5b2RotRK6b2Vec2, %function
_Z5b2MulRK5b2RotRK6b2Vec2:
.LFB97:
	.loc 1 567 0
	.cfi_startproc
	@ args = 0, pretend = 0, frame = 8
	@ frame_needed = 0, uses_anonymous_args = 0
	stmfd	sp!, {r4, lr}
.LCFI38:
	.cfi_def_cfa_offset 8
	sub	sp, sp, #8
.LCFI39:
	.cfi_def_cfa_offset 16
	mov	r4, r0
	.cfi_offset 14, -4
	.cfi_offset 4, -8
	str	r1, [sp, #4]
	str	r2, [sp, #0]
	.loc 1 568 0
	ldr	r3, [sp, #4]
	flds	s14, [r3, #4]
	ldr	r3, [sp, #0]
	flds	s15, [r3, #0]
	fmuls	s14, s14, s15
	ldr	r3, [sp, #4]
	flds	s13, [r3, #0]
	ldr	r3, [sp, #0]
	flds	s15, [r3, #4]
	fmuls	s15, s13, s15
	fsubs	s12, s14, s15
	ldr	r3, [sp, #4]
	flds	s14, [r3, #0]
	ldr	r3, [sp, #0]
	flds	s15, [r3, #0]
	fmuls	s14, s14, s15
	ldr	r3, [sp, #4]
	flds	s13, [r3, #4]
	ldr	r3, [sp, #0]
	flds	s15, [r3, #4]
	fmuls	s15, s13, s15
	fadds	s15, s14, s15
	mov	r0, r4
	fmrs	r1, s12
	fmrs	r2, s15
	bl	_ZN6b2Vec2C1Eff
	.loc 1 569 0
	mov	r0, r4
	add	sp, sp, #8
	ldmfd	sp!, {r4, pc}
	.cfi_endproc
.LFE97:
	.size	_Z5b2MulRK5b2RotRK6b2Vec2, .-_Z5b2MulRK5b2RotRK6b2Vec2
	.section	.text._Z5b2MulRK11b2TransformRK6b2Vec2,"axG",%progbits,_Z5b2MulRK11b2TransformRK6b2Vec2,comdat
	.align	2
	.weak	_Z5b2MulRK11b2TransformRK6b2Vec2
	.hidden	_Z5b2MulRK11b2TransformRK6b2Vec2
	.type	_Z5b2MulRK11b2TransformRK6b2Vec2, %function
_Z5b2MulRK11b2TransformRK6b2Vec2:
.LFB99:
	.loc 1 578 0
	.cfi_startproc
	@ args = 0, pretend = 0, frame = 16
	@ frame_needed = 0, uses_anonymous_args = 0
	stmfd	sp!, {r4, lr}
.LCFI40:
	.cfi_def_cfa_offset 8
	sub	sp, sp, #16
.LCFI41:
	.cfi_def_cfa_offset 24
	mov	r4, r0
	.cfi_offset 14, -4
	.cfi_offset 4, -8
	str	r1, [sp, #4]
	str	r2, [sp, #0]
.LBB4:
	.loc 1 579 0
	ldr	r3, [sp, #4]
	flds	s14, [r3, #12]
	ldr	r3, [sp, #0]
	flds	s15, [r3, #0]
	fmuls	s14, s14, s15
	ldr	r3, [sp, #4]
	flds	s13, [r3, #8]
	ldr	r3, [sp, #0]
	flds	s15, [r3, #4]
	fmuls	s15, s13, s15
	fsubs	s14, s14, s15
	ldr	r3, [sp, #4]
	flds	s15, [r3, #0]
	fadds	s15, s14, s15
	fsts	s15, [sp, #8]
	.loc 1 580 0
	ldr	r3, [sp, #4]
	flds	s14, [r3, #8]
	ldr	r3, [sp, #0]
	flds	s15, [r3, #0]
	fmuls	s14, s14, s15
	ldr	r3, [sp, #4]
	flds	s13, [r3, #12]
	ldr	r3, [sp, #0]
	flds	s15, [r3, #4]
	fmuls	s15, s13, s15
	fadds	s14, s14, s15
	ldr	r3, [sp, #4]
	flds	s15, [r3, #4]
	fadds	s15, s14, s15
	fsts	s15, [sp, #12]
	.loc 1 582 0
	mov	r0, r4
	ldr	r1, [sp, #8]	@ float
	ldr	r2, [sp, #12]	@ float
	bl	_ZN6b2Vec2C1Eff
.LBE4:
	.loc 1 583 0
	mov	r0, r4
	add	sp, sp, #16
	ldmfd	sp!, {r4, pc}
	.cfi_endproc
.LFE99:
	.size	_Z5b2MulRK11b2TransformRK6b2Vec2, .-_Z5b2MulRK11b2TransformRK6b2Vec2
	.section	.text._Z6b2MulTRK11b2TransformRK6b2Vec2,"axG",%progbits,_Z6b2MulTRK11b2TransformRK6b2Vec2,comdat
	.align	2
	.weak	_Z6b2MulTRK11b2TransformRK6b2Vec2
	.hidden	_Z6b2MulTRK11b2TransformRK6b2Vec2
	.type	_Z6b2MulTRK11b2TransformRK6b2Vec2, %function
_Z6b2MulTRK11b2TransformRK6b2Vec2:
.LFB100:
	.loc 1 586 0
	.cfi_startproc
	@ args = 0, pretend = 0, frame = 24
	@ frame_needed = 0, uses_anonymous_args = 0
	stmfd	sp!, {r4, lr}
.LCFI42:
	.cfi_def_cfa_offset 8
	sub	sp, sp, #24
.LCFI43:
	.cfi_def_cfa_offset 32
	mov	r4, r0
	.cfi_offset 14, -4
	.cfi_offset 4, -8
	str	r1, [sp, #4]
	str	r2, [sp, #0]
.LBB5:
	.loc 1 587 0
	ldr	r3, [sp, #0]
	flds	s14, [r3, #0]
	ldr	r3, [sp, #4]
	flds	s15, [r3, #0]
	fsubs	s15, s14, s15
	fsts	s15, [sp, #8]
	.loc 1 588 0
	ldr	r3, [sp, #0]
	flds	s14, [r3, #4]
	ldr	r3, [sp, #4]
	flds	s15, [r3, #4]
	fsubs	s15, s14, s15
	fsts	s15, [sp, #12]
	.loc 1 589 0
	ldr	r3, [sp, #4]
	flds	s14, [r3, #12]
	flds	s15, [sp, #8]
	fmuls	s14, s14, s15
	ldr	r3, [sp, #4]
	flds	s13, [r3, #8]
	flds	s15, [sp, #12]
	fmuls	s15, s13, s15
	fadds	s15, s14, s15
	fsts	s15, [sp, #16]
	.loc 1 590 0
	ldr	r3, [sp, #4]
	flds	s15, [r3, #8]
	fnegs	s14, s15
	flds	s15, [sp, #8]
	fmuls	s14, s14, s15
	ldr	r3, [sp, #4]
	flds	s13, [r3, #12]
	flds	s15, [sp, #12]
	fmuls	s15, s13, s15
	fadds	s15, s14, s15
	fsts	s15, [sp, #20]
	.loc 1 592 0
	mov	r0, r4
	ldr	r1, [sp, #16]	@ float
	ldr	r2, [sp, #20]	@ float
	bl	_ZN6b2Vec2C1Eff
.LBE5:
	.loc 1 593 0
	mov	r0, r4
	add	sp, sp, #24
	ldmfd	sp!, {r4, pc}
	.cfi_endproc
.LFE100:
	.size	_Z6b2MulTRK11b2TransformRK6b2Vec2, .-_Z6b2MulTRK11b2TransformRK6b2Vec2
	.section	.rodata
	.align	2
.LC0:
	.ascii	"// Dump is not supported for this joint type.\012\000"
	.section	.text._ZN7b2Joint4DumpEv,"axG",%progbits,_ZN7b2Joint4DumpEv,comdat
	.align	2
	.weak	_ZN7b2Joint4DumpEv
	.hidden	_ZN7b2Joint4DumpEv
	.type	_ZN7b2Joint4DumpEv, %function
_ZN7b2Joint4DumpEv:
.LFB121:
	.file 2 "v:/gigglingbits/box2d/Box2D/Dynamics/Joints/b2Joint.h"
	.loc 2 147 0
	.cfi_startproc
	@ args = 0, pretend = 0, frame = 8
	@ frame_needed = 0, uses_anonymous_args = 0
	str	lr, [sp, #-4]!
.LCFI44:
	.cfi_def_cfa_offset 4
	sub	sp, sp, #12
.LCFI45:
	.cfi_def_cfa_offset 16
	str	r0, [sp, #4]
	.loc 2 147 0
	ldr	r0, .L68
	.cfi_offset 14, -4
	bl	_Z5b2LogPKcz
	add	sp, sp, #12
	ldmfd	sp!, {pc}
.L69:
	.align	2
.L68:
	.word	.LC0
	.cfi_endproc
.LFE121:
	.size	_ZN7b2Joint4DumpEv, .-_ZN7b2Joint4DumpEv
	.section	.text._ZN7b2Joint11ShiftOriginERK6b2Vec2,"axG",%progbits,_ZN7b2Joint11ShiftOriginERK6b2Vec2,comdat
	.align	2
	.weak	_ZN7b2Joint11ShiftOriginERK6b2Vec2
	.hidden	_ZN7b2Joint11ShiftOriginERK6b2Vec2
	.type	_ZN7b2Joint11ShiftOriginERK6b2Vec2, %function
_ZN7b2Joint11ShiftOriginERK6b2Vec2:
.LFB122:
	.loc 2 150 0
	.cfi_startproc
	@ args = 0, pretend = 0, frame = 8
	@ frame_needed = 0, uses_anonymous_args = 0
	@ link register save eliminated.
	sub	sp, sp, #8
.LCFI46:
	.cfi_def_cfa_offset 8
	str	r0, [sp, #4]
	str	r1, [sp, #0]
	.loc 2 150 0
	add	sp, sp, #8
	bx	lr
	.cfi_endproc
.LFE122:
	.size	_ZN7b2Joint11ShiftOriginERK6b2Vec2, .-_ZN7b2Joint11ShiftOriginERK6b2Vec2
	.section	.text._ZN7b2JointD2Ev,"axG",%progbits,_ZN7b2JointD2Ev,comdat
	.align	2
	.weak	_ZN7b2JointD2Ev
	.hidden	_ZN7b2JointD2Ev
	.type	_ZN7b2JointD2Ev, %function
_ZN7b2JointD2Ev:
.LFB124:
	.loc 2 162 0
	.cfi_startproc
	@ args = 0, pretend = 0, frame = 8
	@ frame_needed = 0, uses_anonymous_args = 0
	str	lr, [sp, #-4]!
.LCFI47:
	.cfi_def_cfa_offset 4
	sub	sp, sp, #12
.LCFI48:
	.cfi_def_cfa_offset 16
	str	r0, [sp, #4]
	.loc 2 162 0
	ldr	r3, [sp, #4]
	ldr	r2, .L76
	str	r2, [r3, #0]
	mov	r3, #0
	and	r3, r3, #255
	cmp	r3, #0
	beq	.L74
	.cfi_offset 14, -4
	ldr	r0, [sp, #4]
	bl	_ZdlPv
.L74:
	ldr	r3, [sp, #4]
	mov	r0, r3
	add	sp, sp, #12
	ldmfd	sp!, {pc}
.L77:
	.align	2
.L76:
	.word	_ZTV7b2Joint+8
	.cfi_endproc
.LFE124:
	.size	_ZN7b2JointD2Ev, .-_ZN7b2JointD2Ev
	.section	.text._ZN7b2JointD1Ev,"axG",%progbits,_ZN7b2JointD1Ev,comdat
	.align	2
	.weak	_ZN7b2JointD1Ev
	.hidden	_ZN7b2JointD1Ev
	.type	_ZN7b2JointD1Ev, %function
_ZN7b2JointD1Ev:
.LFB125:
	.loc 2 162 0
	.cfi_startproc
	@ args = 0, pretend = 0, frame = 8
	@ frame_needed = 0, uses_anonymous_args = 0
	str	lr, [sp, #-4]!
.LCFI49:
	.cfi_def_cfa_offset 4
	sub	sp, sp, #12
.LCFI50:
	.cfi_def_cfa_offset 16
	str	r0, [sp, #4]
	.loc 2 162 0
	ldr	r3, [sp, #4]
	ldr	r2, .L82
	str	r2, [r3, #0]
	mov	r3, #0
	and	r3, r3, #255
	cmp	r3, #0
	beq	.L80
	.cfi_offset 14, -4
	ldr	r0, [sp, #4]
	bl	_ZdlPv
.L80:
	ldr	r3, [sp, #4]
	mov	r0, r3
	add	sp, sp, #12
	ldmfd	sp!, {pc}
.L83:
	.align	2
.L82:
	.word	_ZTV7b2Joint+8
	.cfi_endproc
.LFE125:
	.size	_ZN7b2JointD1Ev, .-_ZN7b2JointD1Ev
	.section	.text._ZN7b2JointD0Ev,"axG",%progbits,_ZN7b2JointD0Ev,comdat
	.align	2
	.weak	_ZN7b2JointD0Ev
	.hidden	_ZN7b2JointD0Ev
	.type	_ZN7b2JointD0Ev, %function
_ZN7b2JointD0Ev:
.LFB126:
	.loc 2 162 0
	.cfi_startproc
	@ args = 0, pretend = 0, frame = 8
	@ frame_needed = 0, uses_anonymous_args = 0
	str	lr, [sp, #-4]!
.LCFI51:
	.cfi_def_cfa_offset 4
	sub	sp, sp, #12
.LCFI52:
	.cfi_def_cfa_offset 16
	str	r0, [sp, #4]
	.loc 2 162 0
	ldr	r3, [sp, #4]
	ldr	r2, .L88
	str	r2, [r3, #0]
	mov	r3, #1
	and	r3, r3, #255
	cmp	r3, #0
	beq	.L86
	.cfi_offset 14, -4
	ldr	r0, [sp, #4]
	bl	_ZdlPv
.L86:
	ldr	r3, [sp, #4]
	mov	r0, r3
	add	sp, sp, #12
	ldmfd	sp!, {pc}
.L89:
	.align	2
.L88:
	.word	_ZTV7b2Joint+8
	.cfi_endproc
.LFE126:
	.size	_ZN7b2JointD0Ev, .-_ZN7b2JointD0Ev
	.section	.text._ZNK6b2Body8GetAngleEv,"axG",%progbits,_ZNK6b2Body8GetAngleEv,comdat
	.align	2
	.weak	_ZNK6b2Body8GetAngleEv
	.hidden	_ZNK6b2Body8GetAngleEv
	.type	_ZNK6b2Body8GetAngleEv, %function
_ZNK6b2Body8GetAngleEv:
.LFB462:
	.file 3 "v:/gigglingbits/box2d/Box2D/Dynamics/b2Body.h"
	.loc 3 485 0
	.cfi_startproc
	@ args = 0, pretend = 0, frame = 8
	@ frame_needed = 0, uses_anonymous_args = 0
	@ link register save eliminated.
	sub	sp, sp, #8
.LCFI53:
	.cfi_def_cfa_offset 8
	str	r0, [sp, #4]
	.loc 3 486 0
	ldr	r3, [sp, #4]
	flds	s15, [r3, #56]
	fmrs	r3, s15
	.loc 3 487 0
	mov	r0, r3	@ float
	add	sp, sp, #8
	bx	lr
	.cfi_endproc
.LFE462:
	.size	_ZNK6b2Body8GetAngleEv, .-_ZNK6b2Body8GetAngleEv
	.section	.text._ZNK6b2Body13GetWorldPointERK6b2Vec2,"axG",%progbits,_ZNK6b2Body13GetWorldPointERK6b2Vec2,comdat
	.align	2
	.weak	_ZNK6b2Body13GetWorldPointERK6b2Vec2
	.hidden	_ZNK6b2Body13GetWorldPointERK6b2Vec2
	.type	_ZNK6b2Body13GetWorldPointERK6b2Vec2, %function
_ZNK6b2Body13GetWorldPointERK6b2Vec2:
.LFB472:
	.loc 3 557 0
	.cfi_startproc
	@ args = 0, pretend = 0, frame = 8
	@ frame_needed = 0, uses_anonymous_args = 0
	stmfd	sp!, {r4, lr}
.LCFI54:
	.cfi_def_cfa_offset 8
	sub	sp, sp, #8
.LCFI55:
	.cfi_def_cfa_offset 16
	mov	r4, r0
	.cfi_offset 14, -4
	.cfi_offset 4, -8
	str	r1, [sp, #4]
	str	r2, [sp, #0]
	.loc 3 558 0
	ldr	r3, [sp, #4]
	add	r3, r3, #12
	mov	r0, r4
	mov	r1, r3
	ldr	r2, [sp, #0]
	bl	_Z5b2MulRK11b2TransformRK6b2Vec2
	.loc 3 559 0
	mov	r0, r4
	add	sp, sp, #8
	ldmfd	sp!, {r4, pc}
	.cfi_endproc
.LFE472:
	.size	_ZNK6b2Body13GetWorldPointERK6b2Vec2, .-_ZNK6b2Body13GetWorldPointERK6b2Vec2
	.section	.text._ZNK6b2Body13GetLocalPointERK6b2Vec2,"axG",%progbits,_ZNK6b2Body13GetLocalPointERK6b2Vec2,comdat
	.align	2
	.weak	_ZNK6b2Body13GetLocalPointERK6b2Vec2
	.hidden	_ZNK6b2Body13GetLocalPointERK6b2Vec2
	.type	_ZNK6b2Body13GetLocalPointERK6b2Vec2, %function
_ZNK6b2Body13GetLocalPointERK6b2Vec2:
.LFB474:
	.loc 3 567 0
	.cfi_startproc
	@ args = 0, pretend = 0, frame = 8
	@ frame_needed = 0, uses_anonymous_args = 0
	stmfd	sp!, {r4, lr}
.LCFI56:
	.cfi_def_cfa_offset 8
	sub	sp, sp, #8
.LCFI57:
	.cfi_def_cfa_offset 16
	mov	r4, r0
	.cfi_offset 14, -4
	.cfi_offset 4, -8
	str	r1, [sp, #4]
	str	r2, [sp, #0]
	.loc 3 568 0
	ldr	r3, [sp, #4]
	add	r3, r3, #12
	mov	r0, r4
	mov	r1, r3
	ldr	r2, [sp, #0]
	bl	_Z6b2MulTRK11b2TransformRK6b2Vec2
	.loc 3 569 0
	mov	r0, r4
	add	sp, sp, #8
	ldmfd	sp!, {r4, pc}
	.cfi_endproc
.LFE474:
	.size	_ZNK6b2Body13GetLocalPointERK6b2Vec2, .-_ZNK6b2Body13GetLocalPointERK6b2Vec2
	.section	.text._ZN14b2WeldJointDef10InitializeEP6b2BodyS1_RK6b2Vec2,"ax",%progbits
	.align	2
	.global	_ZN14b2WeldJointDef10InitializeEP6b2BodyS1_RK6b2Vec2
	.hidden	_ZN14b2WeldJointDef10InitializeEP6b2BodyS1_RK6b2Vec2
	.type	_ZN14b2WeldJointDef10InitializeEP6b2BodyS1_RK6b2Vec2, %function
_ZN14b2WeldJointDef10InitializeEP6b2BodyS1_RK6b2Vec2:
.LFB511:
	.file 4 "v:/gigglingbits/box2d/Box2D/Dynamics/Joints/b2WeldJoint.cpp"
	.loc 4 38 0
	.cfi_startproc
	@ args = 0, pretend = 0, frame = 24
	@ frame_needed = 0, uses_anonymous_args = 0
	stmfd	sp!, {r4, lr}
.LCFI58:
	.cfi_def_cfa_offset 8
	fstmfdd	sp!, {d8}
.LCFI59:
	.cfi_def_cfa_offset 16
	sub	sp, sp, #24
.LCFI60:
	.cfi_def_cfa_offset 40
	str	r0, [sp, #20]
	str	r1, [sp, #16]
	str	r2, [sp, #12]
	str	r3, [sp, #8]
	.loc 4 39 0
	ldr	r3, [sp, #20]
	ldr	r2, [sp, #16]
	str	r2, [r3, #8]
	.loc 4 40 0
	ldr	r3, [sp, #20]
	ldr	r2, [sp, #12]
	str	r2, [r3, #12]
	.loc 4 41 0
	ldr	r3, [sp, #20]
	ldr	r3, [r3, #8]
	ldr	r4, [sp, #20]
	.cfi_offset 80, -16
	.cfi_offset 14, -4
	.cfi_offset 4, -8
	mov	r2, sp
	mov	r0, r2
	mov	r1, r3
	ldr	r2, [sp, #8]
	bl	_ZNK6b2Body13GetLocalPointERK6b2Vec2
	add	r3, r4, #20
	mov	r2, sp
	ldmia	r2, {r0, r1}
	stmia	r3, {r0, r1}
	.loc 4 42 0
	ldr	r3, [sp, #20]
	ldr	r3, [r3, #12]
	ldr	r4, [sp, #20]
	mov	r2, sp
	mov	r0, r2
	mov	r1, r3
	ldr	r2, [sp, #8]
	bl	_ZNK6b2Body13GetLocalPointERK6b2Vec2
	add	r3, r4, #28
	mov	r2, sp
	ldmia	r2, {r0, r1}
	stmia	r3, {r0, r1}
	.loc 4 43 0
	ldr	r3, [sp, #20]
	ldr	r3, [r3, #12]
	mov	r0, r3
	bl	_ZNK6b2Body8GetAngleEv
	fmsr	s16, r0
	ldr	r3, [sp, #20]
	ldr	r3, [r3, #8]
	mov	r0, r3
	bl	_ZNK6b2Body8GetAngleEv
	fmsr	s15, r0
	fsubs	s15, s16, s15
	ldr	r3, [sp, #20]
	fsts	s15, [r3, #36]
	.loc 4 44 0
	add	sp, sp, #24
	fldmfdd	sp!, {d8}
	ldmfd	sp!, {r4, pc}
	.cfi_endproc
.LFE511:
	.size	_ZN14b2WeldJointDef10InitializeEP6b2BodyS1_RK6b2Vec2, .-_ZN14b2WeldJointDef10InitializeEP6b2BodyS1_RK6b2Vec2
	.section	.text._ZN11b2WeldJointC2EPK14b2WeldJointDef,"ax",%progbits
	.align	2
	.global	_ZN11b2WeldJointC2EPK14b2WeldJointDef
	.hidden	_ZN11b2WeldJointC2EPK14b2WeldJointDef
	.type	_ZN11b2WeldJointC2EPK14b2WeldJointDef, %function
_ZN11b2WeldJointC2EPK14b2WeldJointDef:
.LFB513:
	.loc 4 46 0
	.cfi_startproc
	@ args = 0, pretend = 0, frame = 8
	@ frame_needed = 0, uses_anonymous_args = 0
	str	lr, [sp, #-4]!
.LCFI61:
	.cfi_def_cfa_offset 4
	sub	sp, sp, #12
.LCFI62:
	.cfi_def_cfa_offset 16
	str	r0, [sp, #4]
	str	r1, [sp, #0]
	.loc 4 47 0
	ldr	r2, [sp, #4]
	ldr	r3, [sp, #0]
	mov	r0, r2
	mov	r1, r3
	.cfi_offset 14, -4
	bl	_ZN7b2JointC2EPK10b2JointDef
	ldr	r3, [sp, #4]
	ldr	r2, .L101
	str	r2, [r3, #0]
	ldr	r3, [sp, #4]
	add	r3, r3, #80
	mov	r0, r3
	bl	_ZN6b2Vec2C1Ev
	ldr	r3, [sp, #4]
	add	r3, r3, #88
	mov	r0, r3
	bl	_ZN6b2Vec2C1Ev
	ldr	r3, [sp, #4]
	add	r3, r3, #104
	mov	r0, r3
	bl	_ZN6b2Vec3C1Ev
	ldr	r3, [sp, #4]
	add	r3, r3, #124
	mov	r0, r3
	bl	_ZN6b2Vec2C1Ev
	ldr	r3, [sp, #4]
	add	r3, r3, #132
	mov	r0, r3
	bl	_ZN6b2Vec2C1Ev
	ldr	r3, [sp, #4]
	add	r3, r3, #140
	mov	r0, r3
	bl	_ZN6b2Vec2C1Ev
	ldr	r3, [sp, #4]
	add	r3, r3, #148
	mov	r0, r3
	bl	_ZN6b2Vec2C1Ev
	ldr	r3, [sp, #4]
	add	r3, r3, #172
	mov	r0, r3
	bl	_ZN7b2Mat33C1Ev
	.loc 4 49 0
	ldr	r3, [sp, #4]
	ldr	r2, [sp, #0]
	add	r3, r3, #80
	add	r2, r2, #20
	ldmia	r2, {r0, r1}
	stmia	r3, {r0, r1}
	.loc 4 50 0
	ldr	r3, [sp, #4]
	ldr	r2, [sp, #0]
	add	r3, r3, #88
	add	r2, r2, #28
	ldmia	r2, {r0, r1}
	stmia	r3, {r0, r1}
	.loc 4 51 0
	ldr	r3, [sp, #0]
	flds	s15, [r3, #36]
	ldr	r3, [sp, #4]
	fsts	s15, [r3, #96]
	.loc 4 52 0
	ldr	r3, [sp, #0]
	flds	s15, [r3, #40]
	ldr	r3, [sp, #4]
	fsts	s15, [r3, #68]
	.loc 4 53 0
	ldr	r3, [sp, #0]
	flds	s15, [r3, #44]
	ldr	r3, [sp, #4]
	fsts	s15, [r3, #72]
	.loc 4 55 0
	ldr	r3, [sp, #4]
	add	r3, r3, #104
	mov	r0, r3
	bl	_ZN6b2Vec37SetZeroEv
	.loc 4 56 0
	ldr	r3, [sp, #4]
	mov	r0, r3
	add	sp, sp, #12
	ldmfd	sp!, {pc}
.L102:
	.align	2
.L101:
	.word	_ZTV11b2WeldJoint+8
	.cfi_endproc
.LFE513:
	.size	_ZN11b2WeldJointC2EPK14b2WeldJointDef, .-_ZN11b2WeldJointC2EPK14b2WeldJointDef
	.section	.text._ZN11b2WeldJointC1EPK14b2WeldJointDef,"ax",%progbits
	.align	2
	.global	_ZN11b2WeldJointC1EPK14b2WeldJointDef
	.hidden	_ZN11b2WeldJointC1EPK14b2WeldJointDef
	.type	_ZN11b2WeldJointC1EPK14b2WeldJointDef, %function
_ZN11b2WeldJointC1EPK14b2WeldJointDef:
.LFB514:
	.loc 4 46 0
	.cfi_startproc
	@ args = 0, pretend = 0, frame = 8
	@ frame_needed = 0, uses_anonymous_args = 0
	str	lr, [sp, #-4]!
.LCFI63:
	.cfi_def_cfa_offset 4
	sub	sp, sp, #12
.LCFI64:
	.cfi_def_cfa_offset 16
	str	r0, [sp, #4]
	str	r1, [sp, #0]
	.loc 4 47 0
	ldr	r2, [sp, #4]
	ldr	r3, [sp, #0]
	mov	r0, r2
	mov	r1, r3
	.cfi_offset 14, -4
	bl	_ZN7b2JointC2EPK10b2JointDef
	ldr	r3, [sp, #4]
	ldr	r2, .L106
	str	r2, [r3, #0]
	ldr	r3, [sp, #4]
	add	r3, r3, #80
	mov	r0, r3
	bl	_ZN6b2Vec2C1Ev
	ldr	r3, [sp, #4]
	add	r3, r3, #88
	mov	r0, r3
	bl	_ZN6b2Vec2C1Ev
	ldr	r3, [sp, #4]
	add	r3, r3, #104
	mov	r0, r3
	bl	_ZN6b2Vec3C1Ev
	ldr	r3, [sp, #4]
	add	r3, r3, #124
	mov	r0, r3
	bl	_ZN6b2Vec2C1Ev
	ldr	r3, [sp, #4]
	add	r3, r3, #132
	mov	r0, r3
	bl	_ZN6b2Vec2C1Ev
	ldr	r3, [sp, #4]
	add	r3, r3, #140
	mov	r0, r3
	bl	_ZN6b2Vec2C1Ev
	ldr	r3, [sp, #4]
	add	r3, r3, #148
	mov	r0, r3
	bl	_ZN6b2Vec2C1Ev
	ldr	r3, [sp, #4]
	add	r3, r3, #172
	mov	r0, r3
	bl	_ZN7b2Mat33C1Ev
	.loc 4 49 0
	ldr	r3, [sp, #4]
	ldr	r2, [sp, #0]
	add	r3, r3, #80
	add	r2, r2, #20
	ldmia	r2, {r0, r1}
	stmia	r3, {r0, r1}
	.loc 4 50 0
	ldr	r3, [sp, #4]
	ldr	r2, [sp, #0]
	add	r3, r3, #88
	add	r2, r2, #28
	ldmia	r2, {r0, r1}
	stmia	r3, {r0, r1}
	.loc 4 51 0
	ldr	r3, [sp, #0]
	flds	s15, [r3, #36]
	ldr	r3, [sp, #4]
	fsts	s15, [r3, #96]
	.loc 4 52 0
	ldr	r3, [sp, #0]
	flds	s15, [r3, #40]
	ldr	r3, [sp, #4]
	fsts	s15, [r3, #68]
	.loc 4 53 0
	ldr	r3, [sp, #0]
	flds	s15, [r3, #44]
	ldr	r3, [sp, #4]
	fsts	s15, [r3, #72]
	.loc 4 55 0
	ldr	r3, [sp, #4]
	add	r3, r3, #104
	mov	r0, r3
	bl	_ZN6b2Vec37SetZeroEv
	.loc 4 56 0
	ldr	r3, [sp, #4]
	mov	r0, r3
	add	sp, sp, #12
	ldmfd	sp!, {pc}
.L107:
	.align	2
.L106:
	.word	_ZTV11b2WeldJoint+8
	.cfi_endproc
.LFE514:
	.size	_ZN11b2WeldJointC1EPK14b2WeldJointDef, .-_ZN11b2WeldJointC1EPK14b2WeldJointDef
	.section	.text._ZN11b2WeldJoint23InitVelocityConstraintsERK12b2SolverData,"ax",%progbits
	.align	2
	.global	_ZN11b2WeldJoint23InitVelocityConstraintsERK12b2SolverData
	.hidden	_ZN11b2WeldJoint23InitVelocityConstraintsERK12b2SolverData
	.type	_ZN11b2WeldJoint23InitVelocityConstraintsERK12b2SolverData, %function
_ZN11b2WeldJoint23InitVelocityConstraintsERK12b2SolverData:
.LFB515:
	.loc 4 59 0
	.cfi_startproc
	@ args = 0, pretend = 0, frame = 184
	@ frame_needed = 0, uses_anonymous_args = 0
	stmfd	sp!, {r4, lr}
.LCFI65:
	.cfi_def_cfa_offset 8
	sub	sp, sp, #184
.LCFI66:
	.cfi_def_cfa_offset 192
	str	r0, [sp, #12]
	str	r1, [sp, #8]
.LBB6:
	.loc 4 60 0
	ldr	r3, [sp, #12]
	ldr	r3, [r3, #48]
	ldr	r2, [r3, #8]
	ldr	r3, [sp, #12]
	str	r2, [r3, #116]
	.loc 4 61 0
	ldr	r3, [sp, #12]
	ldr	r3, [r3, #52]
	ldr	r2, [r3, #8]
	ldr	r3, [sp, #12]
	str	r2, [r3, #120]
	.loc 4 62 0
	ldr	r3, [sp, #12]
	ldr	r2, [r3, #48]
	ldr	r3, [sp, #12]
	add	r3, r3, #140
	add	r2, r2, #28
	ldmia	r2, {r0, r1}
	stmia	r3, {r0, r1}
	.loc 4 63 0
	ldr	r3, [sp, #12]
	ldr	r2, [r3, #52]
	ldr	r3, [sp, #12]
	add	r3, r3, #148
	add	r2, r2, #28
	ldmia	r2, {r0, r1}
	stmia	r3, {r0, r1}
	.loc 4 64 0
	ldr	r3, [sp, #12]
	ldr	r3, [r3, #48]
	flds	s15, [r3, #120]
	ldr	r3, [sp, #12]
	fsts	s15, [r3, #156]
	.loc 4 65 0
	ldr	r3, [sp, #12]
	ldr	r3, [r3, #52]
	flds	s15, [r3, #120]
	ldr	r3, [sp, #12]
	fsts	s15, [r3, #160]
	.loc 4 66 0
	ldr	r3, [sp, #12]
	ldr	r3, [r3, #48]
	flds	s15, [r3, #128]
	ldr	r3, [sp, #12]
	fsts	s15, [r3, #164]
	.loc 4 67 0
	ldr	r3, [sp, #12]
	ldr	r3, [r3, #52]
	flds	s15, [r3, #128]
	ldr	r3, [sp, #12]
	fsts	s15, [r3, #168]
	.loc 4 69 0
	ldr	r3, [sp, #8]
	ldr	r1, [r3, #24]
	ldr	r3, [sp, #12]
	ldr	r3, [r3, #116]
	mov	r2, r3
	mov	r3, r2
	mov	r3, r3, asl #1
	add	r3, r3, r2
	mov	r3, r3, asl #2
	add	r3, r1, r3
	flds	s15, [r3, #8]
	fsts	s15, [sp, #124]
	.loc 4 70 0
	ldr	r3, [sp, #8]
	ldr	r1, [r3, #28]
	ldr	r3, [sp, #12]
	ldr	r3, [r3, #116]
	mov	r2, r3
	mov	r3, r2
	mov	r3, r3, asl #1
	add	r3, r3, r2
	mov	r3, r3, asl #2
	add	r2, r1, r3
	add	r3, sp, #84
	ldmia	r2, {r0, r1}
	stmia	r3, {r0, r1}
	.loc 4 71 0
	ldr	r3, [sp, #8]
	ldr	r1, [r3, #28]
	ldr	r3, [sp, #12]
	ldr	r3, [r3, #116]
	mov	r2, r3
	mov	r3, r2
	mov	r3, r3, asl #1
	add	r3, r3, r2
	mov	r3, r3, asl #2
	add	r3, r1, r3
	flds	s15, [r3, #8]
	fsts	s15, [sp, #128]
	.loc 4 73 0
	ldr	r3, [sp, #8]
	ldr	r1, [r3, #24]
	ldr	r3, [sp, #12]
	ldr	r3, [r3, #120]
	mov	r2, r3
	mov	r3, r2
	mov	r3, r3, asl #1
	add	r3, r3, r2
	mov	r3, r3, asl #2
	add	r3, r1, r3
	flds	s15, [r3, #8]
	fsts	s15, [sp, #132]
	.loc 4 74 0
	ldr	r3, [sp, #8]
	ldr	r1, [r3, #28]
	ldr	r3, [sp, #12]
	ldr	r3, [r3, #120]
	mov	r2, r3
	mov	r3, r2
	mov	r3, r3, asl #1
	add	r3, r3, r2
	mov	r3, r3, asl #2
	add	r2, r1, r3
	add	r3, sp, #76
	ldmia	r2, {r0, r1}
	stmia	r3, {r0, r1}
	.loc 4 75 0
	ldr	r3, [sp, #8]
	ldr	r1, [r3, #28]
	ldr	r3, [sp, #12]
	ldr	r3, [r3, #120]
	mov	r2, r3
	mov	r3, r2
	mov	r3, r3, asl #1
	add	r3, r3, r2
	mov	r3, r3, asl #2
	add	r3, r1, r3
	flds	s15, [r3, #8]
	fsts	s15, [sp, #136]
	.loc 4 77 0
	add	r3, sp, #68
	mov	r0, r3
	ldr	r1, [sp, #124]	@ float
	.cfi_offset 14, -4
	.cfi_offset 4, -8
	bl	_ZN5b2RotC1Ef
	add	r3, sp, #60
	mov	r0, r3
	ldr	r1, [sp, #132]	@ float
	bl	_ZN5b2RotC1Ef
	.loc 4 79 0
	ldr	r3, [sp, #12]
	add	r2, r3, #80
	ldr	r3, [sp, #12]
	add	r3, r3, #140
	add	r1, sp, #92
	mov	r0, r1
	mov	r1, r2
	mov	r2, r3
	bl	_ZmiRK6b2Vec2S1_
	ldr	r4, [sp, #12]
	mov	r1, sp
	add	r2, sp, #68
	add	r3, sp, #92
	mov	r0, r1
	mov	r1, r2
	mov	r2, r3
	bl	_Z5b2MulRK5b2RotRK6b2Vec2
	add	r3, r4, #124
	mov	r2, sp
	ldmia	r2, {r0, r1}
	stmia	r3, {r0, r1}
	.loc 4 80 0
	ldr	r3, [sp, #12]
	add	r2, r3, #88
	ldr	r3, [sp, #12]
	add	r3, r3, #148
	add	r1, sp, #100
	mov	r0, r1
	mov	r1, r2
	mov	r2, r3
	bl	_ZmiRK6b2Vec2S1_
	ldr	r4, [sp, #12]
	mov	r1, sp
	add	r2, sp, #60
	add	r3, sp, #100
	mov	r0, r1
	mov	r1, r2
	mov	r2, r3
	bl	_Z5b2MulRK5b2RotRK6b2Vec2
	add	r3, r4, #132
	mov	r2, sp
	ldmia	r2, {r0, r1}
	stmia	r3, {r0, r1}
	.loc 4 91 0
	ldr	r3, [sp, #12]
	flds	s15, [r3, #156]
	fsts	s15, [sp, #140]
	ldr	r3, [sp, #12]
	flds	s15, [r3, #160]
	fsts	s15, [sp, #144]
	.loc 4 92 0
	ldr	r3, [sp, #12]
	flds	s15, [r3, #164]
	fsts	s15, [sp, #148]
	ldr	r3, [sp, #12]
	flds	s15, [r3, #168]
	fsts	s15, [sp, #152]
	.loc 4 94 0
	add	r3, sp, #16
	mov	r0, r3
	bl	_ZN7b2Mat33C1Ev
	.loc 4 95 0
	flds	s14, [sp, #140]
	flds	s15, [sp, #144]
	fadds	s14, s14, s15
	ldr	r3, [sp, #12]
	flds	s13, [r3, #128]
	ldr	r3, [sp, #12]
	flds	s15, [r3, #128]
	fmuls	s15, s13, s15
	flds	s13, [sp, #148]
	fmuls	s15, s15, s13
	fadds	s14, s14, s15
	ldr	r3, [sp, #12]
	flds	s13, [r3, #136]
	ldr	r3, [sp, #12]
	flds	s15, [r3, #136]
	fmuls	s15, s13, s15
	flds	s13, [sp, #152]
	fmuls	s15, s15, s13
	fadds	s15, s14, s15
	fsts	s15, [sp, #16]
	.loc 4 96 0
	ldr	r3, [sp, #12]
	flds	s15, [r3, #128]
	fnegs	s14, s15
	ldr	r3, [sp, #12]
	flds	s15, [r3, #124]
	fmuls	s15, s14, s15
	flds	s14, [sp, #148]
	fmuls	s14, s15, s14
	ldr	r3, [sp, #12]
	flds	s13, [r3, #136]
	ldr	r3, [sp, #12]
	flds	s15, [r3, #132]
	fmuls	s15, s13, s15
	flds	s13, [sp, #152]
	fmuls	s15, s15, s13
	fsubs	s15, s14, s15
	fsts	s15, [sp, #28]
	.loc 4 97 0
	ldr	r3, [sp, #12]
	flds	s15, [r3, #128]
	fnegs	s14, s15
	flds	s15, [sp, #148]
	fmuls	s14, s14, s15
	ldr	r3, [sp, #12]
	flds	s13, [r3, #136]
	flds	s15, [sp, #152]
	fmuls	s15, s13, s15
	fsubs	s15, s14, s15
	fsts	s15, [sp, #40]
	.loc 4 98 0
	flds	s15, [sp, #28]
	fsts	s15, [sp, #20]
	.loc 4 99 0
	flds	s14, [sp, #140]
	flds	s15, [sp, #144]
	fadds	s14, s14, s15
	ldr	r3, [sp, #12]
	flds	s13, [r3, #124]
	ldr	r3, [sp, #12]
	flds	s15, [r3, #124]
	fmuls	s15, s13, s15
	flds	s13, [sp, #148]
	fmuls	s15, s15, s13
	fadds	s14, s14, s15
	ldr	r3, [sp, #12]
	flds	s13, [r3, #132]
	ldr	r3, [sp, #12]
	flds	s15, [r3, #132]
	fmuls	s15, s13, s15
	flds	s13, [sp, #152]
	fmuls	s15, s15, s13
	fadds	s15, s14, s15
	fsts	s15, [sp, #32]
	.loc 4 100 0
	ldr	r3, [sp, #12]
	flds	s14, [r3, #124]
	flds	s15, [sp, #148]
	fmuls	s14, s14, s15
	ldr	r3, [sp, #12]
	flds	s13, [r3, #132]
	flds	s15, [sp, #152]
	fmuls	s15, s13, s15
	fadds	s15, s14, s15
	fsts	s15, [sp, #44]
	.loc 4 101 0
	flds	s15, [sp, #40]
	fsts	s15, [sp, #24]
	.loc 4 102 0
	flds	s15, [sp, #44]
	fsts	s15, [sp, #36]
	.loc 4 103 0
	flds	s14, [sp, #148]
	flds	s15, [sp, #152]
	fadds	s15, s14, s15
	fsts	s15, [sp, #48]
	.loc 4 105 0
	ldr	r3, [sp, #12]
	flds	s15, [r3, #68]
	fcmpezs	s15
	fmstat
	movle	r3, #0
	movgt	r3, #1
	and	r3, r3, #255
	cmp	r3, #0
	beq	.L109
.LBB7:
	.loc 4 107 0
	ldr	r3, [sp, #12]
	add	r3, r3, #172
	add	r2, sp, #16
	mov	r0, r2
	mov	r1, r3
	bl	_ZNK7b2Mat3312GetInverse22EPS_
	.loc 4 109 0
	flds	s14, [sp, #148]
	flds	s15, [sp, #152]
	fadds	s15, s14, s15
	fsts	s15, [sp, #156]
	.loc 4 110 0
	flds	s15, [sp, #156]
	fcmpezs	s15
	fmstat
	movle	r3, #0
	movgt	r3, #1
	and	r3, r3, #255
	cmp	r3, #0
	beq	.L110
	flds	s14, .L126
	flds	s15, [sp, #156]
	fdivs	s15, s14, s15
	b	.L111
.L110:
	flds	s15, .L126+4
.L111:
	fsts	s15, [sp, #160]
	.loc 4 112 0
	flds	s14, [sp, #132]
	flds	s15, [sp, #124]
	fsubs	s14, s14, s15
	ldr	r3, [sp, #12]
	flds	s15, [r3, #96]
	fsubs	s15, s14, s15
	fsts	s15, [sp, #164]
	.loc 4 115 0
	ldr	r3, [sp, #12]
	flds	s14, [r3, #68]
	flds	s15, .L126+8
	fmuls	s15, s14, s15
	fsts	s15, [sp, #168]
	.loc 4 118 0
	flds	s15, [sp, #160]
	fadds	s14, s15, s15
	ldr	r3, [sp, #12]
	flds	s15, [r3, #72]
	fmuls	s15, s14, s15
	flds	s14, [sp, #168]
	fmuls	s15, s15, s14
	fsts	s15, [sp, #172]
	.loc 4 121 0
	flds	s14, [sp, #160]
	flds	s15, [sp, #168]
	fmuls	s15, s14, s15
	flds	s14, [sp, #168]
	fmuls	s15, s15, s14
	fsts	s15, [sp, #176]
	.loc 4 124 0
	ldr	r3, [sp, #8]
	flds	s15, [r3, #0]
	fsts	s15, [sp, #180]
	.loc 4 125 0
	flds	s14, [sp, #180]
	flds	s15, [sp, #176]
	fmuls	s15, s14, s15
	flds	s14, [sp, #172]
	fadds	s14, s15, s14
	flds	s15, [sp, #180]
	fmuls	s15, s14, s15
	ldr	r3, [sp, #12]
	fsts	s15, [r3, #100]
	.loc 4 126 0
	ldr	r3, [sp, #12]
	flds	s15, [r3, #100]
	fcmpzs	s15
	fmstat
	beq	.L124
.L122:
	ldr	r3, [sp, #12]
	flds	s15, [r3, #100]
	flds	s14, .L126
	fdivs	s15, s14, s15
	b	.L114
.L124:
	flds	s15, .L126+4
.L114:
	ldr	r3, [sp, #12]
	fsts	s15, [r3, #100]
	.loc 4 127 0
	flds	s14, [sp, #164]
	flds	s15, [sp, #180]
	fmuls	s15, s14, s15
	flds	s14, [sp, #176]
	fmuls	s15, s15, s14
	ldr	r3, [sp, #12]
	flds	s14, [r3, #100]
	fmuls	s15, s15, s14
	ldr	r3, [sp, #12]
	fsts	s15, [r3, #76]
	.loc 4 129 0
	ldr	r3, [sp, #12]
	flds	s15, [r3, #100]
	flds	s14, [sp, #156]
	fadds	s15, s14, s15
	fsts	s15, [sp, #156]
	.loc 4 130 0
	flds	s15, [sp, #156]
	fcmpzs	s15
	fmstat
	beq	.L125
.L123:
	flds	s14, .L126
	flds	s15, [sp, #156]
	fdivs	s15, s14, s15
	b	.L117
.L125:
	flds	s15, .L126+4
.L117:
	ldr	r3, [sp, #12]
	fsts	s15, [r3, #204]
	b	.L118
.L109:
.LBE7:
	.loc 4 134 0
	ldr	r3, [sp, #12]
	add	r3, r3, #172
	add	r2, sp, #16
	mov	r0, r2
	mov	r1, r3
	bl	_ZNK7b2Mat3315GetSymInverse33EPS_
	.loc 4 135 0
	ldr	r3, [sp, #12]
	flds	s15, .L126+4
	fsts	s15, [r3, #100]
	.loc 4 136 0
	ldr	r3, [sp, #12]
	flds	s15, .L126+4
	fsts	s15, [r3, #76]
.L118:
	.loc 4 139 0
	ldr	r3, [sp, #8]
	ldrb	r3, [r3, #20]	@ zero_extendqisi2
	cmp	r3, #0
	beq	.L119
.LBB8:
	.loc 4 142 0
	ldr	r3, [sp, #12]
	add	r2, r3, #104
	ldr	r3, [sp, #8]
	ldr	r3, [r3, #8]	@ float
	mov	r0, r2
	mov	r1, r3	@ float
	bl	_ZN6b2Vec3mLEf
	.loc 4 144 0
	ldr	r3, [sp, #12]
	ldr	r2, [r3, #104]	@ float
	ldr	r3, [sp, #12]
	ldr	r3, [r3, #108]	@ float
	add	r1, sp, #52
	mov	r0, r1
	mov	r1, r2	@ float
	mov	r2, r3	@ float
	bl	_ZN6b2Vec2C1Eff
	.loc 4 146 0
	add	r2, sp, #108
	add	r3, sp, #52
	mov	r0, r2
	ldr	r1, [sp, #140]	@ float
	mov	r2, r3
	bl	_ZmlfRK6b2Vec2
	add	r2, sp, #84
	add	r3, sp, #108
	mov	r0, r2
	mov	r1, r3
	bl	_ZN6b2Vec2mIERKS_
	.loc 4 147 0
	ldr	r3, [sp, #12]
	add	r2, r3, #124
	add	r3, sp, #52
	mov	r0, r2
	mov	r1, r3
	bl	_Z7b2CrossRK6b2Vec2S1_
	fmsr	s14, r0
	ldr	r3, [sp, #12]
	flds	s15, [r3, #112]
	fadds	s14, s14, s15
	flds	s15, [sp, #148]
	fmuls	s15, s14, s15
	flds	s14, [sp, #128]
	fsubs	s15, s14, s15
	fsts	s15, [sp, #128]
	.loc 4 149 0
	add	r2, sp, #116
	add	r3, sp, #52
	mov	r0, r2
	ldr	r1, [sp, #144]	@ float
	mov	r2, r3
	bl	_ZmlfRK6b2Vec2
	add	r2, sp, #76
	add	r3, sp, #116
	mov	r0, r2
	mov	r1, r3
	bl	_ZN6b2Vec2pLERKS_
	.loc 4 150 0
	ldr	r3, [sp, #12]
	add	r2, r3, #132
	add	r3, sp, #52
	mov	r0, r2
	mov	r1, r3
	bl	_Z7b2CrossRK6b2Vec2S1_
	fmsr	s14, r0
	ldr	r3, [sp, #12]
	flds	s15, [r3, #112]
	fadds	s14, s14, s15
	flds	s15, [sp, #152]
	fmuls	s15, s14, s15
	flds	s14, [sp, #136]
	fadds	s15, s14, s15
	fsts	s15, [sp, #136]
	b	.L120
.L119:
.LBE8:
	.loc 4 154 0
	ldr	r3, [sp, #12]
	add	r3, r3, #104
	mov	r0, r3
	bl	_ZN6b2Vec37SetZeroEv
.L120:
	.loc 4 157 0
	ldr	r3, [sp, #8]
	ldr	r1, [r3, #28]
	ldr	r3, [sp, #12]
	ldr	r3, [r3, #116]
	mov	r2, r3
	mov	r3, r2
	mov	r3, r3, asl #1
	add	r3, r3, r2
	mov	r3, r3, asl #2
	add	r3, r1, r3
	add	r2, sp, #84
	ldmia	r2, {r0, r1}
	stmia	r3, {r0, r1}
	.loc 4 158 0
	ldr	r3, [sp, #8]
	ldr	r1, [r3, #28]
	ldr	r3, [sp, #12]
	ldr	r3, [r3, #116]
	mov	r2, r3
	mov	r3, r2
	mov	r3, r3, asl #1
	add	r3, r3, r2
	mov	r3, r3, asl #2
	add	r3, r1, r3
	flds	s15, [sp, #128]
	fsts	s15, [r3, #8]
	.loc 4 159 0
	ldr	r3, [sp, #8]
	ldr	r1, [r3, #28]
	ldr	r3, [sp, #12]
	ldr	r3, [r3, #120]
	mov	r2, r3
	mov	r3, r2
	mov	r3, r3, asl #1
	add	r3, r3, r2
	mov	r3, r3, asl #2
	add	r3, r1, r3
	add	r2, sp, #76
	ldmia	r2, {r0, r1}
	stmia	r3, {r0, r1}
	.loc 4 160 0
	ldr	r3, [sp, #8]
	ldr	r1, [r3, #28]
	ldr	r3, [sp, #12]
	ldr	r3, [r3, #120]
	mov	r2, r3
	mov	r3, r2
	mov	r3, r3, asl #1
	add	r3, r3, r2
	mov	r3, r3, asl #2
	add	r3, r1, r3
	flds	s15, [sp, #136]
	fsts	s15, [r3, #8]
.LBE6:
	.loc 4 161 0
	add	sp, sp, #184
	ldmfd	sp!, {r4, pc}
.L127:
	.align	2
.L126:
	.word	1065353216
	.word	0
	.word	1086918619
	.cfi_endproc
.LFE515:
	.size	_ZN11b2WeldJoint23InitVelocityConstraintsERK12b2SolverData, .-_ZN11b2WeldJoint23InitVelocityConstraintsERK12b2SolverData
	.section	.text._ZN11b2WeldJoint24SolveVelocityConstraintsERK12b2SolverData,"ax",%progbits
	.align	2
	.global	_ZN11b2WeldJoint24SolveVelocityConstraintsERK12b2SolverData
	.hidden	_ZN11b2WeldJoint24SolveVelocityConstraintsERK12b2SolverData
	.type	_ZN11b2WeldJoint24SolveVelocityConstraintsERK12b2SolverData, %function
_ZN11b2WeldJoint24SolveVelocityConstraintsERK12b2SolverData:
.LFB516:
	.loc 4 164 0
	.cfi_startproc
	@ args = 0, pretend = 0, frame = 240
	@ frame_needed = 0, uses_anonymous_args = 0
	str	lr, [sp, #-4]!
.LCFI67:
	.cfi_def_cfa_offset 4
	sub	sp, sp, #244
.LCFI68:
	.cfi_def_cfa_offset 248
	str	r0, [sp, #4]
	str	r1, [sp, #0]
.LBB9:
	.loc 4 165 0
	ldr	r3, [sp, #0]
	ldr	r1, [r3, #28]
	ldr	r3, [sp, #4]
	ldr	r3, [r3, #116]
	mov	r2, r3
	mov	r3, r2
	mov	r3, r3, asl #1
	add	r3, r3, r2
	mov	r3, r3, asl #2
	add	r2, r1, r3
	add	r3, sp, #80
	ldmia	r2, {r0, r1}
	stmia	r3, {r0, r1}
	.loc 4 166 0
	ldr	r3, [sp, #0]
	ldr	r1, [r3, #28]
	ldr	r3, [sp, #4]
	ldr	r3, [r3, #116]
	mov	r2, r3
	mov	r3, r2
	mov	r3, r3, asl #1
	add	r3, r3, r2
	mov	r3, r3, asl #2
	add	r3, r1, r3
	flds	s15, [r3, #8]
	fsts	s15, [sp, #204]
	.loc 4 167 0
	ldr	r3, [sp, #0]
	ldr	r1, [r3, #28]
	ldr	r3, [sp, #4]
	ldr	r3, [r3, #120]
	mov	r2, r3
	mov	r3, r2
	mov	r3, r3, asl #1
	add	r3, r3, r2
	mov	r3, r3, asl #2
	add	r2, r1, r3
	add	r3, sp, #72
	ldmia	r2, {r0, r1}
	stmia	r3, {r0, r1}
	.loc 4 168 0
	ldr	r3, [sp, #0]
	ldr	r1, [r3, #28]
	ldr	r3, [sp, #4]
	ldr	r3, [r3, #120]
	mov	r2, r3
	mov	r3, r2
	mov	r3, r3, asl #1
	add	r3, r3, r2
	mov	r3, r3, asl #2
	add	r3, r1, r3
	flds	s15, [r3, #8]
	fsts	s15, [sp, #208]
	.loc 4 170 0
	ldr	r3, [sp, #4]
	flds	s15, [r3, #156]
	fsts	s15, [sp, #212]
	ldr	r3, [sp, #4]
	flds	s15, [r3, #160]
	fsts	s15, [sp, #216]
	.loc 4 171 0
	ldr	r3, [sp, #4]
	flds	s15, [r3, #164]
	fsts	s15, [sp, #220]
	ldr	r3, [sp, #4]
	flds	s15, [r3, #168]
	fsts	s15, [sp, #224]
	.loc 4 173 0
	ldr	r3, [sp, #4]
	flds	s15, [r3, #68]
	fcmpezs	s15
	fmstat
	movle	r3, #0
	movgt	r3, #1
	and	r3, r3, #255
	cmp	r3, #0
	beq	.L129
	.cfi_offset 14, -4
.LBB10:
	.loc 4 175 0
	flds	s14, [sp, #208]
	flds	s15, [sp, #204]
	fsubs	s15, s14, s15
	fsts	s15, [sp, #228]
	.loc 4 177 0
	ldr	r3, [sp, #4]
	flds	s15, [r3, #204]
	fnegs	s14, s15
	ldr	r3, [sp, #4]
	flds	s13, [r3, #76]
	flds	s15, [sp, #228]
	fadds	s13, s13, s15
	ldr	r3, [sp, #4]
	flds	s12, [r3, #100]
	ldr	r3, [sp, #4]
	flds	s15, [r3, #112]
	fmuls	s15, s12, s15
	fadds	s15, s13, s15
	fmuls	s15, s14, s15
	fsts	s15, [sp, #232]
	.loc 4 178 0
	ldr	r3, [sp, #4]
	flds	s14, [r3, #112]
	flds	s15, [sp, #232]
	fadds	s15, s14, s15
	ldr	r3, [sp, #4]
	fsts	s15, [r3, #112]
	.loc 4 180 0
	flds	s14, [sp, #220]
	flds	s15, [sp, #232]
	fmuls	s15, s14, s15
	flds	s14, [sp, #204]
	fsubs	s15, s14, s15
	fsts	s15, [sp, #204]
	.loc 4 181 0
	flds	s14, [sp, #224]
	flds	s15, [sp, #232]
	fmuls	s15, s14, s15
	flds	s14, [sp, #208]
	fadds	s15, s14, s15
	fsts	s15, [sp, #208]
	.loc 4 183 0
	ldr	r3, [sp, #4]
	add	r3, r3, #132
	add	r2, sp, #104
	mov	r0, r2
	ldr	r1, [sp, #208]	@ float
	mov	r2, r3
	bl	_Z7b2CrossfRK6b2Vec2
	add	r1, sp, #96
	add	r2, sp, #72
	add	r3, sp, #104
	mov	r0, r1
	mov	r1, r2
	mov	r2, r3
	bl	_ZplRK6b2Vec2S1_
	add	r1, sp, #88
	add	r2, sp, #96
	add	r3, sp, #80
	mov	r0, r1
	mov	r1, r2
	mov	r2, r3
	bl	_ZmiRK6b2Vec2S1_
	ldr	r3, [sp, #4]
	add	r3, r3, #124
	add	r2, sp, #112
	mov	r0, r2
	ldr	r1, [sp, #204]	@ float
	mov	r2, r3
	bl	_Z7b2CrossfRK6b2Vec2
	add	r1, sp, #64
	add	r2, sp, #88
	add	r3, sp, #112
	mov	r0, r1
	mov	r1, r2
	mov	r2, r3
	bl	_ZmiRK6b2Vec2S1_
	.loc 4 185 0
	ldr	r3, [sp, #4]
	add	r2, r3, #172
	add	r1, sp, #120
	add	r3, sp, #64
	mov	r0, r1
	mov	r1, r2
	mov	r2, r3
	bl	_Z7b2Mul22RK7b2Mat33RK6b2Vec2
	add	r2, sp, #56
	add	r3, sp, #120
	mov	r0, r2
	mov	r1, r3
	bl	_ZNK6b2Vec2ngEv
	.loc 4 186 0
	ldr	r3, [sp, #4]
	flds	s14, [r3, #104]
	flds	s15, [sp, #56]
	fadds	s15, s14, s15
	ldr	r3, [sp, #4]
	fsts	s15, [r3, #104]
	.loc 4 187 0
	ldr	r3, [sp, #4]
	flds	s14, [r3, #108]
	flds	s15, [sp, #60]
	fadds	s15, s14, s15
	ldr	r3, [sp, #4]
	fsts	s15, [r3, #108]
	.loc 4 189 0
	add	r3, sp, #48
	add	r2, sp, #56
	ldmia	r2, {r0, r1}
	stmia	r3, {r0, r1}
	.loc 4 191 0
	add	r2, sp, #128
	add	r3, sp, #48
	mov	r0, r2
	ldr	r1, [sp, #212]	@ float
	mov	r2, r3
	bl	_ZmlfRK6b2Vec2
	add	r2, sp, #80
	add	r3, sp, #128
	mov	r0, r2
	mov	r1, r3
	bl	_ZN6b2Vec2mIERKS_
	.loc 4 192 0
	ldr	r3, [sp, #4]
	add	r2, r3, #124
	add	r3, sp, #48
	mov	r0, r2
	mov	r1, r3
	bl	_Z7b2CrossRK6b2Vec2S1_
	fmsr	s14, r0
	flds	s15, [sp, #220]
	fmuls	s15, s14, s15
	flds	s14, [sp, #204]
	fsubs	s15, s14, s15
	fsts	s15, [sp, #204]
	.loc 4 194 0
	add	r2, sp, #136
	add	r3, sp, #48
	mov	r0, r2
	ldr	r1, [sp, #216]	@ float
	mov	r2, r3
	bl	_ZmlfRK6b2Vec2
	add	r2, sp, #72
	add	r3, sp, #136
	mov	r0, r2
	mov	r1, r3
	bl	_ZN6b2Vec2pLERKS_
	.loc 4 195 0
	ldr	r3, [sp, #4]
	add	r2, r3, #132
	add	r3, sp, #48
	mov	r0, r2
	mov	r1, r3
	bl	_Z7b2CrossRK6b2Vec2S1_
	fmsr	s14, r0
	flds	s15, [sp, #224]
	fmuls	s15, s14, s15
	flds	s14, [sp, #208]
	fadds	s15, s14, s15
	fsts	s15, [sp, #208]
	b	.L130
.L129:
.LBE10:
.LBB11:
	.loc 4 199 0
	ldr	r3, [sp, #4]
	add	r3, r3, #132
	add	r2, sp, #160
	mov	r0, r2
	ldr	r1, [sp, #208]	@ float
	mov	r2, r3
	bl	_Z7b2CrossfRK6b2Vec2
	add	r1, sp, #152
	add	r2, sp, #72
	add	r3, sp, #160
	mov	r0, r1
	mov	r1, r2
	mov	r2, r3
	bl	_ZplRK6b2Vec2S1_
	add	r1, sp, #144
	add	r2, sp, #152
	add	r3, sp, #80
	mov	r0, r1
	mov	r1, r2
	mov	r2, r3
	bl	_ZmiRK6b2Vec2S1_
	ldr	r3, [sp, #4]
	add	r3, r3, #124
	add	r2, sp, #168
	mov	r0, r2
	ldr	r1, [sp, #204]	@ float
	mov	r2, r3
	bl	_Z7b2CrossfRK6b2Vec2
	add	r1, sp, #40
	add	r2, sp, #144
	add	r3, sp, #168
	mov	r0, r1
	mov	r1, r2
	mov	r2, r3
	bl	_ZmiRK6b2Vec2S1_
	.loc 4 200 0
	flds	s14, [sp, #208]
	flds	s15, [sp, #204]
	fsubs	s15, s14, s15
	fsts	s15, [sp, #236]
	.loc 4 201 0
	ldr	r2, [sp, #40]	@ float
	ldr	r3, [sp, #44]	@ float
	add	r1, sp, #28
	mov	r0, r1
	mov	r1, r2	@ float
	mov	r2, r3	@ float
	ldr	r3, [sp, #236]	@ float
	bl	_ZN6b2Vec3C1Efff
	.loc 4 203 0
	ldr	r3, [sp, #4]
	add	r2, r3, #172
	add	r1, sp, #176
	add	r3, sp, #28
	mov	r0, r1
	mov	r1, r2
	mov	r2, r3
	bl	_Z5b2MulRK7b2Mat33RK6b2Vec3
	add	r2, sp, #16
	add	r3, sp, #176
	mov	r0, r2
	mov	r1, r3
	bl	_ZNK6b2Vec3ngEv
	.loc 4 204 0
	ldr	r3, [sp, #4]
	add	r2, r3, #104
	add	r3, sp, #16
	mov	r0, r2
	mov	r1, r3
	bl	_ZN6b2Vec3pLERKS_
	.loc 4 206 0
	ldr	r2, [sp, #16]	@ float
	ldr	r3, [sp, #20]	@ float
	add	r1, sp, #8
	mov	r0, r1
	mov	r1, r2	@ float
	mov	r2, r3	@ float
	bl	_ZN6b2Vec2C1Eff
	.loc 4 208 0
	add	r2, sp, #188
	add	r3, sp, #8
	mov	r0, r2
	ldr	r1, [sp, #212]	@ float
	mov	r2, r3
	bl	_ZmlfRK6b2Vec2
	add	r2, sp, #80
	add	r3, sp, #188
	mov	r0, r2
	mov	r1, r3
	bl	_ZN6b2Vec2mIERKS_
	.loc 4 209 0
	ldr	r3, [sp, #4]
	add	r2, r3, #124
	add	r3, sp, #8
	mov	r0, r2
	mov	r1, r3
	bl	_Z7b2CrossRK6b2Vec2S1_
	fmsr	s14, r0
	flds	s15, [sp, #24]
	fadds	s14, s14, s15
	flds	s15, [sp, #220]
	fmuls	s15, s14, s15
	flds	s14, [sp, #204]
	fsubs	s15, s14, s15
	fsts	s15, [sp, #204]
	.loc 4 211 0
	add	r2, sp, #196
	add	r3, sp, #8
	mov	r0, r2
	ldr	r1, [sp, #216]	@ float
	mov	r2, r3
	bl	_ZmlfRK6b2Vec2
	add	r2, sp, #72
	add	r3, sp, #196
	mov	r0, r2
	mov	r1, r3
	bl	_ZN6b2Vec2pLERKS_
	.loc 4 212 0
	ldr	r3, [sp, #4]
	add	r2, r3, #132
	add	r3, sp, #8
	mov	r0, r2
	mov	r1, r3
	bl	_Z7b2CrossRK6b2Vec2S1_
	fmsr	s14, r0
	flds	s15, [sp, #24]
	fadds	s14, s14, s15
	flds	s15, [sp, #224]
	fmuls	s15, s14, s15
	flds	s14, [sp, #208]
	fadds	s15, s14, s15
	fsts	s15, [sp, #208]
.L130:
.LBE11:
	.loc 4 215 0
	ldr	r3, [sp, #0]
	ldr	r1, [r3, #28]
	ldr	r3, [sp, #4]
	ldr	r3, [r3, #116]
	mov	r2, r3
	mov	r3, r2
	mov	r3, r3, asl #1
	add	r3, r3, r2
	mov	r3, r3, asl #2
	add	r3, r1, r3
	add	r2, sp, #80
	ldmia	r2, {r0, r1}
	stmia	r3, {r0, r1}
	.loc 4 216 0
	ldr	r3, [sp, #0]
	ldr	r1, [r3, #28]
	ldr	r3, [sp, #4]
	ldr	r3, [r3, #116]
	mov	r2, r3
	mov	r3, r2
	mov	r3, r3, asl #1
	add	r3, r3, r2
	mov	r3, r3, asl #2
	add	r3, r1, r3
	flds	s15, [sp, #204]
	fsts	s15, [r3, #8]
	.loc 4 217 0
	ldr	r3, [sp, #0]
	ldr	r1, [r3, #28]
	ldr	r3, [sp, #4]
	ldr	r3, [r3, #120]
	mov	r2, r3
	mov	r3, r2
	mov	r3, r3, asl #1
	add	r3, r3, r2
	mov	r3, r3, asl #2
	add	r3, r1, r3
	add	r2, sp, #72
	ldmia	r2, {r0, r1}
	stmia	r3, {r0, r1}
	.loc 4 218 0
	ldr	r3, [sp, #0]
	ldr	r1, [r3, #28]
	ldr	r3, [sp, #4]
	ldr	r3, [r3, #120]
	mov	r2, r3
	mov	r3, r2
	mov	r3, r3, asl #1
	add	r3, r3, r2
	mov	r3, r3, asl #2
	add	r3, r1, r3
	flds	s15, [sp, #208]
	fsts	s15, [r3, #8]
.LBE9:
	.loc 4 219 0
	add	sp, sp, #244
	ldmfd	sp!, {pc}
	.cfi_endproc
.LFE516:
	.size	_ZN11b2WeldJoint24SolveVelocityConstraintsERK12b2SolverData, .-_ZN11b2WeldJoint24SolveVelocityConstraintsERK12b2SolverData
	.section	.text._ZN11b2WeldJoint24SolvePositionConstraintsERK12b2SolverData,"ax",%progbits
	.align	2
	.global	_ZN11b2WeldJoint24SolvePositionConstraintsERK12b2SolverData
	.hidden	_ZN11b2WeldJoint24SolvePositionConstraintsERK12b2SolverData
	.type	_ZN11b2WeldJoint24SolvePositionConstraintsERK12b2SolverData, %function
_ZN11b2WeldJoint24SolvePositionConstraintsERK12b2SolverData:
.LFB517:
	.loc 4 222 0
	.cfi_startproc
	@ args = 0, pretend = 0, frame = 288
	@ frame_needed = 0, uses_anonymous_args = 0
	str	lr, [sp, #-4]!
.LCFI69:
	.cfi_def_cfa_offset 4
	sub	sp, sp, #292
.LCFI70:
	.cfi_def_cfa_offset 296
	str	r0, [sp, #4]
	str	r1, [sp, #0]
.LBB12:
	.loc 4 223 0
	ldr	r3, [sp, #0]
	ldr	r1, [r3, #24]
	ldr	r3, [sp, #4]
	ldr	r3, [r3, #116]
	mov	r2, r3
	mov	r3, r2
	mov	r3, r3, asl #1
	add	r3, r3, r2
	mov	r3, r3, asl #2
	add	r2, r1, r3
	add	r3, sp, #144
	ldmia	r2, {r0, r1}
	stmia	r3, {r0, r1}
	.loc 4 224 0
	ldr	r3, [sp, #0]
	ldr	r1, [r3, #24]
	ldr	r3, [sp, #4]
	ldr	r3, [r3, #116]
	mov	r2, r3
	mov	r3, r2
	mov	r3, r3, asl #1
	add	r3, r3, r2
	mov	r3, r3, asl #2
	add	r3, r1, r3
	flds	s15, [r3, #8]
	fsts	s15, [sp, #252]
	.loc 4 225 0
	ldr	r3, [sp, #0]
	ldr	r1, [r3, #24]
	ldr	r3, [sp, #4]
	ldr	r3, [r3, #120]
	mov	r2, r3
	mov	r3, r2
	mov	r3, r3, asl #1
	add	r3, r3, r2
	mov	r3, r3, asl #2
	add	r2, r1, r3
	add	r3, sp, #136
	ldmia	r2, {r0, r1}
	stmia	r3, {r0, r1}
	.loc 4 226 0
	ldr	r3, [sp, #0]
	ldr	r1, [r3, #24]
	ldr	r3, [sp, #4]
	ldr	r3, [r3, #120]
	mov	r2, r3
	mov	r3, r2
	mov	r3, r3, asl #1
	add	r3, r3, r2
	mov	r3, r3, asl #2
	add	r3, r1, r3
	flds	s15, [r3, #8]
	fsts	s15, [sp, #256]
	.loc 4 228 0
	add	r3, sp, #128
	mov	r0, r3
	ldr	r1, [sp, #252]	@ float
	.cfi_offset 14, -4
	bl	_ZN5b2RotC1Ef
	add	r3, sp, #120
	mov	r0, r3
	ldr	r1, [sp, #256]	@ float
	bl	_ZN5b2RotC1Ef
	.loc 4 230 0
	ldr	r3, [sp, #4]
	flds	s15, [r3, #156]
	fsts	s15, [sp, #260]
	ldr	r3, [sp, #4]
	flds	s15, [r3, #160]
	fsts	s15, [sp, #264]
	.loc 4 231 0
	ldr	r3, [sp, #4]
	flds	s15, [r3, #164]
	fsts	s15, [sp, #268]
	ldr	r3, [sp, #4]
	flds	s15, [r3, #168]
	fsts	s15, [sp, #272]
	.loc 4 233 0
	ldr	r3, [sp, #4]
	add	r2, r3, #80
	ldr	r3, [sp, #4]
	add	r3, r3, #140
	add	r1, sp, #152
	mov	r0, r1
	mov	r1, r2
	mov	r2, r3
	bl	_ZmiRK6b2Vec2S1_
	add	r1, sp, #112
	add	r2, sp, #128
	add	r3, sp, #152
	mov	r0, r1
	mov	r1, r2
	mov	r2, r3
	bl	_Z5b2MulRK5b2RotRK6b2Vec2
	.loc 4 234 0
	ldr	r3, [sp, #4]
	add	r2, r3, #88
	ldr	r3, [sp, #4]
	add	r3, r3, #148
	add	r1, sp, #160
	mov	r0, r1
	mov	r1, r2
	mov	r2, r3
	bl	_ZmiRK6b2Vec2S1_
	add	r1, sp, #104
	add	r2, sp, #120
	add	r3, sp, #160
	mov	r0, r1
	mov	r1, r2
	mov	r2, r3
	bl	_Z5b2MulRK5b2RotRK6b2Vec2
	.loc 4 238 0
	add	r3, sp, #12
	mov	r0, r3
	bl	_ZN7b2Mat33C1Ev
	.loc 4 239 0
	flds	s14, [sp, #260]
	flds	s15, [sp, #264]
	fadds	s14, s14, s15
	flds	s13, [sp, #116]
	flds	s15, [sp, #116]
	fmuls	s15, s13, s15
	flds	s13, [sp, #268]
	fmuls	s15, s15, s13
	fadds	s14, s14, s15
	flds	s13, [sp, #108]
	flds	s15, [sp, #108]
	fmuls	s15, s13, s15
	flds	s13, [sp, #272]
	fmuls	s15, s15, s13
	fadds	s15, s14, s15
	fsts	s15, [sp, #12]
	.loc 4 240 0
	flds	s15, [sp, #116]
	fnegs	s14, s15
	flds	s15, [sp, #112]
	fmuls	s15, s14, s15
	flds	s14, [sp, #268]
	fmuls	s14, s15, s14
	flds	s13, [sp, #108]
	flds	s15, [sp, #104]
	fmuls	s15, s13, s15
	flds	s13, [sp, #272]
	fmuls	s15, s15, s13
	fsubs	s15, s14, s15
	fsts	s15, [sp, #24]
	.loc 4 241 0
	flds	s15, [sp, #116]
	fnegs	s14, s15
	flds	s15, [sp, #268]
	fmuls	s14, s14, s15
	flds	s13, [sp, #108]
	flds	s15, [sp, #272]
	fmuls	s15, s13, s15
	fsubs	s15, s14, s15
	fsts	s15, [sp, #36]
	.loc 4 242 0
	flds	s15, [sp, #24]
	fsts	s15, [sp, #16]
	.loc 4 243 0
	flds	s14, [sp, #260]
	flds	s15, [sp, #264]
	fadds	s14, s14, s15
	flds	s13, [sp, #112]
	flds	s15, [sp, #112]
	fmuls	s15, s13, s15
	flds	s13, [sp, #268]
	fmuls	s15, s15, s13
	fadds	s14, s14, s15
	flds	s13, [sp, #104]
	flds	s15, [sp, #104]
	fmuls	s15, s13, s15
	flds	s13, [sp, #272]
	fmuls	s15, s15, s13
	fadds	s15, s14, s15
	fsts	s15, [sp, #28]
	.loc 4 244 0
	flds	s14, [sp, #112]
	flds	s15, [sp, #268]
	fmuls	s14, s14, s15
	flds	s13, [sp, #104]
	flds	s15, [sp, #272]
	fmuls	s15, s13, s15
	fadds	s15, s14, s15
	fsts	s15, [sp, #40]
	.loc 4 245 0
	flds	s15, [sp, #36]
	fsts	s15, [sp, #20]
	.loc 4 246 0
	flds	s15, [sp, #40]
	fsts	s15, [sp, #32]
	.loc 4 247 0
	flds	s14, [sp, #268]
	flds	s15, [sp, #272]
	fadds	s15, s14, s15
	fsts	s15, [sp, #44]
	.loc 4 249 0
	ldr	r3, [sp, #4]
	flds	s15, [r3, #68]
	fcmpezs	s15
	fmstat
	movle	r3, #0
	movgt	r3, #1
	and	r3, r3, #255
	cmp	r3, #0
	beq	.L133
.LBB13:
	.loc 4 251 0
	add	r1, sp, #176
	add	r2, sp, #136
	add	r3, sp, #104
	mov	r0, r1
	mov	r1, r2
	mov	r2, r3
	bl	_ZplRK6b2Vec2S1_
	add	r1, sp, #168
	add	r2, sp, #176
	add	r3, sp, #144
	mov	r0, r1
	mov	r1, r2
	mov	r2, r3
	bl	_ZmiRK6b2Vec2S1_
	add	r1, sp, #96
	add	r2, sp, #168
	add	r3, sp, #112
	mov	r0, r1
	mov	r1, r2
	mov	r2, r3
	bl	_ZmiRK6b2Vec2S1_
	.loc 4 253 0
	add	r3, sp, #96
	mov	r0, r3
	bl	_ZNK6b2Vec26LengthEv
	mov	r3, r0	@ float
	str	r3, [sp, #276]	@ float
	.loc 4 254 0
	flds	s15, .L138
	fsts	s15, [sp, #280]
	.loc 4 256 0
	add	r1, sp, #184
	add	r2, sp, #12
	add	r3, sp, #96
	mov	r0, r1
	mov	r1, r2
	mov	r2, r3
	bl	_ZNK7b2Mat337Solve22ERK6b2Vec2
	add	r2, sp, #88
	add	r3, sp, #184
	mov	r0, r2
	mov	r1, r3
	bl	_ZNK6b2Vec2ngEv
	.loc 4 258 0
	add	r2, sp, #192
	add	r3, sp, #88
	mov	r0, r2
	ldr	r1, [sp, #260]	@ float
	mov	r2, r3
	bl	_ZmlfRK6b2Vec2
	add	r2, sp, #144
	add	r3, sp, #192
	mov	r0, r2
	mov	r1, r3
	bl	_ZN6b2Vec2mIERKS_
	.loc 4 259 0
	add	r2, sp, #112
	add	r3, sp, #88
	mov	r0, r2
	mov	r1, r3
	bl	_Z7b2CrossRK6b2Vec2S1_
	fmsr	s14, r0
	flds	s15, [sp, #268]
	fmuls	s15, s14, s15
	flds	s14, [sp, #252]
	fsubs	s15, s14, s15
	fsts	s15, [sp, #252]
	.loc 4 261 0
	add	r2, sp, #200
	add	r3, sp, #88
	mov	r0, r2
	ldr	r1, [sp, #264]	@ float
	mov	r2, r3
	bl	_ZmlfRK6b2Vec2
	add	r2, sp, #136
	add	r3, sp, #200
	mov	r0, r2
	mov	r1, r3
	bl	_ZN6b2Vec2pLERKS_
	.loc 4 262 0
	add	r2, sp, #104
	add	r3, sp, #88
	mov	r0, r2
	mov	r1, r3
	bl	_Z7b2CrossRK6b2Vec2S1_
	fmsr	s14, r0
	flds	s15, [sp, #272]
	fmuls	s15, s14, s15
	flds	s14, [sp, #256]
	fadds	s15, s14, s15
	fsts	s15, [sp, #256]
	b	.L134
.L133:
.LBE13:
.LBB14:
	.loc 4 266 0
	add	r1, sp, #216
	add	r2, sp, #136
	add	r3, sp, #104
	mov	r0, r1
	mov	r1, r2
	mov	r2, r3
	bl	_ZplRK6b2Vec2S1_
	add	r1, sp, #208
	add	r2, sp, #216
	add	r3, sp, #144
	mov	r0, r1
	mov	r1, r2
	mov	r2, r3
	bl	_ZmiRK6b2Vec2S1_
	add	r1, sp, #80
	add	r2, sp, #208
	add	r3, sp, #112
	mov	r0, r1
	mov	r1, r2
	mov	r2, r3
	bl	_ZmiRK6b2Vec2S1_
	.loc 4 267 0
	flds	s14, [sp, #256]
	flds	s15, [sp, #252]
	fsubs	s14, s14, s15
	ldr	r3, [sp, #4]
	flds	s15, [r3, #96]
	fsubs	s15, s14, s15
	fsts	s15, [sp, #284]
	.loc 4 269 0
	add	r3, sp, #80
	mov	r0, r3
	bl	_ZNK6b2Vec26LengthEv
	mov	r3, r0	@ float
	str	r3, [sp, #276]	@ float
	.loc 4 270 0
	ldr	r0, [sp, #284]	@ float
	bl	_Z5b2AbsIfET_S0_
	mov	r3, r0	@ float
	str	r3, [sp, #280]	@ float
	.loc 4 272 0
	ldr	r2, [sp, #80]	@ float
	ldr	r3, [sp, #84]	@ float
	add	r1, sp, #68
	mov	r0, r1
	mov	r1, r2	@ float
	mov	r2, r3	@ float
	ldr	r3, [sp, #284]	@ float
	bl	_ZN6b2Vec3C1Efff
	.loc 4 274 0
	add	r1, sp, #224
	add	r2, sp, #12
	add	r3, sp, #68
	mov	r0, r1
	mov	r1, r2
	mov	r2, r3
	bl	_ZNK7b2Mat337Solve33ERK6b2Vec3
	add	r2, sp, #56
	add	r3, sp, #224
	mov	r0, r2
	mov	r1, r3
	bl	_ZNK6b2Vec3ngEv
	.loc 4 275 0
	ldr	r2, [sp, #56]	@ float
	ldr	r3, [sp, #60]	@ float
	add	r1, sp, #48
	mov	r0, r1
	mov	r1, r2	@ float
	mov	r2, r3	@ float
	bl	_ZN6b2Vec2C1Eff
	.loc 4 277 0
	add	r2, sp, #236
	add	r3, sp, #48
	mov	r0, r2
	ldr	r1, [sp, #260]	@ float
	mov	r2, r3
	bl	_ZmlfRK6b2Vec2
	add	r2, sp, #144
	add	r3, sp, #236
	mov	r0, r2
	mov	r1, r3
	bl	_ZN6b2Vec2mIERKS_
	.loc 4 278 0
	add	r2, sp, #112
	add	r3, sp, #48
	mov	r0, r2
	mov	r1, r3
	bl	_Z7b2CrossRK6b2Vec2S1_
	fmsr	s14, r0
	flds	s15, [sp, #64]
	fadds	s14, s14, s15
	flds	s15, [sp, #268]
	fmuls	s15, s14, s15
	flds	s14, [sp, #252]
	fsubs	s15, s14, s15
	fsts	s15, [sp, #252]
	.loc 4 280 0
	add	r2, sp, #244
	add	r3, sp, #48
	mov	r0, r2
	ldr	r1, [sp, #264]	@ float
	mov	r2, r3
	bl	_ZmlfRK6b2Vec2
	add	r2, sp, #136
	add	r3, sp, #244
	mov	r0, r2
	mov	r1, r3
	bl	_ZN6b2Vec2pLERKS_
	.loc 4 281 0
	add	r2, sp, #104
	add	r3, sp, #48
	mov	r0, r2
	mov	r1, r3
	bl	_Z7b2CrossRK6b2Vec2S1_
	fmsr	s14, r0
	flds	s15, [sp, #64]
	fadds	s14, s14, s15
	flds	s15, [sp, #272]
	fmuls	s15, s14, s15
	flds	s14, [sp, #256]
	fadds	s15, s14, s15
	fsts	s15, [sp, #256]
.L134:
.LBE14:
	.loc 4 284 0
	ldr	r3, [sp, #0]
	ldr	r1, [r3, #24]
	ldr	r3, [sp, #4]
	ldr	r3, [r3, #116]
	mov	r2, r3
	mov	r3, r2
	mov	r3, r3, asl #1
	add	r3, r3, r2
	mov	r3, r3, asl #2
	add	r3, r1, r3
	add	r2, sp, #144
	ldmia	r2, {r0, r1}
	stmia	r3, {r0, r1}
	.loc 4 285 0
	ldr	r3, [sp, #0]
	ldr	r1, [r3, #24]
	ldr	r3, [sp, #4]
	ldr	r3, [r3, #116]
	mov	r2, r3
	mov	r3, r2
	mov	r3, r3, asl #1
	add	r3, r3, r2
	mov	r3, r3, asl #2
	add	r3, r1, r3
	flds	s15, [sp, #252]
	fsts	s15, [r3, #8]
	.loc 4 286 0
	ldr	r3, [sp, #0]
	ldr	r1, [r3, #24]
	ldr	r3, [sp, #4]
	ldr	r3, [r3, #120]
	mov	r2, r3
	mov	r3, r2
	mov	r3, r3, asl #1
	add	r3, r3, r2
	mov	r3, r3, asl #2
	add	r3, r1, r3
	add	r2, sp, #136
	ldmia	r2, {r0, r1}
	stmia	r3, {r0, r1}
	.loc 4 287 0
	ldr	r3, [sp, #0]
	ldr	r1, [r3, #24]
	ldr	r3, [sp, #4]
	ldr	r3, [r3, #120]
	mov	r2, r3
	mov	r3, r2
	mov	r3, r3, asl #1
	add	r3, r3, r2
	mov	r3, r3, asl #2
	add	r3, r1, r3
	flds	s15, [sp, #256]
	fsts	s15, [r3, #8]
	.loc 4 289 0
	flds	s14, [sp, #276]
	flds	s15, .L138+4
	fcmpes	s14, s15
	fmstat
	movhi	r3, #0
	movls	r3, #1
	and	r3, r3, #255
	cmp	r3, #0
	beq	.L135
	flds	s14, [sp, #280]
	flds	s15, .L138+8
	fcmpes	s14, s15
	fmstat
	movhi	r3, #0
	movls	r3, #1
	and	r3, r3, #255
	cmp	r3, #0
	beq	.L135
	mov	r3, #1
	b	.L136
.L139:
	.align	2
.L138:
	.word	0
	.word	1000593162
	.word	1024391734
.L135:
	mov	r3, #0
.L136:
.LBE12:
	.loc 4 290 0
	mov	r0, r3
	add	sp, sp, #292
	ldmfd	sp!, {pc}
	.cfi_endproc
.LFE517:
	.size	_ZN11b2WeldJoint24SolvePositionConstraintsERK12b2SolverData, .-_ZN11b2WeldJoint24SolvePositionConstraintsERK12b2SolverData
	.section	.text._ZNK11b2WeldJoint10GetAnchorAEv,"ax",%progbits
	.align	2
	.global	_ZNK11b2WeldJoint10GetAnchorAEv
	.hidden	_ZNK11b2WeldJoint10GetAnchorAEv
	.type	_ZNK11b2WeldJoint10GetAnchorAEv, %function
_ZNK11b2WeldJoint10GetAnchorAEv:
.LFB518:
	.loc 4 293 0
	.cfi_startproc
	@ args = 0, pretend = 0, frame = 8
	@ frame_needed = 0, uses_anonymous_args = 0
	stmfd	sp!, {r4, lr}
.LCFI71:
	.cfi_def_cfa_offset 8
	sub	sp, sp, #8
.LCFI72:
	.cfi_def_cfa_offset 16
	mov	r4, r0
	.cfi_offset 14, -4
	.cfi_offset 4, -8
	str	r1, [sp, #4]
	.loc 4 294 0
	ldr	r3, [sp, #4]
	ldr	r2, [r3, #48]
	ldr	r3, [sp, #4]
	add	r3, r3, #80
	mov	r0, r4
	mov	r1, r2
	mov	r2, r3
	bl	_ZNK6b2Body13GetWorldPointERK6b2Vec2
	.loc 4 295 0
	mov	r0, r4
	add	sp, sp, #8
	ldmfd	sp!, {r4, pc}
	.cfi_endproc
.LFE518:
	.size	_ZNK11b2WeldJoint10GetAnchorAEv, .-_ZNK11b2WeldJoint10GetAnchorAEv
	.section	.text._ZNK11b2WeldJoint10GetAnchorBEv,"ax",%progbits
	.align	2
	.global	_ZNK11b2WeldJoint10GetAnchorBEv
	.hidden	_ZNK11b2WeldJoint10GetAnchorBEv
	.type	_ZNK11b2WeldJoint10GetAnchorBEv, %function
_ZNK11b2WeldJoint10GetAnchorBEv:
.LFB519:
	.loc 4 298 0
	.cfi_startproc
	@ args = 0, pretend = 0, frame = 8
	@ frame_needed = 0, uses_anonymous_args = 0
	stmfd	sp!, {r4, lr}
.LCFI73:
	.cfi_def_cfa_offset 8
	sub	sp, sp, #8
.LCFI74:
	.cfi_def_cfa_offset 16
	mov	r4, r0
	.cfi_offset 14, -4
	.cfi_offset 4, -8
	str	r1, [sp, #4]
	.loc 4 299 0
	ldr	r3, [sp, #4]
	ldr	r2, [r3, #52]
	ldr	r3, [sp, #4]
	add	r3, r3, #88
	mov	r0, r4
	mov	r1, r2
	mov	r2, r3
	bl	_ZNK6b2Body13GetWorldPointERK6b2Vec2
	.loc 4 300 0
	mov	r0, r4
	add	sp, sp, #8
	ldmfd	sp!, {r4, pc}
	.cfi_endproc
.LFE519:
	.size	_ZNK11b2WeldJoint10GetAnchorBEv, .-_ZNK11b2WeldJoint10GetAnchorBEv
	.section	.text._ZNK11b2WeldJoint16GetReactionForceEf,"ax",%progbits
	.align	2
	.global	_ZNK11b2WeldJoint16GetReactionForceEf
	.hidden	_ZNK11b2WeldJoint16GetReactionForceEf
	.type	_ZNK11b2WeldJoint16GetReactionForceEf, %function
_ZNK11b2WeldJoint16GetReactionForceEf:
.LFB520:
	.loc 4 303 0
	.cfi_startproc
	@ args = 0, pretend = 0, frame = 16
	@ frame_needed = 0, uses_anonymous_args = 0
	stmfd	sp!, {r4, lr}
.LCFI75:
	.cfi_def_cfa_offset 8
	sub	sp, sp, #16
.LCFI76:
	.cfi_def_cfa_offset 24
	mov	r4, r0
	.cfi_offset 14, -4
	.cfi_offset 4, -8
	str	r1, [sp, #4]
	str	r2, [sp, #0]	@ float
.LBB15:
	.loc 4 304 0
	ldr	r3, [sp, #4]
	ldr	r2, [r3, #104]	@ float
	ldr	r3, [sp, #4]
	ldr	r3, [r3, #108]	@ float
	add	r1, sp, #8
	mov	r0, r1
	mov	r1, r2	@ float
	mov	r2, r3	@ float
	bl	_ZN6b2Vec2C1Eff
	.loc 4 305 0
	add	r3, sp, #8
	mov	r0, r4
	ldr	r1, [sp, #0]	@ float
	mov	r2, r3
	bl	_ZmlfRK6b2Vec2
.LBE15:
	.loc 4 306 0
	mov	r0, r4
	add	sp, sp, #16
	ldmfd	sp!, {r4, pc}
	.cfi_endproc
.LFE520:
	.size	_ZNK11b2WeldJoint16GetReactionForceEf, .-_ZNK11b2WeldJoint16GetReactionForceEf
	.section	.text._ZNK11b2WeldJoint17GetReactionTorqueEf,"ax",%progbits
	.align	2
	.global	_ZNK11b2WeldJoint17GetReactionTorqueEf
	.hidden	_ZNK11b2WeldJoint17GetReactionTorqueEf
	.type	_ZNK11b2WeldJoint17GetReactionTorqueEf, %function
_ZNK11b2WeldJoint17GetReactionTorqueEf:
.LFB521:
	.loc 4 309 0
	.cfi_startproc
	@ args = 0, pretend = 0, frame = 8
	@ frame_needed = 0, uses_anonymous_args = 0
	@ link register save eliminated.
	sub	sp, sp, #8
.LCFI77:
	.cfi_def_cfa_offset 8
	str	r0, [sp, #4]
	str	r1, [sp, #0]	@ float
	.loc 4 310 0
	ldr	r3, [sp, #4]
	flds	s14, [r3, #112]
	flds	s15, [sp, #0]
	fmuls	s15, s14, s15
	fmrs	r3, s15
	.loc 4 311 0
	mov	r0, r3	@ float
	add	sp, sp, #8
	bx	lr
	.cfi_endproc
.LFE521:
	.size	_ZNK11b2WeldJoint17GetReactionTorqueEf, .-_ZNK11b2WeldJoint17GetReactionTorqueEf
	.section	.rodata
	.align	2
.LC1:
	.ascii	"  b2WeldJointDef jd;\012\000"
	.align	2
.LC2:
	.ascii	"  jd.bodyA = bodies[%d];\012\000"
	.align	2
.LC3:
	.ascii	"  jd.bodyB = bodies[%d];\012\000"
	.align	2
.LC4:
	.ascii	"  jd.collideConnected = bool(%d);\012\000"
	.align	2
.LC5:
	.ascii	"  jd.localAnchorA.Set(%.15lef, %.15lef);\012\000"
	.align	2
.LC6:
	.ascii	"  jd.localAnchorB.Set(%.15lef, %.15lef);\012\000"
	.align	2
.LC7:
	.ascii	"  jd.referenceAngle = %.15lef;\012\000"
	.align	2
.LC8:
	.ascii	"  jd.frequencyHz = %.15lef;\012\000"
	.align	2
.LC9:
	.ascii	"  jd.dampingRatio = %.15lef;\012\000"
	.align	2
.LC10:
	.ascii	"  joints[%d] = m_world->CreateJoint(&jd);\012\000"
	.section	.text._ZN11b2WeldJoint4DumpEv,"ax",%progbits
	.align	2
	.global	_ZN11b2WeldJoint4DumpEv
	.hidden	_ZN11b2WeldJoint4DumpEv
	.type	_ZN11b2WeldJoint4DumpEv, %function
_ZN11b2WeldJoint4DumpEv:
.LFB522:
	.loc 4 314 0
	.cfi_startproc
	@ args = 0, pretend = 0, frame = 16
	@ frame_needed = 0, uses_anonymous_args = 0
	str	lr, [sp, #-4]!
.LCFI78:
	.cfi_def_cfa_offset 4
	sub	sp, sp, #28
.LCFI79:
	.cfi_def_cfa_offset 32
	str	r0, [sp, #12]
.LBB16:
	.loc 4 315 0
	ldr	r3, [sp, #12]
	ldr	r3, [r3, #48]
	ldr	r3, [r3, #8]
	str	r3, [sp, #16]
	.loc 4 316 0
	ldr	r3, [sp, #12]
	ldr	r3, [r3, #52]
	ldr	r3, [r3, #8]
	str	r3, [sp, #20]
	.loc 4 318 0
	ldr	r0, .L150
	.cfi_offset 14, -4
	bl	_Z5b2LogPKcz
	.loc 4 319 0
	ldr	r0, .L150+4
	ldr	r1, [sp, #16]
	bl	_Z5b2LogPKcz
	.loc 4 320 0
	ldr	r0, .L150+8
	ldr	r1, [sp, #20]
	bl	_Z5b2LogPKcz
	.loc 4 321 0
	ldr	r3, [sp, #12]
	ldrb	r3, [r3, #61]	@ zero_extendqisi2
	ldr	r0, .L150+12
	mov	r1, r3
	bl	_Z5b2LogPKcz
	.loc 4 322 0
	ldr	r3, [sp, #12]
	flds	s15, [r3, #80]
	fcvtds	d6, s15
	ldr	r3, [sp, #12]
	flds	s15, [r3, #84]
	fcvtds	d7, s15
	fstd	d7, [sp, #0]
	ldr	r0, .L150+16
	fmrrd	r2, r3, d6
	bl	_Z5b2LogPKcz
	.loc 4 323 0
	ldr	r3, [sp, #12]
	flds	s15, [r3, #88]
	fcvtds	d6, s15
	ldr	r3, [sp, #12]
	flds	s15, [r3, #92]
	fcvtds	d7, s15
	fstd	d7, [sp, #0]
	ldr	r0, .L150+20
	fmrrd	r2, r3, d6
	bl	_Z5b2LogPKcz
	.loc 4 324 0
	ldr	r3, [sp, #12]
	flds	s15, [r3, #96]
	fcvtds	d7, s15
	ldr	r0, .L150+24
	fmrrd	r2, r3, d7
	bl	_Z5b2LogPKcz
	.loc 4 325 0
	ldr	r3, [sp, #12]
	flds	s15, [r3, #68]
	fcvtds	d7, s15
	ldr	r0, .L150+28
	fmrrd	r2, r3, d7
	bl	_Z5b2LogPKcz
	.loc 4 326 0
	ldr	r3, [sp, #12]
	flds	s15, [r3, #72]
	fcvtds	d7, s15
	ldr	r0, .L150+32
	fmrrd	r2, r3, d7
	bl	_Z5b2LogPKcz
	.loc 4 327 0
	ldr	r3, [sp, #12]
	ldr	r3, [r3, #56]
	ldr	r0, .L150+36
	mov	r1, r3
	bl	_Z5b2LogPKcz
.LBE16:
	.loc 4 328 0
	add	sp, sp, #28
	ldmfd	sp!, {pc}
.L151:
	.align	2
.L150:
	.word	.LC1
	.word	.LC2
	.word	.LC3
	.word	.LC4
	.word	.LC5
	.word	.LC6
	.word	.LC7
	.word	.LC8
	.word	.LC9
	.word	.LC10
	.cfi_endproc
.LFE522:
	.size	_ZN11b2WeldJoint4DumpEv, .-_ZN11b2WeldJoint4DumpEv
	.section	.text._Z5b2AbsIfET_S0_,"axG",%progbits,_Z5b2AbsIfET_S0_,comdat
	.align	2
	.weak	_Z5b2AbsIfET_S0_
	.hidden	_Z5b2AbsIfET_S0_
	.type	_Z5b2AbsIfET_S0_, %function
_Z5b2AbsIfET_S0_:
.LFB523:
	.loc 1 616 0
	.cfi_startproc
	@ args = 0, pretend = 0, frame = 8
	@ frame_needed = 0, uses_anonymous_args = 0
	@ link register save eliminated.
	sub	sp, sp, #8
.LCFI80:
	.cfi_def_cfa_offset 8
	str	r0, [sp, #4]	@ float
	.loc 1 618 0
	flds	s15, [sp, #4]
	fcmpezs	s15
	fmstat
	movle	r3, #0
	movgt	r3, #1
	and	r3, r3, #255
	cmp	r3, #0
	beq	.L153
	flds	s15, [sp, #4]
	b	.L154
.L153:
	flds	s15, [sp, #4]
	fnegs	s15, s15
.L154:
	fmrs	r3, s15
	.loc 1 619 0
	mov	r0, r3	@ float
	add	sp, sp, #8
	bx	lr
	.cfi_endproc
.LFE523:
	.size	_Z5b2AbsIfET_S0_, .-_Z5b2AbsIfET_S0_
	.hidden	_ZTV11b2WeldJoint
	.global	_ZTV11b2WeldJoint
	.section	.rodata
	.align	3
	.type	_ZTV11b2WeldJoint, %object
	.size	_ZTV11b2WeldJoint, 52
_ZTV11b2WeldJoint:
	.word	0
	.word	_ZTI11b2WeldJoint
	.word	_ZNK11b2WeldJoint10GetAnchorAEv
	.word	_ZNK11b2WeldJoint10GetAnchorBEv
	.word	_ZNK11b2WeldJoint16GetReactionForceEf
	.word	_ZNK11b2WeldJoint17GetReactionTorqueEf
	.word	_ZN11b2WeldJoint4DumpEv
	.word	_ZN7b2Joint11ShiftOriginERK6b2Vec2
	.word	_ZN11b2WeldJointD1Ev
	.word	_ZN11b2WeldJointD0Ev
	.word	_ZN11b2WeldJoint23InitVelocityConstraintsERK12b2SolverData
	.word	_ZN11b2WeldJoint24SolveVelocityConstraintsERK12b2SolverData
	.word	_ZN11b2WeldJoint24SolvePositionConstraintsERK12b2SolverData
	.hidden	_ZTV7b2Joint
	.weak	_ZTV7b2Joint
	.section	.rodata._ZTV7b2Joint,"aG",%progbits,_ZTV7b2Joint,comdat
	.align	3
	.type	_ZTV7b2Joint, %object
	.size	_ZTV7b2Joint, 52
_ZTV7b2Joint:
	.word	0
	.word	_ZTI7b2Joint
	.word	__cxa_pure_virtual
	.word	__cxa_pure_virtual
	.word	__cxa_pure_virtual
	.word	__cxa_pure_virtual
	.word	_ZN7b2Joint4DumpEv
	.word	_ZN7b2Joint11ShiftOriginERK6b2Vec2
	.word	_ZN7b2JointD1Ev
	.word	_ZN7b2JointD0Ev
	.word	__cxa_pure_virtual
	.word	__cxa_pure_virtual
	.word	__cxa_pure_virtual
	.hidden	_ZTI11b2WeldJoint
	.global	_ZTI11b2WeldJoint
	.section	.rodata
	.align	2
	.type	_ZTI11b2WeldJoint, %object
	.size	_ZTI11b2WeldJoint, 12
_ZTI11b2WeldJoint:
	.word	_ZTVN10__cxxabiv120__si_class_type_infoE+8
	.word	_ZTS11b2WeldJoint
	.word	_ZTI7b2Joint
	.hidden	_ZTS11b2WeldJoint
	.global	_ZTS11b2WeldJoint
	.align	2
	.type	_ZTS11b2WeldJoint, %object
	.size	_ZTS11b2WeldJoint, 14
_ZTS11b2WeldJoint:
	.ascii	"11b2WeldJoint\000"
	.hidden	_ZTS7b2Joint
	.weak	_ZTS7b2Joint
	.section	.rodata._ZTS7b2Joint,"aG",%progbits,_ZTS7b2Joint,comdat
	.align	2
	.type	_ZTS7b2Joint, %object
	.size	_ZTS7b2Joint, 9
_ZTS7b2Joint:
	.ascii	"7b2Joint\000"
	.hidden	_ZTI7b2Joint
	.weak	_ZTI7b2Joint
	.section	.rodata._ZTI7b2Joint,"aG",%progbits,_ZTI7b2Joint,comdat
	.align	2
	.type	_ZTI7b2Joint, %object
	.size	_ZTI7b2Joint, 8
_ZTI7b2Joint:
	.word	_ZTVN10__cxxabiv117__class_type_infoE+8
	.word	_ZTS7b2Joint
	.section	.text._ZN11b2WeldJointD1Ev,"axG",%progbits,_ZN11b2WeldJointD1Ev,comdat
	.align	2
	.weak	_ZN11b2WeldJointD1Ev
	.hidden	_ZN11b2WeldJointD1Ev
	.type	_ZN11b2WeldJointD1Ev, %function
_ZN11b2WeldJointD1Ev:
.LFB530:
	.file 5 "v:/gigglingbits/box2d/Box2D/Dynamics/Joints/b2WeldJoint.h"
	.loc 5 63 0
	.cfi_startproc
	@ args = 0, pretend = 0, frame = 8
	@ frame_needed = 0, uses_anonymous_args = 0
	str	lr, [sp, #-4]!
.LCFI81:
	.cfi_def_cfa_offset 4
	sub	sp, sp, #12
.LCFI82:
	.cfi_def_cfa_offset 16
	str	r0, [sp, #4]
	.loc 5 63 0
	ldr	r3, [sp, #4]
	ldr	r2, .L160
	str	r2, [r3, #0]
	ldr	r3, [sp, #4]
	mov	r0, r3
	.cfi_offset 14, -4
	bl	_ZN7b2JointD2Ev
	mov	r3, #0
	and	r3, r3, #255
	cmp	r3, #0
	beq	.L158
	ldr	r0, [sp, #4]
	bl	_ZdlPv
.L158:
	ldr	r3, [sp, #4]
	mov	r0, r3
	add	sp, sp, #12
	ldmfd	sp!, {pc}
.L161:
	.align	2
.L160:
	.word	_ZTV11b2WeldJoint+8
	.cfi_endproc
.LFE530:
	.size	_ZN11b2WeldJointD1Ev, .-_ZN11b2WeldJointD1Ev
	.section	.text._ZN11b2WeldJointD0Ev,"axG",%progbits,_ZN11b2WeldJointD0Ev,comdat
	.align	2
	.weak	_ZN11b2WeldJointD0Ev
	.hidden	_ZN11b2WeldJointD0Ev
	.type	_ZN11b2WeldJointD0Ev, %function
_ZN11b2WeldJointD0Ev:
.LFB531:
	.loc 5 63 0
	.cfi_startproc
	@ args = 0, pretend = 0, frame = 8
	@ frame_needed = 0, uses_anonymous_args = 0
	str	lr, [sp, #-4]!
.LCFI83:
	.cfi_def_cfa_offset 4
	sub	sp, sp, #12
.LCFI84:
	.cfi_def_cfa_offset 16
	str	r0, [sp, #4]
	.loc 5 63 0
	ldr	r3, [sp, #4]
	ldr	r2, .L166
	str	r2, [r3, #0]
	ldr	r3, [sp, #4]
	mov	r0, r3
	.cfi_offset 14, -4
	bl	_ZN7b2JointD2Ev
	mov	r3, #1
	and	r3, r3, #255
	cmp	r3, #0
	beq	.L164
	ldr	r0, [sp, #4]
	bl	_ZdlPv
.L164:
	ldr	r3, [sp, #4]
	mov	r0, r3
	add	sp, sp, #12
	ldmfd	sp!, {pc}
.L167:
	.align	2
.L166:
	.word	_ZTV11b2WeldJoint+8
	.cfi_endproc
.LFE531:
	.size	_ZN11b2WeldJointD0Ev, .-_ZN11b2WeldJointD0Ev
	.section	.rodata
	.align	2
	.type	_ZL12b2_chunkSize, %object
	.size	_ZL12b2_chunkSize, 4
_ZL12b2_chunkSize:
	.word	16384
	.align	2
	.type	_ZL15b2_maxBlockSize, %object
	.size	_ZL15b2_maxBlockSize, 4
_ZL15b2_maxBlockSize:
	.word	640
	.align	2
	.type	_ZL13b2_blockSizes, %object
	.size	_ZL13b2_blockSizes, 4
_ZL13b2_blockSizes:
	.word	14
	.align	2
	.type	_ZL22b2_chunkArrayIncrement, %object
	.size	_ZL22b2_chunkArrayIncrement, 4
_ZL22b2_chunkArrayIncrement:
	.word	128
	.type	_ZL14b2_nullFeature, %object
	.size	_ZL14b2_nullFeature, 1
_ZL14b2_nullFeature:
	.byte	-1
	.text
.Letext0: