	.arch armv5te
	.eabi_attribute 27, 3
	.fpu vfp
	.eabi_attribute 20, 1
	.eabi_attribute 21, 1
	.eabi_attribute 23, 3
	.eabi_attribute 24, 1
	.eabi_attribute 25, 1
	.eabi_attribute 26, 2
	.eabi_attribute 30, 6
	.eabi_attribute 18, 2
	.file	"HeyBox2D.cpp"
	.text
.Ltext0:
	.cfi_sections	.debug_frame
	.section	.text._ZL11IwDebugExitv,"ax",%progbits
	.align	2
	.type	_ZL11IwDebugExitv, %function
_ZL11IwDebugExitv:
.LFB0:
	.file 1 "c:/marmalade/6.3/modules/iwutil/h/IwDebug.h"
	.loc 1 354 0
	.cfi_startproc
	@ args = 0, pretend = 0, frame = 0
	@ frame_needed = 0, uses_anonymous_args = 0
	stmfd	sp!, {r3, lr}
.LCFI0:
	.cfi_def_cfa_offset 8
	.loc 1 355 0
	.cfi_offset 14, -4
	.cfi_offset 3, -8
	bl	abort
	.cfi_endproc
.LFE0:
	.size	_ZL11IwDebugExitv, .-_ZL11IwDebugExitv
	.section	.rodata
	.align	2
.LC0:
	.ascii	"GEOM\000"
	.align	2
.LC1:
	.ascii	"Multiply overflow\000"
	.align	2
.LC2:
	.ascii	"test1 >> 63 == test1 >> 31\000"
	.align	2
.LC3:
	.ascii	"c:/marmalade/6.3/modules/iwgeom/h/IwGeomCore.h\000"
	.align	2
.LC4:
	.ascii	"test2 >> 63 == test2 >> 31\000"
	.section	.text._ZL13IW_FIXED_MUL2iiii,"ax",%progbits
	.align	2
	.type	_ZL13IW_FIXED_MUL2iiii, %function
_ZL13IW_FIXED_MUL2iiii:
.LFB94:
	.file 2 "c:/marmalade/6.3/modules/iwgeom/h/IwGeomCore.h"
	.loc 2 517 0
	.cfi_startproc
	@ args = 0, pretend = 0, frame = 64
	@ frame_needed = 0, uses_anonymous_args = 0
	stmfd	sp!, {r4, r5, r6, r7, r8, r9, sl, fp, lr}
.LCFI1:
	.cfi_def_cfa_offset 36
	sub	sp, sp, #68
.LCFI2:
	.cfi_def_cfa_offset 104
	str	r0, [sp, #44]
	str	r1, [sp, #40]
	str	r2, [sp, #36]
	str	r3, [sp, #32]
.LBB2:
	.loc 2 519 0
	ldr	r3, [sp, #44]
	mov	r0, r3
	mov	r1, r0, asr #31
	ldr	r3, [sp, #36]
	mov	r2, r3
	mov	r3, r2, asr #31
	mul	r4, r2, r1
	.cfi_offset 14, -4
	.cfi_offset 11, -8
	.cfi_offset 10, -12
	.cfi_offset 9, -16
	.cfi_offset 8, -20
	.cfi_offset 7, -24
	.cfi_offset 6, -28
	.cfi_offset 5, -32
	.cfi_offset 4, -36
	mul	ip, r0, r3
	add	r4, r4, ip
	umull	r6, r7, r0, r2
	mov	r2, r6
	mov	r3, r7
	add	r4, r4, r3
	mov	r3, r4
	strd	r2, [sp, #48]
	strd	r2, [sp, #48]
.LBB3:
	.loc 2 520 0
	ldr	r3, [sp, #52]
	mov	r3, r3, asr #31
	str	r3, [sp, #0]
	ldr	r3, [sp, #52]
	mov	r3, r3, asr #31
	str	r3, [sp, #4]
	ldr	r3, [sp, #52]
	mov	r2, r3, asl #1
	ldr	r3, [sp, #48]
	mov	r6, r3, lsr #31
	orr	r6, r2, r6
	ldr	r3, [sp, #52]
	mov	r7, r3, asr #31
	ldrd	r0, [sp]
	cmp	r1, r7
	cmpeq	r0, r6
	beq	.L4
	ldr	r0, .L35
	bl	IwDebugAssertIsChannelOn
	mov	r3, r0
	cmp	r3, #0
	beq	.L4
	ldr	r3, .L35+4
	ldrb	r3, [r3, #0]	@ zero_extendqisi2
	cmp	r3, #0
	bne	.L4
	mov	r3, #1
	b	.L5
.L4:
	mov	r3, #0
.L5:
	cmp	r3, #0
	beq	.L6
	mov	r0, #0
	bl	IwDebugAssertSetSolution
	ldr	r0, .L35+8
	bl	IwDebugAssertSetUID
	ldr	r0, .L35+12
	bl	IwDebugAssertSetMessage
	ldr	r0, .L35+16
	ldr	r1, .L35+20
	mov	r2, #520
	mov	r3, #1
	bl	IwDebugAssertShow
	mov	r3, r0
	cmp	r3, #1
	beq	.L8
	cmp	r3, #2
	beq	.L9
	b	.L7
.L8:
	bl	s3eDebugIsDebuggerPresent
	mov	r3, r0
	cmp	r3, #0
	moveq	r3, #0
	movne	r3, #1
	and	r3, r3, #255
	cmp	r3, #0
	beq	.L10
	bl	s3eDebugIsDebuggerPresent
	mov	r3, r0
	cmp	r3, #0
	moveq	r3, #0
	movne	r3, #1
	and	r3, r3, #255
	cmp	r3, #0
	beq	.L32
	mvn	r3, #11
	mov	r2, #0
	str	r2, [r3, #0]
	b	.L7
.L10:
	bl	_ZL11IwDebugExitv
	b	.L7
.L9:
	ldr	r3, .L35+4
	mov	r2, #1
	strb	r2, [r3, #0]
	b	.L7
.L32:
	mov	r0, r0	@ nop
.L7:
	mov	r0, #0
	bl	IwDebugAssertSetUID
.L6:
.LBE3:
	.loc 2 521 0
	ldr	r3, [sp, #40]
	mov	r0, r3
	mov	r1, r0, asr #31
	ldr	r3, [sp, #32]
	mov	r2, r3
	mov	r3, r2, asr #31
	mul	ip, r2, r1
	mul	r4, r0, r3
	add	ip, ip, r4
	umull	r4, r5, r0, r2
	mov	r2, r4
	mov	r3, r5
	add	ip, ip, r3
	mov	r3, ip
	strd	r2, [sp, #56]
	strd	r2, [sp, #56]
.LBB4:
	.loc 2 522 0
	ldr	r3, [sp, #60]
	mov	r3, r3, asr #31
	str	r3, [sp, #8]
	ldr	r3, [sp, #60]
	mov	r3, r3, asr #31
	str	r3, [sp, #12]
	ldr	r3, [sp, #60]
	mov	r3, r3, asl #1
	ldr	r2, [sp, #56]
	mov	r2, r2, lsr #31
	str	r2, [sp, #16]
	ldr	r5, [sp, #16]
	orr	r5, r3, r5
	str	r5, [sp, #16]
	ldr	r3, [sp, #60]
	mov	r3, r3, asr #31
	str	r3, [sp, #20]
	ldrd	r6, [sp, #8]
	ldrd	r0, [sp, #16]
	cmp	r7, r1
	cmpeq	r6, r0
	beq	.L13
	ldr	r0, .L35
	bl	IwDebugAssertIsChannelOn
	mov	r3, r0
	cmp	r3, #0
	beq	.L13
	ldr	r3, .L35+24
	ldrb	r3, [r3, #0]	@ zero_extendqisi2
	cmp	r3, #0
	bne	.L13
	mov	r3, #1
	b	.L14
.L13:
	mov	r3, #0
.L14:
	cmp	r3, #0
	beq	.L15
	mov	r0, #0
	bl	IwDebugAssertSetSolution
	ldr	r0, .L35+28
	bl	IwDebugAssertSetUID
	ldr	r0, .L35+12
	bl	IwDebugAssertSetMessage
	ldr	r0, .L35+32
	ldr	r1, .L35+20
	ldr	r2, .L35+36
	mov	r3, #1
	bl	IwDebugAssertShow
	mov	r3, r0
	cmp	r3, #1
	beq	.L17
	cmp	r3, #2
	beq	.L18
	b	.L16
.L17:
	bl	s3eDebugIsDebuggerPresent
	mov	r3, r0
	cmp	r3, #0
	moveq	r3, #0
	movne	r3, #1
	and	r3, r3, #255
	cmp	r3, #0
	beq	.L19
	bl	s3eDebugIsDebuggerPresent
	mov	r3, r0
	cmp	r3, #0
	moveq	r3, #0
	movne	r3, #1
	and	r3, r3, #255
	cmp	r3, #0
	beq	.L33
	mvn	r3, #11
	mov	r2, #0
	str	r2, [r3, #0]
	b	.L16
.L19:
	bl	_ZL11IwDebugExitv
	b	.L16
.L18:
	ldr	r3, .L35+24
	mov	r2, #1
	strb	r2, [r3, #0]
	b	.L16
.L33:
	mov	r0, r0	@ nop
.L16:
	mov	r0, #0
	bl	IwDebugAssertSetUID
.L15:
.LBE4:
	.loc 2 523 0
	ldrd	r0, [sp, #48]
	ldrd	r2, [sp, #56]
	adds	r2, r2, r0
	adc	r3, r3, r1
	strd	r2, [sp, #48]
.LBB5:
	.loc 2 524 0
	ldr	r3, [sp, #52]
	mov	r3, r3, asr #31
	str	r3, [sp, #24]
	ldr	r3, [sp, #52]
	mov	r3, r3, asr #31
	str	r3, [sp, #28]
	ldr	r3, [sp, #52]
	mov	r3, r3, asl #1
	ldr	r2, [sp, #48]
	mov	sl, r2, lsr #31
	orr	sl, r3, sl
	ldr	r3, [sp, #52]
	mov	fp, r3, asr #31
	ldrd	r2, [sp, #24]
	cmp	r3, fp
	cmpeq	r2, sl
	beq	.L22
	ldr	r0, .L35
	bl	IwDebugAssertIsChannelOn
	mov	r3, r0
	cmp	r3, #0
	beq	.L22
	ldr	r3, .L35+40
	ldrb	r3, [r3, #0]	@ zero_extendqisi2
	cmp	r3, #0
	bne	.L22
	mov	r3, #1
	b	.L23
.L22:
	mov	r3, #0
.L23:
	cmp	r3, #0
	beq	.L24
	mov	r0, #0
	bl	IwDebugAssertSetSolution
	mov	r0, #360
	bl	IwDebugAssertSetUID
	ldr	r0, .L35+12
	bl	IwDebugAssertSetMessage
	ldr	r0, .L35+16
	ldr	r1, .L35+20
	mov	r2, #524
	mov	r3, #1
	bl	IwDebugAssertShow
	mov	r3, r0
	cmp	r3, #1
	beq	.L26
	cmp	r3, #2
	beq	.L27
	b	.L25
.L26:
	bl	s3eDebugIsDebuggerPresent
	mov	r3, r0
	cmp	r3, #0
	moveq	r3, #0
	movne	r3, #1
	and	r3, r3, #255
	cmp	r3, #0
	beq	.L28
	bl	s3eDebugIsDebuggerPresent
	mov	r3, r0
	cmp	r3, #0
	moveq	r3, #0
	movne	r3, #1
	and	r3, r3, #255
	cmp	r3, #0
	beq	.L34
	mvn	r3, #11
	mov	r2, #0
	str	r2, [r3, #0]
	b	.L25
.L28:
	bl	_ZL11IwDebugExitv
	b	.L25
.L27:
	ldr	r3, .L35+40
	mov	r2, #1
	strb	r2, [r3, #0]
	b	.L25
.L34:
	mov	r0, r0	@ nop
.L25:
	mov	r0, #0
	bl	IwDebugAssertSetUID
.L24:
.LBE5:
	.loc 2 525 0
	ldr	r3, [sp, #52]
	mov	r3, r3, asl #20
	ldr	r2, [sp, #48]
	mov	r8, r2, lsr #12
	orr	r8, r3, r8
	ldr	r3, [sp, #52]
	mov	r9, r3, asr #12
	mov	r3, r8
.LBE2:
	.loc 2 529 0
	mov	r0, r3
	add	sp, sp, #68
	ldmfd	sp!, {r4, r5, r6, r7, r8, r9, sl, fp, pc}
.L36:
	.align	2
.L35:
	.word	.LC0
	.word	_ZZL13IW_FIXED_MUL2iiiiE21_s_IwAssertIgnoreThis
	.word	357
	.word	.LC1
	.word	.LC2
	.word	.LC3
	.word	_ZZL13IW_FIXED_MUL2iiiiE21_s_IwAssertIgnoreThis_0
	.word	358
	.word	.LC4
	.word	522
	.word	_ZZL13IW_FIXED_MUL2iiiiE21_s_IwAssertIgnoreThis_1
	.cfi_endproc
.LFE94:
	.size	_ZL13IW_FIXED_MUL2iiii, .-_ZL13IW_FIXED_MUL2iiii
	.section	.text._ZN8CIwSVec2C1Ess,"axG",%progbits,_ZN8CIwSVec2C1Ess,comdat
	.align	2
	.weak	_ZN8CIwSVec2C1Ess
	.hidden	_ZN8CIwSVec2C1Ess
	.type	_ZN8CIwSVec2C1Ess, %function
_ZN8CIwSVec2C1Ess:
.LFB131:
	.file 3 "c:/marmalade/6.3/modules/iwgeom/h/IwGeomSVec2.h"
	.loc 3 72 0
	.cfi_startproc
	@ args = 0, pretend = 0, frame = 8
	@ frame_needed = 0, uses_anonymous_args = 0
	@ link register save eliminated.
	sub	sp, sp, #8
.LCFI3:
	.cfi_def_cfa_offset 8
	str	r0, [sp, #4]
	mov	r3, r2
	strh	r1, [sp, #2]	@ movhi
	strh	r3, [sp, #0]	@ movhi
	.loc 3 72 0
	ldr	r3, [sp, #4]
	ldrh	r2, [sp, #2]	@ movhi
	strh	r2, [r3, #0]	@ movhi
	ldr	r3, [sp, #4]
	ldrh	r2, [sp, #0]	@ movhi
	strh	r2, [r3, #2]	@ movhi
	ldr	r3, [sp, #4]
	mov	r0, r3
	add	sp, sp, #8
	bx	lr
	.cfi_endproc
.LFE131:
	.size	_ZN8CIwSVec2C1Ess, .-_ZN8CIwSVec2C1Ess
	.section	.rodata
	.align	2
.LC5:
	.ascii	"CIwSVec2 overflow: operator +\000"
	.align	2
.LC6:
	.ascii	"test >> 31 == test >> 15\000"
	.align	2
.LC7:
	.ascii	"c:/marmalade/6.3/modules/iwgeom/h/IwGeomSVec2.h\000"
	.section	.text._ZNK8CIwSVec2plERKS_,"axG",%progbits,_ZNK8CIwSVec2plERKS_,comdat
	.align	2
	.weak	_ZNK8CIwSVec2plERKS_
	.hidden	_ZNK8CIwSVec2plERKS_
	.type	_ZNK8CIwSVec2plERKS_, %function
_ZNK8CIwSVec2plERKS_:
.LFB135:
	.loc 3 369 0
	.cfi_startproc
	@ args = 0, pretend = 0, frame = 24
	@ frame_needed = 0, uses_anonymous_args = 0
	str	lr, [sp, #-4]!
.LCFI4:
	.cfi_def_cfa_offset 4
	sub	sp, sp, #28
.LCFI5:
	.cfi_def_cfa_offset 32
	str	r0, [sp, #4]
	str	r1, [sp, #0]
.LBB6:
	.loc 3 372 0
	ldr	r3, [sp, #4]
	ldrh	r3, [r3, #0]
	mov	r3, r3, asl #16
	mov	r2, r3, asr #16
	ldr	r3, [sp, #0]
	ldrh	r3, [r3, #0]
	mov	r3, r3, asl #16
	mov	r3, r3, asr #16
	add	r3, r2, r3
	str	r3, [sp, #20]
.LBB7:
	ldr	r3, [sp, #20]
	mov	r2, r3, asr #31
	ldr	r3, [sp, #20]
	mov	r3, r3, asr #15
	cmp	r2, r3
	beq	.L41
	.cfi_offset 14, -4
	ldr	r0, .L62
	bl	IwDebugAssertIsChannelOn
	mov	r3, r0
	cmp	r3, #0
	beq	.L41
	ldr	r3, .L62+4
	ldrb	r3, [r3, #0]	@ zero_extendqisi2
	cmp	r3, #0
	bne	.L41
	mov	r3, #1
	b	.L42
.L41:
	mov	r3, #0
.L42:
	cmp	r3, #0
	beq	.L43
	mov	r0, #0
	bl	IwDebugAssertSetSolution
	mov	r0, #0
	bl	IwDebugAssertSetUID
	ldr	r0, .L62+8
	bl	IwDebugAssertSetMessage
	ldr	r0, .L62+12
	ldr	r1, .L62+16
	mov	r2, #372
	mov	r3, #1
	bl	IwDebugAssertShow
	mov	r3, r0
	cmp	r3, #1
	beq	.L45
	cmp	r3, #2
	beq	.L46
	b	.L44
.L45:
	bl	s3eDebugIsDebuggerPresent
	mov	r3, r0
	cmp	r3, #0
	moveq	r3, #0
	movne	r3, #1
	and	r3, r3, #255
	cmp	r3, #0
	beq	.L47
	bl	s3eDebugIsDebuggerPresent
	mov	r3, r0
	cmp	r3, #0
	moveq	r3, #0
	movne	r3, #1
	and	r3, r3, #255
	cmp	r3, #0
	beq	.L60
	mvn	r3, #11
	mov	r2, #0
	str	r2, [r3, #0]
	b	.L44
.L47:
	bl	_ZL11IwDebugExitv
	b	.L44
.L46:
	ldr	r3, .L62+4
	mov	r2, #1
	strb	r2, [r3, #0]
	b	.L44
.L60:
	mov	r0, r0	@ nop
.L44:
	mov	r0, #0
	bl	IwDebugAssertSetUID
.L43:
.LBE7:
	.loc 3 373 0
	ldr	r3, [sp, #4]
	ldrh	r3, [r3, #2]
	mov	r3, r3, asl #16
	mov	r2, r3, asr #16
	ldr	r3, [sp, #0]
	ldrh	r3, [r3, #2]
	mov	r3, r3, asl #16
	mov	r3, r3, asr #16
	add	r3, r2, r3
	str	r3, [sp, #20]
.LBB8:
	ldr	r3, [sp, #20]
	mov	r2, r3, asr #31
	ldr	r3, [sp, #20]
	mov	r3, r3, asr #15
	cmp	r2, r3
	beq	.L50
	ldr	r0, .L62
	bl	IwDebugAssertIsChannelOn
	mov	r3, r0
	cmp	r3, #0
	beq	.L50
	ldr	r3, .L62+20
	ldrb	r3, [r3, #0]	@ zero_extendqisi2
	cmp	r3, #0
	bne	.L50
	mov	r3, #1
	b	.L51
.L50:
	mov	r3, #0
.L51:
	cmp	r3, #0
	beq	.L52
	mov	r0, #0
	bl	IwDebugAssertSetSolution
	mov	r0, #0
	bl	IwDebugAssertSetUID
	ldr	r0, .L62+8
	bl	IwDebugAssertSetMessage
	ldr	r0, .L62+12
	ldr	r1, .L62+16
	ldr	r2, .L62+24
	mov	r3, #1
	bl	IwDebugAssertShow
	mov	r3, r0
	cmp	r3, #1
	beq	.L54
	cmp	r3, #2
	beq	.L55
	b	.L53
.L54:
	bl	s3eDebugIsDebuggerPresent
	mov	r3, r0
	cmp	r3, #0
	moveq	r3, #0
	movne	r3, #1
	and	r3, r3, #255
	cmp	r3, #0
	beq	.L56
	bl	s3eDebugIsDebuggerPresent
	mov	r3, r0
	cmp	r3, #0
	moveq	r3, #0
	movne	r3, #1
	and	r3, r3, #255
	cmp	r3, #0
	beq	.L61
	mvn	r3, #11
	mov	r2, #0
	str	r2, [r3, #0]
	b	.L53
.L56:
	bl	_ZL11IwDebugExitv
	b	.L53
.L55:
	ldr	r3, .L62+20
	mov	r2, #1
	strb	r2, [r3, #0]
	b	.L53
.L61:
	mov	r0, r0	@ nop
.L53:
	mov	r0, #0
	bl	IwDebugAssertSetUID
.L52:
.LBE8:
	.loc 3 378 0
	ldr	r3, [sp, #4]
	ldrh	r3, [r3, #0]
	mov	r3, r3, asl #16
	mov	r2, r3, lsr #16
	ldr	r3, [sp, #0]
	ldrh	r3, [r3, #0]
	mov	r3, r3, asl #16
	mov	r3, r3, lsr #16
	add	r3, r2, r3
	mov	r3, r3, asl #16
	mov	r3, r3, lsr #16
	mov	r2, r3
	ldr	r3, [sp, #4]
	ldrh	r3, [r3, #2]
	mov	r3, r3, asl #16
	mov	r1, r3, lsr #16
	ldr	r3, [sp, #0]
	ldrh	r3, [r3, #2]
	mov	r3, r3, asl #16
	mov	r3, r3, lsr #16
	add	r3, r1, r3
	mov	r3, r3, asl #16
	mov	r3, r3, lsr #16
	add	r1, sp, #16
	mov	r2, r2, asl #16
	mov	r2, r2, asr #16
	mov	r3, r3, asl #16
	mov	r3, r3, asr #16
	mov	r0, r1
	mov	r1, r2
	mov	r2, r3
	bl	_ZN8CIwSVec2C1Ess
	ldr	r3, [sp, #16]
	str	r3, [sp, #12]
	mov	r3, #0
	ldrh	r2, [sp, #12]
	mov	r2, r2, asl #16
	mov	r3, r3, lsr #16
	orr	r3, r3, r2
	mov	r3, r3, ror #16
	ldrh	r2, [sp, #14]
	mov	r2, r2, asl #16
	mov	r3, r3, asl #16
	mov	r3, r3, lsr #16
	orr	r3, r3, r2
.LBE6:
	.loc 3 379 0
	mov	r0, r3
	add	sp, sp, #28
	ldmfd	sp!, {pc}
.L63:
	.align	2
.L62:
	.word	.LC0
	.word	_ZZNK8CIwSVec2plERKS_E21_s_IwAssertIgnoreThis
	.word	.LC5
	.word	.LC6
	.word	.LC7
	.word	_ZZNK8CIwSVec2plERKS_E21_s_IwAssertIgnoreThis_0
	.word	373
	.cfi_endproc
.LFE135:
	.size	_ZNK8CIwSVec2plERKS_, .-_ZNK8CIwSVec2plERKS_
	.section	.rodata
	.align	2
.LC8:
	.ascii	"CIwSVec2 overflow: operator -\000"
	.section	.text._ZNK8CIwSVec2miERKS_,"axG",%progbits,_ZNK8CIwSVec2miERKS_,comdat
	.align	2
	.weak	_ZNK8CIwSVec2miERKS_
	.hidden	_ZNK8CIwSVec2miERKS_
	.type	_ZNK8CIwSVec2miERKS_, %function
_ZNK8CIwSVec2miERKS_:
.LFB137:
	.loc 3 400 0
	.cfi_startproc
	@ args = 0, pretend = 0, frame = 24
	@ frame_needed = 0, uses_anonymous_args = 0
	str	lr, [sp, #-4]!
.LCFI6:
	.cfi_def_cfa_offset 4
	sub	sp, sp, #28
.LCFI7:
	.cfi_def_cfa_offset 32
	str	r0, [sp, #4]
	str	r1, [sp, #0]
.LBB9:
	.loc 3 403 0
	ldr	r3, [sp, #4]
	ldrh	r3, [r3, #0]
	mov	r3, r3, asl #16
	mov	r2, r3, asr #16
	ldr	r3, [sp, #0]
	ldrh	r3, [r3, #0]
	mov	r3, r3, asl #16
	mov	r3, r3, asr #16
	rsb	r3, r3, r2
	str	r3, [sp, #20]
.LBB10:
	ldr	r3, [sp, #20]
	mov	r2, r3, asr #31
	ldr	r3, [sp, #20]
	mov	r3, r3, asr #15
	cmp	r2, r3
	beq	.L65
	.cfi_offset 14, -4
	ldr	r0, .L86
	bl	IwDebugAssertIsChannelOn
	mov	r3, r0
	cmp	r3, #0
	beq	.L65
	ldr	r3, .L86+4
	ldrb	r3, [r3, #0]	@ zero_extendqisi2
	cmp	r3, #0
	bne	.L65
	mov	r3, #1
	b	.L66
.L65:
	mov	r3, #0
.L66:
	cmp	r3, #0
	beq	.L67
	mov	r0, #0
	bl	IwDebugAssertSetSolution
	mov	r0, #0
	bl	IwDebugAssertSetUID
	ldr	r0, .L86+8
	bl	IwDebugAssertSetMessage
	ldr	r0, .L86+12
	ldr	r1, .L86+16
	ldr	r2, .L86+20
	mov	r3, #1
	bl	IwDebugAssertShow
	mov	r3, r0
	cmp	r3, #1
	beq	.L69
	cmp	r3, #2
	beq	.L70
	b	.L68
.L69:
	bl	s3eDebugIsDebuggerPresent
	mov	r3, r0
	cmp	r3, #0
	moveq	r3, #0
	movne	r3, #1
	and	r3, r3, #255
	cmp	r3, #0
	beq	.L71
	bl	s3eDebugIsDebuggerPresent
	mov	r3, r0
	cmp	r3, #0
	moveq	r3, #0
	movne	r3, #1
	and	r3, r3, #255
	cmp	r3, #0
	beq	.L84
	mvn	r3, #11
	mov	r2, #0
	str	r2, [r3, #0]
	b	.L68
.L71:
	bl	_ZL11IwDebugExitv
	b	.L68
.L70:
	ldr	r3, .L86+4
	mov	r2, #1
	strb	r2, [r3, #0]
	b	.L68
.L84:
	mov	r0, r0	@ nop
.L68:
	mov	r0, #0
	bl	IwDebugAssertSetUID
.L67:
.LBE10:
	.loc 3 404 0
	ldr	r3, [sp, #4]
	ldrh	r3, [r3, #2]
	mov	r3, r3, asl #16
	mov	r2, r3, asr #16
	ldr	r3, [sp, #0]
	ldrh	r3, [r3, #2]
	mov	r3, r3, asl #16
	mov	r3, r3, asr #16
	rsb	r3, r3, r2
	str	r3, [sp, #20]
.LBB11:
	ldr	r3, [sp, #20]
	mov	r2, r3, asr #31
	ldr	r3, [sp, #20]
	mov	r3, r3, asr #15
	cmp	r2, r3
	beq	.L74
	ldr	r0, .L86
	bl	IwDebugAssertIsChannelOn
	mov	r3, r0
	cmp	r3, #0
	beq	.L74
	ldr	r3, .L86+24
	ldrb	r3, [r3, #0]	@ zero_extendqisi2
	cmp	r3, #0
	bne	.L74
	mov	r3, #1
	b	.L75
.L74:
	mov	r3, #0
.L75:
	cmp	r3, #0
	beq	.L76
	mov	r0, #0
	bl	IwDebugAssertSetSolution
	mov	r0, #0
	bl	IwDebugAssertSetUID
	ldr	r0, .L86+8
	bl	IwDebugAssertSetMessage
	ldr	r0, .L86+12
	ldr	r1, .L86+16
	mov	r2, #404
	mov	r3, #1
	bl	IwDebugAssertShow
	mov	r3, r0
	cmp	r3, #1
	beq	.L78
	cmp	r3, #2
	beq	.L79
	b	.L77
.L78:
	bl	s3eDebugIsDebuggerPresent
	mov	r3, r0
	cmp	r3, #0
	moveq	r3, #0
	movne	r3, #1
	and	r3, r3, #255
	cmp	r3, #0
	beq	.L80
	bl	s3eDebugIsDebuggerPresent
	mov	r3, r0
	cmp	r3, #0
	moveq	r3, #0
	movne	r3, #1
	and	r3, r3, #255
	cmp	r3, #0
	beq	.L85
	mvn	r3, #11
	mov	r2, #0
	str	r2, [r3, #0]
	b	.L77
.L80:
	bl	_ZL11IwDebugExitv
	b	.L77
.L79:
	ldr	r3, .L86+24
	mov	r2, #1
	strb	r2, [r3, #0]
	b	.L77
.L85:
	mov	r0, r0	@ nop
.L77:
	mov	r0, #0
	bl	IwDebugAssertSetUID
.L76:
.LBE11:
	.loc 3 409 0
	ldr	r3, [sp, #4]
	ldrh	r3, [r3, #0]
	mov	r3, r3, asl #16
	mov	r2, r3, lsr #16
	ldr	r3, [sp, #0]
	ldrh	r3, [r3, #0]
	mov	r3, r3, asl #16
	mov	r3, r3, lsr #16
	rsb	r3, r3, r2
	mov	r3, r3, asl #16
	mov	r3, r3, lsr #16
	mov	r2, r3
	ldr	r3, [sp, #4]
	ldrh	r3, [r3, #2]
	mov	r3, r3, asl #16
	mov	r1, r3, lsr #16
	ldr	r3, [sp, #0]
	ldrh	r3, [r3, #2]
	mov	r3, r3, asl #16
	mov	r3, r3, lsr #16
	rsb	r3, r3, r1
	mov	r3, r3, asl #16
	mov	r3, r3, lsr #16
	add	r1, sp, #16
	mov	r2, r2, asl #16
	mov	r2, r2, asr #16
	mov	r3, r3, asl #16
	mov	r3, r3, asr #16
	mov	r0, r1
	mov	r1, r2
	mov	r2, r3
	bl	_ZN8CIwSVec2C1Ess
	ldr	r3, [sp, #16]
	str	r3, [sp, #12]
	mov	r3, #0
	ldrh	r2, [sp, #12]
	mov	r2, r2, asl #16
	mov	r3, r3, lsr #16
	orr	r3, r3, r2
	mov	r3, r3, ror #16
	ldrh	r2, [sp, #14]
	mov	r2, r2, asl #16
	mov	r3, r3, asl #16
	mov	r3, r3, lsr #16
	orr	r3, r3, r2
.LBE9:
	.loc 3 410 0
	mov	r0, r3
	add	sp, sp, #28
	ldmfd	sp!, {pc}
.L87:
	.align	2
.L86:
	.word	.LC0
	.word	_ZZNK8CIwSVec2miERKS_E21_s_IwAssertIgnoreThis
	.word	.LC8
	.word	.LC6
	.word	.LC7
	.word	403
	.word	_ZZNK8CIwSVec2miERKS_E21_s_IwAssertIgnoreThis_0
	.cfi_endproc
.LFE137:
	.size	_ZNK8CIwSVec2miERKS_, .-_ZNK8CIwSVec2miERKS_
	.section	.text._ZNK8CIwSVec2rsEi,"axG",%progbits,_ZNK8CIwSVec2rsEi,comdat
	.align	2
	.weak	_ZNK8CIwSVec2rsEi
	.hidden	_ZNK8CIwSVec2rsEi
	.type	_ZNK8CIwSVec2rsEi, %function
_ZNK8CIwSVec2rsEi:
.LFB146:
	.loc 3 533 0
	.cfi_startproc
	@ args = 0, pretend = 0, frame = 16
	@ frame_needed = 0, uses_anonymous_args = 0
	str	lr, [sp, #-4]!
.LCFI8:
	.cfi_def_cfa_offset 4
	sub	sp, sp, #20
.LCFI9:
	.cfi_def_cfa_offset 24
	str	r0, [sp, #4]
	str	r1, [sp, #0]
	.loc 3 537 0
	ldr	r3, [sp, #4]
	ldrh	r3, [r3, #0]
	mov	r3, r3, asl #16
	mov	r2, r3, asr #16
	ldr	r3, [sp, #0]
	mov	r3, r2, asr r3
	mov	r3, r3, asl #16
	mov	r2, r3, lsr #16
	ldr	r3, [sp, #4]
	ldrh	r3, [r3, #2]
	mov	r3, r3, asl #16
	mov	r1, r3, asr #16
	ldr	r3, [sp, #0]
	mov	r3, r1, asr r3
	mov	r3, r3, asl #16
	mov	r3, r3, lsr #16
	add	r1, sp, #12
	mov	r2, r2, asl #16
	mov	r2, r2, asr #16
	mov	r3, r3, asl #16
	mov	r3, r3, asr #16
	mov	r0, r1
	mov	r1, r2
	mov	r2, r3
	.cfi_offset 14, -4
	bl	_ZN8CIwSVec2C1Ess
	ldr	r3, [sp, #12]
	str	r3, [sp, #8]
	mov	r3, #0
	ldrh	r2, [sp, #8]
	mov	r2, r2, asl #16
	mov	r3, r3, lsr #16
	orr	r3, r3, r2
	mov	r3, r3, ror #16
	ldrh	r2, [sp, #10]
	mov	r2, r2, asl #16
	mov	r3, r3, asl #16
	mov	r3, r3, lsr #16
	orr	r3, r3, r2
	.loc 3 538 0
	mov	r0, r3
	add	sp, sp, #20
	ldmfd	sp!, {pc}
	.cfi_endproc
.LFE146:
	.size	_ZNK8CIwSVec2rsEi, .-_ZNK8CIwSVec2rsEi
	.section	.text._ZN7CIwVec2C1Ev,"axG",%progbits,_ZN7CIwVec2C1Ev,comdat
	.align	2
	.weak	_ZN7CIwVec2C1Ev
	.hidden	_ZN7CIwVec2C1Ev
	.type	_ZN7CIwVec2C1Ev, %function
_ZN7CIwVec2C1Ev:
.LFB155:
	.file 4 "c:/marmalade/6.3/modules/iwgeom/h/IwGeomVec2.h"
	.loc 4 65 0
	.cfi_startproc
	@ args = 0, pretend = 0, frame = 8
	@ frame_needed = 0, uses_anonymous_args = 0
	@ link register save eliminated.
	sub	sp, sp, #8
.LCFI10:
	.cfi_def_cfa_offset 8
	str	r0, [sp, #4]
	.loc 4 65 0
	ldr	r3, [sp, #4]
	mov	r0, r3
	add	sp, sp, #8
	bx	lr
	.cfi_endproc
.LFE155:
	.size	_ZN7CIwVec2C1Ev, .-_ZN7CIwVec2C1Ev
	.section	.text._ZN7CIwVec2C1Eii,"axG",%progbits,_ZN7CIwVec2C1Eii,comdat
	.align	2
	.weak	_ZN7CIwVec2C1Eii
	.hidden	_ZN7CIwVec2C1Eii
	.type	_ZN7CIwVec2C1Eii, %function
_ZN7CIwVec2C1Eii:
.LFB158:
	.loc 4 72 0
	.cfi_startproc
	@ args = 0, pretend = 0, frame = 16
	@ frame_needed = 0, uses_anonymous_args = 0
	@ link register save eliminated.
	sub	sp, sp, #16
.LCFI11:
	.cfi_def_cfa_offset 16
	str	r0, [sp, #12]
	str	r1, [sp, #8]
	str	r2, [sp, #4]
	.loc 4 72 0
	ldr	r3, [sp, #12]
	ldr	r2, [sp, #8]
	str	r2, [r3, #0]
	ldr	r3, [sp, #12]
	ldr	r2, [sp, #4]
	str	r2, [r3, #4]
	ldr	r3, [sp, #12]
	mov	r0, r3
	add	sp, sp, #16
	bx	lr
	.cfi_endproc
.LFE158:
	.size	_ZN7CIwVec2C1Eii, .-_ZN7CIwVec2C1Eii
	.section	.text._ZN7CIwVec2aSERKS_,"axG",%progbits,_ZN7CIwVec2aSERKS_,comdat
	.align	2
	.weak	_ZN7CIwVec2aSERKS_
	.hidden	_ZN7CIwVec2aSERKS_
	.type	_ZN7CIwVec2aSERKS_, %function
_ZN7CIwVec2aSERKS_:
.LFB161:
	.loc 4 359 0
	.cfi_startproc
	@ args = 0, pretend = 0, frame = 8
	@ frame_needed = 0, uses_anonymous_args = 0
	@ link register save eliminated.
	sub	sp, sp, #8
.LCFI12:
	.cfi_def_cfa_offset 8
	str	r0, [sp, #4]
	str	r1, [sp, #0]
	.loc 4 360 0
	ldr	r3, [sp, #0]
	ldr	r2, [r3, #0]
	ldr	r3, [sp, #4]
	str	r2, [r3, #0]
	.loc 4 361 0
	ldr	r3, [sp, #0]
	ldr	r2, [r3, #4]
	ldr	r3, [sp, #4]
	str	r2, [r3, #4]
	.loc 4 362 0
	ldr	r3, [sp, #4]
	.loc 4 363 0
	mov	r0, r3
	add	sp, sp, #8
	bx	lr
	.cfi_endproc
.LFE161:
	.size	_ZN7CIwVec2aSERKS_, .-_ZN7CIwVec2aSERKS_
	.section	.rodata
	.align	2
.LC9:
	.ascii	"CIwVec2 overflow: operator -\000"
	.align	2
.LC10:
	.ascii	"test >> 63 == test >> 31\000"
	.align	2
.LC11:
	.ascii	"c:/marmalade/6.3/modules/iwgeom/h/IwGeomVec2.h\000"
	.section	.text._ZNK7CIwVec2miERKS_,"axG",%progbits,_ZNK7CIwVec2miERKS_,comdat
	.align	2
	.weak	_ZNK7CIwVec2miERKS_
	.hidden	_ZNK7CIwVec2miERKS_
	.type	_ZNK7CIwVec2miERKS_, %function
_ZNK7CIwVec2miERKS_:
.LFB164:
	.loc 4 400 0
	.cfi_startproc
	@ args = 0, pretend = 0, frame = 24
	@ frame_needed = 0, uses_anonymous_args = 0
	stmfd	sp!, {r4, r5, r6, r7, r8, r9, sl, fp, lr}
.LCFI13:
	.cfi_def_cfa_offset 36
	sub	sp, sp, #28
.LCFI14:
	.cfi_def_cfa_offset 64
	str	r0, [sp, #4]
	str	r1, [sp, #12]
	str	r2, [sp, #8]
.LBB12:
	.loc 4 403 0
	ldr	r3, [sp, #12]
	ldr	r3, [r3, #0]
	mov	r0, r3
	mov	r1, r0, asr #31
	ldr	r3, [sp, #8]
	ldr	r3, [r3, #0]
	mov	r2, r3
	mov	r3, r2, asr #31
	subs	r2, r0, r2
	sbc	r3, r1, r3
	strd	r2, [sp, #16]
.LBB13:
	ldr	r3, [sp, #20]
	mov	sl, r3, asr #31
	.cfi_offset 14, -4
	.cfi_offset 11, -8
	.cfi_offset 10, -12
	.cfi_offset 9, -16
	.cfi_offset 8, -20
	.cfi_offset 7, -24
	.cfi_offset 6, -28
	.cfi_offset 5, -32
	.cfi_offset 4, -36
	ldr	r3, [sp, #20]
	mov	fp, r3, asr #31
	ldr	r3, [sp, #20]
	mov	r3, r3, asl #1
	ldr	r2, [sp, #16]
	mov	r6, r2, lsr #31
	orr	r6, r3, r6
	ldr	r3, [sp, #20]
	mov	r7, r3, asr #31
	cmp	fp, r7
	cmpeq	sl, r6
	beq	.L99
	ldr	r0, .L120
	bl	IwDebugAssertIsChannelOn
	mov	r3, r0
	cmp	r3, #0
	beq	.L99
	ldr	r3, .L120+4
	ldrb	r3, [r3, #0]	@ zero_extendqisi2
	cmp	r3, #0
	bne	.L99
	mov	r3, #1
	b	.L100
.L99:
	mov	r3, #0
.L100:
	cmp	r3, #0
	beq	.L101
	mov	r0, #0
	bl	IwDebugAssertSetSolution
	mov	r0, #0
	bl	IwDebugAssertSetUID
	ldr	r0, .L120+8
	bl	IwDebugAssertSetMessage
	ldr	r0, .L120+12
	ldr	r1, .L120+16
	ldr	r2, .L120+20
	mov	r3, #1
	bl	IwDebugAssertShow
	mov	r3, r0
	cmp	r3, #1
	beq	.L103
	cmp	r3, #2
	beq	.L104
	b	.L102
.L103:
	bl	s3eDebugIsDebuggerPresent
	mov	r3, r0
	cmp	r3, #0
	moveq	r3, #0
	movne	r3, #1
	and	r3, r3, #255
	cmp	r3, #0
	beq	.L105
	bl	s3eDebugIsDebuggerPresent
	mov	r3, r0
	cmp	r3, #0
	moveq	r3, #0
	movne	r3, #1
	and	r3, r3, #255
	cmp	r3, #0
	beq	.L118
	mvn	r3, #11
	mov	r2, #0
	str	r2, [r3, #0]
	b	.L102
.L105:
	bl	_ZL11IwDebugExitv
	b	.L102
.L104:
	ldr	r3, .L120+4
	mov	r2, #1
	strb	r2, [r3, #0]
	b	.L102
.L118:
	mov	r0, r0	@ nop
.L102:
	mov	r0, #0
	bl	IwDebugAssertSetUID
.L101:
.LBE13:
	.loc 4 404 0
	ldr	r3, [sp, #12]
	ldr	r3, [r3, #4]
	mov	r0, r3
	mov	r1, r0, asr #31
	ldr	r3, [sp, #8]
	ldr	r3, [r3, #4]
	mov	r2, r3
	mov	r3, r2, asr #31
	subs	r2, r0, r2
	sbc	r3, r1, r3
	strd	r2, [sp, #16]
.LBB14:
	ldr	r3, [sp, #20]
	mov	r8, r3, asr #31
	ldr	r3, [sp, #20]
	mov	r9, r3, asr #31
	ldr	r3, [sp, #20]
	mov	r3, r3, asl #1
	ldr	r2, [sp, #16]
	mov	r4, r2, lsr #31
	orr	r4, r3, r4
	ldr	r3, [sp, #20]
	mov	r5, r3, asr #31
	cmp	r9, r5
	cmpeq	r8, r4
	beq	.L108
	ldr	r0, .L120
	bl	IwDebugAssertIsChannelOn
	mov	r3, r0
	cmp	r3, #0
	beq	.L108
	ldr	r3, .L120+24
	ldrb	r3, [r3, #0]	@ zero_extendqisi2
	cmp	r3, #0
	bne	.L108
	mov	r3, #1
	b	.L109
.L108:
	mov	r3, #0
.L109:
	cmp	r3, #0
	beq	.L110
	mov	r0, #0
	bl	IwDebugAssertSetSolution
	mov	r0, #0
	bl	IwDebugAssertSetUID
	ldr	r0, .L120+8
	bl	IwDebugAssertSetMessage
	ldr	r0, .L120+12
	ldr	r1, .L120+16
	mov	r2, #404
	mov	r3, #1
	bl	IwDebugAssertShow
	mov	r3, r0
	cmp	r3, #1
	beq	.L112
	cmp	r3, #2
	beq	.L113
	b	.L111
.L112:
	bl	s3eDebugIsDebuggerPresent
	mov	r3, r0
	cmp	r3, #0
	moveq	r3, #0
	movne	r3, #1
	and	r3, r3, #255
	cmp	r3, #0
	beq	.L114
	bl	s3eDebugIsDebuggerPresent
	mov	r3, r0
	cmp	r3, #0
	moveq	r3, #0
	movne	r3, #1
	and	r3, r3, #255
	cmp	r3, #0
	beq	.L119
	mvn	r3, #11
	mov	r2, #0
	str	r2, [r3, #0]
	b	.L111
.L114:
	bl	_ZL11IwDebugExitv
	b	.L111
.L113:
	ldr	r3, .L120+24
	mov	r2, #1
	strb	r2, [r3, #0]
	b	.L111
.L119:
	mov	r0, r0	@ nop
.L111:
	mov	r0, #0
	bl	IwDebugAssertSetUID
.L110:
.LBE14:
	.loc 4 409 0
	ldr	r3, [sp, #12]
	ldr	r2, [r3, #0]
	ldr	r3, [sp, #8]
	ldr	r3, [r3, #0]
	rsb	r2, r3, r2
	ldr	r3, [sp, #12]
	ldr	r1, [r3, #4]
	ldr	r3, [sp, #8]
	ldr	r3, [r3, #4]
	rsb	r3, r3, r1
	ldr	r0, [sp, #4]
	mov	r1, r2
	mov	r2, r3
	bl	_ZN7CIwVec2C1Eii
.LBE12:
	.loc 4 410 0
	ldr	r0, [sp, #4]
	add	sp, sp, #28
	ldmfd	sp!, {r4, r5, r6, r7, r8, r9, sl, fp, pc}
.L121:
	.align	2
.L120:
	.word	.LC0
	.word	_ZZNK7CIwVec2miERKS_E21_s_IwAssertIgnoreThis
	.word	.LC9
	.word	.LC10
	.word	.LC11
	.word	403
	.word	_ZZNK7CIwVec2miERKS_E21_s_IwAssertIgnoreThis_0
	.cfi_endproc
.LFE164:
	.size	_ZNK7CIwVec2miERKS_, .-_ZNK7CIwVec2miERKS_
	.section	.rodata
	.align	2
.LC12:
	.ascii	"CIwVec2 overflow: operator <<\000"
	.section	.text._ZNK7CIwVec2lsEi,"axG",%progbits,_ZNK7CIwVec2lsEi,comdat
	.align	2
	.weak	_ZNK7CIwVec2lsEi
	.hidden	_ZNK7CIwVec2lsEi
	.type	_ZNK7CIwVec2lsEi, %function
_ZNK7CIwVec2lsEi:
.LFB175:
	.loc 4 551 0
	.cfi_startproc
	@ args = 0, pretend = 0, frame = 24
	@ frame_needed = 0, uses_anonymous_args = 0
	stmfd	sp!, {r4, r5, r6, r7, r8, r9, sl, fp, lr}
.LCFI15:
	.cfi_def_cfa_offset 36
	sub	sp, sp, #28
.LCFI16:
	.cfi_def_cfa_offset 64
	str	r0, [sp, #4]
	str	r1, [sp, #12]
	str	r2, [sp, #8]
.LBB15:
	.loc 4 554 0
	ldr	r3, [sp, #12]
	ldr	r2, [r3, #0]
	ldr	r3, [sp, #8]
	mov	r3, r2, asl r3
	mov	r2, r3
	mov	r3, r2, asr #31
	strd	r2, [sp, #16]
.LBB16:
	ldr	r3, [sp, #20]
	mov	sl, r3, asr #31
	.cfi_offset 14, -4
	.cfi_offset 11, -8
	.cfi_offset 10, -12
	.cfi_offset 9, -16
	.cfi_offset 8, -20
	.cfi_offset 7, -24
	.cfi_offset 6, -28
	.cfi_offset 5, -32
	.cfi_offset 4, -36
	ldr	r3, [sp, #20]
	mov	fp, r3, asr #31
	ldr	r3, [sp, #20]
	mov	r3, r3, asl #1
	ldr	r2, [sp, #16]
	mov	r6, r2, lsr #31
	orr	r6, r3, r6
	ldr	r3, [sp, #20]
	mov	r7, r3, asr #31
	cmp	fp, r7
	cmpeq	sl, r6
	beq	.L123
	ldr	r0, .L144
	bl	IwDebugAssertIsChannelOn
	mov	r3, r0
	cmp	r3, #0
	beq	.L123
	ldr	r3, .L144+4
	ldrb	r3, [r3, #0]	@ zero_extendqisi2
	cmp	r3, #0
	bne	.L123
	mov	r3, #1
	b	.L124
.L123:
	mov	r3, #0
.L124:
	cmp	r3, #0
	beq	.L125
	mov	r0, #0
	bl	IwDebugAssertSetSolution
	mov	r0, #0
	bl	IwDebugAssertSetUID
	ldr	r0, .L144+8
	bl	IwDebugAssertSetMessage
	ldr	r0, .L144+12
	ldr	r1, .L144+16
	ldr	r2, .L144+20
	mov	r3, #1
	bl	IwDebugAssertShow
	mov	r3, r0
	cmp	r3, #1
	beq	.L127
	cmp	r3, #2
	beq	.L128
	b	.L126
.L127:
	bl	s3eDebugIsDebuggerPresent
	mov	r3, r0
	cmp	r3, #0
	moveq	r3, #0
	movne	r3, #1
	and	r3, r3, #255
	cmp	r3, #0
	beq	.L129
	bl	s3eDebugIsDebuggerPresent
	mov	r3, r0
	cmp	r3, #0
	moveq	r3, #0
	movne	r3, #1
	and	r3, r3, #255
	cmp	r3, #0
	beq	.L142
	mvn	r3, #11
	mov	r2, #0
	str	r2, [r3, #0]
	b	.L126
.L129:
	bl	_ZL11IwDebugExitv
	b	.L126
.L128:
	ldr	r3, .L144+4
	mov	r2, #1
	strb	r2, [r3, #0]
	b	.L126
.L142:
	mov	r0, r0	@ nop
.L126:
	mov	r0, #0
	bl	IwDebugAssertSetUID
.L125:
.LBE16:
	.loc 4 555 0
	ldr	r3, [sp, #12]
	ldr	r2, [r3, #4]
	ldr	r3, [sp, #8]
	mov	r3, r2, asl r3
	mov	r2, r3
	mov	r3, r2, asr #31
	strd	r2, [sp, #16]
.LBB17:
	ldr	r3, [sp, #20]
	mov	r8, r3, asr #31
	ldr	r3, [sp, #20]
	mov	r9, r3, asr #31
	ldr	r3, [sp, #20]
	mov	r3, r3, asl #1
	ldr	r2, [sp, #16]
	mov	r4, r2, lsr #31
	orr	r4, r3, r4
	ldr	r3, [sp, #20]
	mov	r5, r3, asr #31
	cmp	r9, r5
	cmpeq	r8, r4
	beq	.L132
	ldr	r0, .L144
	bl	IwDebugAssertIsChannelOn
	mov	r3, r0
	cmp	r3, #0
	beq	.L132
	ldr	r3, .L144+24
	ldrb	r3, [r3, #0]	@ zero_extendqisi2
	cmp	r3, #0
	bne	.L132
	mov	r3, #1
	b	.L133
.L132:
	mov	r3, #0
.L133:
	cmp	r3, #0
	beq	.L134
	mov	r0, #0
	bl	IwDebugAssertSetSolution
	mov	r0, #0
	bl	IwDebugAssertSetUID
	ldr	r0, .L144+8
	bl	IwDebugAssertSetMessage
	ldr	r0, .L144+12
	ldr	r1, .L144+16
	ldr	r2, .L144+28
	mov	r3, #1
	bl	IwDebugAssertShow
	mov	r3, r0
	cmp	r3, #1
	beq	.L136
	cmp	r3, #2
	beq	.L137
	b	.L135
.L136:
	bl	s3eDebugIsDebuggerPresent
	mov	r3, r0
	cmp	r3, #0
	moveq	r3, #0
	movne	r3, #1
	and	r3, r3, #255
	cmp	r3, #0
	beq	.L138
	bl	s3eDebugIsDebuggerPresent
	mov	r3, r0
	cmp	r3, #0
	moveq	r3, #0
	movne	r3, #1
	and	r3, r3, #255
	cmp	r3, #0
	beq	.L143
	mvn	r3, #11
	mov	r2, #0
	str	r2, [r3, #0]
	b	.L135
.L138:
	bl	_ZL11IwDebugExitv
	b	.L135
.L137:
	ldr	r3, .L144+24
	mov	r2, #1
	strb	r2, [r3, #0]
	b	.L135
.L143:
	mov	r0, r0	@ nop
.L135:
	mov	r0, #0
	bl	IwDebugAssertSetUID
.L134:
.LBE17:
	.loc 4 560 0
	ldr	r3, [sp, #12]
	ldr	r2, [r3, #0]
	ldr	r3, [sp, #8]
	mov	r2, r2, asl r3
	ldr	r3, [sp, #12]
	ldr	r1, [r3, #4]
	ldr	r3, [sp, #8]
	mov	r3, r1, asl r3
	ldr	r0, [sp, #4]
	mov	r1, r2
	mov	r2, r3
	bl	_ZN7CIwVec2C1Eii
.LBE15:
	.loc 4 561 0
	ldr	r0, [sp, #4]
	add	sp, sp, #28
	ldmfd	sp!, {r4, r5, r6, r7, r8, r9, sl, fp, pc}
.L145:
	.align	2
.L144:
	.word	.LC0
	.word	_ZZNK7CIwVec2lsEiE21_s_IwAssertIgnoreThis
	.word	.LC12
	.word	.LC10
	.word	.LC11
	.word	554
	.word	_ZZNK7CIwVec2lsEiE21_s_IwAssertIgnoreThis_0
	.word	555
	.cfi_endproc
.LFE175:
	.size	_ZNK7CIwVec2lsEi, .-_ZNK7CIwVec2lsEi
	.section	.text._ZN7CIwVec2C1ERK8CIwSVec2,"axG",%progbits,_ZN7CIwVec2C1ERK8CIwSVec2,comdat
	.align	2
	.weak	_ZN7CIwVec2C1ERK8CIwSVec2
	.hidden	_ZN7CIwVec2C1ERK8CIwSVec2
	.type	_ZN7CIwVec2C1ERK8CIwSVec2, %function
_ZN7CIwVec2C1ERK8CIwSVec2:
.LFB182:
	.loc 4 604 0
	.cfi_startproc
	@ args = 0, pretend = 0, frame = 8
	@ frame_needed = 0, uses_anonymous_args = 0
	@ link register save eliminated.
	sub	sp, sp, #8
.LCFI17:
	.cfi_def_cfa_offset 8
	str	r0, [sp, #4]
	str	r1, [sp, #0]
	.loc 4 606 0
	ldr	r3, [sp, #0]
	ldrh	r3, [r3, #0]
	mov	r3, r3, asl #16
	mov	r2, r3, asr #16
	ldr	r3, [sp, #4]
	str	r2, [r3, #0]
	.loc 4 607 0
	ldr	r3, [sp, #0]
	ldrh	r3, [r3, #2]
	mov	r3, r3, asl #16
	mov	r2, r3, asr #16
	ldr	r3, [sp, #4]
	str	r2, [r3, #4]
	.loc 4 608 0
	ldr	r3, [sp, #4]
	mov	r0, r3
	add	sp, sp, #8
	bx	lr
	.cfi_endproc
.LFE182:
	.size	_ZN7CIwVec2C1ERK8CIwSVec2, .-_ZN7CIwVec2C1ERK8CIwSVec2
	.section	.text._ZN8CIwMat2DC1Ev,"axG",%progbits,_ZN8CIwMat2DC1Ev,comdat
	.align	2
	.weak	_ZN8CIwMat2DC1Ev
	.hidden	_ZN8CIwMat2DC1Ev
	.type	_ZN8CIwMat2DC1Ev, %function
_ZN8CIwMat2DC1Ev:
.LFB728:
	.file 5 "c:/marmalade/6.3/modules/iwgeom/h/IwGeomMat2D.h"
	.loc 5 83 0
	.cfi_startproc
	@ args = 0, pretend = 0, frame = 8
	@ frame_needed = 0, uses_anonymous_args = 0
	str	lr, [sp, #-4]!
.LCFI18:
	.cfi_def_cfa_offset 4
	sub	sp, sp, #12
.LCFI19:
	.cfi_def_cfa_offset 16
	str	r0, [sp, #4]
	.loc 5 83 0
	ldr	r3, [sp, #4]
	add	r3, r3, #16
	mov	r0, r3
	.cfi_offset 14, -4
	bl	_ZN7CIwVec2C1Ev
	ldr	r3, [sp, #4]
	mov	r0, r3
	add	sp, sp, #12
	ldmfd	sp!, {pc}
	.cfi_endproc
.LFE728:
	.size	_ZN8CIwMat2DC1Ev, .-_ZN8CIwMat2DC1Ev
	.section	.text._ZNK8CIwMat2D9RotateVecERK7CIwVec2,"axG",%progbits,_ZNK8CIwMat2D9RotateVecERK7CIwVec2,comdat
	.align	2
	.weak	_ZNK8CIwMat2D9RotateVecERK7CIwVec2
	.hidden	_ZNK8CIwMat2D9RotateVecERK7CIwVec2
	.type	_ZNK8CIwMat2D9RotateVecERK7CIwVec2, %function
_ZNK8CIwMat2D9RotateVecERK7CIwVec2:
.LFB752:
	.loc 5 311 0
	.cfi_startproc
	@ args = 0, pretend = 0, frame = 8
	@ frame_needed = 0, uses_anonymous_args = 0
	stmfd	sp!, {r4, r5, lr}
.LCFI20:
	.cfi_def_cfa_offset 12
	sub	sp, sp, #12
.LCFI21:
	.cfi_def_cfa_offset 24
	mov	r4, r0
	.cfi_offset 14, -4
	.cfi_offset 5, -8
	.cfi_offset 4, -12
	str	r1, [sp, #4]
	str	r2, [sp, #0]
	.loc 5 316 0
	ldr	r3, [sp, #4]
	ldr	r0, [r3, #0]
	ldr	r3, [sp, #4]
	ldr	r1, [r3, #8]
	ldr	r3, [sp, #0]
	ldr	r2, [r3, #0]
	ldr	r3, [sp, #0]
	ldr	r3, [r3, #4]
	bl	_ZL13IW_FIXED_MUL2iiii
	mov	r5, r0
	ldr	r3, [sp, #4]
	ldr	r0, [r3, #4]
	ldr	r3, [sp, #4]
	ldr	r1, [r3, #12]
	ldr	r3, [sp, #0]
	ldr	r2, [r3, #0]
	ldr	r3, [sp, #0]
	ldr	r3, [r3, #4]
	bl	_ZL13IW_FIXED_MUL2iiii
	mov	r3, r0
	mov	r0, r4
	mov	r1, r5
	mov	r2, r3
	bl	_ZN7CIwVec2C1Eii
	.loc 5 317 0
	mov	r0, r4
	add	sp, sp, #12
	ldmfd	sp!, {r4, r5, pc}
	.cfi_endproc
.LFE752:
	.size	_ZNK8CIwMat2D9RotateVecERK7CIwVec2, .-_ZNK8CIwMat2D9RotateVecERK7CIwVec2
	.section	.text._ZN8CIwMat2D6SetRotEiRK7CIwVec2,"axG",%progbits,_ZN8CIwMat2D6SetRotEiRK7CIwVec2,comdat
	.align	2
	.weak	_ZN8CIwMat2D6SetRotEiRK7CIwVec2
	.hidden	_ZN8CIwMat2D6SetRotEiRK7CIwVec2
	.type	_ZN8CIwMat2D6SetRotEiRK7CIwVec2, %function
_ZN8CIwMat2D6SetRotEiRK7CIwVec2:
.LFB776:
	.loc 5 568 0
	.cfi_startproc
	@ args = 0, pretend = 0, frame = 32
	@ frame_needed = 0, uses_anonymous_args = 0
	stmfd	sp!, {r4, lr}
.LCFI22:
	.cfi_def_cfa_offset 8
	sub	sp, sp, #32
.LCFI23:
	.cfi_def_cfa_offset 40
	str	r0, [sp, #12]
	str	r1, [sp, #8]
	str	r2, [sp, #4]
	.loc 5 570 0
	ldr	r3, [sp, #8]
	rsb	r3, r3, #0
	mov	r0, r3
	.cfi_offset 14, -4
	.cfi_offset 4, -8
	bl	IwGeomCos
	mov	r2, r0
	ldr	r3, [sp, #12]
	str	r2, [r3, #12]
	ldr	r3, [sp, #12]
	ldr	r2, [r3, #12]
	ldr	r3, [sp, #12]
	str	r2, [r3, #0]
	.loc 5 571 0
	ldr	r3, [sp, #8]
	rsb	r3, r3, #0
	mov	r0, r3
	bl	IwGeomSin
	mov	r2, r0
	ldr	r3, [sp, #12]
	str	r2, [r3, #8]
	ldr	r3, [sp, #12]
	ldr	r3, [r3, #8]
	rsb	r2, r3, #0
	ldr	r3, [sp, #12]
	str	r2, [r3, #4]
	.loc 5 572 0
	ldr	r3, [sp, #12]
	add	r4, r3, #16
	add	r3, sp, #24
	mov	r0, r3
	ldr	r1, [sp, #12]
	ldr	r2, [sp, #4]
	bl	_ZNK8CIwMat2D9RotateVecERK7CIwVec2
	add	r2, sp, #16
	add	r3, sp, #24
	mov	r0, r2
	ldr	r1, [sp, #4]
	mov	r2, r3
	bl	_ZNK7CIwVec2miERKS_
	add	r3, sp, #16
	mov	r0, r4
	mov	r1, r3
	bl	_ZN7CIwVec2aSERKS_
	.loc 5 573 0
	add	sp, sp, #32
	ldmfd	sp!, {r4, pc}
	.cfi_endproc
.LFE776:
	.size	_ZN8CIwMat2D6SetRotEiRK7CIwVec2, .-_ZN8CIwMat2D6SetRotEiRK7CIwVec2
	.section	.text._ZN6b2Vec2C1Ev,"axG",%progbits,_ZN6b2Vec2C1Ev,comdat
	.align	2
	.weak	_ZN6b2Vec2C1Ev
	.hidden	_ZN6b2Vec2C1Ev
	.type	_ZN6b2Vec2C1Ev, %function
_ZN6b2Vec2C1Ev:
.LFB2072:
	.file 6 "v:/gigglingbits/box2d/Box2D/Common/b2Math.h"
	.loc 6 56 0
	.cfi_startproc
	@ args = 0, pretend = 0, frame = 8
	@ frame_needed = 0, uses_anonymous_args = 0
	@ link register save eliminated.
	sub	sp, sp, #8
.LCFI24:
	.cfi_def_cfa_offset 8
	str	r0, [sp, #4]
	.loc 6 56 0
	ldr	r3, [sp, #4]
	mov	r0, r3
	add	sp, sp, #8
	bx	lr
	.cfi_endproc
.LFE2072:
	.size	_ZN6b2Vec2C1Ev, .-_ZN6b2Vec2C1Ev
	.section	.text._ZN6b2Vec2C1Eff,"axG",%progbits,_ZN6b2Vec2C1Eff,comdat
	.align	2
	.weak	_ZN6b2Vec2C1Eff
	.hidden	_ZN6b2Vec2C1Eff
	.type	_ZN6b2Vec2C1Eff, %function
_ZN6b2Vec2C1Eff:
.LFB2075:
	.loc 6 59 0
	.cfi_startproc
	@ args = 0, pretend = 0, frame = 16
	@ frame_needed = 0, uses_anonymous_args = 0
	@ link register save eliminated.
	sub	sp, sp, #16
.LCFI25:
	.cfi_def_cfa_offset 16
	str	r0, [sp, #12]
	str	r1, [sp, #8]	@ float
	str	r2, [sp, #4]	@ float
	.loc 6 59 0
	ldr	r3, [sp, #12]
	flds	s15, [sp, #8]
	fsts	s15, [r3, #0]
	ldr	r3, [sp, #12]
	flds	s15, [sp, #4]
	fsts	s15, [r3, #4]
	ldr	r3, [sp, #12]
	mov	r0, r3
	add	sp, sp, #16
	bx	lr
	.cfi_endproc
.LFE2075:
	.size	_ZN6b2Vec2C1Eff, .-_ZN6b2Vec2C1Eff
	.section	.text._ZN6b2Vec27SetZeroEv,"axG",%progbits,_ZN6b2Vec27SetZeroEv,comdat
	.align	2
	.weak	_ZN6b2Vec27SetZeroEv
	.hidden	_ZN6b2Vec27SetZeroEv
	.type	_ZN6b2Vec27SetZeroEv, %function
_ZN6b2Vec27SetZeroEv:
.LFB2076:
	.loc 6 62 0
	.cfi_startproc
	@ args = 0, pretend = 0, frame = 8
	@ frame_needed = 0, uses_anonymous_args = 0
	@ link register save eliminated.
	sub	sp, sp, #8
.LCFI26:
	.cfi_def_cfa_offset 8
	str	r0, [sp, #4]
	.loc 6 62 0
	ldr	r3, [sp, #4]
	flds	s15, .L164
	fsts	s15, [r3, #0]
	ldr	r3, [sp, #4]
	flds	s15, .L164
	fsts	s15, [r3, #4]
	add	sp, sp, #8
	bx	lr
.L165:
	.align	2
.L164:
	.word	0
	.cfi_endproc
.LFE2076:
	.size	_ZN6b2Vec27SetZeroEv, .-_ZN6b2Vec27SetZeroEv
	.section	.text._ZN6b2Vec23SetEff,"axG",%progbits,_ZN6b2Vec23SetEff,comdat
	.align	2
	.weak	_ZN6b2Vec23SetEff
	.hidden	_ZN6b2Vec23SetEff
	.type	_ZN6b2Vec23SetEff, %function
_ZN6b2Vec23SetEff:
.LFB2077:
	.loc 6 65 0
	.cfi_startproc
	@ args = 0, pretend = 0, frame = 16
	@ frame_needed = 0, uses_anonymous_args = 0
	@ link register save eliminated.
	sub	sp, sp, #16
.LCFI27:
	.cfi_def_cfa_offset 16
	str	r0, [sp, #12]
	str	r1, [sp, #8]	@ float
	str	r2, [sp, #4]	@ float
	.loc 6 65 0
	ldr	r3, [sp, #12]
	flds	s15, [sp, #8]
	fsts	s15, [r3, #0]
	ldr	r3, [sp, #12]
	flds	s15, [sp, #4]
	fsts	s15, [r3, #4]
	add	sp, sp, #16
	bx	lr
	.cfi_endproc
.LFE2077:
	.size	_ZN6b2Vec23SetEff, .-_ZN6b2Vec23SetEff
	.section	.text._ZNK5b2Rot8GetAngleEv,"axG",%progbits,_ZNK5b2Rot8GetAngleEv,comdat
	.align	2
	.weak	_ZNK5b2Rot8GetAngleEv
	.hidden	_ZNK5b2Rot8GetAngleEv
	.type	_ZNK5b2Rot8GetAngleEv, %function
_ZNK5b2Rot8GetAngleEv:
.LFB2130:
	.loc 6 327 0
	.cfi_startproc
	@ args = 0, pretend = 0, frame = 8
	@ frame_needed = 0, uses_anonymous_args = 0
	str	lr, [sp, #-4]!
.LCFI28:
	.cfi_def_cfa_offset 4
	sub	sp, sp, #12
.LCFI29:
	.cfi_def_cfa_offset 16
	str	r0, [sp, #4]
	.loc 6 329 0
	ldr	r3, [sp, #4]
	ldr	r2, [r3, #0]	@ float
	ldr	r3, [sp, #4]
	ldr	r3, [r3, #4]	@ float
	mov	r0, r2	@ float
	mov	r1, r3	@ float
	.cfi_offset 14, -4
	bl	atan2f
	mov	r3, r0	@ float
	fmsr	s15, r3
	fmrs	r3, s15
	.loc 6 330 0
	mov	r0, r3	@ float
	add	sp, sp, #12
	ldmfd	sp!, {pc}
	.cfi_endproc
.LFE2130:
	.size	_ZNK5b2Rot8GetAngleEv, .-_ZNK5b2Rot8GetAngleEv
	.section	.text._ZN7b2ShapeD2Ev,"axG",%progbits,_ZN7b2ShapeD2Ev,comdat
	.align	2
	.weak	_ZN7b2ShapeD2Ev
	.hidden	_ZN7b2ShapeD2Ev
	.type	_ZN7b2ShapeD2Ev, %function
_ZN7b2ShapeD2Ev:
.LFB2206:
	.file 7 "v:/gigglingbits/box2d/Box2D/Collision/Shapes/b2Shape.h"
	.loc 7 55 0
	.cfi_startproc
	@ args = 0, pretend = 0, frame = 8
	@ frame_needed = 0, uses_anonymous_args = 0
	str	lr, [sp, #-4]!
.LCFI30:
	.cfi_def_cfa_offset 4
	sub	sp, sp, #12
.LCFI31:
	.cfi_def_cfa_offset 16
	str	r0, [sp, #4]
	.loc 7 55 0
	ldr	r3, [sp, #4]
	ldr	r2, .L174
	str	r2, [r3, #0]
	mov	r3, #0
	and	r3, r3, #255
	cmp	r3, #0
	beq	.L172
	.cfi_offset 14, -4
	ldr	r0, [sp, #4]
	bl	_ZdlPv
.L172:
	ldr	r3, [sp, #4]
	mov	r0, r3
	add	sp, sp, #12
	ldmfd	sp!, {pc}
.L175:
	.align	2
.L174:
	.word	_ZTV7b2Shape+8
	.cfi_endproc
.LFE2206:
	.size	_ZN7b2ShapeD2Ev, .-_ZN7b2ShapeD2Ev
	.section	.text._ZN7b2ShapeD1Ev,"axG",%progbits,_ZN7b2ShapeD1Ev,comdat
	.align	2
	.weak	_ZN7b2ShapeD1Ev
	.hidden	_ZN7b2ShapeD1Ev
	.type	_ZN7b2ShapeD1Ev, %function
_ZN7b2ShapeD1Ev:
.LFB2207:
	.loc 7 55 0
	.cfi_startproc
	@ args = 0, pretend = 0, frame = 8
	@ frame_needed = 0, uses_anonymous_args = 0
	str	lr, [sp, #-4]!
.LCFI32:
	.cfi_def_cfa_offset 4
	sub	sp, sp, #12
.LCFI33:
	.cfi_def_cfa_offset 16
	str	r0, [sp, #4]
	.loc 7 55 0
	ldr	r3, [sp, #4]
	ldr	r2, .L180
	str	r2, [r3, #0]
	mov	r3, #0
	and	r3, r3, #255
	cmp	r3, #0
	beq	.L178
	.cfi_offset 14, -4
	ldr	r0, [sp, #4]
	bl	_ZdlPv
.L178:
	ldr	r3, [sp, #4]
	mov	r0, r3
	add	sp, sp, #12
	ldmfd	sp!, {pc}
.L181:
	.align	2
.L180:
	.word	_ZTV7b2Shape+8
	.cfi_endproc
.LFE2207:
	.size	_ZN7b2ShapeD1Ev, .-_ZN7b2ShapeD1Ev
	.section	.text._ZN7b2ShapeD0Ev,"axG",%progbits,_ZN7b2ShapeD0Ev,comdat
	.align	2
	.weak	_ZN7b2ShapeD0Ev
	.hidden	_ZN7b2ShapeD0Ev
	.type	_ZN7b2ShapeD0Ev, %function
_ZN7b2ShapeD0Ev:
.LFB2208:
	.loc 7 55 0
	.cfi_startproc
	@ args = 0, pretend = 0, frame = 8
	@ frame_needed = 0, uses_anonymous_args = 0
	str	lr, [sp, #-4]!
.LCFI34:
	.cfi_def_cfa_offset 4
	sub	sp, sp, #12
.LCFI35:
	.cfi_def_cfa_offset 16
	str	r0, [sp, #4]
	.loc 7 55 0
	ldr	r3, [sp, #4]
	ldr	r2, .L186
	str	r2, [r3, #0]
	mov	r3, #1
	and	r3, r3, #255
	cmp	r3, #0
	beq	.L184
	.cfi_offset 14, -4
	ldr	r0, [sp, #4]
	bl	_ZdlPv
.L184:
	ldr	r3, [sp, #4]
	mov	r0, r3
	add	sp, sp, #12
	ldmfd	sp!, {pc}
.L187:
	.align	2
.L186:
	.word	_ZTV7b2Shape+8
	.cfi_endproc
.LFE2208:
	.size	_ZN7b2ShapeD0Ev, .-_ZN7b2ShapeD0Ev
	.section	.text._ZN7b2ShapeC2Ev,"axG",%progbits,_ZN7b2ShapeC2Ev,comdat
	.align	2
	.weak	_ZN7b2ShapeC2Ev
	.hidden	_ZN7b2ShapeC2Ev
	.type	_ZN7b2ShapeC2Ev, %function
_ZN7b2ShapeC2Ev:
.LFB2213:
	.loc 7 43 0
	.cfi_startproc
	@ args = 0, pretend = 0, frame = 8
	@ frame_needed = 0, uses_anonymous_args = 0
	@ link register save eliminated.
	sub	sp, sp, #8
.LCFI36:
	.cfi_def_cfa_offset 8
	str	r0, [sp, #4]
	.loc 7 43 0
	ldr	r3, [sp, #4]
	ldr	r2, .L191
	str	r2, [r3, #0]
	ldr	r3, [sp, #4]
	mov	r0, r3
	add	sp, sp, #8
	bx	lr
.L192:
	.align	2
.L191:
	.word	_ZTV7b2Shape+8
	.cfi_endproc
.LFE2213:
	.size	_ZN7b2ShapeC2Ev, .-_ZN7b2ShapeC2Ev
	.section	.text._ZN12b2ChainShapeC1Ev,"axG",%progbits,_ZN12b2ChainShapeC1Ev,comdat
	.align	2
	.weak	_ZN12b2ChainShapeC1Ev
	.hidden	_ZN12b2ChainShapeC1Ev
	.type	_ZN12b2ChainShapeC1Ev, %function
_ZN12b2ChainShapeC1Ev:
.LFB2225:
	.file 8 "v:/gigglingbits/box2d/Box2D/Collision/Shapes/b2ChainShape.h"
	.loc 8 92 0
	.cfi_startproc
	@ args = 0, pretend = 0, frame = 8
	@ frame_needed = 0, uses_anonymous_args = 0
	str	lr, [sp, #-4]!
.LCFI37:
	.cfi_def_cfa_offset 4
	sub	sp, sp, #12
.LCFI38:
	.cfi_def_cfa_offset 16
	str	r0, [sp, #4]
	.loc 8 92 0
	ldr	r3, [sp, #4]
	mov	r0, r3
	.cfi_offset 14, -4
	bl	_ZN7b2ShapeC2Ev
	ldr	r3, [sp, #4]
	ldr	r2, .L196+4
	str	r2, [r3, #0]
	ldr	r3, [sp, #4]
	add	r3, r3, #20
	mov	r0, r3
	bl	_ZN6b2Vec2C1Ev
	ldr	r3, [sp, #4]
	add	r3, r3, #28
	mov	r0, r3
	bl	_ZN6b2Vec2C1Ev
	.loc 8 94 0
	ldr	r3, [sp, #4]
	mov	r2, #3
	str	r2, [r3, #4]
	.loc 8 95 0
	ldr	r3, [sp, #4]
	flds	s15, .L196
	fsts	s15, [r3, #8]
	.loc 8 96 0
	ldr	r3, [sp, #4]
	mov	r2, #0
	str	r2, [r3, #12]
	.loc 8 97 0
	ldr	r3, [sp, #4]
	mov	r2, #0
	str	r2, [r3, #16]
	.loc 8 98 0
	ldr	r3, [sp, #4]
	mov	r2, #0
	strb	r2, [r3, #36]
	.loc 8 99 0
	ldr	r3, [sp, #4]
	mov	r2, #0
	strb	r2, [r3, #37]
	.loc 8 100 0
	ldr	r3, [sp, #4]
	mov	r0, r3
	add	sp, sp, #12
	ldmfd	sp!, {pc}
.L197:
	.align	2
.L196:
	.word	1008981770
	.word	_ZTV12b2ChainShape+8
	.cfi_endproc
.LFE2225:
	.size	_ZN12b2ChainShapeC1Ev, .-_ZN12b2ChainShapeC1Ev
	.section	.text._ZN14b2PolygonShapeC1Ev,"axG",%progbits,_ZN14b2PolygonShapeC1Ev,comdat
	.align	2
	.weak	_ZN14b2PolygonShapeC1Ev
	.hidden	_ZN14b2PolygonShapeC1Ev
	.type	_ZN14b2PolygonShapeC1Ev, %function
_ZN14b2PolygonShapeC1Ev:
.LFB2229:
	.file 9 "v:/gigglingbits/box2d/Box2D/Collision/Shapes/b2PolygonShape.h"
	.loc 9 87 0
	.cfi_startproc
	@ args = 0, pretend = 0, frame = 8
	@ frame_needed = 0, uses_anonymous_args = 0
	stmfd	sp!, {r4, r5, lr}
.LCFI39:
	.cfi_def_cfa_offset 12
	sub	sp, sp, #12
.LCFI40:
	.cfi_def_cfa_offset 24
	str	r0, [sp, #4]
	.loc 9 87 0
	ldr	r3, [sp, #4]
	mov	r0, r3
	.cfi_offset 14, -4
	.cfi_offset 5, -8
	.cfi_offset 4, -12
	bl	_ZN7b2ShapeC2Ev
	ldr	r3, [sp, #4]
	ldr	r2, .L205+4
	str	r2, [r3, #0]
	ldr	r3, [sp, #4]
	add	r3, r3, #12
	mov	r0, r3
	bl	_ZN6b2Vec2C1Ev
	ldr	r3, [sp, #4]
	add	r3, r3, #20
	mov	r5, r3
	mov	r4, #7
	b	.L199
.L200:
	mov	r0, r5
	bl	_ZN6b2Vec2C1Ev
	add	r5, r5, #8
	sub	r4, r4, #1
.L199:
	cmn	r4, #1
	moveq	r3, #0
	movne	r3, #1
	and	r3, r3, #255
	cmp	r3, #0
	bne	.L200
	ldr	r3, [sp, #4]
	add	r3, r3, #84
	mov	r5, r3
	mov	r4, #7
	b	.L201
.L202:
	mov	r0, r5
	bl	_ZN6b2Vec2C1Ev
	add	r5, r5, #8
	sub	r4, r4, #1
.L201:
	cmn	r4, #1
	moveq	r3, #0
	movne	r3, #1
	and	r3, r3, #255
	cmp	r3, #0
	bne	.L202
	.loc 9 89 0
	ldr	r3, [sp, #4]
	mov	r2, #2
	str	r2, [r3, #4]
	.loc 9 90 0
	ldr	r3, [sp, #4]
	flds	s15, .L205
	fsts	s15, [r3, #8]
	.loc 9 91 0
	ldr	r3, [sp, #4]
	mov	r2, #0
	str	r2, [r3, #148]
	.loc 9 92 0
	ldr	r3, [sp, #4]
	add	r3, r3, #12
	mov	r0, r3
	bl	_ZN6b2Vec27SetZeroEv
	.loc 9 93 0
	ldr	r3, [sp, #4]
	mov	r0, r3
	add	sp, sp, #12
	ldmfd	sp!, {r4, r5, pc}
.L206:
	.align	2
.L205:
	.word	1008981770
	.word	_ZTV14b2PolygonShape+8
	.cfi_endproc
.LFE2229:
	.size	_ZN14b2PolygonShapeC1Ev, .-_ZN14b2PolygonShapeC1Ev
	.section	.text._ZN9b2BodyDefC1Ev,"axG",%progbits,_ZN9b2BodyDefC1Ev,comdat
	.align	2
	.weak	_ZN9b2BodyDefC1Ev
	.hidden	_ZN9b2BodyDefC1Ev
	.type	_ZN9b2BodyDefC1Ev, %function
_ZN9b2BodyDefC1Ev:
.LFB2726:
	.file 10 "v:/gigglingbits/box2d/Box2D/Dynamics/b2Body.h"
	.loc 10 54 0
	.cfi_startproc
	@ args = 0, pretend = 0, frame = 8
	@ frame_needed = 0, uses_anonymous_args = 0
	str	lr, [sp, #-4]!
.LCFI41:
	.cfi_def_cfa_offset 4
	sub	sp, sp, #12
.LCFI42:
	.cfi_def_cfa_offset 16
	str	r0, [sp, #4]
	.loc 10 55 0
	ldr	r3, [sp, #4]
	add	r3, r3, #4
	mov	r0, r3
	.cfi_offset 14, -4
	bl	_ZN6b2Vec2C1Ev
	ldr	r3, [sp, #4]
	add	r3, r3, #16
	mov	r0, r3
	bl	_ZN6b2Vec2C1Ev
	.loc 10 56 0
	ldr	r3, [sp, #4]
	mov	r2, #0
	str	r2, [r3, #44]
	.loc 10 57 0
	ldr	r3, [sp, #4]
	add	r3, r3, #4
	mov	r0, r3
	ldr	r1, .L210	@ float
	ldr	r2, .L210	@ float
	bl	_ZN6b2Vec23SetEff
	.loc 10 58 0
	ldr	r3, [sp, #4]
	flds	s15, .L210
	fsts	s15, [r3, #12]
	.loc 10 59 0
	ldr	r3, [sp, #4]
	add	r3, r3, #16
	mov	r0, r3
	ldr	r1, .L210	@ float
	ldr	r2, .L210	@ float
	bl	_ZN6b2Vec23SetEff
	.loc 10 60 0
	ldr	r3, [sp, #4]
	flds	s15, .L210
	fsts	s15, [r3, #24]
	.loc 10 61 0
	ldr	r3, [sp, #4]
	flds	s15, .L210
	fsts	s15, [r3, #28]
	.loc 10 62 0
	ldr	r3, [sp, #4]
	flds	s15, .L210
	fsts	s15, [r3, #32]
	.loc 10 63 0
	ldr	r3, [sp, #4]
	mov	r2, #1
	strb	r2, [r3, #36]
	.loc 10 64 0
	ldr	r3, [sp, #4]
	mov	r2, #1
	strb	r2, [r3, #37]
	.loc 10 65 0
	ldr	r3, [sp, #4]
	mov	r2, #0
	strb	r2, [r3, #38]
	.loc 10 66 0
	ldr	r3, [sp, #4]
	mov	r2, #0
	strb	r2, [r3, #39]
	.loc 10 67 0
	ldr	r3, [sp, #4]
	mov	r2, #0
	str	r2, [r3, #0]
	.loc 10 68 0
	ldr	r3, [sp, #4]
	mov	r2, #1
	strb	r2, [r3, #40]
	.loc 10 69 0
	ldr	r3, [sp, #4]
	flds	s15, .L210+4
	fsts	s15, [r3, #48]
	.loc 10 70 0
	ldr	r3, [sp, #4]
	mov	r0, r3
	add	sp, sp, #12
	ldmfd	sp!, {pc}
.L211:
	.align	2
.L210:
	.word	0
	.word	1065353216
	.cfi_endproc
.LFE2726:
	.size	_ZN9b2BodyDefC1Ev, .-_ZN9b2BodyDefC1Ev
	.section	.text._ZNK6b2Body12GetTransformEv,"axG",%progbits,_ZNK6b2Body12GetTransformEv,comdat
	.align	2
	.weak	_ZNK6b2Body12GetTransformEv
	.hidden	_ZNK6b2Body12GetTransformEv
	.type	_ZNK6b2Body12GetTransformEv, %function
_ZNK6b2Body12GetTransformEv:
.LFB2728:
	.loc 10 475 0
	.cfi_startproc
	@ args = 0, pretend = 0, frame = 8
	@ frame_needed = 0, uses_anonymous_args = 0
	@ link register save eliminated.
	sub	sp, sp, #8
.LCFI43:
	.cfi_def_cfa_offset 8
	str	r0, [sp, #4]
	.loc 10 476 0
	ldr	r3, [sp, #4]
	add	r3, r3, #12
	.loc 10 477 0
	mov	r0, r3
	add	sp, sp, #8
	bx	lr
	.cfi_endproc
.LFE2728:
	.size	_ZNK6b2Body12GetTransformEv, .-_ZNK6b2Body12GetTransformEv
	.section	.text._ZN6b2Body18SetAngularVelocityEf,"axG",%progbits,_ZN6b2Body18SetAngularVelocityEf,comdat
	.align	2
	.weak	_ZN6b2Body18SetAngularVelocityEf
	.hidden	_ZN6b2Body18SetAngularVelocityEf
	.type	_ZN6b2Body18SetAngularVelocityEf, %function
_ZN6b2Body18SetAngularVelocityEf:
.LFB2735:
	.loc 10 520 0
	.cfi_startproc
	@ args = 0, pretend = 0, frame = 8
	@ frame_needed = 0, uses_anonymous_args = 0
	str	lr, [sp, #-4]!
.LCFI44:
	.cfi_def_cfa_offset 4
	sub	sp, sp, #12
.LCFI45:
	.cfi_def_cfa_offset 16
	str	r0, [sp, #4]
	str	r1, [sp, #0]	@ float
	.loc 10 521 0
	ldr	r3, [sp, #4]
	ldr	r3, [r3, #0]
	cmp	r3, #0
	beq	.L219
	.cfi_offset 14, -4
.L215:
	.loc 10 526 0
	flds	s14, [sp, #0]
	flds	s15, [sp, #0]
	fmuls	s15, s14, s15
	fcmpezs	s15
	fmstat
	movle	r3, #0
	movgt	r3, #1
	and	r3, r3, #255
	cmp	r3, #0
	beq	.L217
	.loc 10 528 0
	ldr	r0, [sp, #4]
	mov	r1, #1
	bl	_ZN6b2Body8SetAwakeEb
.L217:
	.loc 10 531 0
	ldr	r3, [sp, #4]
	flds	s15, [sp, #0]
	fsts	s15, [r3, #72]
	b	.L218
.L219:
	.loc 10 523 0
	mov	r0, r0	@ nop
.L218:
	.loc 10 532 0
	add	sp, sp, #12
	ldmfd	sp!, {pc}
	.cfi_endproc
.LFE2735:
	.size	_ZN6b2Body18SetAngularVelocityEf, .-_ZN6b2Body18SetAngularVelocityEf
	.section	.text._ZN6b2Body16SetLinearDampingEf,"axG",%progbits,_ZN6b2Body16SetLinearDampingEf,comdat
	.align	2
	.weak	_ZN6b2Body16SetLinearDampingEf
	.hidden	_ZN6b2Body16SetLinearDampingEf
	.type	_ZN6b2Body16SetLinearDampingEf, %function
_ZN6b2Body16SetLinearDampingEf:
.LFB2747:
	.loc 10 592 0
	.cfi_startproc
	@ args = 0, pretend = 0, frame = 8
	@ frame_needed = 0, uses_anonymous_args = 0
	@ link register save eliminated.
	sub	sp, sp, #8
.LCFI46:
	.cfi_def_cfa_offset 8
	str	r0, [sp, #4]
	str	r1, [sp, #0]	@ float
	.loc 10 593 0
	ldr	r3, [sp, #4]
	flds	s15, [sp, #0]
	fsts	s15, [r3, #132]
	.loc 10 594 0
	add	sp, sp, #8
	bx	lr
	.cfi_endproc
.LFE2747:
	.size	_ZN6b2Body16SetLinearDampingEf, .-_ZN6b2Body16SetLinearDampingEf
	.section	.text._ZN6b2Body8SetAwakeEb,"axG",%progbits,_ZN6b2Body8SetAwakeEb,comdat
	.align	2
	.weak	_ZN6b2Body8SetAwakeEb
	.hidden	_ZN6b2Body8SetAwakeEb
	.type	_ZN6b2Body8SetAwakeEb, %function
_ZN6b2Body8SetAwakeEb:
.LFB2754:
	.loc 10 634 0
	.cfi_startproc
	@ args = 0, pretend = 0, frame = 8
	@ frame_needed = 0, uses_anonymous_args = 0
	str	lr, [sp, #-4]!
.LCFI47:
	.cfi_def_cfa_offset 4
	sub	sp, sp, #12
.LCFI48:
	.cfi_def_cfa_offset 16
	str	r0, [sp, #4]
	mov	r3, r1
	strb	r3, [sp, #3]
	.loc 10 635 0
	ldrb	r3, [sp, #3]	@ zero_extendqisi2
	cmp	r3, #0
	beq	.L223
	.cfi_offset 14, -4
	.loc 10 637 0
	ldr	r3, [sp, #4]
	ldrh	r3, [r3, #4]
	and	r3, r3, #2
	cmp	r3, #0
	bne	.L227
	.loc 10 639 0
	ldr	r3, [sp, #4]
	ldrh	r3, [r3, #4]
	orr	r3, r3, #2
	mov	r3, r3, asl #16
	mov	r2, r3, lsr #16
	ldr	r3, [sp, #4]
	strh	r2, [r3, #4]	@ movhi
	.loc 10 640 0
	ldr	r3, [sp, #4]
	flds	s15, .L228
	fsts	s15, [r3, #144]
	b	.L226
.L223:
	.loc 10 645 0
	ldr	r3, [sp, #4]
	ldrh	r3, [r3, #4]
	ldr	r2, .L228+4
	and	r2, r3, r2
	mov	r3, r2
	ldr	r2, [sp, #4]
	strh	r3, [r2, #4]	@ movhi
	.loc 10 646 0
	ldr	r3, [sp, #4]
	flds	s15, .L228
	fsts	s15, [r3, #144]
	.loc 10 647 0
	ldr	r3, [sp, #4]
	add	r3, r3, #64
	mov	r0, r3
	bl	_ZN6b2Vec27SetZeroEv
	.loc 10 648 0
	ldr	r3, [sp, #4]
	flds	s15, .L228
	fsts	s15, [r3, #72]
	.loc 10 649 0
	ldr	r3, [sp, #4]
	add	r3, r3, #76
	mov	r0, r3
	bl	_ZN6b2Vec27SetZeroEv
	.loc 10 650 0
	ldr	r3, [sp, #4]
	flds	s15, .L228
	fsts	s15, [r3, #84]
	b	.L226
.L227:
	.loc 10 640 0
	mov	r0, r0	@ nop
.L226:
	.loc 10 652 0
	add	sp, sp, #12
	ldmfd	sp!, {pc}
.L229:
	.align	2
.L228:
	.word	0
	.word	65533
	.cfi_endproc
.LFE2754:
	.size	_ZN6b2Body8SetAwakeEb, .-_ZN6b2Body8SetAwakeEb
	.section	.text._ZN8b2FilterC1Ev,"axG",%progbits,_ZN8b2FilterC1Ev,comdat
	.align	2
	.weak	_ZN8b2FilterC1Ev
	.hidden	_ZN8b2FilterC1Ev
	.type	_ZN8b2FilterC1Ev, %function
_ZN8b2FilterC1Ev:
.LFB2781:
	.file 11 "v:/gigglingbits/box2d/Box2D/Dynamics/b2Fixture.h"
	.loc 11 34 0
	.cfi_startproc
	@ args = 0, pretend = 0, frame = 8
	@ frame_needed = 0, uses_anonymous_args = 0
	@ link register save eliminated.
	sub	sp, sp, #8
.LCFI49:
	.cfi_def_cfa_offset 8
	str	r0, [sp, #4]
	.loc 11 36 0
	ldr	r3, [sp, #4]
	mov	r2, #1
	strh	r2, [r3, #0]	@ movhi
	.loc 11 37 0
	ldr	r3, [sp, #4]
	mvn	r2, #0
	strh	r2, [r3, #2]	@ movhi
	.loc 11 38 0
	ldr	r3, [sp, #4]
	mov	r2, #0
	strh	r2, [r3, #4]	@ movhi
	.loc 11 39 0
	ldr	r3, [sp, #4]
	mov	r0, r3
	add	sp, sp, #8
	bx	lr
	.cfi_endproc
.LFE2781:
	.size	_ZN8b2FilterC1Ev, .-_ZN8b2FilterC1Ev
	.section	.text._ZN12b2FixtureDefC1Ev,"axG",%progbits,_ZN12b2FixtureDefC1Ev,comdat
	.align	2
	.weak	_ZN12b2FixtureDefC1Ev
	.hidden	_ZN12b2FixtureDefC1Ev
	.type	_ZN12b2FixtureDefC1Ev, %function
_ZN12b2FixtureDefC1Ev:
.LFB2784:
	.loc 11 59 0
	.cfi_startproc
	@ args = 0, pretend = 0, frame = 8
	@ frame_needed = 0, uses_anonymous_args = 0
	str	lr, [sp, #-4]!
.LCFI50:
	.cfi_def_cfa_offset 4
	sub	sp, sp, #12
.LCFI51:
	.cfi_def_cfa_offset 16
	str	r0, [sp, #4]
	.loc 11 60 0
	ldr	r3, [sp, #4]
	add	r3, r3, #22
	mov	r0, r3
	.cfi_offset 14, -4
	bl	_ZN8b2FilterC1Ev
	.loc 11 61 0
	ldr	r3, [sp, #4]
	mov	r2, #0
	str	r2, [r3, #0]
	.loc 11 62 0
	ldr	r3, [sp, #4]
	mov	r2, #0
	str	r2, [r3, #4]
	.loc 11 63 0
	ldr	r3, [sp, #4]
	flds	s15, .L236
	fsts	s15, [r3, #8]
	.loc 11 64 0
	ldr	r3, [sp, #4]
	flds	s15, .L236+4
	fsts	s15, [r3, #12]
	.loc 11 65 0
	ldr	r3, [sp, #4]
	flds	s15, .L236+4
	fsts	s15, [r3, #16]
	.loc 11 66 0
	ldr	r3, [sp, #4]
	mov	r2, #0
	strb	r2, [r3, #20]
	.loc 11 67 0
	ldr	r3, [sp, #4]
	mov	r0, r3
	add	sp, sp, #12
	ldmfd	sp!, {pc}
.L237:
	.align	2
.L236:
	.word	1045220557
	.word	0
	.cfi_endproc
.LFE2784:
	.size	_ZN12b2FixtureDefC1Ev, .-_ZN12b2FixtureDefC1Ev
	.hidden	g_gravity
	.global	g_gravity
	.bss
	.align	2
	.type	g_gravity, %object
	.size	g_gravity, 8
g_gravity:
	.space	8
	.hidden	g_doSleep
	.global	g_doSleep
	.type	g_doSleep, %object
	.size	g_doSleep, 1
g_doSleep:
	.space	1
	.hidden	g_Image
	.global	g_Image
	.align	2
	.type	g_Image, %object
	.size	g_Image, 4
g_Image:
	.space	4
	.hidden	g_world
	.global	g_world
	.align	2
	.type	g_world, %object
	.size	g_world, 4
g_world:
	.space	4
	.hidden	g_body
	.global	g_body
	.align	2
	.type	g_body, %object
	.size	g_body, 4
g_body:
	.space	4
	.hidden	g_prevTime
	.global	g_prevTime
	.align	3
	.type	g_prevTime, %object
	.size	g_prevTime, 8
g_prevTime:
	.space	8
	.hidden	g_timeNow
	.global	g_timeNow
	.align	3
	.type	g_timeNow, %object
	.size	g_timeNow, 8
g_timeNow:
	.space	8
	.hidden	g_deltaTime
	.global	g_deltaTime
	.align	2
	.type	g_deltaTime, %object
	.size	g_deltaTime, 4
g_deltaTime:
	.space	4
	.hidden	g_accumulator
	.global	g_accumulator
	.align	2
	.type	g_accumulator, %object
	.size	g_accumulator, 4
g_accumulator:
	.space	4
	.section	.text._ZN14b2PolygonShapeD1Ev,"axG",%progbits,_ZN14b2PolygonShapeD1Ev,comdat
	.align	2
	.weak	_ZN14b2PolygonShapeD1Ev
	.hidden	_ZN14b2PolygonShapeD1Ev
	.type	_ZN14b2PolygonShapeD1Ev, %function
_ZN14b2PolygonShapeD1Ev:
.LFB2987:
	.loc 9 29 0
	.cfi_startproc
	@ args = 0, pretend = 0, frame = 8
	@ frame_needed = 0, uses_anonymous_args = 0
	str	lr, [sp, #-4]!
.LCFI52:
	.cfi_def_cfa_offset 4
	sub	sp, sp, #12
.LCFI53:
	.cfi_def_cfa_offset 16
	str	r0, [sp, #4]
	.loc 9 29 0
	ldr	r3, [sp, #4]
	ldr	r2, .L242
	str	r2, [r3, #0]
	ldr	r3, [sp, #4]
	mov	r0, r3
	.cfi_offset 14, -4
	bl	_ZN7b2ShapeD2Ev
	mov	r3, #0
	and	r3, r3, #255
	cmp	r3, #0
	beq	.L240
	ldr	r0, [sp, #4]
	bl	_ZdlPv
.L240:
	ldr	r3, [sp, #4]
	mov	r0, r3
	add	sp, sp, #12
	ldmfd	sp!, {pc}
.L243:
	.align	2
.L242:
	.word	_ZTV14b2PolygonShape+8
	.cfi_endproc
.LFE2987:
	.size	_ZN14b2PolygonShapeD1Ev, .-_ZN14b2PolygonShapeD1Ev
	.section	.rodata
	.align	2
.LC13:
	.ascii	"Image.png\000"
	.section	.text._Z11ExampleInitv,"ax",%progbits
	.align	2
	.global	_Z11ExampleInitv
	.hidden	_Z11ExampleInitv
	.type	_Z11ExampleInitv, %function
_Z11ExampleInitv:
.LFB2984:
	.file 12 "v:/GigglingBits/box2d/HeyBox2D/HeyBox2D.cpp"
	.loc 12 35 0
	.cfi_startproc
	@ args = 0, pretend = 0, frame = 320
	@ frame_needed = 0, uses_anonymous_args = 0
	stmfd	sp!, {r4, lr}
.LCFI54:
	.cfi_def_cfa_offset 8
	sub	sp, sp, #320
.LCFI55:
	.cfi_def_cfa_offset 328
.LBB18:
	.loc 12 36 0
	.cfi_offset 14, -4
	.cfi_offset 4, -8
	bl	_Z8Iw2DInitv
	.loc 12 37 0
	mvn	r0, #0
	bl	_Z13Iw2DSetColourj
	.loc 12 38 0
	ldr	r0, .L246+16
	bl	_Z15Iw2DCreateImagePKc
	mov	r2, r0
	ldr	r3, .L246+20
	str	r2, [r3, #0]
	.loc 12 41 0
	ldr	r3, .L246+24
	flds	s15, .L246
	fsts	s15, [r3, #0]
	.loc 12 42 0
	bl	s3eTimerGetMs
	mov	r2, r0
	mov	r3, r1
	ldr	r1, .L246+28
	strd	r2, [r1]
	.loc 12 45 0
	ldr	r0, .L246+32
	bl	_Znwj
	mov	r3, r0
	mov	r4, r3
	mov	r3, r4
	mov	r0, r3
	ldr	r1, .L246+36
	bl	_ZN7b2WorldC1ERK6b2Vec2
	mov	r2, r4
	ldr	r3, .L246+40
	str	r2, [r3, #0]
	ldr	r3, .L246+40
	ldr	r3, [r3, #0]
	cmp	r3, #0
	.loc 12 48 0
	add	r3, sp, #152
	mov	r0, r3
	bl	_ZN9b2BodyDefC1Ev
	.loc 12 49 0
	mov	r3, #0
	str	r3, [sp, #152]
	.loc 12 50 0
	add	r3, sp, #152
	add	r3, r3, #4
	mov	r0, r3
	ldr	r1, .L246	@ float
	ldr	r2, .L246	@ float
	bl	_ZN6b2Vec23SetEff
	.loc 12 51 0
	ldr	r3, .L246+40
	ldr	r2, [r3, #0]
	add	r3, sp, #152
	mov	r0, r2
	mov	r1, r3
	bl	_ZN7b2World10CreateBodyEPK9b2BodyDef
	mov	r3, r0
	str	r3, [sp, #304]
	.loc 12 53 0
	bl	_Z19Iw2DGetSurfaceWidthv
	fmsr	s15, r0	@ int
	fsitos	s14, s15
	flds	s15, .L246+4
	fmuls	s15, s14, s15
	flds	s14, .L246+8
	fdivs	s15, s15, s14
	fsts	s15, [sp, #308]
	.loc 12 54 0
	bl	_Z20Iw2DGetSurfaceHeightv
	fmsr	s15, r0	@ int
	fsitos	s14, s15
	flds	s15, .L246+4
	fmuls	s15, s14, s15
	flds	s14, .L246+8
	fdivs	s15, s15, s14
	fsts	s15, [sp, #312]
	.loc 12 55 0
	add	r3, sp, #244
	mov	r4, r3
	flds	s15, [sp, #308]
	fnegs	s14, s15
	flds	s15, [sp, #312]
	fnegs	s15, s15
	mov	r0, r4
	fmrs	r1, s14
	fmrs	r2, s15
	bl	_ZN6b2Vec2C1Eff
	add	r4, r4, #8
	flds	s15, [sp, #312]
	fnegs	s15, s15
	mov	r0, r4
	ldr	r1, [sp, #308]	@ float
	fmrs	r2, s15
	bl	_ZN6b2Vec2C1Eff
	add	r4, r4, #8
	mov	r0, r4
	ldr	r1, [sp, #308]	@ float
	ldr	r2, [sp, #312]	@ float
	bl	_ZN6b2Vec2C1Eff
	add	r3, r4, #8
	flds	s15, [sp, #308]
	fnegs	s15, s15
	mov	r0, r3
	fmrs	r1, s15
	ldr	r2, [sp, #312]	@ float
	bl	_ZN6b2Vec2C1Eff
	.loc 12 57 0
	mov	r3, #4
	str	r3, [sp, #316]
	.loc 12 58 0
	add	r3, sp, #204
	mov	r0, r3
	bl	_ZN12b2ChainShapeC1Ev
	.loc 12 59 0
	add	r2, sp, #204
	add	r3, sp, #244
	mov	r0, r2
	mov	r1, r3
	mov	r2, #4
	bl	_ZN12b2ChainShape10CreateLoopEPK6b2Vec2i
	.loc 12 60 0
	add	r3, sp, #204
	ldr	r0, [sp, #304]
	mov	r1, r3
	ldr	r2, .L246	@ float
	bl	_ZN6b2Body13CreateFixtureEPK7b2Shapef
	.loc 12 64 0
	mov	r3, #2
	str	r3, [sp, #152]
	.loc 12 65 0
	add	r3, sp, #152
	add	r3, r3, #4
	mov	r0, r3
	ldr	r1, .L246	@ float
	ldr	r2, .L246	@ float
	bl	_ZN6b2Vec23SetEff
	.loc 12 66 0
	ldr	r3, .L246+40
	ldr	r2, [r3, #0]
	add	r3, sp, #152
	mov	r0, r2
	mov	r1, r3
	bl	_ZN7b2World10CreateBodyEPK9b2BodyDef
	mov	r2, r0
	ldr	r3, .L246+44
	str	r2, [r3, #0]
	.loc 12 67 0
	ldr	r3, .L246+44
	ldr	r3, [r3, #0]
	mov	r0, r3
	ldr	r1, .L246+48	@ float
	bl	_ZN6b2Body16SetLinearDampingEf
	.loc 12 69 0
	mov	r3, sp
	mov	r0, r3
	bl	_ZN14b2PolygonShapeC1Ev
	.loc 12 70 0
	mov	r3, sp
	mov	r0, r3
	ldr	r1, .L246+52	@ float
	ldr	r2, .L246+52	@ float
	bl	_ZN14b2PolygonShape8SetAsBoxEff
	.loc 12 72 0
	add	r3, sp, #276
	mov	r0, r3
	bl	_ZN12b2FixtureDefC1Ev
	.loc 12 73 0
	mov	r3, sp
	str	r3, [sp, #276]
	.loc 12 74 0
	flds	s15, .L246+4
	fsts	s15, [sp, #284]
	.loc 12 75 0
	flds	s15, .L246+12
	fsts	s15, [sp, #292]
	.loc 12 76 0
	flds	s15, .L246+4
	fsts	s15, [sp, #288]
	.loc 12 78 0
	ldr	r3, .L246+44
	ldr	r2, [r3, #0]
	add	r3, sp, #276
	mov	r0, r2
	mov	r1, r3
	bl	_ZN6b2Body13CreateFixtureEPK12b2FixtureDef
	.loc 12 80 0
	ldr	r3, .L246+44
	ldr	r3, [r3, #0]
	mov	r0, r3
	ldr	r1, .L246+56	@ float
	bl	_ZN6b2Body18SetAngularVelocityEf
	mov	r3, sp
	mov	r0, r3
	bl	_ZN14b2PolygonShapeD1Ev
	add	r3, sp, #204
	mov	r0, r3
	bl	_ZN12b2ChainShapeD1Ev
.LBE18:
	.loc 12 81 0
	add	sp, sp, #320
	ldmfd	sp!, {r4, pc}
.L247:
	.align	2
.L246:
	.word	0
	.word	1056964608
	.word	1090519040
	.word	1092616192
	.word	.LC13
	.word	g_Image
	.word	g_accumulator
	.word	g_prevTime
	.word	103028
	.word	g_gravity
	.word	g_world
	.word	g_body
	.word	1036831949
	.word	1073741824
	.word	1074370970
	.cfi_endproc
.LFE2984:
	.size	_Z11ExampleInitv, .-_Z11ExampleInitv
	.section	.text._Z15ExampleShutDownv,"ax",%progbits
	.align	2
	.global	_Z15ExampleShutDownv
	.hidden	_Z15ExampleShutDownv
	.type	_Z15ExampleShutDownv, %function
_Z15ExampleShutDownv:
.LFB2989:
	.loc 12 84 0
	.cfi_startproc
	@ args = 0, pretend = 0, frame = 0
	@ frame_needed = 0, uses_anonymous_args = 0
	stmfd	sp!, {r4, lr}
.LCFI56:
	.cfi_def_cfa_offset 8
	.loc 12 85 0
	ldr	r3, .L254
	ldr	r3, [r3, #0]
	cmp	r3, #0
	beq	.L249
	.cfi_offset 14, -4
	.cfi_offset 4, -8
	ldr	r3, .L254
	ldr	r3, [r3, #0]
	cmp	r3, #0
	beq	.L250
	ldr	r3, .L254
	ldr	r3, [r3, #0]
	ldr	r3, [r3, #0]
	add	r3, r3, #16
	ldr	r3, [r3, #0]
	ldr	r2, .L254
	ldr	r2, [r2, #0]
	mov	r0, r2
	blx	r3
.L250:
	ldr	r3, .L254
	mov	r2, #0
	str	r2, [r3, #0]
.L249:
	.loc 12 86 0
	ldr	r3, .L254+4
	ldr	r3, [r3, #0]
	cmp	r3, #0
	beq	.L251
	ldr	r3, .L254+4
	ldr	r4, [r3, #0]
	cmp	r4, #0
	beq	.L252
	mov	r0, r4
	bl	_ZN7b2WorldD1Ev
	mov	r0, r4
	bl	_ZdlPv
.L252:
	ldr	r3, .L254+4
	mov	r2, #0
	str	r2, [r3, #0]
.L251:
	.loc 12 88 0
	bl	_Z13Iw2DTerminatev
	.loc 12 89 0
	ldmfd	sp!, {r4, pc}
.L255:
	.align	2
.L254:
	.word	g_Image
	.word	g_world
	.cfi_endproc
.LFE2989:
	.size	_Z15ExampleShutDownv, .-_Z15ExampleShutDownv
	.global	__aeabi_l2d
	.section	.text._Z13ExampleUpdatev,"ax",%progbits
	.align	2
	.global	_Z13ExampleUpdatev
	.hidden	_Z13ExampleUpdatev
	.type	_Z13ExampleUpdatev, %function
_Z13ExampleUpdatev:
.LFB2990:
	.loc 12 92 0
	.cfi_startproc
	@ args = 0, pretend = 0, frame = 0
	@ frame_needed = 0, uses_anonymous_args = 0
	stmfd	sp!, {r3, lr}
.LCFI57:
	.cfi_def_cfa_offset 8
	.loc 12 94 0
	.cfi_offset 14, -4
	.cfi_offset 3, -8
	bl	s3eTimerGetMs
	mov	r2, r0
	mov	r3, r1
	ldr	r1, .L260+12
	strd	r2, [r1]
	.loc 12 95 0
	ldr	r3, .L260+12
	ldrd	r0, [r3]
	ldr	r3, .L260+16
	ldrd	r2, [r3]
	subs	r2, r0, r2
	sbc	r3, r1, r3
	mov	r0, r2
	mov	r1, r3
	bl	__aeabi_l2d
	fmdrr	d6, r0, r1
	fldd	d7, .L260
	fmuld	d7, d6, d7
	fcvtsd	s15, d7
	ldr	r3, .L260+20
	fsts	s15, [r3, #0]
	.loc 12 96 0
	ldr	r3, .L260+12
	ldrd	r2, [r3]
	ldr	r1, .L260+16
	strd	r2, [r1]
	.loc 12 99 0
	ldr	r3, .L260+24
	flds	s14, [r3, #0]
	ldr	r3, .L260+20
	flds	s15, [r3, #0]
	fadds	s15, s14, s15
	ldr	r3, .L260+24
	fsts	s15, [r3, #0]
	.loc 12 100 0
	b	.L257
.L258:
	.loc 12 102 0
	ldr	r3, .L260+28
	ldr	r3, [r3, #0]
	mov	r0, r3
	ldr	r1, .L260+8	@ float
	mov	r2, #10
	mov	r3, #8
	bl	_ZN7b2World4StepEfii
	.loc 12 103 0
	ldr	r3, .L260+24
	flds	s14, [r3, #0]
	flds	s15, .L260+8
	fsubs	s15, s14, s15
	ldr	r3, .L260+24
	fsts	s15, [r3, #0]
.L257:
	.loc 12 100 0
	ldr	r3, .L260+24
	flds	s15, [r3, #0]
	fcmpezs	s15
	fmstat
	movle	r3, #0
	movgt	r3, #1
	and	r3, r3, #255
	cmp	r3, #0
	bne	.L258
	.loc 12 106 0
	mov	r3, #1
	.loc 12 107 0
	mov	r0, r3
	ldmfd	sp!, {r3, pc}
.L261:
	.align	3
.L260:
	.word	-755914244
	.word	1062232653
	.word	1015580809
	.word	g_timeNow
	.word	g_prevTime
	.word	g_deltaTime
	.word	g_accumulator
	.word	g_world
	.cfi_endproc
.LFE2990:
	.size	_Z13ExampleUpdatev, .-_Z13ExampleUpdatev
	.bss
	.align	2
_ZGVZ13ExampleRendervE9imageSize:
	.space	4
	.align	2
_ZGVZ13ExampleRendervE13halfImageSize:
	.space	4
	.section	.text._Z13ExampleRenderv,"ax",%progbits
	.align	2
	.global	_Z13ExampleRenderv
	.hidden	_Z13ExampleRenderv
	.type	_Z13ExampleRenderv, %function
_Z13ExampleRenderv:
.LFB2991:
	.loc 12 111 0
	.cfi_startproc
	@ args = 0, pretend = 0, frame = 88
	@ frame_needed = 0, uses_anonymous_args = 0
	stmfd	sp!, {r4, lr}
.LCFI58:
	.cfi_def_cfa_offset 8
	fstmfdd	sp!, {d8}
.LCFI59:
	.cfi_def_cfa_offset 16
	sub	sp, sp, #88
.LCFI60:
	.cfi_def_cfa_offset 104
.LBB19:
	.loc 12 112 0
	ldr	r3, .L266+16
	ldr	r3, [r3, #0]
	and	r3, r3, #1
	cmp	r3, #0
	bne	.L263
	.cfi_offset 80, -16
	.cfi_offset 14, -4
	.cfi_offset 4, -8
	ldr	r0, .L266+16
	bl	__cxa_guard_acquire
	mov	r3, r0
	cmp	r3, #0
	moveq	r3, #0
	movne	r3, #1
	and	r3, r3, #255
	cmp	r3, #0
	beq	.L263
	ldr	r3, .L266+20
	ldr	r3, [r3, #0]
	ldr	r3, [r3, #0]
	ldr	r3, [r3, #0]
	ldr	r2, .L266+20
	ldr	r2, [r2, #0]
	mov	r0, r2
	blx	r3
	mov	r3, r0
	mov	r3, r3, asl #16
	mov	r3, r3, lsr #16
	mov	r3, r3, asl #16
	mov	r3, r3, asr #16
	mov	r3, r3, asr #3
	mov	r3, r3, asl #16
	mov	r4, r3, lsr #16
	ldr	r3, .L266+20
	ldr	r3, [r3, #0]
	ldr	r3, [r3, #0]
	add	r3, r3, #4
	ldr	r3, [r3, #0]
	ldr	r2, .L266+20
	ldr	r2, [r2, #0]
	mov	r0, r2
	blx	r3
	mov	r3, r0
	mov	r3, r3, asl #16
	mov	r3, r3, lsr #16
	mov	r3, r3, asl #16
	mov	r3, r3, asr #16
	mov	r3, r3, asr #3
	mov	r3, r3, asl #16
	mov	r3, r3, lsr #16
	mov	r2, r4, asl #16
	mov	r2, r2, asr #16
	mov	r3, r3, asl #16
	mov	r3, r3, asr #16
	ldr	r0, .L266+24
	mov	r1, r2
	mov	r2, r3
	bl	_ZN8CIwSVec2C1Ess
	ldr	r0, .L266+16
	bl	__cxa_guard_release
.L263:
	.loc 12 113 0
	ldr	r3, .L266+28
	ldr	r3, [r3, #0]
	and	r3, r3, #1
	cmp	r3, #0
	bne	.L264
	ldr	r0, .L266+28
	bl	__cxa_guard_acquire
	mov	r3, r0
	cmp	r3, #0
	moveq	r3, #0
	movne	r3, #1
	and	r3, r3, #255
	cmp	r3, #0
	beq	.L264
	ldr	r0, .L266+24
	mov	r1, #1
	bl	_ZNK8CIwSVec2rsEi
	strh	r0, [sp, #0]	@ movhi
	mov	r3, r0, lsr #16
	strh	r3, [sp, #2]	@ movhi
	ldr	r3, .L266+32
	ldr	r2, [sp, #0]
	str	r2, [r3, #0]
	ldr	r0, .L266+28
	bl	__cxa_guard_release
.L264:
	.loc 12 115 0
	bl	_Z19Iw2DGetSurfaceWidthv
	mov	r3, r0
	mov	r3, r3, asl #16
	mov	r3, r3, lsr #16
	mov	r3, r3, asl #16
	mov	r3, r3, asr #16
	mov	r3, r3, asr #1
	mov	r3, r3, asl #16
	mov	r4, r3, lsr #16
	bl	_Z20Iw2DGetSurfaceHeightv
	mov	r3, r0
	mov	r3, r3, asl #16
	mov	r3, r3, lsr #16
	mov	r3, r3, asl #16
	mov	r3, r3, asr #16
	mov	r3, r3, asr #1
	mov	r3, r3, asl #16
	mov	r3, r3, lsr #16
	add	r1, sp, #56
	mov	r2, r4, asl #16
	mov	r2, r2, asr #16
	mov	r3, r3, asl #16
	mov	r3, r3, asr #16
	mov	r0, r1
	mov	r1, r2
	mov	r2, r3
	bl	_ZN8CIwSVec2C1Ess
	.loc 12 117 0
	ldr	r3, .L266+36
	ldr	r3, [r3, #0]
	mov	r0, r3
	bl	_ZNK6b2Body12GetTransformEv
	mov	r3, r0
	add	ip, sp, #40
	ldmia	r3, {r0, r1, r2, r3}
	stmia	ip, {r0, r1, r2, r3}
	.loc 12 118 0
	flds	s14, [sp, #40]
	flds	s15, .L266
	fmuls	s15, s14, s15
	ftosizs	s15, s15
	fmrs	r3, s15	@ int
	mov	r3, r3, asl #16
	mov	r2, r3, lsr #16
	flds	s14, [sp, #44]
	flds	s15, .L266
	fmuls	s15, s14, s15
	ftosizs	s15, s15
	fmrs	r3, s15	@ int
	mov	r3, r3, asl #16
	mov	r3, r3, lsr #16
	rsb	r3, r3, #0
	mov	r3, r3, asl #16
	mov	r3, r3, lsr #16
	add	r1, sp, #60
	mov	r2, r2, asl #16
	mov	r2, r2, asr #16
	mov	r3, r3, asl #16
	mov	r3, r3, asr #16
	mov	r0, r1
	mov	r1, r2
	mov	r2, r3
	bl	_ZN8CIwSVec2C1Ess
	add	r2, sp, #56
	add	r3, sp, #60
	mov	r0, r2
	mov	r1, r3
	bl	_ZNK8CIwSVec2plERKS_
	strh	r0, [sp, #0]	@ movhi
	mov	r3, r0, lsr #16
	strh	r3, [sp, #2]	@ movhi
	ldr	r3, [sp, #0]
	str	r3, [sp, #36]
	.loc 12 119 0
	add	r3, sp, #40
	add	r3, r3, #8
	mov	r0, r3
	bl	_ZNK5b2Rot8GetAngleEv
	fmsr	s14, r0
	flds	s15, .L266+4
	fmuls	s15, s14, s15
	fsts	s15, [sp, #84]
	.loc 12 121 0
	add	r3, sp, #12
	mov	r0, r3
	bl	_ZN8CIwMat2DC1Ev
	.loc 12 122 0
	flds	s14, [sp, #84]
	flds	s15, .L266+8
	fmuls	s15, s14, s15
	flds	s14, .L266+12
	fdivs	s15, s15, s14
	ftosizs	s16, s15
	add	r2, sp, #72
	add	r3, sp, #36
	mov	r0, r2
	mov	r1, r3
	bl	_ZN7CIwVec2C1ERK8CIwSVec2
	add	r2, sp, #64
	add	r3, sp, #72
	mov	r0, r2
	mov	r1, r3
	mov	r2, #3
	bl	_ZNK7CIwVec2lsEi
	add	r2, sp, #12
	add	r3, sp, #64
	mov	r0, r2
	fmrs	r1, s16	@ int
	mov	r2, r3
	bl	_ZN8CIwMat2D6SetRotEiRK7CIwVec2
	.loc 12 123 0
	add	r3, sp, #12
	mov	r0, r3
	bl	_Z30Iw2DSetTransformMatrixSubPixelRK8CIwMat2D
	.loc 12 125 0
	ldr	r3, .L266+20
	ldr	r4, [r3, #0]
	add	r3, sp, #36
	mov	r0, r3
	ldr	r1, .L266+32
	bl	_ZNK8CIwSVec2miERKS_
	strh	r0, [sp, #0]	@ movhi
	mov	r3, r0, lsr #16
	strh	r3, [sp, #2]	@ movhi
	ldr	r3, [sp, #0]
	str	r3, [sp, #80]
	ldr	r3, .L266+24
	mov	r0, r4
	ldr	r1, [sp, #80]
	ldr	r2, [r3, #0]
	bl	_Z13Iw2DDrawImageP10CIw2DImage8CIwSVec2S1_
	.loc 12 128 0
	ldr	r0, .L266+40
	bl	_Z22Iw2DSetTransformMatrixRK8CIwMat2D
	.loc 12 129 0
	bl	_Z15Iw2DSurfaceShowv
.LBE19:
	.loc 12 130 0
	add	sp, sp, #88
	fldmfdd	sp!, {d8}
	ldmfd	sp!, {r4, pc}
.L267:
	.align	2
.L266:
	.word	1090519040
	.word	-1033556243
	.word	1149239296
	.word	1119092736
	.word	_ZGVZ13ExampleRendervE9imageSize
	.word	g_Image
	.word	_ZZ13ExampleRendervE9imageSize
	.word	_ZGVZ13ExampleRendervE13halfImageSize
	.word	_ZZ13ExampleRendervE13halfImageSize
	.word	g_body
	.word	_ZN8CIwMat2D10g_IdentityE
	.cfi_endproc
.LFE2991:
	.size	_Z13ExampleRenderv, .-_Z13ExampleRenderv
	.hidden	_ZTV7b2Shape
	.weak	_ZTV7b2Shape
	.section	.rodata._ZTV7b2Shape,"aG",%progbits,_ZTV7b2Shape,comdat
	.align	3
	.type	_ZTV7b2Shape, %object
	.size	_ZTV7b2Shape, 40
_ZTV7b2Shape:
	.word	0
	.word	_ZTI7b2Shape
	.word	_ZN7b2ShapeD1Ev
	.word	_ZN7b2ShapeD0Ev
	.word	__cxa_pure_virtual
	.word	__cxa_pure_virtual
	.word	__cxa_pure_virtual
	.word	__cxa_pure_virtual
	.word	__cxa_pure_virtual
	.word	__cxa_pure_virtual
	.hidden	_ZTS7b2Shape
	.weak	_ZTS7b2Shape
	.section	.rodata._ZTS7b2Shape,"aG",%progbits,_ZTS7b2Shape,comdat
	.align	2
	.type	_ZTS7b2Shape, %object
	.size	_ZTS7b2Shape, 9
_ZTS7b2Shape:
	.ascii	"7b2Shape\000"
	.hidden	_ZTI7b2Shape
	.weak	_ZTI7b2Shape
	.section	.rodata._ZTI7b2Shape,"aG",%progbits,_ZTI7b2Shape,comdat
	.align	2
	.type	_ZTI7b2Shape, %object
	.size	_ZTI7b2Shape, 8
_ZTI7b2Shape:
	.word	_ZTVN10__cxxabiv117__class_type_infoE+8
	.word	_ZTS7b2Shape
	.section	.text._Z41__static_initialization_and_destruction_0ii,"ax",%progbits
	.align	2
	.type	_Z41__static_initialization_and_destruction_0ii, %function
_Z41__static_initialization_and_destruction_0ii:
.LFB3142:
	.loc 12 130 0
	.cfi_startproc
	@ args = 0, pretend = 0, frame = 8
	@ frame_needed = 0, uses_anonymous_args = 0
	str	lr, [sp, #-4]!
.LCFI61:
	.cfi_def_cfa_offset 4
	sub	sp, sp, #12
.LCFI62:
	.cfi_def_cfa_offset 16
	str	r0, [sp, #4]
	str	r1, [sp, #0]
	.loc 12 130 0
	ldr	r3, [sp, #4]
	cmp	r3, #1
	bne	.L270
	.cfi_offset 14, -4
	ldr	r2, [sp, #0]
	ldr	r3, .L271
	cmp	r2, r3
	bne	.L270
	.loc 12 16 0
	ldr	r0, .L271+4
	ldr	r1, .L271+8	@ float
	ldr	r2, .L271+12	@ float
	bl	_ZN6b2Vec2C1Eff
.L270:
	.loc 12 130 0
	add	sp, sp, #12
	ldmfd	sp!, {pc}
.L272:
	.align	2
.L271:
	.word	65535
	.word	g_gravity
	.word	0
	.word	-1055077171
	.cfi_endproc
.LFE3142:
	.size	_Z41__static_initialization_and_destruction_0ii, .-_Z41__static_initialization_and_destruction_0ii
	.section	.rodata
	.align	2
	.type	_ZL12b2_chunkSize, %object
	.size	_ZL12b2_chunkSize, 4
_ZL12b2_chunkSize:
	.word	16384
	.align	2
	.type	_ZL15b2_maxBlockSize, %object
	.size	_ZL15b2_maxBlockSize, 4
_ZL15b2_maxBlockSize:
	.word	640
	.align	2
	.type	_ZL13b2_blockSizes, %object
	.size	_ZL13b2_blockSizes, 4
_ZL13b2_blockSizes:
	.word	14
	.align	2
	.type	_ZL22b2_chunkArrayIncrement, %object
	.size	_ZL22b2_chunkArrayIncrement, 4
_ZL22b2_chunkArrayIncrement:
	.word	128
	.type	_ZL14b2_nullFeature, %object
	.size	_ZL14b2_nullFeature, 1
_ZL14b2_nullFeature:
	.byte	-1
	.align	2
	.type	_ZL12b2_stackSize, %object
	.size	_ZL12b2_stackSize, 4
_ZL12b2_stackSize:
	.word	102400
	.align	2
	.type	_ZL18b2_maxStackEntries, %object
	.size	_ZL18b2_maxStackEntries, 4
_ZL18b2_maxStackEntries:
	.word	32
	.align	2
	.type	_ZL18b2_minPulleyLength, %object
	.size	_ZL18b2_minPulleyLength, 4
_ZL18b2_minPulleyLength:
	.word	1073741824
	.align	2
	.type	_ZL9physicsHz, %object
	.size	_ZL9physicsHz, 4
_ZL9physicsHz:
	.word	60
	.align	2
	.type	_ZL8timeStep, %object
	.size	_ZL8timeStep, 4
_ZL8timeStep:
	.word	1015580809
	.align	2
	.type	_ZL18velocityIterations, %object
	.size	_ZL18velocityIterations, 4
_ZL18velocityIterations:
	.word	10
	.align	2
	.type	_ZL18positionIterations, %object
	.size	_ZL18positionIterations, 4
_ZL18positionIterations:
	.word	8
	.align	2
	.type	_ZN4_STLL16__stl_chunk_sizeE, %object
	.size	_ZN4_STLL16__stl_chunk_sizeE, 4
_ZN4_STLL16__stl_chunk_sizeE:
	.word	7
	.section	.text._GLOBAL__I_g_gravity,"ax",%progbits
	.align	2
	.type	_GLOBAL__I_g_gravity, %function
_GLOBAL__I_g_gravity:
.LFB3223:
	.loc 12 130 0
	.cfi_startproc
	@ args = 0, pretend = 0, frame = 0
	@ frame_needed = 0, uses_anonymous_args = 0
	stmfd	sp!, {r3, lr}
.LCFI63:
	.cfi_def_cfa_offset 8
	.loc 12 130 0
	mov	r0, #1
	ldr	r1, .L275
	.cfi_offset 14, -4
	.cfi_offset 3, -8
	bl	_Z41__static_initialization_and_destruction_0ii
	ldmfd	sp!, {r3, pc}
.L276:
	.align	2
.L275:
	.word	65535
	.cfi_endproc
.LFE3223:
	.size	_GLOBAL__I_g_gravity, .-_GLOBAL__I_g_gravity
	.section	.init_array,"aw",%init_array
	.align	2
	.word	_GLOBAL__I_g_gravity(target1)
	.bss
	.align	2
_ZZ13ExampleRendervE9imageSize:
	.space	4
	.align	2
_ZZ13ExampleRendervE13halfImageSize:
	.space	4
	.hidden	_ZZNK8CIwSVec2plERKS_E21_s_IwAssertIgnoreThis
	.weak	_ZZNK8CIwSVec2plERKS_E21_s_IwAssertIgnoreThis
	.section	.bss._ZZNK8CIwSVec2plERKS_E21_s_IwAssertIgnoreThis,"awG",%nobits,_ZZNK8CIwSVec2plERKS_E21_s_IwAssertIgnoreThis,comdat
	.type	_ZZNK8CIwSVec2plERKS_E21_s_IwAssertIgnoreThis, %object
	.size	_ZZNK8CIwSVec2plERKS_E21_s_IwAssertIgnoreThis, 1
_ZZNK8CIwSVec2plERKS_E21_s_IwAssertIgnoreThis:
	.space	1
	.hidden	_ZZNK8CIwSVec2plERKS_E21_s_IwAssertIgnoreThis_0
	.weak	_ZZNK8CIwSVec2plERKS_E21_s_IwAssertIgnoreThis_0
	.section	.bss._ZZNK8CIwSVec2plERKS_E21_s_IwAssertIgnoreThis_0,"awG",%nobits,_ZZNK8CIwSVec2plERKS_E21_s_IwAssertIgnoreThis_0,comdat
	.type	_ZZNK8CIwSVec2plERKS_E21_s_IwAssertIgnoreThis_0, %object
	.size	_ZZNK8CIwSVec2plERKS_E21_s_IwAssertIgnoreThis_0, 1
_ZZNK8CIwSVec2plERKS_E21_s_IwAssertIgnoreThis_0:
	.space	1
	.hidden	_ZZNK7CIwVec2lsEiE21_s_IwAssertIgnoreThis
	.weak	_ZZNK7CIwVec2lsEiE21_s_IwAssertIgnoreThis
	.section	.bss._ZZNK7CIwVec2lsEiE21_s_IwAssertIgnoreThis,"awG",%nobits,_ZZNK7CIwVec2lsEiE21_s_IwAssertIgnoreThis,comdat
	.type	_ZZNK7CIwVec2lsEiE21_s_IwAssertIgnoreThis, %object
	.size	_ZZNK7CIwVec2lsEiE21_s_IwAssertIgnoreThis, 1
_ZZNK7CIwVec2lsEiE21_s_IwAssertIgnoreThis:
	.space	1
	.hidden	_ZZNK7CIwVec2lsEiE21_s_IwAssertIgnoreThis_0
	.weak	_ZZNK7CIwVec2lsEiE21_s_IwAssertIgnoreThis_0
	.section	.bss._ZZNK7CIwVec2lsEiE21_s_IwAssertIgnoreThis_0,"awG",%nobits,_ZZNK7CIwVec2lsEiE21_s_IwAssertIgnoreThis_0,comdat
	.type	_ZZNK7CIwVec2lsEiE21_s_IwAssertIgnoreThis_0, %object
	.size	_ZZNK7CIwVec2lsEiE21_s_IwAssertIgnoreThis_0, 1
_ZZNK7CIwVec2lsEiE21_s_IwAssertIgnoreThis_0:
	.space	1
	.bss
_ZZL13IW_FIXED_MUL2iiiiE21_s_IwAssertIgnoreThis:
	.space	1
_ZZL13IW_FIXED_MUL2iiiiE21_s_IwAssertIgnoreThis_0:
	.space	1
_ZZL13IW_FIXED_MUL2iiiiE21_s_IwAssertIgnoreThis_1:
	.space	1
	.hidden	_ZZNK7CIwVec2miERKS_E21_s_IwAssertIgnoreThis
	.weak	_ZZNK7CIwVec2miERKS_E21_s_IwAssertIgnoreThis
	.section	.bss._ZZNK7CIwVec2miERKS_E21_s_IwAssertIgnoreThis,"awG",%nobits,_ZZNK7CIwVec2miERKS_E21_s_IwAssertIgnoreThis,comdat
	.type	_ZZNK7CIwVec2miERKS_E21_s_IwAssertIgnoreThis, %object
	.size	_ZZNK7CIwVec2miERKS_E21_s_IwAssertIgnoreThis, 1
_ZZNK7CIwVec2miERKS_E21_s_IwAssertIgnoreThis:
	.space	1
	.hidden	_ZZNK7CIwVec2miERKS_E21_s_IwAssertIgnoreThis_0
	.weak	_ZZNK7CIwVec2miERKS_E21_s_IwAssertIgnoreThis_0
	.section	.bss._ZZNK7CIwVec2miERKS_E21_s_IwAssertIgnoreThis_0,"awG",%nobits,_ZZNK7CIwVec2miERKS_E21_s_IwAssertIgnoreThis_0,comdat
	.type	_ZZNK7CIwVec2miERKS_E21_s_IwAssertIgnoreThis_0, %object
	.size	_ZZNK7CIwVec2miERKS_E21_s_IwAssertIgnoreThis_0, 1
_ZZNK7CIwVec2miERKS_E21_s_IwAssertIgnoreThis_0:
	.space	1
	.hidden	_ZZNK8CIwSVec2miERKS_E21_s_IwAssertIgnoreThis
	.weak	_ZZNK8CIwSVec2miERKS_E21_s_IwAssertIgnoreThis
	.section	.bss._ZZNK8CIwSVec2miERKS_E21_s_IwAssertIgnoreThis,"awG",%nobits,_ZZNK8CIwSVec2miERKS_E21_s_IwAssertIgnoreThis,comdat
	.type	_ZZNK8CIwSVec2miERKS_E21_s_IwAssertIgnoreThis, %object
	.size	_ZZNK8CIwSVec2miERKS_E21_s_IwAssertIgnoreThis, 1
_ZZNK8CIwSVec2miERKS_E21_s_IwAssertIgnoreThis:
	.space	1
	.hidden	_ZZNK8CIwSVec2miERKS_E21_s_IwAssertIgnoreThis_0
	.weak	_ZZNK8CIwSVec2miERKS_E21_s_IwAssertIgnoreThis_0
	.section	.bss._ZZNK8CIwSVec2miERKS_E21_s_IwAssertIgnoreThis_0,"awG",%nobits,_ZZNK8CIwSVec2miERKS_E21_s_IwAssertIgnoreThis_0,comdat
	.type	_ZZNK8CIwSVec2miERKS_E21_s_IwAssertIgnoreThis_0, %object
	.size	_ZZNK8CIwSVec2miERKS_E21_s_IwAssertIgnoreThis_0, 1
_ZZNK8CIwSVec2miERKS_E21_s_IwAssertIgnoreThis_0:
	.space	1
	.text
.Letext0: